
main.exe:     file format pei-i386


Disassembly of section .text:

00401000 <__gnu_exception_handler@4>:
  401000:	53                   	push   ebx
  401001:	83 ec 18             	sub    esp,0x18
  401004:	8b 44 24 20          	mov    eax,DWORD PTR [esp+0x20]
  401008:	8b 00                	mov    eax,DWORD PTR [eax]
  40100a:	8b 00                	mov    eax,DWORD PTR [eax]
  40100c:	3d 91 00 00 c0       	cmp    eax,0xc0000091
  401011:	77 4d                	ja     401060 <__gnu_exception_handler@4+0x60>
  401013:	3d 8d 00 00 c0       	cmp    eax,0xc000008d
  401018:	73 5b                	jae    401075 <__gnu_exception_handler@4+0x75>
  40101a:	3d 05 00 00 c0       	cmp    eax,0xc0000005
  40101f:	0f 85 8e 00 00 00    	jne    4010b3 <__gnu_exception_handler@4+0xb3>
  401025:	c7 44 24 04 00 00 00 	mov    DWORD PTR [esp+0x4],0x0
  40102c:	00 
  40102d:	c7 04 24 0b 00 00 00 	mov    DWORD PTR [esp],0xb
  401034:	e8 5f 6f 00 00       	call   407f98 <_signal>
  401039:	83 f8 01             	cmp    eax,0x1
  40103c:	0f 84 c1 00 00 00    	je     401103 <__gnu_exception_handler@4+0x103>
  401042:	85 c0                	test   eax,eax
  401044:	0f 85 a6 00 00 00    	jne    4010f0 <__gnu_exception_handler@4+0xf0>
  40104a:	8d b6 00 00 00 00    	lea    esi,[esi+0x0]
  401050:	31 c0                	xor    eax,eax
  401052:	83 c4 18             	add    esp,0x18
  401055:	5b                   	pop    ebx
  401056:	c2 04 00             	ret    0x4
  401059:	8d b4 26 00 00 00 00 	lea    esi,[esi+eiz*1+0x0]
  401060:	3d 94 00 00 c0       	cmp    eax,0xc0000094
  401065:	74 19                	je     401080 <__gnu_exception_handler@4+0x80>
  401067:	3d 96 00 00 c0       	cmp    eax,0xc0000096
  40106c:	74 4c                	je     4010ba <__gnu_exception_handler@4+0xba>
  40106e:	3d 93 00 00 c0       	cmp    eax,0xc0000093
  401073:	75 db                	jne    401050 <__gnu_exception_handler@4+0x50>
  401075:	bb 01 00 00 00       	mov    ebx,0x1
  40107a:	eb 06                	jmp    401082 <__gnu_exception_handler@4+0x82>
  40107c:	8d 74 26 00          	lea    esi,[esi+eiz*1+0x0]
  401080:	31 db                	xor    ebx,ebx
  401082:	c7 44 24 04 00 00 00 	mov    DWORD PTR [esp+0x4],0x0
  401089:	00 
  40108a:	c7 04 24 08 00 00 00 	mov    DWORD PTR [esp],0x8
  401091:	e8 02 6f 00 00       	call   407f98 <_signal>
  401096:	83 f8 01             	cmp    eax,0x1
  401099:	0f 84 a1 00 00 00    	je     401140 <__gnu_exception_handler@4+0x140>
  40109f:	85 c0                	test   eax,eax
  4010a1:	74 ad                	je     401050 <__gnu_exception_handler@4+0x50>
  4010a3:	c7 04 24 08 00 00 00 	mov    DWORD PTR [esp],0x8
  4010aa:	ff d0                	call   eax
  4010ac:	b8 ff ff ff ff       	mov    eax,0xffffffff
  4010b1:	eb 9f                	jmp    401052 <__gnu_exception_handler@4+0x52>
  4010b3:	3d 1d 00 00 c0       	cmp    eax,0xc000001d
  4010b8:	75 96                	jne    401050 <__gnu_exception_handler@4+0x50>
  4010ba:	c7 44 24 04 00 00 00 	mov    DWORD PTR [esp+0x4],0x0
  4010c1:	00 
  4010c2:	c7 04 24 04 00 00 00 	mov    DWORD PTR [esp],0x4
  4010c9:	e8 ca 6e 00 00       	call   407f98 <_signal>
  4010ce:	83 f8 01             	cmp    eax,0x1
  4010d1:	74 4c                	je     40111f <__gnu_exception_handler@4+0x11f>
  4010d3:	85 c0                	test   eax,eax
  4010d5:	0f 84 75 ff ff ff    	je     401050 <__gnu_exception_handler@4+0x50>
  4010db:	c7 04 24 04 00 00 00 	mov    DWORD PTR [esp],0x4
  4010e2:	ff d0                	call   eax
  4010e4:	b8 ff ff ff ff       	mov    eax,0xffffffff
  4010e9:	e9 64 ff ff ff       	jmp    401052 <__gnu_exception_handler@4+0x52>
  4010ee:	66 90                	xchg   ax,ax
  4010f0:	c7 04 24 0b 00 00 00 	mov    DWORD PTR [esp],0xb
  4010f7:	ff d0                	call   eax
  4010f9:	b8 ff ff ff ff       	mov    eax,0xffffffff
  4010fe:	e9 4f ff ff ff       	jmp    401052 <__gnu_exception_handler@4+0x52>
  401103:	c7 44 24 04 01 00 00 	mov    DWORD PTR [esp+0x4],0x1
  40110a:	00 
  40110b:	c7 04 24 0b 00 00 00 	mov    DWORD PTR [esp],0xb
  401112:	e8 81 6e 00 00       	call   407f98 <_signal>
  401117:	83 c8 ff             	or     eax,0xffffffff
  40111a:	e9 33 ff ff ff       	jmp    401052 <__gnu_exception_handler@4+0x52>
  40111f:	c7 44 24 04 01 00 00 	mov    DWORD PTR [esp+0x4],0x1
  401126:	00 
  401127:	c7 04 24 04 00 00 00 	mov    DWORD PTR [esp],0x4
  40112e:	e8 65 6e 00 00       	call   407f98 <_signal>
  401133:	83 c8 ff             	or     eax,0xffffffff
  401136:	e9 17 ff ff ff       	jmp    401052 <__gnu_exception_handler@4+0x52>
  40113b:	90                   	nop
  40113c:	8d 74 26 00          	lea    esi,[esi+eiz*1+0x0]
  401140:	c7 44 24 04 01 00 00 	mov    DWORD PTR [esp+0x4],0x1
  401147:	00 
  401148:	c7 04 24 08 00 00 00 	mov    DWORD PTR [esp],0x8
  40114f:	e8 44 6e 00 00       	call   407f98 <_signal>
  401154:	85 db                	test   ebx,ebx
  401156:	b8 ff ff ff ff       	mov    eax,0xffffffff
  40115b:	0f 84 f1 fe ff ff    	je     401052 <__gnu_exception_handler@4+0x52>
  401161:	89 44 24 0c          	mov    DWORD PTR [esp+0xc],eax
  401165:	e8 f6 06 00 00       	call   401860 <__fpreset>
  40116a:	8b 44 24 0c          	mov    eax,DWORD PTR [esp+0xc]
  40116e:	e9 df fe ff ff       	jmp    401052 <__gnu_exception_handler@4+0x52>
  401173:	8d b6 00 00 00 00    	lea    esi,[esi+0x0]
  401179:	8d bc 27 00 00 00 00 	lea    edi,[edi+eiz*1+0x0]

00401180 <___mingw_CRTStartup>:
  401180:	55                   	push   ebp
  401181:	89 e5                	mov    ebp,esp
  401183:	53                   	push   ebx
  401184:	83 ec 14             	sub    esp,0x14
  401187:	a1 64 a0 40 00       	mov    eax,ds:0x40a064
  40118c:	85 c0                	test   eax,eax
  40118e:	74 1c                	je     4011ac <___mingw_CRTStartup+0x2c>
  401190:	c7 44 24 08 00 00 00 	mov    DWORD PTR [esp+0x8],0x0
  401197:	00 
  401198:	c7 44 24 04 02 00 00 	mov    DWORD PTR [esp+0x4],0x2
  40119f:	00 
  4011a0:	c7 04 24 00 00 00 00 	mov    DWORD PTR [esp],0x0
  4011a7:	ff d0                	call   eax
  4011a9:	83 ec 0c             	sub    esp,0xc
  4011ac:	c7 04 24 00 10 40 00 	mov    DWORD PTR [esp],0x401000
  4011b3:	e8 c0 6e 00 00       	call   408078 <_SetUnhandledExceptionFilter@4>
  4011b8:	83 ec 04             	sub    esp,0x4
  4011bb:	e8 c0 05 00 00       	call   401780 <___cpu_features_init>
  4011c0:	e8 9b 06 00 00       	call   401860 <__fpreset>
  4011c5:	e8 a6 02 00 00       	call   401470 <__setargv>
  4011ca:	a1 20 d0 40 00       	mov    eax,ds:0x40d020
  4011cf:	85 c0                	test   eax,eax
  4011d1:	74 42                	je     401215 <___mingw_CRTStartup+0x95>
  4011d3:	8b 1d c8 e1 40 00    	mov    ebx,DWORD PTR ds:0x40e1c8
  4011d9:	a3 04 90 40 00       	mov    ds:0x409004,eax
  4011de:	89 44 24 04          	mov    DWORD PTR [esp+0x4],eax
  4011e2:	8b 43 10             	mov    eax,DWORD PTR [ebx+0x10]
  4011e5:	89 04 24             	mov    DWORD PTR [esp],eax
  4011e8:	e8 2b 6e 00 00       	call   408018 <__setmode>
  4011ed:	a1 20 d0 40 00       	mov    eax,ds:0x40d020
  4011f2:	89 44 24 04          	mov    DWORD PTR [esp+0x4],eax
  4011f6:	8b 43 30             	mov    eax,DWORD PTR [ebx+0x30]
  4011f9:	89 04 24             	mov    DWORD PTR [esp],eax
  4011fc:	e8 17 6e 00 00       	call   408018 <__setmode>
  401201:	a1 20 d0 40 00       	mov    eax,ds:0x40d020
  401206:	89 44 24 04          	mov    DWORD PTR [esp+0x4],eax
  40120a:	8b 43 50             	mov    eax,DWORD PTR [ebx+0x50]
  40120d:	89 04 24             	mov    DWORD PTR [esp],eax
  401210:	e8 03 6e 00 00       	call   408018 <__setmode>
  401215:	e8 1e 6e 00 00       	call   408038 <___p__fmode>
  40121a:	8b 15 04 90 40 00    	mov    edx,DWORD PTR ds:0x409004
  401220:	89 10                	mov    DWORD PTR [eax],edx
  401222:	e8 59 0b 00 00       	call   401d80 <__pei386_runtime_relocator>
  401227:	83 e4 f0             	and    esp,0xfffffff0
  40122a:	e8 c1 06 00 00       	call   4018f0 <___main>
  40122f:	e8 0c 6e 00 00       	call   408040 <___p__environ>
  401234:	8b 00                	mov    eax,DWORD PTR [eax]
  401236:	89 44 24 08          	mov    DWORD PTR [esp+0x8],eax
  40123a:	a1 00 d0 40 00       	mov    eax,ds:0x40d000
  40123f:	89 44 24 04          	mov    DWORD PTR [esp+0x4],eax
  401243:	a1 04 d0 40 00       	mov    eax,ds:0x40d004
  401248:	89 04 24             	mov    DWORD PTR [esp],eax
  40124b:	e8 90 01 00 00       	call   4013e0 <_main>
  401250:	89 c3                	mov    ebx,eax
  401252:	e8 d9 6d 00 00       	call   408030 <__cexit>
  401257:	89 1c 24             	mov    DWORD PTR [esp],ebx
  40125a:	e8 81 6e 00 00       	call   4080e0 <_ExitProcess@4>
  40125f:	90                   	nop

00401260 <__mingw32_init_mainargs>:
  401260:	83 ec 3c             	sub    esp,0x3c
  401263:	8d 44 24 2c          	lea    eax,[esp+0x2c]
  401267:	89 44 24 10          	mov    DWORD PTR [esp+0x10],eax
  40126b:	a1 00 90 40 00       	mov    eax,ds:0x409000
  401270:	c7 44 24 04 00 d0 40 	mov    DWORD PTR [esp+0x4],0x40d000
  401277:	00 
  401278:	c7 04 24 04 d0 40 00 	mov    DWORD PTR [esp],0x40d004
  40127f:	c7 44 24 2c 00 00 00 	mov    DWORD PTR [esp+0x2c],0x0
  401286:	00 
  401287:	83 e0 01             	and    eax,0x1
  40128a:	89 44 24 0c          	mov    DWORD PTR [esp+0xc],eax
  40128e:	8d 44 24 28          	lea    eax,[esp+0x28]
  401292:	89 44 24 08          	mov    DWORD PTR [esp+0x8],eax
  401296:	e8 ad 6d 00 00       	call   408048 <___getmainargs>
  40129b:	83 c4 3c             	add    esp,0x3c
  40129e:	c3                   	ret    
  40129f:	90                   	nop

004012a0 <_mainCRTStartup>:
  4012a0:	83 ec 1c             	sub    esp,0x1c
  4012a3:	c7 04 24 01 00 00 00 	mov    DWORD PTR [esp],0x1
  4012aa:	ff 15 b8 e1 40 00    	call   DWORD PTR ds:0x40e1b8
  4012b0:	e8 cb fe ff ff       	call   401180 <___mingw_CRTStartup>
  4012b5:	8d 74 26 00          	lea    esi,[esi+eiz*1+0x0]
  4012b9:	8d bc 27 00 00 00 00 	lea    edi,[edi+eiz*1+0x0]

004012c0 <_WinMainCRTStartup>:
  4012c0:	83 ec 1c             	sub    esp,0x1c
  4012c3:	c7 04 24 02 00 00 00 	mov    DWORD PTR [esp],0x2
  4012ca:	ff 15 b8 e1 40 00    	call   DWORD PTR ds:0x40e1b8
  4012d0:	e8 ab fe ff ff       	call   401180 <___mingw_CRTStartup>
  4012d5:	8d 74 26 00          	lea    esi,[esi+eiz*1+0x0]
  4012d9:	8d bc 27 00 00 00 00 	lea    edi,[edi+eiz*1+0x0]

004012e0 <_atexit>:
  4012e0:	a1 d8 e1 40 00       	mov    eax,ds:0x40e1d8
  4012e5:	ff e0                	jmp    eax
  4012e7:	89 f6                	mov    esi,esi
  4012e9:	8d bc 27 00 00 00 00 	lea    edi,[edi+eiz*1+0x0]

004012f0 <__onexit>:
  4012f0:	a1 cc e1 40 00       	mov    eax,ds:0x40e1cc
  4012f5:	ff e0                	jmp    eax
  4012f7:	90                   	nop
  4012f8:	90                   	nop
  4012f9:	90                   	nop
  4012fa:	90                   	nop
  4012fb:	90                   	nop
  4012fc:	90                   	nop
  4012fd:	90                   	nop
  4012fe:	90                   	nop
  4012ff:	90                   	nop

00401300 <___gcc_register_frame>:
  401300:	55                   	push   ebp
  401301:	89 e5                	mov    ebp,esp
  401303:	83 ec 18             	sub    esp,0x18
  401306:	c7 04 24 00 a0 40 00 	mov    DWORD PTR [esp],0x40a000
  40130d:	e8 9e 6d 00 00       	call   4080b0 <_GetModuleHandleA@4>
  401312:	ba 00 00 00 00       	mov    edx,0x0
  401317:	83 ec 04             	sub    esp,0x4
  40131a:	85 c0                	test   eax,eax
  40131c:	74 15                	je     401333 <___gcc_register_frame+0x33>
  40131e:	c7 44 24 04 13 a0 40 	mov    DWORD PTR [esp+0x4],0x40a013
  401325:	00 
  401326:	89 04 24             	mov    DWORD PTR [esp],eax
  401329:	e8 7a 6d 00 00       	call   4080a8 <_GetProcAddress@8>
  40132e:	83 ec 08             	sub    esp,0x8
  401331:	89 c2                	mov    edx,eax
  401333:	85 d2                	test   edx,edx
  401335:	74 11                	je     401348 <___gcc_register_frame+0x48>
  401337:	c7 44 24 04 08 d0 40 	mov    DWORD PTR [esp+0x4],0x40d008
  40133e:	00 
  40133f:	c7 04 24 c0 b0 40 00 	mov    DWORD PTR [esp],0x40b0c0
  401346:	ff d2                	call   edx
  401348:	a1 24 90 40 00       	mov    eax,ds:0x409024
  40134d:	85 c0                	test   eax,eax
  40134f:	74 3a                	je     40138b <___gcc_register_frame+0x8b>
  401351:	c7 04 24 29 a0 40 00 	mov    DWORD PTR [esp],0x40a029
  401358:	e8 53 6d 00 00       	call   4080b0 <_GetModuleHandleA@4>
  40135d:	ba 00 00 00 00       	mov    edx,0x0
  401362:	83 ec 04             	sub    esp,0x4
  401365:	85 c0                	test   eax,eax
  401367:	74 15                	je     40137e <___gcc_register_frame+0x7e>
  401369:	c7 44 24 04 37 a0 40 	mov    DWORD PTR [esp+0x4],0x40a037
  401370:	00 
  401371:	89 04 24             	mov    DWORD PTR [esp],eax
  401374:	e8 2f 6d 00 00       	call   4080a8 <_GetProcAddress@8>
  401379:	83 ec 08             	sub    esp,0x8
  40137c:	89 c2                	mov    edx,eax
  40137e:	85 d2                	test   edx,edx
  401380:	74 09                	je     40138b <___gcc_register_frame+0x8b>
  401382:	c7 04 24 24 90 40 00 	mov    DWORD PTR [esp],0x409024
  401389:	ff d2                	call   edx
  40138b:	c9                   	leave  
  40138c:	c3                   	ret    
  40138d:	8d 76 00             	lea    esi,[esi+0x0]

00401390 <___gcc_deregister_frame>:
  401390:	55                   	push   ebp
  401391:	89 e5                	mov    ebp,esp
  401393:	83 ec 18             	sub    esp,0x18
  401396:	c7 04 24 00 a0 40 00 	mov    DWORD PTR [esp],0x40a000
  40139d:	e8 0e 6d 00 00       	call   4080b0 <_GetModuleHandleA@4>
  4013a2:	ba 00 00 00 00       	mov    edx,0x0
  4013a7:	83 ec 04             	sub    esp,0x4
  4013aa:	85 c0                	test   eax,eax
  4013ac:	74 15                	je     4013c3 <___gcc_deregister_frame+0x33>
  4013ae:	c7 44 24 04 4b a0 40 	mov    DWORD PTR [esp+0x4],0x40a04b
  4013b5:	00 
  4013b6:	89 04 24             	mov    DWORD PTR [esp],eax
  4013b9:	e8 ea 6c 00 00       	call   4080a8 <_GetProcAddress@8>
  4013be:	83 ec 08             	sub    esp,0x8
  4013c1:	89 c2                	mov    edx,eax
  4013c3:	85 d2                	test   edx,edx
  4013c5:	74 09                	je     4013d0 <___gcc_deregister_frame+0x40>
  4013c7:	c7 04 24 c0 b0 40 00 	mov    DWORD PTR [esp],0x40b0c0
  4013ce:	ff d2                	call   edx
  4013d0:	c9                   	leave  
  4013d1:	c3                   	ret    
  4013d2:	90                   	nop
  4013d3:	90                   	nop
  4013d4:	90                   	nop
  4013d5:	90                   	nop
  4013d6:	90                   	nop
  4013d7:	90                   	nop
  4013d8:	90                   	nop
  4013d9:	90                   	nop
  4013da:	90                   	nop
  4013db:	90                   	nop
  4013dc:	90                   	nop
  4013dd:	90                   	nop
  4013de:	90                   	nop
  4013df:	90                   	nop

004013e0 <_main>:
  4013e0:	55                   	push   ebp
  4013e1:	89 e5                	mov    ebp,esp
  4013e3:	83 e4 f0             	and    esp,0xfffffff0
  4013e6:	83 ec 30             	sub    esp,0x30
  4013e9:	e8 02 05 00 00       	call   4018f0 <___main>
  4013ee:	8d 44 24 14          	lea    eax,[esp+0x14]
  4013f2:	c7 00 48 65 6c 6c    	mov    DWORD PTR [eax],0x6c6c6548
  4013f8:	c7 40 04 6f 2c 20 57 	mov    DWORD PTR [eax+0x4],0x57202c6f
  4013ff:	c7 40 08 6f 72 6c 64 	mov    DWORD PTR [eax+0x8],0x646c726f
  401406:	66 c7 40 0c 21 0a    	mov    WORD PTR [eax+0xc],0xa21
  40140c:	c6 40 0e 00          	mov    BYTE PTR [eax+0xe],0x0
  401410:	8d 44 24 14          	lea    eax,[esp+0x14]
  401414:	89 44 24 2c          	mov    DWORD PTR [esp+0x2c],eax
  401418:	8b 44 24 2c          	mov    eax,DWORD PTR [esp+0x2c]
  40141c:	89 04 24             	mov    DWORD PTR [esp],eax
  40141f:	e8 8c 6b 00 00       	call   407fb0 <_printf>
  401424:	8b 44 24 2c          	mov    eax,DWORD PTR [esp+0x2c]
  401428:	83 c0 02             	add    eax,0x2
  40142b:	89 44 24 28          	mov    DWORD PTR [esp+0x28],eax
  40142f:	8b 44 24 28          	mov    eax,DWORD PTR [esp+0x28]
  401433:	89 04 24             	mov    DWORD PTR [esp],eax
  401436:	e8 75 6b 00 00       	call   407fb0 <_printf>
  40143b:	8b 44 24 28          	mov    eax,DWORD PTR [esp+0x28]
  40143f:	c7 00 79 20 79 6f    	mov    DWORD PTR [eax],0x6f792079
  401445:	c7 40 04 75 20 67 75 	mov    DWORD PTR [eax+0x4],0x75672075
  40144c:	c7 40 08 79 73 21 0a 	mov    DWORD PTR [eax+0x8],0xa217379
  401453:	c6 40 0c 00          	mov    BYTE PTR [eax+0xc],0x0
  401457:	8b 44 24 2c          	mov    eax,DWORD PTR [esp+0x2c]
  40145b:	89 04 24             	mov    DWORD PTR [esp],eax
  40145e:	e8 4d 6b 00 00       	call   407fb0 <_printf>
  401463:	b8 00 00 00 00       	mov    eax,0x0
  401468:	c9                   	leave  
  401469:	c3                   	ret    
  40146a:	90                   	nop
  40146b:	90                   	nop

0040146c <.text>:
  40146c:	66 90                	xchg   ax,ax
  40146e:	66 90                	xchg   ax,ax

00401470 <__setargv>:
  401470:	55                   	push   ebp
  401471:	89 e5                	mov    ebp,esp
  401473:	57                   	push   edi
  401474:	56                   	push   esi
  401475:	53                   	push   ebx
  401476:	83 ec 4c             	sub    esp,0x4c
  401479:	f6 05 00 90 40 00 02 	test   BYTE PTR ds:0x409000,0x2
  401480:	0f 84 ba 02 00 00    	je     401740 <__setargv+0x2d0>
  401486:	e8 35 6c 00 00       	call   4080c0 <_GetCommandLineA@0>
  40148b:	89 65 c0             	mov    DWORD PTR [ebp-0x40],esp
  40148e:	89 04 24             	mov    DWORD PTR [esp],eax
  401491:	89 c6                	mov    esi,eax
  401493:	e8 e8 6a 00 00       	call   407f80 <_strlen>
  401498:	8d 44 00 11          	lea    eax,[eax+eax*1+0x11]
  40149c:	83 e0 f0             	and    eax,0xfffffff0
  40149f:	e8 bc 0a 00 00       	call   401f60 <___chkstk_ms>
  4014a4:	29 c4                	sub    esp,eax
  4014a6:	8d 44 24 10          	lea    eax,[esp+0x10]
  4014aa:	89 c2                	mov    edx,eax
  4014ac:	89 45 c4             	mov    DWORD PTR [ebp-0x3c],eax
  4014af:	a1 00 90 40 00       	mov    eax,ds:0x409000
  4014b4:	c7 45 e4 00 00 00 00 	mov    DWORD PTR [ebp-0x1c],0x0
  4014bb:	c7 45 d0 00 00 00 00 	mov    DWORD PTR [ebp-0x30],0x0
  4014c2:	c7 45 cc 00 00 00 00 	mov    DWORD PTR [ebp-0x34],0x0
  4014c9:	83 e0 40             	and    eax,0x40
  4014cc:	83 f8 01             	cmp    eax,0x1
  4014cf:	19 c0                	sbb    eax,eax
  4014d1:	89 45 c8             	mov    DWORD PTR [ebp-0x38],eax
  4014d4:	31 c0                	xor    eax,eax
  4014d6:	81 65 c8 00 c0 ff ff 	and    DWORD PTR [ebp-0x38],0xffffc000
  4014dd:	81 45 c8 10 40 00 00 	add    DWORD PTR [ebp-0x38],0x4010
  4014e4:	89 55 d4             	mov    DWORD PTR [ebp-0x2c],edx
  4014e7:	83 c6 01             	add    esi,0x1
  4014ea:	0f b6 5e ff          	movzx  ebx,BYTE PTR [esi-0x1]
  4014ee:	0f be cb             	movsx  ecx,bl
  4014f1:	85 c9                	test   ecx,ecx
  4014f3:	74 7b                	je     401570 <__setargv+0x100>
  4014f5:	80 fb 3f             	cmp    bl,0x3f
  4014f8:	0f 84 13 01 00 00    	je     401611 <__setargv+0x1a1>
  4014fe:	0f 8f ec 00 00 00    	jg     4015f0 <__setargv+0x180>
  401504:	80 fb 27             	cmp    bl,0x27
  401507:	0f 84 e3 01 00 00    	je     4016f0 <__setargv+0x280>
  40150d:	80 fb 2a             	cmp    bl,0x2a
  401510:	0f 84 fb 00 00 00    	je     401611 <__setargv+0x1a1>
  401516:	80 fb 22             	cmp    bl,0x22
  401519:	0f 85 36 01 00 00    	jne    401655 <__setargv+0x1e5>
  40151f:	89 c3                	mov    ebx,eax
  401521:	d1 fb                	sar    ebx,1
  401523:	0f 84 3e 02 00 00    	je     401767 <__setargv+0x2f7>
  401529:	8b 55 d4             	mov    edx,DWORD PTR [ebp-0x2c]
  40152c:	01 d3                	add    ebx,edx
  40152e:	66 90                	xchg   ax,ax
  401530:	83 c2 01             	add    edx,0x1
  401533:	39 da                	cmp    edx,ebx
  401535:	c6 42 ff 5c          	mov    BYTE PTR [edx-0x1],0x5c
  401539:	75 f5                	jne    401530 <__setargv+0xc0>
  40153b:	a8 01                	test   al,0x1
  40153d:	0f 85 93 00 00 00    	jne    4015d6 <__setargv+0x166>
  401543:	83 7d d0 27          	cmp    DWORD PTR [ebp-0x30],0x27
  401547:	0f 84 89 00 00 00    	je     4015d6 <__setargv+0x166>
  40154d:	83 c6 01             	add    esi,0x1
  401550:	31 c0                	xor    eax,eax
  401552:	89 5d d4             	mov    DWORD PTR [ebp-0x2c],ebx
  401555:	0f b6 5e ff          	movzx  ebx,BYTE PTR [esi-0x1]
  401559:	31 4d d0             	xor    DWORD PTR [ebp-0x30],ecx
  40155c:	c7 45 cc 01 00 00 00 	mov    DWORD PTR [ebp-0x34],0x1
  401563:	0f be cb             	movsx  ecx,bl
  401566:	85 c9                	test   ecx,ecx
  401568:	75 8b                	jne    4014f5 <__setargv+0x85>
  40156a:	8d b6 00 00 00 00    	lea    esi,[esi+0x0]
  401570:	85 c0                	test   eax,eax
  401572:	8b 55 d4             	mov    edx,DWORD PTR [ebp-0x2c]
  401575:	0f 84 f4 01 00 00    	je     40176f <__setargv+0x2ff>
  40157b:	01 d0                	add    eax,edx
  40157d:	8d 76 00             	lea    esi,[esi+0x0]
  401580:	83 c2 01             	add    edx,0x1
  401583:	39 c2                	cmp    edx,eax
  401585:	c6 42 ff 5c          	mov    BYTE PTR [edx-0x1],0x5c
  401589:	75 f5                	jne    401580 <__setargv+0x110>
  40158b:	8b 55 cc             	mov    edx,DWORD PTR [ebp-0x34]
  40158e:	85 d2                	test   edx,edx
  401590:	75 05                	jne    401597 <__setargv+0x127>
  401592:	39 45 c4             	cmp    DWORD PTR [ebp-0x3c],eax
  401595:	73 24                	jae    4015bb <__setargv+0x14b>
  401597:	c6 00 00             	mov    BYTE PTR [eax],0x0
  40159a:	8d 45 d8             	lea    eax,[ebp-0x28]
  40159d:	89 44 24 0c          	mov    DWORD PTR [esp+0xc],eax
  4015a1:	c7 44 24 08 00 00 00 	mov    DWORD PTR [esp+0x8],0x0
  4015a8:	00 
  4015a9:	8b 45 c8             	mov    eax,DWORD PTR [ebp-0x38]
  4015ac:	89 44 24 04          	mov    DWORD PTR [esp+0x4],eax
  4015b0:	8b 45 c4             	mov    eax,DWORD PTR [ebp-0x3c]
  4015b3:	89 04 24             	mov    DWORD PTR [esp],eax
  4015b6:	e8 d5 15 00 00       	call   402b90 <___mingw_glob>
  4015bb:	8b 45 dc             	mov    eax,DWORD PTR [ebp-0x24]
  4015be:	a3 04 d0 40 00       	mov    ds:0x40d004,eax
  4015c3:	8b 45 e0             	mov    eax,DWORD PTR [ebp-0x20]
  4015c6:	a3 00 d0 40 00       	mov    ds:0x40d000,eax
  4015cb:	8b 65 c0             	mov    esp,DWORD PTR [ebp-0x40]
  4015ce:	8d 65 f4             	lea    esp,[ebp-0xc]
  4015d1:	5b                   	pop    ebx
  4015d2:	5e                   	pop    esi
  4015d3:	5f                   	pop    edi
  4015d4:	5d                   	pop    ebp
  4015d5:	c3                   	ret    
  4015d6:	8d 43 01             	lea    eax,[ebx+0x1]
  4015d9:	89 45 d4             	mov    DWORD PTR [ebp-0x2c],eax
  4015dc:	31 c0                	xor    eax,eax
  4015de:	c6 03 22             	mov    BYTE PTR [ebx],0x22
  4015e1:	c7 45 cc 01 00 00 00 	mov    DWORD PTR [ebp-0x34],0x1
  4015e8:	e9 fa fe ff ff       	jmp    4014e7 <__setargv+0x77>
  4015ed:	8d 76 00             	lea    esi,[esi+0x0]
  4015f0:	80 fb 5c             	cmp    bl,0x5c
  4015f3:	0f 84 3f 01 00 00    	je     401738 <__setargv+0x2c8>
  4015f9:	80 fb 7f             	cmp    bl,0x7f
  4015fc:	74 13                	je     401611 <__setargv+0x1a1>
  4015fe:	80 fb 5b             	cmp    bl,0x5b
  401601:	75 52                	jne    401655 <__setargv+0x1e5>
  401603:	f6 05 00 90 40 00 20 	test   BYTE PTR ds:0x409000,0x20
  40160a:	bf 01 00 00 00       	mov    edi,0x1
  40160f:	74 0a                	je     40161b <__setargv+0x1ab>
  401611:	8b 55 d0             	mov    edx,DWORD PTR [ebp-0x30]
  401614:	85 d2                	test   edx,edx
  401616:	0f 95 c2             	setne  dl
  401619:	89 d7                	mov    edi,edx
  40161b:	85 c0                	test   eax,eax
  40161d:	0f 84 34 01 00 00    	je     401757 <__setargv+0x2e7>
  401623:	8b 55 d4             	mov    edx,DWORD PTR [ebp-0x2c]
  401626:	01 d0                	add    eax,edx
  401628:	83 c2 01             	add    edx,0x1
  40162b:	39 c2                	cmp    edx,eax
  40162d:	c6 42 ff 5c          	mov    BYTE PTR [edx-0x1],0x5c
  401631:	75 f5                	jne    401628 <__setargv+0x1b8>
  401633:	89 fa                	mov    edx,edi
  401635:	84 d2                	test   dl,dl
  401637:	0f 85 a3 00 00 00    	jne    4016e0 <__setargv+0x270>
  40163d:	83 f9 7f             	cmp    ecx,0x7f
  401640:	0f 84 9a 00 00 00    	je     4016e0 <__setargv+0x270>
  401646:	8d 48 01             	lea    ecx,[eax+0x1]
  401649:	88 18                	mov    BYTE PTR [eax],bl
  40164b:	31 c0                	xor    eax,eax
  40164d:	89 4d d4             	mov    DWORD PTR [ebp-0x2c],ecx
  401650:	e9 92 fe ff ff       	jmp    4014e7 <__setargv+0x77>
  401655:	8b 7d d4             	mov    edi,DWORD PTR [ebp-0x2c]
  401658:	8b 55 d4             	mov    edx,DWORD PTR [ebp-0x2c]
  40165b:	01 c7                	add    edi,eax
  40165d:	85 c0                	test   eax,eax
  40165f:	0f 84 fa 00 00 00    	je     40175f <__setargv+0x2ef>
  401665:	83 c2 01             	add    edx,0x1
  401668:	39 fa                	cmp    edx,edi
  40166a:	c6 42 ff 5c          	mov    BYTE PTR [edx-0x1],0x5c
  40166e:	75 f5                	jne    401665 <__setargv+0x1f5>
  401670:	8b 45 d0             	mov    eax,DWORD PTR [ebp-0x30]
  401673:	85 c0                	test   eax,eax
  401675:	75 59                	jne    4016d0 <__setargv+0x260>
  401677:	89 0c 24             	mov    DWORD PTR [esp],ecx
  40167a:	e8 59 69 00 00       	call   407fd8 <_isspace>
  40167f:	85 c0                	test   eax,eax
  401681:	74 4d                	je     4016d0 <__setargv+0x260>
  401683:	8b 4d cc             	mov    ecx,DWORD PTR [ebp-0x34]
  401686:	85 c9                	test   ecx,ecx
  401688:	75 09                	jne    401693 <__setargv+0x223>
  40168a:	39 7d c4             	cmp    DWORD PTR [ebp-0x3c],edi
  40168d:	0f 83 ba 00 00 00    	jae    40174d <__setargv+0x2dd>
  401693:	8d 45 d8             	lea    eax,[ebp-0x28]
  401696:	c6 07 00             	mov    BYTE PTR [edi],0x0
  401699:	89 44 24 0c          	mov    DWORD PTR [esp+0xc],eax
  40169d:	c7 44 24 08 00 00 00 	mov    DWORD PTR [esp+0x8],0x0
  4016a4:	00 
  4016a5:	8b 45 c8             	mov    eax,DWORD PTR [ebp-0x38]
  4016a8:	89 44 24 04          	mov    DWORD PTR [esp+0x4],eax
  4016ac:	8b 7d c4             	mov    edi,DWORD PTR [ebp-0x3c]
  4016af:	89 3c 24             	mov    DWORD PTR [esp],edi
  4016b2:	e8 d9 14 00 00       	call   402b90 <___mingw_glob>
  4016b7:	31 c0                	xor    eax,eax
  4016b9:	83 4d c8 01          	or     DWORD PTR [ebp-0x38],0x1
  4016bd:	89 7d d4             	mov    DWORD PTR [ebp-0x2c],edi
  4016c0:	c7 45 cc 00 00 00 00 	mov    DWORD PTR [ebp-0x34],0x0
  4016c7:	e9 1b fe ff ff       	jmp    4014e7 <__setargv+0x77>
  4016cc:	8d 74 26 00          	lea    esi,[esi+eiz*1+0x0]
  4016d0:	8d 47 01             	lea    eax,[edi+0x1]
  4016d3:	89 45 d4             	mov    DWORD PTR [ebp-0x2c],eax
  4016d6:	31 c0                	xor    eax,eax
  4016d8:	88 1f                	mov    BYTE PTR [edi],bl
  4016da:	e9 08 fe ff ff       	jmp    4014e7 <__setargv+0x77>
  4016df:	90                   	nop
  4016e0:	c6 00 7f             	mov    BYTE PTR [eax],0x7f
  4016e3:	83 c0 01             	add    eax,0x1
  4016e6:	e9 5b ff ff ff       	jmp    401646 <__setargv+0x1d6>
  4016eb:	90                   	nop
  4016ec:	8d 74 26 00          	lea    esi,[esi+eiz*1+0x0]
  4016f0:	f6 05 00 90 40 00 10 	test   BYTE PTR ds:0x409000,0x10
  4016f7:	0f 84 58 ff ff ff    	je     401655 <__setargv+0x1e5>
  4016fd:	89 c3                	mov    ebx,eax
  4016ff:	d1 fb                	sar    ebx,1
  401701:	74 73                	je     401776 <__setargv+0x306>
  401703:	8b 55 d4             	mov    edx,DWORD PTR [ebp-0x2c]
  401706:	01 d3                	add    ebx,edx
  401708:	83 c2 01             	add    edx,0x1
  40170b:	39 da                	cmp    edx,ebx
  40170d:	c6 42 ff 5c          	mov    BYTE PTR [edx-0x1],0x5c
  401711:	75 f5                	jne    401708 <__setargv+0x298>
  401713:	a8 01                	test   al,0x1
  401715:	75 0a                	jne    401721 <__setargv+0x2b1>
  401717:	83 7d d0 22          	cmp    DWORD PTR [ebp-0x30],0x22
  40171b:	0f 85 2c fe ff ff    	jne    40154d <__setargv+0xdd>
  401721:	8d 43 01             	lea    eax,[ebx+0x1]
  401724:	89 45 d4             	mov    DWORD PTR [ebp-0x2c],eax
  401727:	31 c0                	xor    eax,eax
  401729:	c6 03 27             	mov    BYTE PTR [ebx],0x27
  40172c:	c7 45 cc 01 00 00 00 	mov    DWORD PTR [ebp-0x34],0x1
  401733:	e9 af fd ff ff       	jmp    4014e7 <__setargv+0x77>
  401738:	83 c0 01             	add    eax,0x1
  40173b:	e9 a7 fd ff ff       	jmp    4014e7 <__setargv+0x77>
  401740:	e8 1b fb ff ff       	call   401260 <__mingw32_init_mainargs>
  401745:	8d 65 f4             	lea    esp,[ebp-0xc]
  401748:	5b                   	pop    ebx
  401749:	5e                   	pop    esi
  40174a:	5f                   	pop    edi
  40174b:	5d                   	pop    ebp
  40174c:	c3                   	ret    
  40174d:	89 7d d4             	mov    DWORD PTR [ebp-0x2c],edi
  401750:	31 c0                	xor    eax,eax
  401752:	e9 90 fd ff ff       	jmp    4014e7 <__setargv+0x77>
  401757:	8b 45 d4             	mov    eax,DWORD PTR [ebp-0x2c]
  40175a:	e9 d4 fe ff ff       	jmp    401633 <__setargv+0x1c3>
  40175f:	8b 7d d4             	mov    edi,DWORD PTR [ebp-0x2c]
  401762:	e9 09 ff ff ff       	jmp    401670 <__setargv+0x200>
  401767:	8b 5d d4             	mov    ebx,DWORD PTR [ebp-0x2c]
  40176a:	e9 cc fd ff ff       	jmp    40153b <__setargv+0xcb>
  40176f:	89 d0                	mov    eax,edx
  401771:	e9 15 fe ff ff       	jmp    40158b <__setargv+0x11b>
  401776:	8b 5d d4             	mov    ebx,DWORD PTR [ebp-0x2c]
  401779:	eb 98                	jmp    401713 <__setargv+0x2a3>
  40177b:	90                   	nop
  40177c:	90                   	nop
  40177d:	90                   	nop
  40177e:	90                   	nop
  40177f:	90                   	nop

00401780 <___cpu_features_init>:
  401780:	9c                   	pushf  
  401781:	9c                   	pushf  
  401782:	58                   	pop    eax
  401783:	89 c2                	mov    edx,eax
  401785:	35 00 00 20 00       	xor    eax,0x200000
  40178a:	50                   	push   eax
  40178b:	9d                   	popf   
  40178c:	9c                   	pushf  
  40178d:	58                   	pop    eax
  40178e:	9d                   	popf   
  40178f:	31 d0                	xor    eax,edx
  401791:	a9 00 00 20 00       	test   eax,0x200000
  401796:	0f 84 a5 00 00 00    	je     401841 <___cpu_features_init+0xc1>
  40179c:	53                   	push   ebx
  40179d:	31 c0                	xor    eax,eax
  40179f:	0f a2                	cpuid  
  4017a1:	85 c0                	test   eax,eax
  4017a3:	0f 84 97 00 00 00    	je     401840 <___cpu_features_init+0xc0>
  4017a9:	b8 01 00 00 00       	mov    eax,0x1
  4017ae:	0f a2                	cpuid  
  4017b0:	f6 c6 01             	test   dh,0x1
  4017b3:	74 07                	je     4017bc <___cpu_features_init+0x3c>
  4017b5:	83 0d 24 d0 40 00 01 	or     DWORD PTR ds:0x40d024,0x1
  4017bc:	f6 c6 80             	test   dh,0x80
  4017bf:	74 07                	je     4017c8 <___cpu_features_init+0x48>
  4017c1:	83 0d 24 d0 40 00 02 	or     DWORD PTR ds:0x40d024,0x2
  4017c8:	f7 c2 00 00 80 00    	test   edx,0x800000
  4017ce:	74 07                	je     4017d7 <___cpu_features_init+0x57>
  4017d0:	83 0d 24 d0 40 00 04 	or     DWORD PTR ds:0x40d024,0x4
  4017d7:	f7 c2 00 00 00 01    	test   edx,0x1000000
  4017dd:	74 07                	je     4017e6 <___cpu_features_init+0x66>
  4017df:	83 0d 24 d0 40 00 08 	or     DWORD PTR ds:0x40d024,0x8
  4017e6:	f7 c2 00 00 00 02    	test   edx,0x2000000
  4017ec:	74 07                	je     4017f5 <___cpu_features_init+0x75>
  4017ee:	83 0d 24 d0 40 00 10 	or     DWORD PTR ds:0x40d024,0x10
  4017f5:	81 e2 00 00 00 04    	and    edx,0x4000000
  4017fb:	74 07                	je     401804 <___cpu_features_init+0x84>
  4017fd:	83 0d 24 d0 40 00 20 	or     DWORD PTR ds:0x40d024,0x20
  401804:	f6 c1 01             	test   cl,0x1
  401807:	74 07                	je     401810 <___cpu_features_init+0x90>
  401809:	83 0d 24 d0 40 00 40 	or     DWORD PTR ds:0x40d024,0x40
  401810:	80 e5 20             	and    ch,0x20
  401813:	75 2e                	jne    401843 <___cpu_features_init+0xc3>
  401815:	b8 00 00 00 80       	mov    eax,0x80000000
  40181a:	0f a2                	cpuid  
  40181c:	3d 00 00 00 80       	cmp    eax,0x80000000
  401821:	76 1d                	jbe    401840 <___cpu_features_init+0xc0>
  401823:	b8 01 00 00 80       	mov    eax,0x80000001
  401828:	0f a2                	cpuid  
  40182a:	85 d2                	test   edx,edx
  40182c:	78 22                	js     401850 <___cpu_features_init+0xd0>
  40182e:	81 e2 00 00 00 40    	and    edx,0x40000000
  401834:	74 0a                	je     401840 <___cpu_features_init+0xc0>
  401836:	81 0d 24 d0 40 00 00 	or     DWORD PTR ds:0x40d024,0x200
  40183d:	02 00 00 
  401840:	5b                   	pop    ebx
  401841:	f3 c3                	repz ret 
  401843:	81 0d 24 d0 40 00 80 	or     DWORD PTR ds:0x40d024,0x80
  40184a:	00 00 00 
  40184d:	eb c6                	jmp    401815 <___cpu_features_init+0x95>
  40184f:	90                   	nop
  401850:	81 0d 24 d0 40 00 00 	or     DWORD PTR ds:0x40d024,0x100
  401857:	01 00 00 
  40185a:	eb d2                	jmp    40182e <___cpu_features_init+0xae>
  40185c:	90                   	nop
  40185d:	90                   	nop
  40185e:	90                   	nop
  40185f:	90                   	nop

00401860 <__fpreset>:
  401860:	db e3                	fninit 
  401862:	c3                   	ret    
  401863:	90                   	nop
  401864:	90                   	nop
  401865:	90                   	nop
  401866:	90                   	nop
  401867:	90                   	nop
  401868:	90                   	nop
  401869:	90                   	nop
  40186a:	90                   	nop
  40186b:	90                   	nop
  40186c:	90                   	nop
  40186d:	90                   	nop
  40186e:	90                   	nop
  40186f:	90                   	nop

00401870 <___do_global_dtors>:
  401870:	a1 08 90 40 00       	mov    eax,ds:0x409008
  401875:	8b 00                	mov    eax,DWORD PTR [eax]
  401877:	85 c0                	test   eax,eax
  401879:	74 1f                	je     40189a <___do_global_dtors+0x2a>
  40187b:	83 ec 0c             	sub    esp,0xc
  40187e:	66 90                	xchg   ax,ax
  401880:	ff d0                	call   eax
  401882:	a1 08 90 40 00       	mov    eax,ds:0x409008
  401887:	8d 50 04             	lea    edx,[eax+0x4]
  40188a:	8b 40 04             	mov    eax,DWORD PTR [eax+0x4]
  40188d:	89 15 08 90 40 00    	mov    DWORD PTR ds:0x409008,edx
  401893:	85 c0                	test   eax,eax
  401895:	75 e9                	jne    401880 <___do_global_dtors+0x10>
  401897:	83 c4 0c             	add    esp,0xc
  40189a:	f3 c3                	repz ret 
  40189c:	8d 74 26 00          	lea    esi,[esi+eiz*1+0x0]

004018a0 <___do_global_ctors>:
  4018a0:	53                   	push   ebx
  4018a1:	83 ec 18             	sub    esp,0x18
  4018a4:	8b 1d 90 83 40 00    	mov    ebx,DWORD PTR ds:0x408390
  4018aa:	83 fb ff             	cmp    ebx,0xffffffff
  4018ad:	74 24                	je     4018d3 <___do_global_ctors+0x33>
  4018af:	85 db                	test   ebx,ebx
  4018b1:	74 0f                	je     4018c2 <___do_global_ctors+0x22>
  4018b3:	ff 14 9d 90 83 40 00 	call   DWORD PTR [ebx*4+0x408390]
  4018ba:	83 eb 01             	sub    ebx,0x1
  4018bd:	8d 76 00             	lea    esi,[esi+0x0]
  4018c0:	75 f1                	jne    4018b3 <___do_global_ctors+0x13>
  4018c2:	c7 04 24 70 18 40 00 	mov    DWORD PTR [esp],0x401870
  4018c9:	e8 12 fa ff ff       	call   4012e0 <_atexit>
  4018ce:	83 c4 18             	add    esp,0x18
  4018d1:	5b                   	pop    ebx
  4018d2:	c3                   	ret    
  4018d3:	31 db                	xor    ebx,ebx
  4018d5:	eb 02                	jmp    4018d9 <___do_global_ctors+0x39>
  4018d7:	89 c3                	mov    ebx,eax
  4018d9:	8d 43 01             	lea    eax,[ebx+0x1]
  4018dc:	8b 14 85 90 83 40 00 	mov    edx,DWORD PTR [eax*4+0x408390]
  4018e3:	85 d2                	test   edx,edx
  4018e5:	75 f0                	jne    4018d7 <___do_global_ctors+0x37>
  4018e7:	eb c6                	jmp    4018af <___do_global_ctors+0xf>
  4018e9:	8d b4 26 00 00 00 00 	lea    esi,[esi+eiz*1+0x0]

004018f0 <___main>:
  4018f0:	8b 0d 28 d0 40 00    	mov    ecx,DWORD PTR ds:0x40d028
  4018f6:	85 c9                	test   ecx,ecx
  4018f8:	74 06                	je     401900 <___main+0x10>
  4018fa:	f3 c3                	repz ret 
  4018fc:	8d 74 26 00          	lea    esi,[esi+eiz*1+0x0]
  401900:	c7 05 28 d0 40 00 01 	mov    DWORD PTR ds:0x40d028,0x1
  401907:	00 00 00 
  40190a:	eb 94                	jmp    4018a0 <___do_global_ctors>
  40190c:	90                   	nop
  40190d:	90                   	nop
  40190e:	90                   	nop
  40190f:	90                   	nop

00401910 <___dyn_tls_dtor@12>:
  401910:	83 ec 1c             	sub    esp,0x1c
  401913:	8b 44 24 24          	mov    eax,DWORD PTR [esp+0x24]
  401917:	85 c0                	test   eax,eax
  401919:	74 15                	je     401930 <___dyn_tls_dtor@12+0x20>
  40191b:	83 f8 03             	cmp    eax,0x3
  40191e:	74 10                	je     401930 <___dyn_tls_dtor@12+0x20>
  401920:	b8 01 00 00 00       	mov    eax,0x1
  401925:	83 c4 1c             	add    esp,0x1c
  401928:	c2 0c 00             	ret    0xc
  40192b:	90                   	nop
  40192c:	8d 74 26 00          	lea    esi,[esi+eiz*1+0x0]
  401930:	8b 54 24 28          	mov    edx,DWORD PTR [esp+0x28]
  401934:	89 44 24 04          	mov    DWORD PTR [esp+0x4],eax
  401938:	8b 44 24 20          	mov    eax,DWORD PTR [esp+0x20]
  40193c:	89 54 24 08          	mov    DWORD PTR [esp+0x8],edx
  401940:	89 04 24             	mov    DWORD PTR [esp],eax
  401943:	e8 58 02 00 00       	call   401ba0 <___mingw_TLScallback>
  401948:	b8 01 00 00 00       	mov    eax,0x1
  40194d:	83 c4 1c             	add    esp,0x1c
  401950:	c2 0c 00             	ret    0xc
  401953:	8d b6 00 00 00 00    	lea    esi,[esi+0x0]
  401959:	8d bc 27 00 00 00 00 	lea    edi,[edi+eiz*1+0x0]

00401960 <___dyn_tls_init@12>:
  401960:	56                   	push   esi
  401961:	53                   	push   ebx
  401962:	83 ec 14             	sub    esp,0x14
  401965:	83 3d 64 d0 40 00 02 	cmp    DWORD PTR ds:0x40d064,0x2
  40196c:	8b 44 24 24          	mov    eax,DWORD PTR [esp+0x24]
  401970:	74 0a                	je     40197c <___dyn_tls_init@12+0x1c>
  401972:	c7 05 64 d0 40 00 02 	mov    DWORD PTR ds:0x40d064,0x2
  401979:	00 00 00 
  40197c:	83 f8 02             	cmp    eax,0x2
  40197f:	74 12                	je     401993 <___dyn_tls_init@12+0x33>
  401981:	83 f8 01             	cmp    eax,0x1
  401984:	74 42                	je     4019c8 <___dyn_tls_init@12+0x68>
  401986:	83 c4 14             	add    esp,0x14
  401989:	b8 01 00 00 00       	mov    eax,0x1
  40198e:	5b                   	pop    ebx
  40198f:	5e                   	pop    esi
  401990:	c2 0c 00             	ret    0xc
  401993:	be 14 f0 40 00       	mov    esi,0x40f014
  401998:	81 ee 14 f0 40 00    	sub    esi,0x40f014
  40199e:	c1 fe 02             	sar    esi,0x2
  4019a1:	85 f6                	test   esi,esi
  4019a3:	7e e1                	jle    401986 <___dyn_tls_init@12+0x26>
  4019a5:	31 db                	xor    ebx,ebx
  4019a7:	8b 04 9d 14 f0 40 00 	mov    eax,DWORD PTR [ebx*4+0x40f014]
  4019ae:	85 c0                	test   eax,eax
  4019b0:	74 02                	je     4019b4 <___dyn_tls_init@12+0x54>
  4019b2:	ff d0                	call   eax
  4019b4:	83 c3 01             	add    ebx,0x1
  4019b7:	39 f3                	cmp    ebx,esi
  4019b9:	75 ec                	jne    4019a7 <___dyn_tls_init@12+0x47>
  4019bb:	83 c4 14             	add    esp,0x14
  4019be:	b8 01 00 00 00       	mov    eax,0x1
  4019c3:	5b                   	pop    ebx
  4019c4:	5e                   	pop    esi
  4019c5:	c2 0c 00             	ret    0xc
  4019c8:	8b 44 24 28          	mov    eax,DWORD PTR [esp+0x28]
  4019cc:	c7 44 24 04 01 00 00 	mov    DWORD PTR [esp+0x4],0x1
  4019d3:	00 
  4019d4:	89 44 24 08          	mov    DWORD PTR [esp+0x8],eax
  4019d8:	8b 44 24 20          	mov    eax,DWORD PTR [esp+0x20]
  4019dc:	89 04 24             	mov    DWORD PTR [esp],eax
  4019df:	e8 bc 01 00 00       	call   401ba0 <___mingw_TLScallback>
  4019e4:	eb a0                	jmp    401986 <___dyn_tls_init@12+0x26>
  4019e6:	8d 76 00             	lea    esi,[esi+0x0]
  4019e9:	8d bc 27 00 00 00 00 	lea    edi,[edi+eiz*1+0x0]

004019f0 <___tlregdtor>:
  4019f0:	31 c0                	xor    eax,eax
  4019f2:	c3                   	ret    
  4019f3:	90                   	nop
  4019f4:	90                   	nop
  4019f5:	90                   	nop
  4019f6:	90                   	nop
  4019f7:	90                   	nop
  4019f8:	90                   	nop
  4019f9:	90                   	nop
  4019fa:	90                   	nop
  4019fb:	90                   	nop
  4019fc:	90                   	nop
  4019fd:	90                   	nop
  4019fe:	90                   	nop
  4019ff:	90                   	nop

00401a00 <___mingwthr_run_key_dtors.part.0>:
  401a00:	55                   	push   ebp
  401a01:	89 e5                	mov    ebp,esp
  401a03:	56                   	push   esi
  401a04:	53                   	push   ebx
  401a05:	83 ec 10             	sub    esp,0x10
  401a08:	c7 04 24 44 d0 40 00 	mov    DWORD PTR [esp],0x40d044
  401a0f:	e8 d4 66 00 00       	call   4080e8 <_EnterCriticalSection@4>
  401a14:	8b 1d 3c d0 40 00    	mov    ebx,DWORD PTR ds:0x40d03c
  401a1a:	83 ec 04             	sub    esp,0x4
  401a1d:	85 db                	test   ebx,ebx
  401a1f:	74 2b                	je     401a4c <___mingwthr_run_key_dtors.part.0+0x4c>
  401a21:	8b 03                	mov    eax,DWORD PTR [ebx]
  401a23:	89 04 24             	mov    DWORD PTR [esp],eax
  401a26:	e8 3d 66 00 00       	call   408068 <_TlsGetValue@4>
  401a2b:	83 ec 04             	sub    esp,0x4
  401a2e:	89 c6                	mov    esi,eax
  401a30:	e8 83 66 00 00       	call   4080b8 <_GetLastError@0>
  401a35:	85 c0                	test   eax,eax
  401a37:	75 0c                	jne    401a45 <___mingwthr_run_key_dtors.part.0+0x45>
  401a39:	85 f6                	test   esi,esi
  401a3b:	74 08                	je     401a45 <___mingwthr_run_key_dtors.part.0+0x45>
  401a3d:	8b 43 04             	mov    eax,DWORD PTR [ebx+0x4]
  401a40:	89 34 24             	mov    DWORD PTR [esp],esi
  401a43:	ff d0                	call   eax
  401a45:	8b 5b 08             	mov    ebx,DWORD PTR [ebx+0x8]
  401a48:	85 db                	test   ebx,ebx
  401a4a:	75 d5                	jne    401a21 <___mingwthr_run_key_dtors.part.0+0x21>
  401a4c:	c7 04 24 44 d0 40 00 	mov    DWORD PTR [esp],0x40d044
  401a53:	e8 30 66 00 00       	call   408088 <_LeaveCriticalSection@4>
  401a58:	83 ec 04             	sub    esp,0x4
  401a5b:	8d 65 f8             	lea    esp,[ebp-0x8]
  401a5e:	5b                   	pop    ebx
  401a5f:	5e                   	pop    esi
  401a60:	5d                   	pop    ebp
  401a61:	c3                   	ret    
  401a62:	8d b4 26 00 00 00 00 	lea    esi,[esi+eiz*1+0x0]
  401a69:	8d bc 27 00 00 00 00 	lea    edi,[edi+eiz*1+0x0]

00401a70 <____w64_mingwthr_add_key_dtor>:
  401a70:	55                   	push   ebp
  401a71:	89 e5                	mov    ebp,esp
  401a73:	56                   	push   esi
  401a74:	31 f6                	xor    esi,esi
  401a76:	53                   	push   ebx
  401a77:	83 ec 10             	sub    esp,0x10
  401a7a:	a1 40 d0 40 00       	mov    eax,ds:0x40d040
  401a7f:	85 c0                	test   eax,eax
  401a81:	75 0d                	jne    401a90 <____w64_mingwthr_add_key_dtor+0x20>
  401a83:	8d 65 f8             	lea    esp,[ebp-0x8]
  401a86:	89 f0                	mov    eax,esi
  401a88:	5b                   	pop    ebx
  401a89:	5e                   	pop    esi
  401a8a:	5d                   	pop    ebp
  401a8b:	c3                   	ret    
  401a8c:	8d 74 26 00          	lea    esi,[esi+eiz*1+0x0]
  401a90:	c7 44 24 04 0c 00 00 	mov    DWORD PTR [esp+0x4],0xc
  401a97:	00 
  401a98:	c7 04 24 01 00 00 00 	mov    DWORD PTR [esp],0x1
  401a9f:	e8 5c 65 00 00       	call   408000 <_calloc>
  401aa4:	85 c0                	test   eax,eax
  401aa6:	89 c3                	mov    ebx,eax
  401aa8:	74 40                	je     401aea <____w64_mingwthr_add_key_dtor+0x7a>
  401aaa:	8b 45 08             	mov    eax,DWORD PTR [ebp+0x8]
  401aad:	c7 04 24 44 d0 40 00 	mov    DWORD PTR [esp],0x40d044
  401ab4:	89 03                	mov    DWORD PTR [ebx],eax
  401ab6:	8b 45 0c             	mov    eax,DWORD PTR [ebp+0xc]
  401ab9:	89 43 04             	mov    DWORD PTR [ebx+0x4],eax
  401abc:	e8 27 66 00 00       	call   4080e8 <_EnterCriticalSection@4>
  401ac1:	a1 3c d0 40 00       	mov    eax,ds:0x40d03c
  401ac6:	89 1d 3c d0 40 00    	mov    DWORD PTR ds:0x40d03c,ebx
  401acc:	89 43 08             	mov    DWORD PTR [ebx+0x8],eax
  401acf:	83 ec 04             	sub    esp,0x4
  401ad2:	c7 04 24 44 d0 40 00 	mov    DWORD PTR [esp],0x40d044
  401ad9:	e8 aa 65 00 00       	call   408088 <_LeaveCriticalSection@4>
  401ade:	89 f0                	mov    eax,esi
  401ae0:	83 ec 04             	sub    esp,0x4
  401ae3:	8d 65 f8             	lea    esp,[ebp-0x8]
  401ae6:	5b                   	pop    ebx
  401ae7:	5e                   	pop    esi
  401ae8:	5d                   	pop    ebp
  401ae9:	c3                   	ret    
  401aea:	be ff ff ff ff       	mov    esi,0xffffffff
  401aef:	eb 92                	jmp    401a83 <____w64_mingwthr_add_key_dtor+0x13>
  401af1:	eb 0d                	jmp    401b00 <____w64_mingwthr_remove_key_dtor>
  401af3:	90                   	nop
  401af4:	90                   	nop
  401af5:	90                   	nop
  401af6:	90                   	nop
  401af7:	90                   	nop
  401af8:	90                   	nop
  401af9:	90                   	nop
  401afa:	90                   	nop
  401afb:	90                   	nop
  401afc:	90                   	nop
  401afd:	90                   	nop
  401afe:	90                   	nop
  401aff:	90                   	nop

00401b00 <____w64_mingwthr_remove_key_dtor>:
  401b00:	55                   	push   ebp
  401b01:	89 e5                	mov    ebp,esp
  401b03:	53                   	push   ebx
  401b04:	83 ec 14             	sub    esp,0x14
  401b07:	a1 40 d0 40 00       	mov    eax,ds:0x40d040
  401b0c:	8b 5d 08             	mov    ebx,DWORD PTR [ebp+0x8]
  401b0f:	85 c0                	test   eax,eax
  401b11:	75 0d                	jne    401b20 <____w64_mingwthr_remove_key_dtor+0x20>
  401b13:	31 c0                	xor    eax,eax
  401b15:	8b 5d fc             	mov    ebx,DWORD PTR [ebp-0x4]
  401b18:	c9                   	leave  
  401b19:	c3                   	ret    
  401b1a:	8d b6 00 00 00 00    	lea    esi,[esi+0x0]
  401b20:	c7 04 24 44 d0 40 00 	mov    DWORD PTR [esp],0x40d044
  401b27:	e8 bc 65 00 00       	call   4080e8 <_EnterCriticalSection@4>
  401b2c:	8b 15 3c d0 40 00    	mov    edx,DWORD PTR ds:0x40d03c
  401b32:	83 ec 04             	sub    esp,0x4
  401b35:	85 d2                	test   edx,edx
  401b37:	74 17                	je     401b50 <____w64_mingwthr_remove_key_dtor+0x50>
  401b39:	8b 02                	mov    eax,DWORD PTR [edx]
  401b3b:	39 d8                	cmp    eax,ebx
  401b3d:	75 0a                	jne    401b49 <____w64_mingwthr_remove_key_dtor+0x49>
  401b3f:	eb 44                	jmp    401b85 <____w64_mingwthr_remove_key_dtor+0x85>
  401b41:	8b 08                	mov    ecx,DWORD PTR [eax]
  401b43:	39 d9                	cmp    ecx,ebx
  401b45:	74 1f                	je     401b66 <____w64_mingwthr_remove_key_dtor+0x66>
  401b47:	89 c2                	mov    edx,eax
  401b49:	8b 42 08             	mov    eax,DWORD PTR [edx+0x8]
  401b4c:	85 c0                	test   eax,eax
  401b4e:	75 f1                	jne    401b41 <____w64_mingwthr_remove_key_dtor+0x41>
  401b50:	c7 04 24 44 d0 40 00 	mov    DWORD PTR [esp],0x40d044
  401b57:	e8 2c 65 00 00       	call   408088 <_LeaveCriticalSection@4>
  401b5c:	83 ec 04             	sub    esp,0x4
  401b5f:	31 c0                	xor    eax,eax
  401b61:	8b 5d fc             	mov    ebx,DWORD PTR [ebp-0x4]
  401b64:	c9                   	leave  
  401b65:	c3                   	ret    
  401b66:	8b 48 08             	mov    ecx,DWORD PTR [eax+0x8]
  401b69:	89 4a 08             	mov    DWORD PTR [edx+0x8],ecx
  401b6c:	89 04 24             	mov    DWORD PTR [esp],eax
  401b6f:	e8 7c 64 00 00       	call   407ff0 <_free>
  401b74:	c7 04 24 44 d0 40 00 	mov    DWORD PTR [esp],0x40d044
  401b7b:	e8 08 65 00 00       	call   408088 <_LeaveCriticalSection@4>
  401b80:	83 ec 04             	sub    esp,0x4
  401b83:	eb da                	jmp    401b5f <____w64_mingwthr_remove_key_dtor+0x5f>
  401b85:	8b 42 08             	mov    eax,DWORD PTR [edx+0x8]
  401b88:	a3 3c d0 40 00       	mov    ds:0x40d03c,eax
  401b8d:	89 d0                	mov    eax,edx
  401b8f:	eb db                	jmp    401b6c <____w64_mingwthr_remove_key_dtor+0x6c>
  401b91:	eb 0d                	jmp    401ba0 <___mingw_TLScallback>
  401b93:	90                   	nop
  401b94:	90                   	nop
  401b95:	90                   	nop
  401b96:	90                   	nop
  401b97:	90                   	nop
  401b98:	90                   	nop
  401b99:	90                   	nop
  401b9a:	90                   	nop
  401b9b:	90                   	nop
  401b9c:	90                   	nop
  401b9d:	90                   	nop
  401b9e:	90                   	nop
  401b9f:	90                   	nop

00401ba0 <___mingw_TLScallback>:
  401ba0:	55                   	push   ebp
  401ba1:	89 e5                	mov    ebp,esp
  401ba3:	83 ec 18             	sub    esp,0x18
  401ba6:	8b 45 0c             	mov    eax,DWORD PTR [ebp+0xc]
  401ba9:	83 f8 01             	cmp    eax,0x1
  401bac:	74 45                	je     401bf3 <___mingw_TLScallback+0x53>
  401bae:	72 15                	jb     401bc5 <___mingw_TLScallback+0x25>
  401bb0:	83 f8 03             	cmp    eax,0x3
  401bb3:	75 09                	jne    401bbe <___mingw_TLScallback+0x1e>
  401bb5:	a1 40 d0 40 00       	mov    eax,ds:0x40d040
  401bba:	85 c0                	test   eax,eax
  401bbc:	75 63                	jne    401c21 <___mingw_TLScallback+0x81>
  401bbe:	b8 01 00 00 00       	mov    eax,0x1
  401bc3:	c9                   	leave  
  401bc4:	c3                   	ret    
  401bc5:	a1 40 d0 40 00       	mov    eax,ds:0x40d040
  401bca:	85 c0                	test   eax,eax
  401bcc:	75 5a                	jne    401c28 <___mingw_TLScallback+0x88>
  401bce:	a1 40 d0 40 00       	mov    eax,ds:0x40d040
  401bd3:	83 f8 01             	cmp    eax,0x1
  401bd6:	75 e6                	jne    401bbe <___mingw_TLScallback+0x1e>
  401bd8:	c7 04 24 44 d0 40 00 	mov    DWORD PTR [esp],0x40d044
  401bdf:	c7 05 40 d0 40 00 00 	mov    DWORD PTR ds:0x40d040,0x0
  401be6:	00 00 00 
  401be9:	e8 02 65 00 00       	call   4080f0 <_DeleteCriticalSection@4>
  401bee:	83 ec 04             	sub    esp,0x4
  401bf1:	eb cb                	jmp    401bbe <___mingw_TLScallback+0x1e>
  401bf3:	a1 40 d0 40 00       	mov    eax,ds:0x40d040
  401bf8:	85 c0                	test   eax,eax
  401bfa:	74 14                	je     401c10 <___mingw_TLScallback+0x70>
  401bfc:	c7 05 40 d0 40 00 01 	mov    DWORD PTR ds:0x40d040,0x1
  401c03:	00 00 00 
  401c06:	b8 01 00 00 00       	mov    eax,0x1
  401c0b:	c9                   	leave  
  401c0c:	c3                   	ret    
  401c0d:	8d 76 00             	lea    esi,[esi+0x0]
  401c10:	c7 04 24 44 d0 40 00 	mov    DWORD PTR [esp],0x40d044
  401c17:	e8 84 64 00 00       	call   4080a0 <_InitializeCriticalSection@4>
  401c1c:	83 ec 04             	sub    esp,0x4
  401c1f:	eb db                	jmp    401bfc <___mingw_TLScallback+0x5c>
  401c21:	e8 da fd ff ff       	call   401a00 <___mingwthr_run_key_dtors.part.0>
  401c26:	eb 96                	jmp    401bbe <___mingw_TLScallback+0x1e>
  401c28:	90                   	nop
  401c29:	8d b4 26 00 00 00 00 	lea    esi,[esi+eiz*1+0x0]
  401c30:	e8 cb fd ff ff       	call   401a00 <___mingwthr_run_key_dtors.part.0>
  401c35:	eb 97                	jmp    401bce <___mingw_TLScallback+0x2e>
  401c37:	90                   	nop
  401c38:	90                   	nop
  401c39:	90                   	nop
  401c3a:	90                   	nop
  401c3b:	90                   	nop
  401c3c:	90                   	nop
  401c3d:	90                   	nop
  401c3e:	90                   	nop
  401c3f:	90                   	nop

00401c40 <___report_error>:
  401c40:	56                   	push   esi
  401c41:	53                   	push   ebx
  401c42:	83 ec 14             	sub    esp,0x14
  401c45:	a1 c8 e1 40 00       	mov    eax,ds:0x40e1c8
  401c4a:	c7 44 24 08 17 00 00 	mov    DWORD PTR [esp+0x8],0x17
  401c51:	00 
  401c52:	8d 74 24 24          	lea    esi,[esp+0x24]
  401c56:	c7 44 24 04 01 00 00 	mov    DWORD PTR [esp+0x4],0x1
  401c5d:	00 
  401c5e:	c7 04 24 68 a0 40 00 	mov    DWORD PTR [esp],0x40a068
  401c65:	8d 58 40             	lea    ebx,[eax+0x40]
  401c68:	89 5c 24 0c          	mov    DWORD PTR [esp+0xc],ebx
  401c6c:	e8 77 63 00 00       	call   407fe8 <_fwrite>
  401c71:	8b 44 24 20          	mov    eax,DWORD PTR [esp+0x20]
  401c75:	89 74 24 08          	mov    DWORD PTR [esp+0x8],esi
  401c79:	89 1c 24             	mov    DWORD PTR [esp],ebx
  401c7c:	89 44 24 04          	mov    DWORD PTR [esp+0x4],eax
  401c80:	e8 eb 62 00 00       	call   407f70 <_vfprintf>
  401c85:	e8 86 63 00 00       	call   408010 <_abort>
  401c8a:	8d b6 00 00 00 00    	lea    esi,[esi+0x0]

00401c90 <___write_memory.part.0>:
  401c90:	55                   	push   ebp
  401c91:	89 e5                	mov    ebp,esp
  401c93:	57                   	push   edi
  401c94:	89 cf                	mov    edi,ecx
  401c96:	56                   	push   esi
  401c97:	89 d6                	mov    esi,edx
  401c99:	53                   	push   ebx
  401c9a:	89 c3                	mov    ebx,eax
  401c9c:	83 ec 4c             	sub    esp,0x4c
  401c9f:	8d 45 cc             	lea    eax,[ebp-0x34]
  401ca2:	c7 44 24 08 1c 00 00 	mov    DWORD PTR [esp+0x8],0x1c
  401ca9:	00 
  401caa:	89 44 24 04          	mov    DWORD PTR [esp+0x4],eax
  401cae:	89 1c 24             	mov    DWORD PTR [esp],ebx
  401cb1:	e8 a2 63 00 00       	call   408058 <_VirtualQuery@12>
  401cb6:	83 ec 0c             	sub    esp,0xc
  401cb9:	85 c0                	test   eax,eax
  401cbb:	0f 84 9a 00 00 00    	je     401d5b <___write_memory.part.0+0xcb>
  401cc1:	8b 45 e0             	mov    eax,DWORD PTR [ebp-0x20]
  401cc4:	83 f8 04             	cmp    eax,0x4
  401cc7:	75 18                	jne    401ce1 <___write_memory.part.0+0x51>
  401cc9:	89 7c 24 08          	mov    DWORD PTR [esp+0x8],edi
  401ccd:	89 74 24 04          	mov    DWORD PTR [esp+0x4],esi
  401cd1:	89 1c 24             	mov    DWORD PTR [esp],ebx
  401cd4:	e8 df 62 00 00       	call   407fb8 <_memcpy>
  401cd9:	8d 65 f4             	lea    esp,[ebp-0xc]
  401cdc:	5b                   	pop    ebx
  401cdd:	5e                   	pop    esi
  401cde:	5f                   	pop    edi
  401cdf:	5d                   	pop    ebp
  401ce0:	c3                   	ret    
  401ce1:	83 f8 40             	cmp    eax,0x40
  401ce4:	74 e3                	je     401cc9 <___write_memory.part.0+0x39>
  401ce6:	8b 45 d8             	mov    eax,DWORD PTR [ebp-0x28]
  401ce9:	8d 55 c8             	lea    edx,[ebp-0x38]
  401cec:	89 54 24 0c          	mov    DWORD PTR [esp+0xc],edx
  401cf0:	c7 44 24 08 40 00 00 	mov    DWORD PTR [esp+0x8],0x40
  401cf7:	00 
  401cf8:	89 55 c4             	mov    DWORD PTR [ebp-0x3c],edx
  401cfb:	89 44 24 04          	mov    DWORD PTR [esp+0x4],eax
  401cff:	8b 45 cc             	mov    eax,DWORD PTR [ebp-0x34]
  401d02:	89 04 24             	mov    DWORD PTR [esp],eax
  401d05:	e8 56 63 00 00       	call   408060 <_VirtualProtect@16>
  401d0a:	8b 4d e0             	mov    ecx,DWORD PTR [ebp-0x20]
  401d0d:	89 4d c0             	mov    DWORD PTR [ebp-0x40],ecx
  401d10:	83 ec 10             	sub    esp,0x10
  401d13:	89 7c 24 08          	mov    DWORD PTR [esp+0x8],edi
  401d17:	89 74 24 04          	mov    DWORD PTR [esp+0x4],esi
  401d1b:	89 1c 24             	mov    DWORD PTR [esp],ebx
  401d1e:	e8 95 62 00 00       	call   407fb8 <_memcpy>
  401d23:	8b 4d c0             	mov    ecx,DWORD PTR [ebp-0x40]
  401d26:	83 f9 04             	cmp    ecx,0x4
  401d29:	74 ae                	je     401cd9 <___write_memory.part.0+0x49>
  401d2b:	83 f9 40             	cmp    ecx,0x40
  401d2e:	74 a9                	je     401cd9 <___write_memory.part.0+0x49>
  401d30:	8b 45 c8             	mov    eax,DWORD PTR [ebp-0x38]
  401d33:	8b 55 c4             	mov    edx,DWORD PTR [ebp-0x3c]
  401d36:	89 44 24 08          	mov    DWORD PTR [esp+0x8],eax
  401d3a:	8b 45 d8             	mov    eax,DWORD PTR [ebp-0x28]
  401d3d:	89 54 24 0c          	mov    DWORD PTR [esp+0xc],edx
  401d41:	89 44 24 04          	mov    DWORD PTR [esp+0x4],eax
  401d45:	8b 45 cc             	mov    eax,DWORD PTR [ebp-0x34]
  401d48:	89 04 24             	mov    DWORD PTR [esp],eax
  401d4b:	e8 10 63 00 00       	call   408060 <_VirtualProtect@16>
  401d50:	83 ec 10             	sub    esp,0x10
  401d53:	8d 65 f4             	lea    esp,[ebp-0xc]
  401d56:	5b                   	pop    ebx
  401d57:	5e                   	pop    esi
  401d58:	5f                   	pop    edi
  401d59:	5d                   	pop    ebp
  401d5a:	c3                   	ret    
  401d5b:	89 5c 24 08          	mov    DWORD PTR [esp+0x8],ebx
  401d5f:	c7 44 24 04 1c 00 00 	mov    DWORD PTR [esp+0x4],0x1c
  401d66:	00 
  401d67:	c7 04 24 80 a0 40 00 	mov    DWORD PTR [esp],0x40a080
  401d6e:	e8 cd fe ff ff       	call   401c40 <___report_error>
  401d73:	8d b6 00 00 00 00    	lea    esi,[esi+0x0]
  401d79:	8d bc 27 00 00 00 00 	lea    edi,[edi+eiz*1+0x0]

00401d80 <__pei386_runtime_relocator>:
  401d80:	a1 5c d0 40 00       	mov    eax,ds:0x40d05c
  401d85:	85 c0                	test   eax,eax
  401d87:	74 07                	je     401d90 <__pei386_runtime_relocator+0x10>
  401d89:	c3                   	ret    
  401d8a:	8d b6 00 00 00 00    	lea    esi,[esi+0x0]
  401d90:	b8 20 a7 40 00       	mov    eax,0x40a720
  401d95:	2d 20 a7 40 00       	sub    eax,0x40a720
  401d9a:	83 f8 07             	cmp    eax,0x7
  401d9d:	c7 05 5c d0 40 00 01 	mov    DWORD PTR ds:0x40d05c,0x1
  401da4:	00 00 00 
  401da7:	7e e0                	jle    401d89 <__pei386_runtime_relocator+0x9>
  401da9:	57                   	push   edi
  401daa:	56                   	push   esi
  401dab:	53                   	push   ebx
  401dac:	83 ec 20             	sub    esp,0x20
  401daf:	83 f8 0b             	cmp    eax,0xb
  401db2:	0f 8e de 00 00 00    	jle    401e96 <__pei386_runtime_relocator+0x116>
  401db8:	8b 35 20 a7 40 00    	mov    esi,DWORD PTR ds:0x40a720
  401dbe:	85 f6                	test   esi,esi
  401dc0:	0f 85 8a 00 00 00    	jne    401e50 <__pei386_runtime_relocator+0xd0>
  401dc6:	8b 1d 24 a7 40 00    	mov    ebx,DWORD PTR ds:0x40a724
  401dcc:	85 db                	test   ebx,ebx
  401dce:	0f 85 7c 00 00 00    	jne    401e50 <__pei386_runtime_relocator+0xd0>
  401dd4:	8b 0d 28 a7 40 00    	mov    ecx,DWORD PTR ds:0x40a728
  401dda:	bb 2c a7 40 00       	mov    ebx,0x40a72c
  401ddf:	85 c9                	test   ecx,ecx
  401de1:	0f 84 b4 00 00 00    	je     401e9b <__pei386_runtime_relocator+0x11b>
  401de7:	bb 20 a7 40 00       	mov    ebx,0x40a720
  401dec:	8b 43 08             	mov    eax,DWORD PTR [ebx+0x8]
  401def:	83 f8 01             	cmp    eax,0x1
  401df2:	0f 85 49 01 00 00    	jne    401f41 <__pei386_runtime_relocator+0x1c1>
  401df8:	83 c3 0c             	add    ebx,0xc
  401dfb:	81 fb 20 a7 40 00    	cmp    ebx,0x40a720
  401e01:	0f 83 88 00 00 00    	jae    401e8f <__pei386_runtime_relocator+0x10f>
  401e07:	0f b6 53 08          	movzx  edx,BYTE PTR [ebx+0x8]
  401e0b:	8b 73 04             	mov    esi,DWORD PTR [ebx+0x4]
  401e0e:	8b 0b                	mov    ecx,DWORD PTR [ebx]
  401e10:	83 fa 10             	cmp    edx,0x10
  401e13:	8d 86 00 00 40 00    	lea    eax,[esi+0x400000]
  401e19:	8b b9 00 00 40 00    	mov    edi,DWORD PTR [ecx+0x400000]
  401e1f:	0f 84 8b 00 00 00    	je     401eb0 <__pei386_runtime_relocator+0x130>
  401e25:	83 fa 20             	cmp    edx,0x20
  401e28:	0f 84 f2 00 00 00    	je     401f20 <__pei386_runtime_relocator+0x1a0>
  401e2e:	83 fa 08             	cmp    edx,0x8
  401e31:	0f 84 af 00 00 00    	je     401ee6 <__pei386_runtime_relocator+0x166>
  401e37:	89 54 24 04          	mov    DWORD PTR [esp+0x4],edx
  401e3b:	c7 04 24 e8 a0 40 00 	mov    DWORD PTR [esp],0x40a0e8
  401e42:	c7 44 24 1c 00 00 00 	mov    DWORD PTR [esp+0x1c],0x0
  401e49:	00 
  401e4a:	e8 f1 fd ff ff       	call   401c40 <___report_error>
  401e4f:	90                   	nop
  401e50:	bb 20 a7 40 00       	mov    ebx,0x40a720
  401e55:	81 fb 20 a7 40 00    	cmp    ebx,0x40a720
  401e5b:	73 32                	jae    401e8f <__pei386_runtime_relocator+0x10f>
  401e5d:	8d 76 00             	lea    esi,[esi+0x0]
  401e60:	8b 53 04             	mov    edx,DWORD PTR [ebx+0x4]
  401e63:	b9 04 00 00 00       	mov    ecx,0x4
  401e68:	83 c3 08             	add    ebx,0x8
  401e6b:	8d 82 00 00 40 00    	lea    eax,[edx+0x400000]
  401e71:	8b 92 00 00 40 00    	mov    edx,DWORD PTR [edx+0x400000]
  401e77:	03 53 f8             	add    edx,DWORD PTR [ebx-0x8]
  401e7a:	89 54 24 1c          	mov    DWORD PTR [esp+0x1c],edx
  401e7e:	8d 54 24 1c          	lea    edx,[esp+0x1c]
  401e82:	e8 09 fe ff ff       	call   401c90 <___write_memory.part.0>
  401e87:	81 fb 20 a7 40 00    	cmp    ebx,0x40a720
  401e8d:	72 d1                	jb     401e60 <__pei386_runtime_relocator+0xe0>
  401e8f:	83 c4 20             	add    esp,0x20
  401e92:	5b                   	pop    ebx
  401e93:	5e                   	pop    esi
  401e94:	5f                   	pop    edi
  401e95:	c3                   	ret    
  401e96:	bb 20 a7 40 00       	mov    ebx,0x40a720
  401e9b:	8b 13                	mov    edx,DWORD PTR [ebx]
  401e9d:	85 d2                	test   edx,edx
  401e9f:	75 b4                	jne    401e55 <__pei386_runtime_relocator+0xd5>
  401ea1:	8b 43 04             	mov    eax,DWORD PTR [ebx+0x4]
  401ea4:	85 c0                	test   eax,eax
  401ea6:	0f 84 40 ff ff ff    	je     401dec <__pei386_runtime_relocator+0x6c>
  401eac:	eb a7                	jmp    401e55 <__pei386_runtime_relocator+0xd5>
  401eae:	66 90                	xchg   ax,ax
  401eb0:	0f b7 b6 00 00 40 00 	movzx  esi,WORD PTR [esi+0x400000]
  401eb7:	66 85 f6             	test   si,si
  401eba:	0f b7 d6             	movzx  edx,si
  401ebd:	79 06                	jns    401ec5 <__pei386_runtime_relocator+0x145>
  401ebf:	81 ca 00 00 ff ff    	or     edx,0xffff0000
  401ec5:	29 ca                	sub    edx,ecx
  401ec7:	b9 02 00 00 00       	mov    ecx,0x2
  401ecc:	81 ea 00 00 40 00    	sub    edx,0x400000
  401ed2:	01 fa                	add    edx,edi
  401ed4:	89 54 24 1c          	mov    DWORD PTR [esp+0x1c],edx
  401ed8:	8d 54 24 1c          	lea    edx,[esp+0x1c]
  401edc:	e8 af fd ff ff       	call   401c90 <___write_memory.part.0>
  401ee1:	e9 12 ff ff ff       	jmp    401df8 <__pei386_runtime_relocator+0x78>
  401ee6:	0f b6 10             	movzx  edx,BYTE PTR [eax]
  401ee9:	84 d2                	test   dl,dl
  401eeb:	0f b6 f2             	movzx  esi,dl
  401eee:	79 06                	jns    401ef6 <__pei386_runtime_relocator+0x176>
  401ef0:	81 ce 00 ff ff ff    	or     esi,0xffffff00
  401ef6:	81 ee 00 00 40 00    	sub    esi,0x400000
  401efc:	89 f2                	mov    edx,esi
  401efe:	29 ca                	sub    edx,ecx
  401f00:	b9 01 00 00 00       	mov    ecx,0x1
  401f05:	01 fa                	add    edx,edi
  401f07:	89 54 24 1c          	mov    DWORD PTR [esp+0x1c],edx
  401f0b:	8d 54 24 1c          	lea    edx,[esp+0x1c]
  401f0f:	e8 7c fd ff ff       	call   401c90 <___write_memory.part.0>
  401f14:	e9 df fe ff ff       	jmp    401df8 <__pei386_runtime_relocator+0x78>
  401f19:	8d b4 26 00 00 00 00 	lea    esi,[esi+eiz*1+0x0]
  401f20:	81 c1 00 00 40 00    	add    ecx,0x400000
  401f26:	29 cf                	sub    edi,ecx
  401f28:	b9 04 00 00 00       	mov    ecx,0x4
  401f2d:	03 38                	add    edi,DWORD PTR [eax]
  401f2f:	8d 54 24 1c          	lea    edx,[esp+0x1c]
  401f33:	89 7c 24 1c          	mov    DWORD PTR [esp+0x1c],edi
  401f37:	e8 54 fd ff ff       	call   401c90 <___write_memory.part.0>
  401f3c:	e9 b7 fe ff ff       	jmp    401df8 <__pei386_runtime_relocator+0x78>
  401f41:	89 44 24 04          	mov    DWORD PTR [esp+0x4],eax
  401f45:	c7 04 24 b4 a0 40 00 	mov    DWORD PTR [esp],0x40a0b4
  401f4c:	e8 ef fc ff ff       	call   401c40 <___report_error>
  401f51:	90                   	nop
  401f52:	90                   	nop
  401f53:	90                   	nop
  401f54:	90                   	nop
  401f55:	90                   	nop
  401f56:	90                   	nop
  401f57:	90                   	nop
  401f58:	90                   	nop
  401f59:	90                   	nop
  401f5a:	90                   	nop
  401f5b:	90                   	nop
  401f5c:	90                   	nop
  401f5d:	90                   	nop
  401f5e:	90                   	nop
  401f5f:	90                   	nop

00401f60 <___chkstk_ms>:
  401f60:	51                   	push   ecx
  401f61:	50                   	push   eax
  401f62:	3d 00 10 00 00       	cmp    eax,0x1000
  401f67:	8d 4c 24 0c          	lea    ecx,[esp+0xc]
  401f6b:	72 15                	jb     401f82 <___chkstk_ms+0x22>
  401f6d:	81 e9 00 10 00 00    	sub    ecx,0x1000
  401f73:	83 09 00             	or     DWORD PTR [ecx],0x0
  401f76:	2d 00 10 00 00       	sub    eax,0x1000
  401f7b:	3d 00 10 00 00       	cmp    eax,0x1000
  401f80:	77 eb                	ja     401f6d <___chkstk_ms+0xd>
  401f82:	29 c1                	sub    ecx,eax
  401f84:	83 09 00             	or     DWORD PTR [ecx],0x0
  401f87:	58                   	pop    eax
  401f88:	59                   	pop    ecx
  401f89:	c3                   	ret    
  401f8a:	90                   	nop
  401f8b:	90                   	nop

00401f8c <.text>:
  401f8c:	66 90                	xchg   ax,ax
  401f8e:	66 90                	xchg   ax,ax

00401f90 <_is_glob_pattern>:
  401f90:	57                   	push   edi
  401f91:	85 c0                	test   eax,eax
  401f93:	56                   	push   esi
  401f94:	53                   	push   ebx
  401f95:	89 c3                	mov    ebx,eax
  401f97:	74 44                	je     401fdd <_is_glob_pattern+0x4d>
  401f99:	0f be 0b             	movsx  ecx,BYTE PTR [ebx]
  401f9c:	89 d6                	mov    esi,edx
  401f9e:	31 c0                	xor    eax,eax
  401fa0:	83 e6 20             	and    esi,0x20
  401fa3:	8d 53 01             	lea    edx,[ebx+0x1]
  401fa6:	85 c9                	test   ecx,ecx
  401fa8:	74 33                	je     401fdd <_is_glob_pattern+0x4d>
  401faa:	8d b6 00 00 00 00    	lea    esi,[esi+0x0]
  401fb0:	85 f6                	test   esi,esi
  401fb2:	89 f7                	mov    edi,esi
  401fb4:	75 05                	jne    401fbb <_is_glob_pattern+0x2b>
  401fb6:	83 f9 7f             	cmp    ecx,0x7f
  401fb9:	74 45                	je     402000 <_is_glob_pattern+0x70>
  401fbb:	85 c0                	test   eax,eax
  401fbd:	75 26                	jne    401fe5 <_is_glob_pattern+0x55>
  401fbf:	83 f9 3f             	cmp    ecx,0x3f
  401fc2:	74 51                	je     402015 <_is_glob_pattern+0x85>
  401fc4:	83 f9 2a             	cmp    ecx,0x2a
  401fc7:	74 4c                	je     402015 <_is_glob_pattern+0x85>
  401fc9:	31 c0                	xor    eax,eax
  401fcb:	83 f9 5b             	cmp    ecx,0x5b
  401fce:	0f 94 c0             	sete   al
  401fd1:	89 d3                	mov    ebx,edx
  401fd3:	0f be 0b             	movsx  ecx,BYTE PTR [ebx]
  401fd6:	8d 53 01             	lea    edx,[ebx+0x1]
  401fd9:	85 c9                	test   ecx,ecx
  401fdb:	75 d3                	jne    401fb0 <_is_glob_pattern+0x20>
  401fdd:	31 ff                	xor    edi,edi
  401fdf:	89 f8                	mov    eax,edi
  401fe1:	5b                   	pop    ebx
  401fe2:	5e                   	pop    esi
  401fe3:	5f                   	pop    edi
  401fe4:	c3                   	ret    
  401fe5:	83 f9 5d             	cmp    ecx,0x5d
  401fe8:	74 26                	je     402010 <_is_glob_pattern+0x80>
  401fea:	83 f9 21             	cmp    ecx,0x21
  401fed:	89 d3                	mov    ebx,edx
  401fef:	0f 95 c1             	setne  cl
  401ff2:	0f b6 c9             	movzx  ecx,cl
  401ff5:	01 c8                	add    eax,ecx
  401ff7:	eb da                	jmp    401fd3 <_is_glob_pattern+0x43>
  401ff9:	8d b4 26 00 00 00 00 	lea    esi,[esi+eiz*1+0x0]
  402000:	80 7b 01 00          	cmp    BYTE PTR [ebx+0x1],0x0
  402004:	8d 53 02             	lea    edx,[ebx+0x2]
  402007:	75 b2                	jne    401fbb <_is_glob_pattern+0x2b>
  402009:	eb d4                	jmp    401fdf <_is_glob_pattern+0x4f>
  40200b:	90                   	nop
  40200c:	8d 74 26 00          	lea    esi,[esi+eiz*1+0x0]
  402010:	83 f8 01             	cmp    eax,0x1
  402013:	7e d5                	jle    401fea <_is_glob_pattern+0x5a>
  402015:	bf 01 00 00 00       	mov    edi,0x1
  40201a:	89 f8                	mov    eax,edi
  40201c:	5b                   	pop    ebx
  40201d:	5e                   	pop    esi
  40201e:	5f                   	pop    edi
  40201f:	c3                   	ret    

00402020 <_glob_in_set>:
  402020:	55                   	push   ebp
  402021:	57                   	push   edi
  402022:	56                   	push   esi
  402023:	53                   	push   ebx
  402024:	83 ec 04             	sub    esp,0x4
  402027:	0f b6 18             	movzx  ebx,BYTE PTR [eax]
  40202a:	89 0c 24             	mov    DWORD PTR [esp],ecx
  40202d:	0f be fb             	movsx  edi,bl
  402030:	83 ff 5d             	cmp    edi,0x5d
  402033:	0f 84 d7 00 00 00    	je     402110 <_glob_in_set+0xf0>
  402039:	83 ff 2d             	cmp    edi,0x2d
  40203c:	89 d9                	mov    ecx,ebx
  40203e:	75 2e                	jne    40206e <_glob_in_set+0x4e>
  402040:	e9 cb 00 00 00       	jmp    402110 <_glob_in_set+0xf0>
  402045:	85 db                	test   ebx,ebx
  402047:	0f 84 b3 00 00 00    	je     402100 <_glob_in_set+0xe0>
  40204d:	83 fb 5c             	cmp    ebx,0x5c
  402050:	0f 84 aa 00 00 00    	je     402100 <_glob_in_set+0xe0>
  402056:	83 fb 2f             	cmp    ebx,0x2f
  402059:	0f 84 a1 00 00 00    	je     402100 <_glob_in_set+0xe0>
  40205f:	89 df                	mov    edi,ebx
  402061:	0f b6 0e             	movzx  ecx,BYTE PTR [esi]
  402064:	89 f0                	mov    eax,esi
  402066:	39 d7                	cmp    edi,edx
  402068:	0f 84 ca 00 00 00    	je     402138 <_glob_in_set+0x118>
  40206e:	0f be d9             	movsx  ebx,cl
  402071:	83 fb 5d             	cmp    ebx,0x5d
  402074:	8d 70 01             	lea    esi,[eax+0x1]
  402077:	0f 84 83 00 00 00    	je     402100 <_glob_in_set+0xe0>
  40207d:	83 fb 2d             	cmp    ebx,0x2d
  402080:	75 c3                	jne    402045 <_glob_in_set+0x25>
  402082:	0f b6 58 01          	movzx  ebx,BYTE PTR [eax+0x1]
  402086:	80 fb 5d             	cmp    bl,0x5d
  402089:	0f 84 95 00 00 00    	je     402124 <_glob_in_set+0x104>
  40208f:	0f be eb             	movsx  ebp,bl
  402092:	85 ed                	test   ebp,ebp
  402094:	89 eb                	mov    ebx,ebp
  402096:	74 68                	je     402100 <_glob_in_set+0xe0>
  402098:	39 ef                	cmp    edi,ebp
  40209a:	8d 70 02             	lea    esi,[eax+0x2]
  40209d:	0f 8d 85 01 00 00    	jge    402228 <_glob_in_set+0x208>
  4020a3:	39 d7                	cmp    edi,edx
  4020a5:	8d 47 01             	lea    eax,[edi+0x1]
  4020a8:	75 14                	jne    4020be <_glob_in_set+0x9e>
  4020aa:	e9 c1 00 00 00       	jmp    402170 <_glob_in_set+0x150>
  4020af:	90                   	nop
  4020b0:	83 c0 01             	add    eax,0x1
  4020b3:	8d 78 ff             	lea    edi,[eax-0x1]
  4020b6:	39 fa                	cmp    edx,edi
  4020b8:	0f 84 b2 00 00 00    	je     402170 <_glob_in_set+0x150>
  4020be:	39 c5                	cmp    ebp,eax
  4020c0:	7f ee                	jg     4020b0 <_glob_in_set+0x90>
  4020c2:	39 c5                	cmp    ebp,eax
  4020c4:	7d 87                	jge    40204d <_glob_in_set+0x2d>
  4020c6:	39 c2                	cmp    edx,eax
  4020c8:	74 15                	je     4020df <_glob_in_set+0xbf>
  4020ca:	83 c5 01             	add    ebp,0x1
  4020cd:	8d 76 00             	lea    esi,[esi+0x0]
  4020d0:	39 e8                	cmp    eax,ebp
  4020d2:	0f 84 75 ff ff ff    	je     40204d <_glob_in_set+0x2d>
  4020d8:	83 e8 01             	sub    eax,0x1
  4020db:	39 c2                	cmp    edx,eax
  4020dd:	75 f1                	jne    4020d0 <_glob_in_set+0xb0>
  4020df:	8b 0c 24             	mov    ecx,DWORD PTR [esp]
  4020e2:	83 e1 20             	and    ecx,0x20
  4020e5:	0f b6 06             	movzx  eax,BYTE PTR [esi]
  4020e8:	3c 5d                	cmp    al,0x5d
  4020ea:	0f 84 a3 00 00 00    	je     402193 <_glob_in_set+0x173>
  4020f0:	3c 7f                	cmp    al,0x7f
  4020f2:	0f 84 bd 00 00 00    	je     4021b5 <_glob_in_set+0x195>
  4020f8:	83 c6 01             	add    esi,0x1
  4020fb:	84 c0                	test   al,al
  4020fd:	75 e6                	jne    4020e5 <_glob_in_set+0xc5>
  4020ff:	90                   	nop
  402100:	83 c4 04             	add    esp,0x4
  402103:	31 c0                	xor    eax,eax
  402105:	5b                   	pop    ebx
  402106:	5e                   	pop    esi
  402107:	5f                   	pop    edi
  402108:	5d                   	pop    ebp
  402109:	c3                   	ret    
  40210a:	8d b6 00 00 00 00    	lea    esi,[esi+0x0]
  402110:	39 d7                	cmp    edi,edx
  402112:	0f 84 b8 00 00 00    	je     4021d0 <_glob_in_set+0x1b0>
  402118:	0f b6 48 01          	movzx  ecx,BYTE PTR [eax+0x1]
  40211c:	83 c0 01             	add    eax,0x1
  40211f:	e9 4a ff ff ff       	jmp    40206e <_glob_in_set+0x4e>
  402124:	bf 2d 00 00 00       	mov    edi,0x2d
  402129:	89 f0                	mov    eax,esi
  40212b:	39 d7                	cmp    edi,edx
  40212d:	b9 5d 00 00 00       	mov    ecx,0x5d
  402132:	0f 85 36 ff ff ff    	jne    40206e <_glob_in_set+0x4e>
  402138:	8b 14 24             	mov    edx,DWORD PTR [esp]
  40213b:	83 e2 20             	and    edx,0x20
  40213e:	eb 0a                	jmp    40214a <_glob_in_set+0x12a>
  402140:	83 c0 01             	add    eax,0x1
  402143:	84 c9                	test   cl,cl
  402145:	74 b9                	je     402100 <_glob_in_set+0xe0>
  402147:	0f b6 08             	movzx  ecx,BYTE PTR [eax]
  40214a:	80 f9 5d             	cmp    cl,0x5d
  40214d:	0f 84 c2 00 00 00    	je     402215 <_glob_in_set+0x1f5>
  402153:	80 f9 7f             	cmp    cl,0x7f
  402156:	75 e8                	jne    402140 <_glob_in_set+0x120>
  402158:	85 d2                	test   edx,edx
  40215a:	0f 85 c0 00 00 00    	jne    402220 <_glob_in_set+0x200>
  402160:	0f b6 48 01          	movzx  ecx,BYTE PTR [eax+0x1]
  402164:	83 c0 01             	add    eax,0x1
  402167:	eb d7                	jmp    402140 <_glob_in_set+0x120>
  402169:	8d b4 26 00 00 00 00 	lea    esi,[esi+eiz*1+0x0]
  402170:	8b 0c 24             	mov    ecx,DWORD PTR [esp]
  402173:	83 e1 20             	and    ecx,0x20
  402176:	0f b6 06             	movzx  eax,BYTE PTR [esi]
  402179:	3c 5d                	cmp    al,0x5d
  40217b:	74 16                	je     402193 <_glob_in_set+0x173>
  40217d:	3c 7f                	cmp    al,0x7f
  40217f:	74 1f                	je     4021a0 <_glob_in_set+0x180>
  402181:	83 c6 01             	add    esi,0x1
  402184:	84 c0                	test   al,al
  402186:	0f 84 74 ff ff ff    	je     402100 <_glob_in_set+0xe0>
  40218c:	0f b6 06             	movzx  eax,BYTE PTR [esi]
  40218f:	3c 5d                	cmp    al,0x5d
  402191:	75 ea                	jne    40217d <_glob_in_set+0x15d>
  402193:	83 c4 04             	add    esp,0x4
  402196:	5b                   	pop    ebx
  402197:	8d 46 01             	lea    eax,[esi+0x1]
  40219a:	5e                   	pop    esi
  40219b:	5f                   	pop    edi
  40219c:	5d                   	pop    ebp
  40219d:	c3                   	ret    
  40219e:	66 90                	xchg   ax,ax
  4021a0:	85 c9                	test   ecx,ecx
  4021a2:	75 0c                	jne    4021b0 <_glob_in_set+0x190>
  4021a4:	0f b6 46 01          	movzx  eax,BYTE PTR [esi+0x1]
  4021a8:	83 c6 01             	add    esi,0x1
  4021ab:	eb d4                	jmp    402181 <_glob_in_set+0x161>
  4021ad:	8d 76 00             	lea    esi,[esi+0x0]
  4021b0:	83 c6 01             	add    esi,0x1
  4021b3:	eb c1                	jmp    402176 <_glob_in_set+0x156>
  4021b5:	85 c9                	test   ecx,ecx
  4021b7:	75 0c                	jne    4021c5 <_glob_in_set+0x1a5>
  4021b9:	0f b6 46 01          	movzx  eax,BYTE PTR [esi+0x1]
  4021bd:	83 c6 01             	add    esi,0x1
  4021c0:	e9 33 ff ff ff       	jmp    4020f8 <_glob_in_set+0xd8>
  4021c5:	83 c6 01             	add    esi,0x1
  4021c8:	e9 18 ff ff ff       	jmp    4020e5 <_glob_in_set+0xc5>
  4021cd:	8d 76 00             	lea    esi,[esi+0x0]
  4021d0:	8b 0c 24             	mov    ecx,DWORD PTR [esp]
  4021d3:	83 c0 01             	add    eax,0x1
  4021d6:	83 e1 20             	and    ecx,0x20
  4021d9:	8d b4 26 00 00 00 00 	lea    esi,[esi+eiz*1+0x0]
  4021e0:	0f b6 10             	movzx  edx,BYTE PTR [eax]
  4021e3:	80 fa 5d             	cmp    dl,0x5d
  4021e6:	74 2d                	je     402215 <_glob_in_set+0x1f5>
  4021e8:	80 fa 7f             	cmp    dl,0x7f
  4021eb:	74 13                	je     402200 <_glob_in_set+0x1e0>
  4021ed:	83 c0 01             	add    eax,0x1
  4021f0:	84 d2                	test   dl,dl
  4021f2:	75 ec                	jne    4021e0 <_glob_in_set+0x1c0>
  4021f4:	e9 07 ff ff ff       	jmp    402100 <_glob_in_set+0xe0>
  4021f9:	8d b4 26 00 00 00 00 	lea    esi,[esi+eiz*1+0x0]
  402200:	85 c9                	test   ecx,ecx
  402202:	75 0c                	jne    402210 <_glob_in_set+0x1f0>
  402204:	0f b6 50 01          	movzx  edx,BYTE PTR [eax+0x1]
  402208:	83 c0 01             	add    eax,0x1
  40220b:	eb e0                	jmp    4021ed <_glob_in_set+0x1cd>
  40220d:	8d 76 00             	lea    esi,[esi+0x0]
  402210:	83 c0 01             	add    eax,0x1
  402213:	eb cb                	jmp    4021e0 <_glob_in_set+0x1c0>
  402215:	83 c4 04             	add    esp,0x4
  402218:	83 c0 01             	add    eax,0x1
  40221b:	5b                   	pop    ebx
  40221c:	5e                   	pop    esi
  40221d:	5f                   	pop    edi
  40221e:	5d                   	pop    ebp
  40221f:	c3                   	ret    
  402220:	83 c0 01             	add    eax,0x1
  402223:	e9 1f ff ff ff       	jmp    402147 <_glob_in_set+0x127>
  402228:	89 f8                	mov    eax,edi
  40222a:	e9 93 fe ff ff       	jmp    4020c2 <_glob_in_set+0xa2>
  40222f:	90                   	nop

00402230 <_glob_initialise>:
  402230:	55                   	push   ebp
  402231:	57                   	push   edi
  402232:	56                   	push   esi
  402233:	89 c6                	mov    esi,eax
  402235:	53                   	push   ebx
  402236:	83 ec 1c             	sub    esp,0x1c
  402239:	85 c0                	test   eax,eax
  40223b:	74 47                	je     402284 <_glob_initialise+0x54>
  40223d:	8b 40 0c             	mov    eax,DWORD PTR [eax+0xc]
  402240:	8d 78 01             	lea    edi,[eax+0x1]
  402243:	8d 2c bd 00 00 00 00 	lea    ebp,[edi*4+0x0]
  40224a:	89 2c 24             	mov    DWORD PTR [esp],ebp
  40224d:	e8 76 5d 00 00       	call   407fc8 <_malloc>
  402252:	89 c3                	mov    ebx,eax
  402254:	85 db                	test   ebx,ebx
  402256:	89 46 08             	mov    DWORD PTR [esi+0x8],eax
  402259:	b8 03 00 00 00       	mov    eax,0x3
  40225e:	74 26                	je     402286 <_glob_initialise+0x56>
  402260:	85 ff                	test   edi,edi
  402262:	89 fa                	mov    edx,edi
  402264:	c7 46 04 00 00 00 00 	mov    DWORD PTR [esi+0x4],0x0
  40226b:	7e 17                	jle    402284 <_glob_initialise+0x54>
  40226d:	8d 4d fc             	lea    ecx,[ebp-0x4]
  402270:	eb 03                	jmp    402275 <_glob_initialise+0x45>
  402272:	8b 5e 08             	mov    ebx,DWORD PTR [esi+0x8]
  402275:	c7 04 0b 00 00 00 00 	mov    DWORD PTR [ebx+ecx*1],0x0
  40227c:	83 e9 04             	sub    ecx,0x4
  40227f:	83 ea 01             	sub    edx,0x1
  402282:	75 ee                	jne    402272 <_glob_initialise+0x42>
  402284:	31 c0                	xor    eax,eax
  402286:	83 c4 1c             	add    esp,0x1c
  402289:	5b                   	pop    ebx
  40228a:	5e                   	pop    esi
  40228b:	5f                   	pop    edi
  40228c:	5d                   	pop    ebp
  40228d:	c3                   	ret    
  40228e:	66 90                	xchg   ax,ax

00402290 <_glob_strcmp>:
  402290:	55                   	push   ebp
  402291:	57                   	push   edi
  402292:	89 c7                	mov    edi,eax
  402294:	56                   	push   esi
  402295:	53                   	push   ebx
  402296:	83 ec 2c             	sub    esp,0x2c
  402299:	80 3a 2e             	cmp    BYTE PTR [edx],0x2e
  40229c:	89 4c 24 10          	mov    DWORD PTR [esp+0x10],ecx
  4022a0:	0f 84 5a 01 00 00    	je     402400 <_glob_strcmp+0x170>
  4022a6:	0f b6 08             	movzx  ecx,BYTE PTR [eax]
  4022a9:	8b 74 24 10          	mov    esi,DWORD PTR [esp+0x10]
  4022ad:	8d 6a 01             	lea    ebp,[edx+0x1]
  4022b0:	89 f0                	mov    eax,esi
  4022b2:	83 e0 20             	and    eax,0x20
  4022b5:	89 44 24 14          	mov    DWORD PTR [esp+0x14],eax
  4022b9:	89 f0                	mov    eax,esi
  4022bb:	25 00 40 00 00       	and    eax,0x4000
  4022c0:	89 44 24 18          	mov    DWORD PTR [esp+0x18],eax
  4022c4:	0f be d1             	movsx  edx,cl
  4022c7:	85 d2                	test   edx,edx
  4022c9:	8d 75 ff             	lea    esi,[ebp-0x1]
  4022cc:	8d 47 01             	lea    eax,[edi+0x1]
  4022cf:	0f 84 70 01 00 00    	je     402445 <_glob_strcmp+0x1b5>
  4022d5:	80 f9 3f             	cmp    cl,0x3f
  4022d8:	0f 84 e4 00 00 00    	je     4023c2 <_glob_strcmp+0x132>
  4022de:	80 f9 5b             	cmp    cl,0x5b
  4022e1:	0f 84 ab 00 00 00    	je     402392 <_glob_strcmp+0x102>
  4022e7:	80 f9 2a             	cmp    cl,0x2a
  4022ea:	74 5c                	je     402348 <_glob_strcmp+0xb8>
  4022ec:	8b 4c 24 14          	mov    ecx,DWORD PTR [esp+0x14]
  4022f0:	85 c9                	test   ecx,ecx
  4022f2:	0f 84 d8 00 00 00    	je     4023d0 <_glob_strcmp+0x140>
  4022f8:	89 c7                	mov    edi,eax
  4022fa:	0f be 5d ff          	movsx  ebx,BYTE PTR [ebp-0x1]
  4022fe:	84 db                	test   bl,bl
  402300:	0f 84 92 01 00 00    	je     402498 <_glob_strcmp+0x208>
  402306:	8b 44 24 18          	mov    eax,DWORD PTR [esp+0x18]
  40230a:	85 c0                	test   eax,eax
  40230c:	0f 85 de 00 00 00    	jne    4023f0 <_glob_strcmp+0x160>
  402312:	89 14 24             	mov    DWORD PTR [esp],edx
  402315:	89 54 24 1c          	mov    DWORD PTR [esp+0x1c],edx
  402319:	e8 5a 5c 00 00       	call   407f78 <_tolower>
  40231e:	89 1c 24             	mov    DWORD PTR [esp],ebx
  402321:	89 c6                	mov    esi,eax
  402323:	e8 50 5c 00 00       	call   407f78 <_tolower>
  402328:	8b 54 24 1c          	mov    edx,DWORD PTR [esp+0x1c]
  40232c:	29 c6                	sub    esi,eax
  40232e:	85 f6                	test   esi,esi
  402330:	0f 84 81 00 00 00    	je     4023b7 <_glob_strcmp+0x127>
  402336:	89 d0                	mov    eax,edx
  402338:	29 d8                	sub    eax,ebx
  40233a:	8d b6 00 00 00 00    	lea    esi,[esi+0x0]
  402340:	83 c4 2c             	add    esp,0x2c
  402343:	5b                   	pop    ebx
  402344:	5e                   	pop    esi
  402345:	5f                   	pop    edi
  402346:	5d                   	pop    ebp
  402347:	c3                   	ret    
  402348:	0f b6 57 01          	movzx  edx,BYTE PTR [edi+0x1]
  40234c:	89 c3                	mov    ebx,eax
  40234e:	80 fa 2a             	cmp    dl,0x2a
  402351:	75 0b                	jne    40235e <_glob_strcmp+0xce>
  402353:	83 c3 01             	add    ebx,0x1
  402356:	0f b6 13             	movzx  edx,BYTE PTR [ebx]
  402359:	80 fa 2a             	cmp    dl,0x2a
  40235c:	74 f5                	je     402353 <_glob_strcmp+0xc3>
  40235e:	31 c0                	xor    eax,eax
  402360:	84 d2                	test   dl,dl
  402362:	74 dc                	je     402340 <_glob_strcmp+0xb0>
  402364:	8b 7c 24 10          	mov    edi,DWORD PTR [esp+0x10]
  402368:	81 cf 00 00 01 00    	or     edi,0x10000
  40236e:	eb 09                	jmp    402379 <_glob_strcmp+0xe9>
  402370:	83 c6 01             	add    esi,0x1
  402373:	80 7e ff 00          	cmp    BYTE PTR [esi-0x1],0x0
  402377:	74 c7                	je     402340 <_glob_strcmp+0xb0>
  402379:	89 f9                	mov    ecx,edi
  40237b:	89 f2                	mov    edx,esi
  40237d:	89 d8                	mov    eax,ebx
  40237f:	e8 0c ff ff ff       	call   402290 <_glob_strcmp>
  402384:	85 c0                	test   eax,eax
  402386:	75 e8                	jne    402370 <_glob_strcmp+0xe0>
  402388:	83 c4 2c             	add    esp,0x2c
  40238b:	31 c0                	xor    eax,eax
  40238d:	5b                   	pop    ebx
  40238e:	5e                   	pop    esi
  40238f:	5f                   	pop    edi
  402390:	5d                   	pop    ebp
  402391:	c3                   	ret    
  402392:	0f be 55 ff          	movsx  edx,BYTE PTR [ebp-0x1]
  402396:	85 d2                	test   edx,edx
  402398:	0f 84 0b 01 00 00    	je     4024a9 <_glob_strcmp+0x219>
  40239e:	80 7f 01 21          	cmp    BYTE PTR [edi+0x1],0x21
  4023a2:	74 7c                	je     402420 <_glob_strcmp+0x190>
  4023a4:	8b 4c 24 10          	mov    ecx,DWORD PTR [esp+0x10]
  4023a8:	e8 73 fc ff ff       	call   402020 <_glob_in_set>
  4023ad:	85 c0                	test   eax,eax
  4023af:	89 c7                	mov    edi,eax
  4023b1:	0f 84 d7 00 00 00    	je     40248e <_glob_strcmp+0x1fe>
  4023b7:	0f b6 0f             	movzx  ecx,BYTE PTR [edi]
  4023ba:	83 c5 01             	add    ebp,0x1
  4023bd:	e9 02 ff ff ff       	jmp    4022c4 <_glob_strcmp+0x34>
  4023c2:	80 7d ff 00          	cmp    BYTE PTR [ebp-0x1],0x0
  4023c6:	0f 84 d3 00 00 00    	je     40249f <_glob_strcmp+0x20f>
  4023cc:	89 c7                	mov    edi,eax
  4023ce:	eb e7                	jmp    4023b7 <_glob_strcmp+0x127>
  4023d0:	83 fa 7f             	cmp    edx,0x7f
  4023d3:	0f 85 1f ff ff ff    	jne    4022f8 <_glob_strcmp+0x68>
  4023d9:	0f be 57 01          	movsx  edx,BYTE PTR [edi+0x1]
  4023dd:	83 c7 02             	add    edi,0x2
  4023e0:	85 d2                	test   edx,edx
  4023e2:	0f 85 12 ff ff ff    	jne    4022fa <_glob_strcmp+0x6a>
  4023e8:	e9 0b ff ff ff       	jmp    4022f8 <_glob_strcmp+0x68>
  4023ed:	8d 76 00             	lea    esi,[esi+0x0]
  4023f0:	89 d6                	mov    esi,edx
  4023f2:	29 de                	sub    esi,ebx
  4023f4:	e9 35 ff ff ff       	jmp    40232e <_glob_strcmp+0x9e>
  4023f9:	8d b4 26 00 00 00 00 	lea    esi,[esi+eiz*1+0x0]
  402400:	0f be 00             	movsx  eax,BYTE PTR [eax]
  402403:	3c 2e                	cmp    al,0x2e
  402405:	74 32                	je     402439 <_glob_strcmp+0x1a9>
  402407:	89 c1                	mov    ecx,eax
  402409:	83 e8 2e             	sub    eax,0x2e
  40240c:	f7 44 24 10 00 00 01 	test   DWORD PTR [esp+0x10],0x10000
  402413:	00 
  402414:	0f 85 8f fe ff ff    	jne    4022a9 <_glob_strcmp+0x19>
  40241a:	e9 21 ff ff ff       	jmp    402340 <_glob_strcmp+0xb0>
  40241f:	90                   	nop
  402420:	8b 4c 24 10          	mov    ecx,DWORD PTR [esp+0x10]
  402424:	8d 5f 02             	lea    ebx,[edi+0x2]
  402427:	89 d8                	mov    eax,ebx
  402429:	e8 f2 fb ff ff       	call   402020 <_glob_in_set>
  40242e:	85 c0                	test   eax,eax
  402430:	74 1d                	je     40244f <_glob_strcmp+0x1bf>
  402432:	89 df                	mov    edi,ebx
  402434:	e9 7e ff ff ff       	jmp    4023b7 <_glob_strcmp+0x127>
  402439:	b9 2e 00 00 00       	mov    ecx,0x2e
  40243e:	66 90                	xchg   ax,ax
  402440:	e9 64 fe ff ff       	jmp    4022a9 <_glob_strcmp+0x19>
  402445:	0f be 06             	movsx  eax,BYTE PTR [esi]
  402448:	f7 d8                	neg    eax
  40244a:	e9 f1 fe ff ff       	jmp    402340 <_glob_strcmp+0xb0>
  40244f:	0f b6 47 02          	movzx  eax,BYTE PTR [edi+0x2]
  402453:	8b 54 24 14          	mov    edx,DWORD PTR [esp+0x14]
  402457:	3c 5d                	cmp    al,0x5d
  402459:	75 0f                	jne    40246a <_glob_strcmp+0x1da>
  40245b:	eb 56                	jmp    4024b3 <_glob_strcmp+0x223>
  40245d:	8d 76 00             	lea    esi,[esi+0x0]
  402460:	83 c3 01             	add    ebx,0x1
  402463:	84 c0                	test   al,al
  402465:	74 27                	je     40248e <_glob_strcmp+0x1fe>
  402467:	0f b6 03             	movzx  eax,BYTE PTR [ebx]
  40246a:	3c 5d                	cmp    al,0x5d
  40246c:	74 16                	je     402484 <_glob_strcmp+0x1f4>
  40246e:	3c 7f                	cmp    al,0x7f
  402470:	75 ee                	jne    402460 <_glob_strcmp+0x1d0>
  402472:	85 d2                	test   edx,edx
  402474:	75 09                	jne    40247f <_glob_strcmp+0x1ef>
  402476:	0f b6 43 01          	movzx  eax,BYTE PTR [ebx+0x1]
  40247a:	83 c3 01             	add    ebx,0x1
  40247d:	eb e1                	jmp    402460 <_glob_strcmp+0x1d0>
  40247f:	83 c3 01             	add    ebx,0x1
  402482:	eb e3                	jmp    402467 <_glob_strcmp+0x1d7>
  402484:	83 c3 01             	add    ebx,0x1
  402487:	89 df                	mov    edi,ebx
  402489:	e9 29 ff ff ff       	jmp    4023b7 <_glob_strcmp+0x127>
  40248e:	b8 5d 00 00 00       	mov    eax,0x5d
  402493:	e9 a8 fe ff ff       	jmp    402340 <_glob_strcmp+0xb0>
  402498:	31 db                	xor    ebx,ebx
  40249a:	e9 97 fe ff ff       	jmp    402336 <_glob_strcmp+0xa6>
  40249f:	b8 3f 00 00 00       	mov    eax,0x3f
  4024a4:	e9 97 fe ff ff       	jmp    402340 <_glob_strcmp+0xb0>
  4024a9:	b8 5b 00 00 00       	mov    eax,0x5b
  4024ae:	e9 8d fe ff ff       	jmp    402340 <_glob_strcmp+0xb0>
  4024b3:	8d 5f 03             	lea    ebx,[edi+0x3]
  4024b6:	0f b6 47 03          	movzx  eax,BYTE PTR [edi+0x3]
  4024ba:	8b 54 24 14          	mov    edx,DWORD PTR [esp+0x14]
  4024be:	eb aa                	jmp    40246a <_glob_strcmp+0x1da>

004024c0 <_glob_registry.part.1>:
  4024c0:	57                   	push   edi
  4024c1:	89 c7                	mov    edi,eax
  4024c3:	56                   	push   esi
  4024c4:	53                   	push   ebx
  4024c5:	83 ec 10             	sub    esp,0x10
  4024c8:	8b 40 04             	mov    eax,DWORD PTR [eax+0x4]
  4024cb:	8b 4f 0c             	mov    ecx,DWORD PTR [edi+0xc]
  4024ce:	85 c0                	test   eax,eax
  4024d0:	8d 70 ff             	lea    esi,[eax-0x1]
  4024d3:	8d 1c 8d 00 00 00 00 	lea    ebx,[ecx*4+0x0]
  4024da:	7e 1d                	jle    4024f9 <_glob_registry.part.1+0x39>
  4024dc:	8d 74 26 00          	lea    esi,[esi+eiz*1+0x0]
  4024e0:	8b 57 08             	mov    edx,DWORD PTR [edi+0x8]
  4024e3:	83 ee 01             	sub    esi,0x1
  4024e6:	8b 14 1a             	mov    edx,DWORD PTR [edx+ebx*1]
  4024e9:	83 c3 04             	add    ebx,0x4
  4024ec:	89 14 24             	mov    DWORD PTR [esp],edx
  4024ef:	e8 fc 5a 00 00       	call   407ff0 <_free>
  4024f4:	83 fe ff             	cmp    esi,0xffffffff
  4024f7:	75 e7                	jne    4024e0 <_glob_registry.part.1+0x20>
  4024f9:	8b 47 08             	mov    eax,DWORD PTR [edi+0x8]
  4024fc:	89 04 24             	mov    DWORD PTR [esp],eax
  4024ff:	e8 ec 5a 00 00       	call   407ff0 <_free>
  402504:	83 c4 10             	add    esp,0x10
  402507:	31 c0                	xor    eax,eax
  402509:	5b                   	pop    ebx
  40250a:	5e                   	pop    esi
  40250b:	5f                   	pop    edi
  40250c:	c3                   	ret    
  40250d:	8d 76 00             	lea    esi,[esi+0x0]

00402510 <_glob_store_entry.part.2>:
  402510:	57                   	push   edi
  402511:	56                   	push   esi
  402512:	89 c6                	mov    esi,eax
  402514:	53                   	push   ebx
  402515:	89 d3                	mov    ebx,edx
  402517:	83 ec 10             	sub    esp,0x10
  40251a:	8b 52 04             	mov    edx,DWORD PTR [edx+0x4]
  40251d:	03 53 0c             	add    edx,DWORD PTR [ebx+0xc]
  402520:	8d 04 95 08 00 00 00 	lea    eax,[edx*4+0x8]
  402527:	89 44 24 04          	mov    DWORD PTR [esp+0x4],eax
  40252b:	8b 43 08             	mov    eax,DWORD PTR [ebx+0x8]
  40252e:	89 04 24             	mov    DWORD PTR [esp],eax
  402531:	e8 72 5a 00 00       	call   407fa8 <_realloc>
  402536:	85 c0                	test   eax,eax
  402538:	89 c2                	mov    edx,eax
  40253a:	74 29                	je     402565 <_glob_store_entry.part.2+0x55>
  40253c:	8b 7b 04             	mov    edi,DWORD PTR [ebx+0x4]
  40253f:	89 43 08             	mov    DWORD PTR [ebx+0x8],eax
  402542:	8b 43 0c             	mov    eax,DWORD PTR [ebx+0xc]
  402545:	8d 4f 01             	lea    ecx,[edi+0x1]
  402548:	01 c7                	add    edi,eax
  40254a:	01 c8                	add    eax,ecx
  40254c:	89 4b 04             	mov    DWORD PTR [ebx+0x4],ecx
  40254f:	89 34 ba             	mov    DWORD PTR [edx+edi*4],esi
  402552:	8b 53 08             	mov    edx,DWORD PTR [ebx+0x8]
  402555:	c7 04 82 00 00 00 00 	mov    DWORD PTR [edx+eax*4],0x0
  40255c:	83 c4 10             	add    esp,0x10
  40255f:	31 c0                	xor    eax,eax
  402561:	5b                   	pop    ebx
  402562:	5e                   	pop    esi
  402563:	5f                   	pop    edi
  402564:	c3                   	ret    
  402565:	83 c4 10             	add    esp,0x10
  402568:	b8 01 00 00 00       	mov    eax,0x1
  40256d:	5b                   	pop    ebx
  40256e:	5e                   	pop    esi
  40256f:	5f                   	pop    edi
  402570:	c3                   	ret    
  402571:	eb 0d                	jmp    402580 <_glob_store_entry>
  402573:	90                   	nop
  402574:	90                   	nop
  402575:	90                   	nop
  402576:	90                   	nop
  402577:	90                   	nop
  402578:	90                   	nop
  402579:	90                   	nop
  40257a:	90                   	nop
  40257b:	90                   	nop
  40257c:	90                   	nop
  40257d:	90                   	nop
  40257e:	90                   	nop
  40257f:	90                   	nop

00402580 <_glob_store_entry>:
  402580:	85 c0                	test   eax,eax
  402582:	75 0c                	jne    402590 <_glob_store_entry+0x10>
  402584:	b8 01 00 00 00       	mov    eax,0x1
  402589:	c3                   	ret    
  40258a:	8d b6 00 00 00 00    	lea    esi,[esi+0x0]
  402590:	85 d2                	test   edx,edx
  402592:	74 f0                	je     402584 <_glob_store_entry+0x4>
  402594:	e9 77 ff ff ff       	jmp    402510 <_glob_store_entry.part.2>
  402599:	8d b4 26 00 00 00 00 	lea    esi,[esi+eiz*1+0x0]

004025a0 <_glob_store_collated_entries>:
  4025a0:	56                   	push   esi
  4025a1:	89 d6                	mov    esi,edx
  4025a3:	53                   	push   ebx
  4025a4:	89 c3                	mov    ebx,eax
  4025a6:	83 ec 14             	sub    esp,0x14
  4025a9:	8b 00                	mov    eax,DWORD PTR [eax]
  4025ab:	85 c0                	test   eax,eax
  4025ad:	74 05                	je     4025b4 <_glob_store_collated_entries+0x14>
  4025af:	e8 ec ff ff ff       	call   4025a0 <_glob_store_collated_entries>
  4025b4:	8b 43 08             	mov    eax,DWORD PTR [ebx+0x8]
  4025b7:	89 f2                	mov    edx,esi
  4025b9:	e8 c2 ff ff ff       	call   402580 <_glob_store_entry>
  4025be:	8b 43 04             	mov    eax,DWORD PTR [ebx+0x4]
  4025c1:	85 c0                	test   eax,eax
  4025c3:	74 07                	je     4025cc <_glob_store_collated_entries+0x2c>
  4025c5:	89 f2                	mov    edx,esi
  4025c7:	e8 d4 ff ff ff       	call   4025a0 <_glob_store_collated_entries>
  4025cc:	89 1c 24             	mov    DWORD PTR [esp],ebx
  4025cf:	e8 1c 5a 00 00       	call   407ff0 <_free>
  4025d4:	83 c4 14             	add    esp,0x14
  4025d7:	5b                   	pop    ebx
  4025d8:	5e                   	pop    esi
  4025d9:	c3                   	ret    
  4025da:	8d b6 00 00 00 00    	lea    esi,[esi+0x0]

004025e0 <_glob_match>:
  4025e0:	55                   	push   ebp
  4025e1:	89 e5                	mov    ebp,esp
  4025e3:	57                   	push   edi
  4025e4:	56                   	push   esi
  4025e5:	53                   	push   ebx
  4025e6:	89 c3                	mov    ebx,eax
  4025e8:	83 ec 6c             	sub    esp,0x6c
  4025eb:	89 55 cc             	mov    DWORD PTR [ebp-0x34],edx
  4025ee:	89 4d a4             	mov    DWORD PTR [ebp-0x5c],ecx
  4025f1:	89 04 24             	mov    DWORD PTR [esp],eax
  4025f4:	e8 87 59 00 00       	call   407f80 <_strlen>
  4025f9:	8d 50 01             	lea    edx,[eax+0x1]
  4025fc:	83 c0 10             	add    eax,0x10
  4025ff:	83 e0 f0             	and    eax,0xfffffff0
  402602:	e8 59 f9 ff ff       	call   401f60 <___chkstk_ms>
  402607:	29 c4                	sub    esp,eax
  402609:	8d 44 24 0c          	lea    eax,[esp+0xc]
  40260d:	89 54 24 08          	mov    DWORD PTR [esp+0x8],edx
  402611:	89 5c 24 04          	mov    DWORD PTR [esp+0x4],ebx
  402615:	89 04 24             	mov    DWORD PTR [esp],eax
  402618:	e8 9b 59 00 00       	call   407fb8 <_memcpy>
  40261d:	89 04 24             	mov    DWORD PTR [esp],eax
  402620:	e8 4b 06 00 00       	call   402c70 <___mingw_dirname>
  402625:	c7 45 e4 00 00 00 00 	mov    DWORD PTR [ebp-0x1c],0x0
  40262c:	89 45 b8             	mov    DWORD PTR [ebp-0x48],eax
  40262f:	8d 45 d8             	lea    eax,[ebp-0x28]
  402632:	e8 f9 fb ff ff       	call   402230 <_glob_initialise>
  402637:	85 c0                	test   eax,eax
  402639:	74 08                	je     402643 <_glob_match+0x63>
  40263b:	8d 65 f4             	lea    esp,[ebp-0xc]
  40263e:	5b                   	pop    ebx
  40263f:	5e                   	pop    esi
  402640:	5f                   	pop    edi
  402641:	5d                   	pop    ebp
  402642:	c3                   	ret    
  402643:	8b 55 cc             	mov    edx,DWORD PTR [ebp-0x34]
  402646:	8b 45 b8             	mov    eax,DWORD PTR [ebp-0x48]
  402649:	e8 42 f9 ff ff       	call   401f90 <_is_glob_pattern>
  40264e:	85 c0                	test   eax,eax
  402650:	0f 84 5a 02 00 00    	je     4028b0 <_glob_match+0x2d0>
  402656:	8b 55 cc             	mov    edx,DWORD PTR [ebp-0x34]
  402659:	8d 45 d8             	lea    eax,[ebp-0x28]
  40265c:	89 04 24             	mov    DWORD PTR [esp],eax
  40265f:	8b 4d a4             	mov    ecx,DWORD PTR [ebp-0x5c]
  402662:	8b 45 b8             	mov    eax,DWORD PTR [ebp-0x48]
  402665:	80 ce 80             	or     dh,0x80
  402668:	e8 73 ff ff ff       	call   4025e0 <_glob_match>
  40266d:	85 c0                	test   eax,eax
  40266f:	75 ca                	jne    40263b <_glob_match+0x5b>
  402671:	0f b6 43 01          	movzx  eax,BYTE PTR [ebx+0x1]
  402675:	3c 5c                	cmp    al,0x5c
  402677:	0f 84 5b 03 00 00    	je     4029d8 <_glob_match+0x3f8>
  40267d:	3c 2f                	cmp    al,0x2f
  40267f:	0f 84 53 03 00 00    	je     4029d8 <_glob_match+0x3f8>
  402685:	8b 75 b8             	mov    esi,DWORD PTR [ebp-0x48]
  402688:	bf 14 a1 40 00       	mov    edi,0x40a114
  40268d:	b9 02 00 00 00       	mov    ecx,0x2
  402692:	f3 a6                	repz cmps BYTE PTR ds:[esi],BYTE PTR es:[edi]
  402694:	0f 85 3e 03 00 00    	jne    4029d8 <_glob_match+0x3f8>
  40269a:	c6 45 a3 5c          	mov    BYTE PTR [ebp-0x5d],0x5c
  40269e:	f6 45 cc 10          	test   BYTE PTR [ebp-0x34],0x10
  4026a2:	89 5d c0             	mov    DWORD PTR [ebp-0x40],ebx
  4026a5:	c7 45 b8 00 00 00 00 	mov    DWORD PTR [ebp-0x48],0x0
  4026ac:	0f 85 33 04 00 00    	jne    402ae5 <_glob_match+0x505>
  4026b2:	8b 45 e0             	mov    eax,DWORD PTR [ebp-0x20]
  4026b5:	89 45 c8             	mov    DWORD PTR [ebp-0x38],eax
  4026b8:	8b 00                	mov    eax,DWORD PTR [eax]
  4026ba:	85 c0                	test   eax,eax
  4026bc:	0f 84 71 04 00 00    	je     402b33 <_glob_match+0x553>
  4026c2:	8b 4d cc             	mov    ecx,DWORD PTR [ebp-0x34]
  4026c5:	c7 45 c4 02 00 00 00 	mov    DWORD PTR [ebp-0x3c],0x2
  4026cc:	89 cf                	mov    edi,ecx
  4026ce:	83 e7 04             	and    edi,0x4
  4026d1:	89 7d 98             	mov    DWORD PTR [ebp-0x68],edi
  4026d4:	89 cf                	mov    edi,ecx
  4026d6:	81 e7 00 80 00 00    	and    edi,0x8000
  4026dc:	89 7d d0             	mov    DWORD PTR [ebp-0x30],edi
  4026df:	90                   	nop
  4026e0:	83 7d c4 01          	cmp    DWORD PTR [ebp-0x3c],0x1
  4026e4:	0f 84 58 02 00 00    	je     402942 <_glob_match+0x362>
  4026ea:	89 04 24             	mov    DWORD PTR [esp],eax
  4026ed:	e8 ee 0a 00 00       	call   4031e0 <___mingw_opendir>
  4026f2:	85 c0                	test   eax,eax
  4026f4:	89 45 d4             	mov    DWORD PTR [ebp-0x2c],eax
  4026f7:	0f 84 76 03 00 00    	je     402a73 <_glob_match+0x493>
  4026fd:	8b 45 b8             	mov    eax,DWORD PTR [ebp-0x48]
  402700:	85 c0                	test   eax,eax
  402702:	0f 84 bd 03 00 00    	je     402ac5 <_glob_match+0x4e5>
  402708:	8b 45 c8             	mov    eax,DWORD PTR [ebp-0x38]
  40270b:	8b 00                	mov    eax,DWORD PTR [eax]
  40270d:	89 04 24             	mov    DWORD PTR [esp],eax
  402710:	e8 6b 58 00 00       	call   407f80 <_strlen>
  402715:	89 45 b4             	mov    DWORD PTR [ebp-0x4c],eax
  402718:	8b 45 cc             	mov    eax,DWORD PTR [ebp-0x34]
  40271b:	c7 45 bc 00 00 00 00 	mov    DWORD PTR [ebp-0x44],0x0
  402722:	83 e0 40             	and    eax,0x40
  402725:	89 45 a8             	mov    DWORD PTR [ebp-0x58],eax
  402728:	8b 45 d4             	mov    eax,DWORD PTR [ebp-0x2c]
  40272b:	89 04 24             	mov    DWORD PTR [esp],eax
  40272e:	e8 4d 0c 00 00       	call   403380 <___mingw_readdir>
  402733:	85 c0                	test   eax,eax
  402735:	89 c6                	mov    esi,eax
  402737:	0f 84 e8 01 00 00    	je     402925 <_glob_match+0x345>
  40273d:	8b 45 d0             	mov    eax,DWORD PTR [ebp-0x30]
  402740:	85 c0                	test   eax,eax
  402742:	74 06                	je     40274a <_glob_match+0x16a>
  402744:	83 7e 08 10          	cmp    DWORD PTR [esi+0x8],0x10
  402748:	75 de                	jne    402728 <_glob_match+0x148>
  40274a:	8b 4d cc             	mov    ecx,DWORD PTR [ebp-0x34]
  40274d:	8d 5e 0c             	lea    ebx,[esi+0xc]
  402750:	8b 45 c0             	mov    eax,DWORD PTR [ebp-0x40]
  402753:	89 da                	mov    edx,ebx
  402755:	e8 36 fb ff ff       	call   402290 <_glob_strcmp>
  40275a:	85 c0                	test   eax,eax
  40275c:	75 ca                	jne    402728 <_glob_match+0x148>
  40275e:	0f b7 56 06          	movzx  edx,WORD PTR [esi+0x6]
  402762:	8b 4d b4             	mov    ecx,DWORD PTR [ebp-0x4c]
  402765:	89 65 b0             	mov    DWORD PTR [ebp-0x50],esp
  402768:	8d 44 11 11          	lea    eax,[ecx+edx*1+0x11]
  40276c:	83 e0 f0             	and    eax,0xfffffff0
  40276f:	e8 ec f7 ff ff       	call   401f60 <___chkstk_ms>
  402774:	29 c4                	sub    esp,eax
  402776:	31 c0                	xor    eax,eax
  402778:	8d 7c 24 0c          	lea    edi,[esp+0xc]
  40277c:	85 c9                	test   ecx,ecx
  40277e:	89 7d ac             	mov    DWORD PTR [ebp-0x54],edi
  402781:	0f 85 ed 01 00 00    	jne    402974 <_glob_match+0x394>
  402787:	83 c2 01             	add    edx,0x1
  40278a:	01 f8                	add    eax,edi
  40278c:	89 54 24 08          	mov    DWORD PTR [esp+0x8],edx
  402790:	89 5c 24 04          	mov    DWORD PTR [esp+0x4],ebx
  402794:	89 e3                	mov    ebx,esp
  402796:	89 04 24             	mov    DWORD PTR [esp],eax
  402799:	e8 1a 58 00 00       	call   407fb8 <_memcpy>
  40279e:	89 3c 24             	mov    DWORD PTR [esp],edi
  4027a1:	e8 da 57 00 00       	call   407f80 <_strlen>
  4027a6:	83 c0 10             	add    eax,0x10
  4027a9:	83 e0 f0             	and    eax,0xfffffff0
  4027ac:	e8 af f7 ff ff       	call   401f60 <___chkstk_ms>
  4027b1:	8b 75 ac             	mov    esi,DWORD PTR [ebp-0x54]
  4027b4:	29 c4                	sub    esp,eax
  4027b6:	8d 4c 24 0c          	lea    ecx,[esp+0xc]
  4027ba:	89 ca                	mov    edx,ecx
  4027bc:	eb 0f                	jmp    4027cd <_glob_match+0x1ed>
  4027be:	66 90                	xchg   ax,ax
  4027c0:	83 c2 01             	add    edx,0x1
  4027c3:	83 c6 01             	add    esi,0x1
  4027c6:	84 c0                	test   al,al
  4027c8:	88 42 ff             	mov    BYTE PTR [edx-0x1],al
  4027cb:	74 1b                	je     4027e8 <_glob_match+0x208>
  4027cd:	0f b6 06             	movzx  eax,BYTE PTR [esi]
  4027d0:	3c 7f                	cmp    al,0x7f
  4027d2:	75 ec                	jne    4027c0 <_glob_match+0x1e0>
  4027d4:	0f b6 46 01          	movzx  eax,BYTE PTR [esi+0x1]
  4027d8:	83 c6 01             	add    esi,0x1
  4027db:	83 c2 01             	add    edx,0x1
  4027de:	83 c6 01             	add    esi,0x1
  4027e1:	84 c0                	test   al,al
  4027e3:	88 42 ff             	mov    BYTE PTR [edx-0x1],al
  4027e6:	75 e5                	jne    4027cd <_glob_match+0x1ed>
  4027e8:	89 0c 24             	mov    DWORD PTR [esp],ecx
  4027eb:	e8 78 5b 00 00       	call   408368 <_strdup>
  4027f0:	89 dc                	mov    esp,ebx
  4027f2:	85 c0                	test   eax,eax
  4027f4:	89 c6                	mov    esi,eax
  4027f6:	0f 84 c6 01 00 00    	je     4029c2 <_glob_match+0x3e2>
  4027fc:	31 c0                	xor    eax,eax
  4027fe:	83 7d c4 02          	cmp    DWORD PTR [ebp-0x3c],0x2
  402802:	0f 94 c0             	sete   al
  402805:	83 e8 01             	sub    eax,0x1
  402808:	21 45 c4             	and    DWORD PTR [ebp-0x3c],eax
  40280b:	8b 45 a8             	mov    eax,DWORD PTR [ebp-0x58]
  40280e:	85 c0                	test   eax,eax
  402810:	0f 85 9d 01 00 00    	jne    4029b3 <_glob_match+0x3d3>
  402816:	8b 5d bc             	mov    ebx,DWORD PTR [ebp-0x44]
  402819:	85 db                	test   ebx,ebx
  40281b:	0f 84 bb 02 00 00    	je     402adc <_glob_match+0x4fc>
  402821:	8b 7d cc             	mov    edi,DWORD PTR [ebp-0x34]
  402824:	81 e7 00 40 00 00    	and    edi,0x4000
  40282a:	eb 18                	jmp    402844 <_glob_match+0x264>
  40282c:	8d 74 26 00          	lea    esi,[esi+eiz*1+0x0]
  402830:	e8 53 57 00 00       	call   407f88 <_strcoll>
  402835:	8b 0b                	mov    ecx,DWORD PTR [ebx]
  402837:	8b 53 04             	mov    edx,DWORD PTR [ebx+0x4]
  40283a:	85 c0                	test   eax,eax
  40283c:	7e 22                	jle    402860 <_glob_match+0x280>
  40283e:	85 d2                	test   edx,edx
  402840:	74 24                	je     402866 <_glob_match+0x286>
  402842:	89 d3                	mov    ebx,edx
  402844:	8b 43 08             	mov    eax,DWORD PTR [ebx+0x8]
  402847:	85 ff                	test   edi,edi
  402849:	89 34 24             	mov    DWORD PTR [esp],esi
  40284c:	89 44 24 04          	mov    DWORD PTR [esp+0x4],eax
  402850:	75 de                	jne    402830 <_glob_match+0x250>
  402852:	e8 09 5b 00 00       	call   408360 <_stricoll>
  402857:	8b 0b                	mov    ecx,DWORD PTR [ebx]
  402859:	8b 53 04             	mov    edx,DWORD PTR [ebx+0x4]
  40285c:	85 c0                	test   eax,eax
  40285e:	7f de                	jg     40283e <_glob_match+0x25e>
  402860:	89 ca                	mov    edx,ecx
  402862:	85 d2                	test   edx,edx
  402864:	75 dc                	jne    402842 <_glob_match+0x262>
  402866:	89 c1                	mov    ecx,eax
  402868:	89 4d ac             	mov    DWORD PTR [ebp-0x54],ecx
  40286b:	c7 04 24 0c 00 00 00 	mov    DWORD PTR [esp],0xc
  402872:	e8 51 57 00 00       	call   407fc8 <_malloc>
  402877:	85 c0                	test   eax,eax
  402879:	74 22                	je     40289d <_glob_match+0x2bd>
  40287b:	85 db                	test   ebx,ebx
  40287d:	89 70 08             	mov    DWORD PTR [eax+0x8],esi
  402880:	c7 40 04 00 00 00 00 	mov    DWORD PTR [eax+0x4],0x0
  402887:	c7 00 00 00 00 00    	mov    DWORD PTR [eax],0x0
  40288d:	74 0e                	je     40289d <_glob_match+0x2bd>
  40288f:	8b 4d ac             	mov    ecx,DWORD PTR [ebp-0x54]
  402892:	85 c9                	test   ecx,ecx
  402894:	0f 8e 16 02 00 00    	jle    402ab0 <_glob_match+0x4d0>
  40289a:	89 43 04             	mov    DWORD PTR [ebx+0x4],eax
  40289d:	8b 7d bc             	mov    edi,DWORD PTR [ebp-0x44]
  4028a0:	85 ff                	test   edi,edi
  4028a2:	0f 84 15 02 00 00    	je     402abd <_glob_match+0x4dd>
  4028a8:	8b 65 b0             	mov    esp,DWORD PTR [ebp-0x50]
  4028ab:	e9 78 fe ff ff       	jmp    402728 <_glob_match+0x148>
  4028b0:	8b 45 b8             	mov    eax,DWORD PTR [ebp-0x48]
  4028b3:	89 e6                	mov    esi,esp
  4028b5:	89 04 24             	mov    DWORD PTR [esp],eax
  4028b8:	e8 c3 56 00 00       	call   407f80 <_strlen>
  4028bd:	83 c0 10             	add    eax,0x10
  4028c0:	83 e0 f0             	and    eax,0xfffffff0
  4028c3:	e8 98 f6 ff ff       	call   401f60 <___chkstk_ms>
  4028c8:	8b 55 b8             	mov    edx,DWORD PTR [ebp-0x48]
  4028cb:	29 c4                	sub    esp,eax
  4028cd:	8d 7c 24 0c          	lea    edi,[esp+0xc]
  4028d1:	89 f9                	mov    ecx,edi
  4028d3:	eb 0d                	jmp    4028e2 <_glob_match+0x302>
  4028d5:	83 c1 01             	add    ecx,0x1
  4028d8:	83 c2 01             	add    edx,0x1
  4028db:	84 c0                	test   al,al
  4028dd:	88 41 ff             	mov    BYTE PTR [ecx-0x1],al
  4028e0:	74 1b                	je     4028fd <_glob_match+0x31d>
  4028e2:	0f b6 02             	movzx  eax,BYTE PTR [edx]
  4028e5:	3c 7f                	cmp    al,0x7f
  4028e7:	75 ec                	jne    4028d5 <_glob_match+0x2f5>
  4028e9:	0f b6 42 01          	movzx  eax,BYTE PTR [edx+0x1]
  4028ed:	83 c2 01             	add    edx,0x1
  4028f0:	83 c1 01             	add    ecx,0x1
  4028f3:	83 c2 01             	add    edx,0x1
  4028f6:	84 c0                	test   al,al
  4028f8:	88 41 ff             	mov    BYTE PTR [ecx-0x1],al
  4028fb:	75 e5                	jne    4028e2 <_glob_match+0x302>
  4028fd:	89 3c 24             	mov    DWORD PTR [esp],edi
  402900:	e8 63 5a 00 00       	call   408368 <_strdup>
  402905:	89 f4                	mov    esp,esi
  402907:	89 c1                	mov    ecx,eax
  402909:	b8 01 00 00 00       	mov    eax,0x1
  40290e:	85 c9                	test   ecx,ecx
  402910:	0f 84 25 fd ff ff    	je     40263b <_glob_match+0x5b>
  402916:	8d 55 d8             	lea    edx,[ebp-0x28]
  402919:	89 c8                	mov    eax,ecx
  40291b:	e8 f0 fb ff ff       	call   402510 <_glob_store_entry.part.2>
  402920:	e9 48 fd ff ff       	jmp    40266d <_glob_match+0x8d>
  402925:	8b 45 d4             	mov    eax,DWORD PTR [ebp-0x2c]
  402928:	89 04 24             	mov    DWORD PTR [esp],eax
  40292b:	e8 a0 0a 00 00       	call   4033d0 <___mingw_closedir>
  402930:	8b 75 bc             	mov    esi,DWORD PTR [ebp-0x44]
  402933:	85 f6                	test   esi,esi
  402935:	74 0b                	je     402942 <_glob_match+0x362>
  402937:	8b 55 08             	mov    edx,DWORD PTR [ebp+0x8]
  40293a:	8b 45 bc             	mov    eax,DWORD PTR [ebp-0x44]
  40293d:	e8 5e fc ff ff       	call   4025a0 <_glob_store_collated_entries>
  402942:	83 45 c8 04          	add    DWORD PTR [ebp-0x38],0x4
  402946:	8b 7d c8             	mov    edi,DWORD PTR [ebp-0x38]
  402949:	8b 47 fc             	mov    eax,DWORD PTR [edi-0x4]
  40294c:	89 04 24             	mov    DWORD PTR [esp],eax
  40294f:	e8 9c 56 00 00       	call   407ff0 <_free>
  402954:	8b 07                	mov    eax,DWORD PTR [edi]
  402956:	85 c0                	test   eax,eax
  402958:	0f 85 82 fd ff ff    	jne    4026e0 <_glob_match+0x100>
  40295e:	8b 45 e0             	mov    eax,DWORD PTR [ebp-0x20]
  402961:	89 04 24             	mov    DWORD PTR [esp],eax
  402964:	e8 87 56 00 00       	call   407ff0 <_free>
  402969:	8b 45 c4             	mov    eax,DWORD PTR [ebp-0x3c]
  40296c:	8d 65 f4             	lea    esp,[ebp-0xc]
  40296f:	5b                   	pop    ebx
  402970:	5e                   	pop    esi
  402971:	5f                   	pop    edi
  402972:	5d                   	pop    ebp
  402973:	c3                   	ret    
  402974:	8b 45 c8             	mov    eax,DWORD PTR [ebp-0x38]
  402977:	8b 75 b4             	mov    esi,DWORD PTR [ebp-0x4c]
  40297a:	89 55 9c             	mov    DWORD PTR [ebp-0x64],edx
  40297d:	8b 00                	mov    eax,DWORD PTR [eax]
  40297f:	89 74 24 08          	mov    DWORD PTR [esp+0x8],esi
  402983:	89 3c 24             	mov    DWORD PTR [esp],edi
  402986:	89 44 24 04          	mov    DWORD PTR [esp+0x4],eax
  40298a:	e8 29 56 00 00       	call   407fb8 <_memcpy>
  40298f:	0f b6 44 34 0b       	movzx  eax,BYTE PTR [esp+esi*1+0xb]
  402994:	8b 55 9c             	mov    edx,DWORD PTR [ebp-0x64]
  402997:	3c 5c                	cmp    al,0x5c
  402999:	74 35                	je     4029d0 <_glob_match+0x3f0>
  40299b:	3c 2f                	cmp    al,0x2f
  40299d:	74 31                	je     4029d0 <_glob_match+0x3f0>
  40299f:	8b 75 b4             	mov    esi,DWORD PTR [ebp-0x4c]
  4029a2:	0f b6 4d a3          	movzx  ecx,BYTE PTR [ebp-0x5d]
  4029a6:	89 f0                	mov    eax,esi
  4029a8:	83 c0 01             	add    eax,0x1
  4029ab:	88 0c 37             	mov    BYTE PTR [edi+esi*1],cl
  4029ae:	e9 d4 fd ff ff       	jmp    402787 <_glob_match+0x1a7>
  4029b3:	8b 55 08             	mov    edx,DWORD PTR [ebp+0x8]
  4029b6:	89 f0                	mov    eax,esi
  4029b8:	e8 c3 fb ff ff       	call   402580 <_glob_store_entry>
  4029bd:	e9 e6 fe ff ff       	jmp    4028a8 <_glob_match+0x2c8>
  4029c2:	c7 45 c4 03 00 00 00 	mov    DWORD PTR [ebp-0x3c],0x3
  4029c9:	e9 da fe ff ff       	jmp    4028a8 <_glob_match+0x2c8>
  4029ce:	66 90                	xchg   ax,ax
  4029d0:	8b 45 b4             	mov    eax,DWORD PTR [ebp-0x4c]
  4029d3:	e9 af fd ff ff       	jmp    402787 <_glob_match+0x1a7>
  4029d8:	8b 45 b8             	mov    eax,DWORD PTR [ebp-0x48]
  4029db:	89 04 24             	mov    DWORD PTR [esp],eax
  4029de:	e8 9d 55 00 00       	call   407f80 <_strlen>
  4029e3:	01 d8                	add    eax,ebx
  4029e5:	39 c3                	cmp    ebx,eax
  4029e7:	0f 83 94 01 00 00    	jae    402b81 <_glob_match+0x5a1>
  4029ed:	0f b6 10             	movzx  edx,BYTE PTR [eax]
  4029f0:	80 fa 2f             	cmp    dl,0x2f
  4029f3:	0f 84 7d 01 00 00    	je     402b76 <_glob_match+0x596>
  4029f9:	80 fa 5c             	cmp    dl,0x5c
  4029fc:	75 1d                	jne    402a1b <_glob_match+0x43b>
  4029fe:	66 90                	xchg   ax,ax
  402a00:	e9 71 01 00 00       	jmp    402b76 <_glob_match+0x596>
  402a05:	0f b6 40 ff          	movzx  eax,BYTE PTR [eax-0x1]
  402a09:	3c 5c                	cmp    al,0x5c
  402a0b:	0f 84 c0 00 00 00    	je     402ad1 <_glob_match+0x4f1>
  402a11:	3c 2f                	cmp    al,0x2f
  402a13:	0f 84 b8 00 00 00    	je     402ad1 <_glob_match+0x4f1>
  402a19:	89 d0                	mov    eax,edx
  402a1b:	8d 50 ff             	lea    edx,[eax-0x1]
  402a1e:	39 da                	cmp    edx,ebx
  402a20:	75 e3                	jne    402a05 <_glob_match+0x425>
  402a22:	0f b6 40 ff          	movzx  eax,BYTE PTR [eax-0x1]
  402a26:	89 55 c0             	mov    DWORD PTR [ebp-0x40],edx
  402a29:	88 45 a3             	mov    BYTE PTR [ebp-0x5d],al
  402a2c:	80 7d a3 5c          	cmp    BYTE PTR [ebp-0x5d],0x5c
  402a30:	0f 85 0c 01 00 00    	jne    402b42 <_glob_match+0x562>
  402a36:	8b 45 c0             	mov    eax,DWORD PTR [ebp-0x40]
  402a39:	0f b6 4d a3          	movzx  ecx,BYTE PTR [ebp-0x5d]
  402a3d:	83 c0 01             	add    eax,0x1
  402a40:	0f b6 10             	movzx  edx,BYTE PTR [eax]
  402a43:	80 fa 5c             	cmp    dl,0x5c
  402a46:	75 0d                	jne    402a55 <_glob_match+0x475>
  402a48:	83 c0 01             	add    eax,0x1
  402a4b:	89 d1                	mov    ecx,edx
  402a4d:	0f b6 10             	movzx  edx,BYTE PTR [eax]
  402a50:	80 fa 5c             	cmp    dl,0x5c
  402a53:	74 f3                	je     402a48 <_glob_match+0x468>
  402a55:	80 fa 2f             	cmp    dl,0x2f
  402a58:	74 ee                	je     402a48 <_glob_match+0x468>
  402a5a:	89 45 c0             	mov    DWORD PTR [ebp-0x40],eax
  402a5d:	88 4d a3             	mov    BYTE PTR [ebp-0x5d],cl
  402a60:	8b 45 b8             	mov    eax,DWORD PTR [ebp-0x48]
  402a63:	85 c0                	test   eax,eax
  402a65:	0f 85 47 fc ff ff    	jne    4026b2 <_glob_match+0xd2>
  402a6b:	8b 5d c0             	mov    ebx,DWORD PTR [ebp-0x40]
  402a6e:	e9 2b fc ff ff       	jmp    40269e <_glob_match+0xbe>
  402a73:	8b 5d 98             	mov    ebx,DWORD PTR [ebp-0x68]
  402a76:	85 db                	test   ebx,ebx
  402a78:	75 28                	jne    402aa2 <_glob_match+0x4c2>
  402a7a:	8b 7d a4             	mov    edi,DWORD PTR [ebp-0x5c]
  402a7d:	85 ff                	test   edi,edi
  402a7f:	0f 84 bd fe ff ff    	je     402942 <_glob_match+0x362>
  402a85:	e8 9e 55 00 00       	call   408028 <__errno>
  402a8a:	8b 00                	mov    eax,DWORD PTR [eax]
  402a8c:	89 44 24 04          	mov    DWORD PTR [esp+0x4],eax
  402a90:	8b 45 c8             	mov    eax,DWORD PTR [ebp-0x38]
  402a93:	8b 00                	mov    eax,DWORD PTR [eax]
  402a95:	89 04 24             	mov    DWORD PTR [esp],eax
  402a98:	ff d7                	call   edi
  402a9a:	85 c0                	test   eax,eax
  402a9c:	0f 84 a0 fe ff ff    	je     402942 <_glob_match+0x362>
  402aa2:	c7 45 c4 01 00 00 00 	mov    DWORD PTR [ebp-0x3c],0x1
  402aa9:	e9 94 fe ff ff       	jmp    402942 <_glob_match+0x362>
  402aae:	66 90                	xchg   ax,ax
  402ab0:	8b 7d bc             	mov    edi,DWORD PTR [ebp-0x44]
  402ab3:	89 03                	mov    DWORD PTR [ebx],eax
  402ab5:	85 ff                	test   edi,edi
  402ab7:	0f 85 eb fd ff ff    	jne    4028a8 <_glob_match+0x2c8>
  402abd:	89 45 bc             	mov    DWORD PTR [ebp-0x44],eax
  402ac0:	e9 e3 fd ff ff       	jmp    4028a8 <_glob_match+0x2c8>
  402ac5:	c7 45 b4 00 00 00 00 	mov    DWORD PTR [ebp-0x4c],0x0
  402acc:	e9 47 fc ff ff       	jmp    402718 <_glob_match+0x138>
  402ad1:	89 55 c0             	mov    DWORD PTR [ebp-0x40],edx
  402ad4:	88 45 a3             	mov    BYTE PTR [ebp-0x5d],al
  402ad7:	e9 50 ff ff ff       	jmp    402a2c <_glob_match+0x44c>
  402adc:	31 db                	xor    ebx,ebx
  402ade:	31 c9                	xor    ecx,ecx
  402ae0:	e9 83 fd ff ff       	jmp    402868 <_glob_match+0x288>
  402ae5:	8b 55 cc             	mov    edx,DWORD PTR [ebp-0x34]
  402ae8:	89 d8                	mov    eax,ebx
  402aea:	e8 a1 f4 ff ff       	call   401f90 <_is_glob_pattern>
  402aef:	85 c0                	test   eax,eax
  402af1:	0f 85 bb fb ff ff    	jne    4026b2 <_glob_match+0xd2>
  402af7:	89 1c 24             	mov    DWORD PTR [esp],ebx
  402afa:	89 e6                	mov    esi,esp
  402afc:	e8 7f 54 00 00       	call   407f80 <_strlen>
  402b01:	83 c0 10             	add    eax,0x10
  402b04:	83 e0 f0             	and    eax,0xfffffff0
  402b07:	e8 54 f4 ff ff       	call   401f60 <___chkstk_ms>
  402b0c:	29 c4                	sub    esp,eax
  402b0e:	8d 4c 24 0c          	lea    ecx,[esp+0xc]
  402b12:	89 ca                	mov    edx,ecx
  402b14:	eb 0d                	jmp    402b23 <_glob_match+0x543>
  402b16:	83 c2 01             	add    edx,0x1
  402b19:	83 c3 01             	add    ebx,0x1
  402b1c:	84 c0                	test   al,al
  402b1e:	88 42 ff             	mov    BYTE PTR [edx-0x1],al
  402b21:	74 32                	je     402b55 <_glob_match+0x575>
  402b23:	0f b6 03             	movzx  eax,BYTE PTR [ebx]
  402b26:	3c 7f                	cmp    al,0x7f
  402b28:	75 ec                	jne    402b16 <_glob_match+0x536>
  402b2a:	0f b6 43 01          	movzx  eax,BYTE PTR [ebx+0x1]
  402b2e:	83 c3 01             	add    ebx,0x1
  402b31:	eb e3                	jmp    402b16 <_glob_match+0x536>
  402b33:	8b 45 c8             	mov    eax,DWORD PTR [ebp-0x38]
  402b36:	c7 45 c4 02 00 00 00 	mov    DWORD PTR [ebp-0x3c],0x2
  402b3d:	e9 1f fe ff ff       	jmp    402961 <_glob_match+0x381>
  402b42:	80 7d a3 2f          	cmp    BYTE PTR [ebp-0x5d],0x2f
  402b46:	0f 84 ea fe ff ff    	je     402a36 <_glob_match+0x456>
  402b4c:	c6 45 a3 5c          	mov    BYTE PTR [ebp-0x5d],0x5c
  402b50:	e9 0b ff ff ff       	jmp    402a60 <_glob_match+0x480>
  402b55:	89 0c 24             	mov    DWORD PTR [esp],ecx
  402b58:	e8 0b 58 00 00       	call   408368 <_strdup>
  402b5d:	8b 55 08             	mov    edx,DWORD PTR [ebp+0x8]
  402b60:	89 f4                	mov    esp,esi
  402b62:	e8 19 fa ff ff       	call   402580 <_glob_store_entry>
  402b67:	8b 45 e0             	mov    eax,DWORD PTR [ebp-0x20]
  402b6a:	c7 45 c4 00 00 00 00 	mov    DWORD PTR [ebp-0x3c],0x0
  402b71:	e9 eb fd ff ff       	jmp    402961 <_glob_match+0x381>
  402b76:	88 55 a3             	mov    BYTE PTR [ebp-0x5d],dl
  402b79:	89 45 c0             	mov    DWORD PTR [ebp-0x40],eax
  402b7c:	e9 ab fe ff ff       	jmp    402a2c <_glob_match+0x44c>
  402b81:	0f b6 08             	movzx  ecx,BYTE PTR [eax]
  402b84:	89 45 c0             	mov    DWORD PTR [ebp-0x40],eax
  402b87:	88 4d a3             	mov    BYTE PTR [ebp-0x5d],cl
  402b8a:	e9 9d fe ff ff       	jmp    402a2c <_glob_match+0x44c>
  402b8f:	90                   	nop

00402b90 <___mingw_glob>:
  402b90:	55                   	push   ebp
  402b91:	89 e5                	mov    ebp,esp
  402b93:	57                   	push   edi
  402b94:	56                   	push   esi
  402b95:	53                   	push   ebx
  402b96:	83 ec 1c             	sub    esp,0x1c
  402b99:	8b 75 14             	mov    esi,DWORD PTR [ebp+0x14]
  402b9c:	8b 5d 08             	mov    ebx,DWORD PTR [ebp+0x8]
  402b9f:	81 3e 16 a1 40 00    	cmp    DWORD PTR [esi],0x40a116
  402ba5:	74 0d                	je     402bb4 <___mingw_glob+0x24>
  402ba7:	89 f0                	mov    eax,esi
  402ba9:	e8 82 f6 ff ff       	call   402230 <_glob_initialise>
  402bae:	c7 06 16 a1 40 00    	mov    DWORD PTR [esi],0x40a116
  402bb4:	89 34 24             	mov    DWORD PTR [esp],esi
  402bb7:	8b 4d 10             	mov    ecx,DWORD PTR [ebp+0x10]
  402bba:	89 d8                	mov    eax,ebx
  402bbc:	8b 55 0c             	mov    edx,DWORD PTR [ebp+0xc]
  402bbf:	e8 1c fa ff ff       	call   4025e0 <_glob_match>
  402bc4:	83 f8 02             	cmp    eax,0x2
  402bc7:	89 c7                	mov    edi,eax
  402bc9:	74 0a                	je     402bd5 <___mingw_glob+0x45>
  402bcb:	8d 65 f4             	lea    esp,[ebp-0xc]
  402bce:	89 f8                	mov    eax,edi
  402bd0:	5b                   	pop    ebx
  402bd1:	5e                   	pop    esi
  402bd2:	5f                   	pop    edi
  402bd3:	5d                   	pop    ebp
  402bd4:	c3                   	ret    
  402bd5:	f6 45 0c 10          	test   BYTE PTR [ebp+0xc],0x10
  402bd9:	74 f0                	je     402bcb <___mingw_glob+0x3b>
  402bdb:	89 65 e4             	mov    DWORD PTR [ebp-0x1c],esp
  402bde:	89 1c 24             	mov    DWORD PTR [esp],ebx
  402be1:	e8 9a 53 00 00       	call   407f80 <_strlen>
  402be6:	83 c0 10             	add    eax,0x10
  402be9:	83 e0 f0             	and    eax,0xfffffff0
  402bec:	e8 6f f3 ff ff       	call   401f60 <___chkstk_ms>
  402bf1:	29 c4                	sub    esp,eax
  402bf3:	8d 4c 24 04          	lea    ecx,[esp+0x4]
  402bf7:	89 ca                	mov    edx,ecx
  402bf9:	eb 12                	jmp    402c0d <___mingw_glob+0x7d>
  402bfb:	90                   	nop
  402bfc:	8d 74 26 00          	lea    esi,[esi+eiz*1+0x0]
  402c00:	83 c2 01             	add    edx,0x1
  402c03:	83 c3 01             	add    ebx,0x1
  402c06:	84 c0                	test   al,al
  402c08:	88 42 ff             	mov    BYTE PTR [edx-0x1],al
  402c0b:	74 1b                	je     402c28 <___mingw_glob+0x98>
  402c0d:	0f b6 03             	movzx  eax,BYTE PTR [ebx]
  402c10:	3c 7f                	cmp    al,0x7f
  402c12:	75 ec                	jne    402c00 <___mingw_glob+0x70>
  402c14:	0f b6 43 01          	movzx  eax,BYTE PTR [ebx+0x1]
  402c18:	83 c3 01             	add    ebx,0x1
  402c1b:	83 c2 01             	add    edx,0x1
  402c1e:	83 c3 01             	add    ebx,0x1
  402c21:	84 c0                	test   al,al
  402c23:	88 42 ff             	mov    BYTE PTR [edx-0x1],al
  402c26:	75 e5                	jne    402c0d <___mingw_glob+0x7d>
  402c28:	89 0c 24             	mov    DWORD PTR [esp],ecx
  402c2b:	e8 38 57 00 00       	call   408368 <_strdup>
  402c30:	8b 65 e4             	mov    esp,DWORD PTR [ebp-0x1c]
  402c33:	89 f2                	mov    edx,esi
  402c35:	e8 46 f9 ff ff       	call   402580 <_glob_store_entry>
  402c3a:	8d 65 f4             	lea    esp,[ebp-0xc]
  402c3d:	89 f8                	mov    eax,edi
  402c3f:	5b                   	pop    ebx
  402c40:	5e                   	pop    esi
  402c41:	5f                   	pop    edi
  402c42:	5d                   	pop    ebp
  402c43:	c3                   	ret    
  402c44:	8d b6 00 00 00 00    	lea    esi,[esi+0x0]
  402c4a:	8d bf 00 00 00 00    	lea    edi,[edi+0x0]

00402c50 <___mingw_globfree>:
  402c50:	8b 44 24 04          	mov    eax,DWORD PTR [esp+0x4]
  402c54:	81 38 16 a1 40 00    	cmp    DWORD PTR [eax],0x40a116
  402c5a:	74 04                	je     402c60 <___mingw_globfree+0x10>
  402c5c:	f3 c3                	repz ret 
  402c5e:	66 90                	xchg   ax,ax
  402c60:	e9 5b f8 ff ff       	jmp    4024c0 <_glob_registry.part.1>
  402c65:	90                   	nop
  402c66:	90                   	nop
  402c67:	90                   	nop
  402c68:	90                   	nop
  402c69:	90                   	nop
  402c6a:	90                   	nop
  402c6b:	90                   	nop
  402c6c:	90                   	nop
  402c6d:	90                   	nop
  402c6e:	90                   	nop
  402c6f:	90                   	nop

00402c70 <___mingw_dirname>:
  402c70:	55                   	push   ebp
  402c71:	89 e5                	mov    ebp,esp
  402c73:	57                   	push   edi
  402c74:	56                   	push   esi
  402c75:	53                   	push   ebx
  402c76:	83 ec 3c             	sub    esp,0x3c
  402c79:	8b 75 08             	mov    esi,DWORD PTR [ebp+0x8]
  402c7c:	c7 44 24 04 00 00 00 	mov    DWORD PTR [esp+0x4],0x0
  402c83:	00 
  402c84:	c7 04 24 02 00 00 00 	mov    DWORD PTR [esp],0x2
  402c8b:	e8 10 53 00 00       	call   407fa0 <_setlocale>
  402c90:	85 c0                	test   eax,eax
  402c92:	89 c3                	mov    ebx,eax
  402c94:	74 0a                	je     402ca0 <___mingw_dirname+0x30>
  402c96:	89 04 24             	mov    DWORD PTR [esp],eax
  402c99:	e8 ca 56 00 00       	call   408368 <_strdup>
  402c9e:	89 c3                	mov    ebx,eax
  402ca0:	c7 44 24 04 28 a1 40 	mov    DWORD PTR [esp+0x4],0x40a128
  402ca7:	00 
  402ca8:	c7 04 24 02 00 00 00 	mov    DWORD PTR [esp],0x2
  402caf:	e8 ec 52 00 00       	call   407fa0 <_setlocale>
  402cb4:	85 f6                	test   esi,esi
  402cb6:	74 05                	je     402cbd <___mingw_dirname+0x4d>
  402cb8:	80 3e 00             	cmp    BYTE PTR [esi],0x0
  402cbb:	75 73                	jne    402d30 <___mingw_dirname+0xc0>
  402cbd:	c7 44 24 08 00 00 00 	mov    DWORD PTR [esp+0x8],0x0
  402cc4:	00 
  402cc5:	c7 44 24 04 2a a1 40 	mov    DWORD PTR [esp+0x4],0x40a12a
  402ccc:	00 
  402ccd:	c7 04 24 00 00 00 00 	mov    DWORD PTR [esp],0x0
  402cd4:	e8 87 52 00 00       	call   407f60 <_wcstombs>
  402cd9:	8d 70 01             	lea    esi,[eax+0x1]
  402cdc:	89 74 24 04          	mov    DWORD PTR [esp+0x4],esi
  402ce0:	a1 68 d0 40 00       	mov    eax,ds:0x40d068
  402ce5:	89 04 24             	mov    DWORD PTR [esp],eax
  402ce8:	e8 bb 52 00 00       	call   407fa8 <_realloc>
  402ced:	a3 68 d0 40 00       	mov    ds:0x40d068,eax
  402cf2:	89 74 24 08          	mov    DWORD PTR [esp+0x8],esi
  402cf6:	c7 44 24 04 2a a1 40 	mov    DWORD PTR [esp+0x4],0x40a12a
  402cfd:	00 
  402cfe:	89 04 24             	mov    DWORD PTR [esp],eax
  402d01:	e8 5a 52 00 00       	call   407f60 <_wcstombs>
  402d06:	89 5c 24 04          	mov    DWORD PTR [esp+0x4],ebx
  402d0a:	c7 04 24 02 00 00 00 	mov    DWORD PTR [esp],0x2
  402d11:	e8 8a 52 00 00       	call   407fa0 <_setlocale>
  402d16:	89 1c 24             	mov    DWORD PTR [esp],ebx
  402d19:	e8 d2 52 00 00       	call   407ff0 <_free>
  402d1e:	a1 68 d0 40 00       	mov    eax,ds:0x40d068
  402d23:	8d 65 f4             	lea    esp,[ebp-0xc]
  402d26:	5b                   	pop    ebx
  402d27:	5e                   	pop    esi
  402d28:	5f                   	pop    edi
  402d29:	5d                   	pop    ebp
  402d2a:	c3                   	ret    
  402d2b:	90                   	nop
  402d2c:	8d 74 26 00          	lea    esi,[esi+eiz*1+0x0]
  402d30:	89 65 d4             	mov    DWORD PTR [ebp-0x2c],esp
  402d33:	c7 44 24 08 00 00 00 	mov    DWORD PTR [esp+0x8],0x0
  402d3a:	00 
  402d3b:	89 74 24 04          	mov    DWORD PTR [esp+0x4],esi
  402d3f:	c7 04 24 00 00 00 00 	mov    DWORD PTR [esp],0x0
  402d46:	e8 75 52 00 00       	call   407fc0 <_mbstowcs>
  402d4b:	89 c2                	mov    edx,eax
  402d4d:	8d 44 00 12          	lea    eax,[eax+eax*1+0x12]
  402d51:	83 e0 f0             	and    eax,0xfffffff0
  402d54:	e8 07 f2 ff ff       	call   401f60 <___chkstk_ms>
  402d59:	29 c4                	sub    esp,eax
  402d5b:	8d 44 24 0d          	lea    eax,[esp+0xd]
  402d5f:	89 45 e4             	mov    DWORD PTR [ebp-0x1c],eax
  402d62:	d1 6d e4             	shr    DWORD PTR [ebp-0x1c],1
  402d65:	8b 45 e4             	mov    eax,DWORD PTR [ebp-0x1c]
  402d68:	01 c0                	add    eax,eax
  402d6a:	89 45 e0             	mov    DWORD PTR [ebp-0x20],eax
  402d6d:	89 c7                	mov    edi,eax
  402d6f:	89 54 24 08          	mov    DWORD PTR [esp+0x8],edx
  402d73:	89 74 24 04          	mov    DWORD PTR [esp+0x4],esi
  402d77:	89 04 24             	mov    DWORD PTR [esp],eax
  402d7a:	e8 41 52 00 00       	call   407fc0 <_mbstowcs>
  402d7f:	31 c9                	xor    ecx,ecx
  402d81:	66 89 0c 47          	mov    WORD PTR [edi+eax*2],cx
  402d85:	83 f8 01             	cmp    eax,0x1
  402d88:	89 45 d0             	mov    DWORD PTR [ebp-0x30],eax
  402d8b:	8b 45 e4             	mov    eax,DWORD PTR [ebp-0x1c]
  402d8e:	0f b7 04 00          	movzx  eax,WORD PTR [eax+eax*1]
  402d92:	66 89 45 da          	mov    WORD PTR [ebp-0x26],ax
  402d96:	0f 86 f2 00 00 00    	jbe    402e8e <___mingw_dirname+0x21e>
  402d9c:	66 83 f8 5c          	cmp    ax,0x5c
  402da0:	74 0a                	je     402dac <___mingw_dirname+0x13c>
  402da2:	66 83 f8 2f          	cmp    ax,0x2f
  402da6:	0f 85 0a 01 00 00    	jne    402eb6 <___mingw_dirname+0x246>
  402dac:	8b 7d e0             	mov    edi,DWORD PTR [ebp-0x20]
  402daf:	89 7d dc             	mov    DWORD PTR [ebp-0x24],edi
  402db2:	8b 7d e4             	mov    edi,DWORD PTR [ebp-0x1c]
  402db5:	66 3b 44 3f 02       	cmp    ax,WORD PTR [edi+edi*1+0x2]
  402dba:	0f 84 4f 02 00 00    	je     40300f <___mingw_dirname+0x39f>
  402dc0:	0f b7 45 da          	movzx  eax,WORD PTR [ebp-0x26]
  402dc4:	66 85 c0             	test   ax,ax
  402dc7:	0f 84 fa 01 00 00    	je     402fc7 <___mingw_dirname+0x357>
  402dcd:	8b 55 dc             	mov    edx,DWORD PTR [ebp-0x24]
  402dd0:	89 d7                	mov    edi,edx
  402dd2:	eb 14                	jmp    402de8 <___mingw_dirname+0x178>
  402dd4:	66 83 f8 2f          	cmp    ax,0x2f
  402dd8:	74 20                	je     402dfa <___mingw_dirname+0x18a>
  402dda:	0f b7 42 02          	movzx  eax,WORD PTR [edx+0x2]
  402dde:	8d 4a 02             	lea    ecx,[edx+0x2]
  402de1:	66 85 c0             	test   ax,ax
  402de4:	74 36                	je     402e1c <___mingw_dirname+0x1ac>
  402de6:	89 ca                	mov    edx,ecx
  402de8:	66 83 f8 5c          	cmp    ax,0x5c
  402dec:	75 e6                	jne    402dd4 <___mingw_dirname+0x164>
  402dee:	0f b7 02             	movzx  eax,WORD PTR [edx]
  402df1:	66 83 f8 5c          	cmp    ax,0x5c
  402df5:	75 0c                	jne    402e03 <___mingw_dirname+0x193>
  402df7:	83 c2 02             	add    edx,0x2
  402dfa:	0f b7 02             	movzx  eax,WORD PTR [edx]
  402dfd:	66 83 f8 5c          	cmp    ax,0x5c
  402e01:	74 f4                	je     402df7 <___mingw_dirname+0x187>
  402e03:	66 83 f8 2f          	cmp    ax,0x2f
  402e07:	74 ee                	je     402df7 <___mingw_dirname+0x187>
  402e09:	66 85 c0             	test   ax,ax
  402e0c:	74 0e                	je     402e1c <___mingw_dirname+0x1ac>
  402e0e:	0f b7 42 02          	movzx  eax,WORD PTR [edx+0x2]
  402e12:	89 d7                	mov    edi,edx
  402e14:	8d 4a 02             	lea    ecx,[edx+0x2]
  402e17:	66 85 c0             	test   ax,ax
  402e1a:	75 ca                	jne    402de6 <___mingw_dirname+0x176>
  402e1c:	8b 4d dc             	mov    ecx,DWORD PTR [ebp-0x24]
  402e1f:	39 f9                	cmp    ecx,edi
  402e21:	72 7e                	jb     402ea1 <___mingw_dirname+0x231>
  402e23:	66 83 7d da 5c       	cmp    WORD PTR [ebp-0x26],0x5c
  402e28:	74 0b                	je     402e35 <___mingw_dirname+0x1c5>
  402e2a:	66 83 7d da 2f       	cmp    WORD PTR [ebp-0x26],0x2f
  402e2f:	0f 85 ba 01 00 00    	jne    402fef <___mingw_dirname+0x37f>
  402e35:	8b 45 dc             	mov    eax,DWORD PTR [ebp-0x24]
  402e38:	83 c0 02             	add    eax,0x2
  402e3b:	31 d2                	xor    edx,edx
  402e3d:	66 89 10             	mov    WORD PTR [eax],dx
  402e40:	c7 44 24 08 00 00 00 	mov    DWORD PTR [esp+0x8],0x0
  402e47:	00 
  402e48:	8b 45 e0             	mov    eax,DWORD PTR [ebp-0x20]
  402e4b:	c7 04 24 00 00 00 00 	mov    DWORD PTR [esp],0x0
  402e52:	89 44 24 04          	mov    DWORD PTR [esp+0x4],eax
  402e56:	e8 05 51 00 00       	call   407f60 <_wcstombs>
  402e5b:	8d 78 01             	lea    edi,[eax+0x1]
  402e5e:	89 7c 24 04          	mov    DWORD PTR [esp+0x4],edi
  402e62:	a1 68 d0 40 00       	mov    eax,ds:0x40d068
  402e67:	89 04 24             	mov    DWORD PTR [esp],eax
  402e6a:	e8 39 51 00 00       	call   407fa8 <_realloc>
  402e6f:	a3 68 d0 40 00       	mov    ds:0x40d068,eax
  402e74:	89 c6                	mov    esi,eax
  402e76:	89 7c 24 08          	mov    DWORD PTR [esp+0x8],edi
  402e7a:	8b 45 e0             	mov    eax,DWORD PTR [ebp-0x20]
  402e7d:	89 34 24             	mov    DWORD PTR [esp],esi
  402e80:	89 44 24 04          	mov    DWORD PTR [esp+0x4],eax
  402e84:	e8 d7 50 00 00       	call   407f60 <_wcstombs>
  402e89:	e9 e9 00 00 00       	jmp    402f77 <___mingw_dirname+0x307>
  402e8e:	8b 45 e0             	mov    eax,DWORD PTR [ebp-0x20]
  402e91:	89 45 dc             	mov    DWORD PTR [ebp-0x24],eax
  402e94:	e9 27 ff ff ff       	jmp    402dc0 <___mingw_dirname+0x150>
  402e99:	66 83 fa 2f          	cmp    dx,0x2f
  402e9d:	75 46                	jne    402ee5 <___mingw_dirname+0x275>
  402e9f:	89 c7                	mov    edi,eax
  402ea1:	8d 47 fe             	lea    eax,[edi-0x2]
  402ea4:	39 c1                	cmp    ecx,eax
  402ea6:	73 3d                	jae    402ee5 <___mingw_dirname+0x275>
  402ea8:	0f b7 57 fe          	movzx  edx,WORD PTR [edi-0x2]
  402eac:	66 83 fa 5c          	cmp    dx,0x5c
  402eb0:	75 e7                	jne    402e99 <___mingw_dirname+0x229>
  402eb2:	89 c7                	mov    edi,eax
  402eb4:	eb eb                	jmp    402ea1 <___mingw_dirname+0x231>
  402eb6:	8b 45 e0             	mov    eax,DWORD PTR [ebp-0x20]
  402eb9:	89 45 dc             	mov    DWORD PTR [ebp-0x24],eax
  402ebc:	8b 45 e4             	mov    eax,DWORD PTR [ebp-0x1c]
  402ebf:	66 83 7c 00 02 3a    	cmp    WORD PTR [eax+eax*1+0x2],0x3a
  402ec5:	0f 85 f5 fe ff ff    	jne    402dc0 <___mingw_dirname+0x150>
  402ecb:	8b 45 e0             	mov    eax,DWORD PTR [ebp-0x20]
  402ece:	83 c0 04             	add    eax,0x4
  402ed1:	89 45 dc             	mov    DWORD PTR [ebp-0x24],eax
  402ed4:	8b 45 e4             	mov    eax,DWORD PTR [ebp-0x1c]
  402ed7:	0f b7 44 00 04       	movzx  eax,WORD PTR [eax+eax*1+0x4]
  402edc:	66 89 45 da          	mov    WORD PTR [ebp-0x26],ax
  402ee0:	e9 db fe ff ff       	jmp    402dc0 <___mingw_dirname+0x150>
  402ee5:	39 45 dc             	cmp    DWORD PTR [ebp-0x24],eax
  402ee8:	0f 84 37 01 00 00    	je     403025 <___mingw_dirname+0x3b5>
  402eee:	31 d2                	xor    edx,edx
  402ef0:	66 89 50 02          	mov    WORD PTR [eax+0x2],dx
  402ef4:	8b 45 e4             	mov    eax,DWORD PTR [ebp-0x1c]
  402ef7:	0f b7 14 00          	movzx  edx,WORD PTR [eax+eax*1]
  402efb:	8b 45 e0             	mov    eax,DWORD PTR [ebp-0x20]
  402efe:	66 83 fa 5c          	cmp    dx,0x5c
  402f02:	0f 85 c7 00 00 00    	jne    402fcf <___mingw_dirname+0x35f>
  402f08:	83 c0 02             	add    eax,0x2
  402f0b:	0f b7 08             	movzx  ecx,WORD PTR [eax]
  402f0e:	66 83 f9 5c          	cmp    cx,0x5c
  402f12:	74 f4                	je     402f08 <___mingw_dirname+0x298>
  402f14:	66 83 f9 2f          	cmp    cx,0x2f
  402f18:	74 ee                	je     402f08 <___mingw_dirname+0x298>
  402f1a:	89 c1                	mov    ecx,eax
  402f1c:	2b 4d e0             	sub    ecx,DWORD PTR [ebp-0x20]
  402f1f:	83 f9 05             	cmp    ecx,0x5
  402f22:	0f 8e b1 00 00 00    	jle    402fd9 <___mingw_dirname+0x369>
  402f28:	8b 45 e0             	mov    eax,DWORD PTR [ebp-0x20]
  402f2b:	89 c1                	mov    ecx,eax
  402f2d:	66 85 d2             	test   dx,dx
  402f30:	74 21                	je     402f53 <___mingw_dirname+0x2e3>
  402f32:	83 c1 02             	add    ecx,0x2
  402f35:	66 83 fa 2f          	cmp    dx,0x2f
  402f39:	66 89 51 fe          	mov    WORD PTR [ecx-0x2],dx
  402f3d:	74 63                	je     402fa2 <___mingw_dirname+0x332>
  402f3f:	66 83 38 5c          	cmp    WORD PTR [eax],0x5c
  402f43:	8d 78 02             	lea    edi,[eax+0x2]
  402f46:	74 58                	je     402fa0 <___mingw_dirname+0x330>
  402f48:	0f b7 50 02          	movzx  edx,WORD PTR [eax+0x2]
  402f4c:	89 f8                	mov    eax,edi
  402f4e:	66 85 d2             	test   dx,dx
  402f51:	75 df                	jne    402f32 <___mingw_dirname+0x2c2>
  402f53:	8b 45 d0             	mov    eax,DWORD PTR [ebp-0x30]
  402f56:	31 ff                	xor    edi,edi
  402f58:	66 89 39             	mov    WORD PTR [ecx],di
  402f5b:	89 44 24 08          	mov    DWORD PTR [esp+0x8],eax
  402f5f:	8b 45 e0             	mov    eax,DWORD PTR [ebp-0x20]
  402f62:	89 34 24             	mov    DWORD PTR [esp],esi
  402f65:	89 44 24 04          	mov    DWORD PTR [esp+0x4],eax
  402f69:	e8 f2 4f 00 00       	call   407f60 <_wcstombs>
  402f6e:	83 f8 ff             	cmp    eax,0xffffffff
  402f71:	74 04                	je     402f77 <___mingw_dirname+0x307>
  402f73:	c6 04 06 00          	mov    BYTE PTR [esi+eax*1],0x0
  402f77:	89 5c 24 04          	mov    DWORD PTR [esp+0x4],ebx
  402f7b:	c7 04 24 02 00 00 00 	mov    DWORD PTR [esp],0x2
  402f82:	e8 19 50 00 00       	call   407fa0 <_setlocale>
  402f87:	89 1c 24             	mov    DWORD PTR [esp],ebx
  402f8a:	e8 61 50 00 00       	call   407ff0 <_free>
  402f8f:	8b 65 d4             	mov    esp,DWORD PTR [ebp-0x2c]
  402f92:	8d 65 f4             	lea    esp,[ebp-0xc]
  402f95:	5b                   	pop    ebx
  402f96:	89 f0                	mov    eax,esi
  402f98:	5e                   	pop    esi
  402f99:	5f                   	pop    edi
  402f9a:	5d                   	pop    ebp
  402f9b:	c3                   	ret    
  402f9c:	8d 74 26 00          	lea    esi,[esi+eiz*1+0x0]
  402fa0:	89 f8                	mov    eax,edi
  402fa2:	0f b7 10             	movzx  edx,WORD PTR [eax]
  402fa5:	66 83 fa 2f          	cmp    dx,0x2f
  402fa9:	75 59                	jne    403004 <___mingw_dirname+0x394>
  402fab:	90                   	nop
  402fac:	8d 74 26 00          	lea    esi,[esi+eiz*1+0x0]
  402fb0:	83 c0 02             	add    eax,0x2
  402fb3:	0f b7 10             	movzx  edx,WORD PTR [eax]
  402fb6:	66 83 fa 5c          	cmp    dx,0x5c
  402fba:	74 f4                	je     402fb0 <___mingw_dirname+0x340>
  402fbc:	66 83 fa 2f          	cmp    dx,0x2f
  402fc0:	74 ee                	je     402fb0 <___mingw_dirname+0x340>
  402fc2:	e9 66 ff ff ff       	jmp    402f2d <___mingw_dirname+0x2bd>
  402fc7:	8b 65 d4             	mov    esp,DWORD PTR [ebp-0x2c]
  402fca:	e9 ee fc ff ff       	jmp    402cbd <___mingw_dirname+0x4d>
  402fcf:	66 83 fa 2f          	cmp    dx,0x2f
  402fd3:	0f 84 2f ff ff ff    	je     402f08 <___mingw_dirname+0x298>
  402fd9:	8b 7d e4             	mov    edi,DWORD PTR [ebp-0x1c]
  402fdc:	66 39 54 3f 02       	cmp    WORD PTR [edi+edi*1+0x2],dx
  402fe1:	0f 85 41 ff ff ff    	jne    402f28 <___mingw_dirname+0x2b8>
  402fe7:	0f b7 10             	movzx  edx,WORD PTR [eax]
  402fea:	e9 3c ff ff ff       	jmp    402f2b <___mingw_dirname+0x2bb>
  402fef:	8b 7d dc             	mov    edi,DWORD PTR [ebp-0x24]
  402ff2:	b9 2e 00 00 00       	mov    ecx,0x2e
  402ff7:	89 f8                	mov    eax,edi
  402ff9:	83 c0 02             	add    eax,0x2
  402ffc:	66 89 0f             	mov    WORD PTR [edi],cx
  402fff:	e9 37 fe ff ff       	jmp    402e3b <___mingw_dirname+0x1cb>
  403004:	66 83 fa 5c          	cmp    dx,0x5c
  403008:	74 a6                	je     402fb0 <___mingw_dirname+0x340>
  40300a:	e9 1e ff ff ff       	jmp    402f2d <___mingw_dirname+0x2bd>
  40300f:	66 83 7c 3f 04 00    	cmp    WORD PTR [edi+edi*1+0x4],0x0
  403015:	0f 85 a5 fd ff ff    	jne    402dc0 <___mingw_dirname+0x150>
  40301b:	90                   	nop
  40301c:	8d 74 26 00          	lea    esi,[esi+eiz*1+0x0]
  403020:	e9 52 ff ff ff       	jmp    402f77 <___mingw_dirname+0x307>
  403025:	66 83 7d da 5c       	cmp    WORD PTR [ebp-0x26],0x5c
  40302a:	74 0e                	je     40303a <___mingw_dirname+0x3ca>
  40302c:	66 83 7d da 2f       	cmp    WORD PTR [ebp-0x26],0x2f
  403031:	8b 45 dc             	mov    eax,DWORD PTR [ebp-0x24]
  403034:	0f 85 b4 fe ff ff    	jne    402eee <___mingw_dirname+0x27e>
  40303a:	8b 45 dc             	mov    eax,DWORD PTR [ebp-0x24]
  40303d:	0f b7 4d da          	movzx  ecx,WORD PTR [ebp-0x26]
  403041:	66 39 48 02          	cmp    WORD PTR [eax+0x2],cx
  403045:	0f 85 a3 fe ff ff    	jne    402eee <___mingw_dirname+0x27e>
  40304b:	0f b7 50 04          	movzx  edx,WORD PTR [eax+0x4]
  40304f:	66 83 fa 2f          	cmp    dx,0x2f
  403053:	0f 84 95 fe ff ff    	je     402eee <___mingw_dirname+0x27e>
  403059:	66 83 fa 5c          	cmp    dx,0x5c
  40305d:	89 f8                	mov    eax,edi
  40305f:	0f 85 89 fe ff ff    	jne    402eee <___mingw_dirname+0x27e>
  403065:	8b 45 dc             	mov    eax,DWORD PTR [ebp-0x24]
  403068:	e9 81 fe ff ff       	jmp    402eee <___mingw_dirname+0x27e>
  40306d:	90                   	nop
  40306e:	90                   	nop
  40306f:	90                   	nop

00403070 <_dirent_findnext>:
  403070:	55                   	push   ebp
  403071:	89 e5                	mov    ebp,esp
  403073:	56                   	push   esi
  403074:	89 d6                	mov    esi,edx
  403076:	53                   	push   ebx
  403077:	81 ec 50 01 00 00    	sub    esp,0x150
  40307d:	8d 95 b8 fe ff ff    	lea    edx,[ebp-0x148]
  403083:	89 54 24 04          	mov    DWORD PTR [esp+0x4],edx
  403087:	89 04 24             	mov    DWORD PTR [esp],eax
  40308a:	e8 39 50 00 00       	call   4080c8 <_FindNextFileA@8>
  40308f:	83 ec 08             	sub    esp,0x8
  403092:	85 c0                	test   eax,eax
  403094:	89 c3                	mov    ebx,eax
  403096:	75 20                	jne    4030b8 <_dirent_findnext+0x48>
  403098:	e8 1b 50 00 00       	call   4080b8 <_GetLastError@0>
  40309d:	31 db                	xor    ebx,ebx
  40309f:	83 f8 12             	cmp    eax,0x12
  4030a2:	74 0b                	je     4030af <_dirent_findnext+0x3f>
  4030a4:	e8 7f 4f 00 00       	call   408028 <__errno>
  4030a9:	c7 00 02 00 00 00    	mov    DWORD PTR [eax],0x2
  4030af:	8d 65 f8             	lea    esp,[ebp-0x8]
  4030b2:	89 d8                	mov    eax,ebx
  4030b4:	5b                   	pop    ebx
  4030b5:	5e                   	pop    esi
  4030b6:	5d                   	pop    ebp
  4030b7:	c3                   	ret    
  4030b8:	8d 85 e4 fe ff ff    	lea    eax,[ebp-0x11c]
  4030be:	89 44 24 0c          	mov    DWORD PTR [esp+0xc],eax
  4030c2:	8d 46 0c             	lea    eax,[esi+0xc]
  4030c5:	c7 44 24 08 30 a1 40 	mov    DWORD PTR [esp+0x8],0x40a130
  4030cc:	00 
  4030cd:	c7 44 24 04 04 01 00 	mov    DWORD PTR [esp+0x4],0x104
  4030d4:	00 
  4030d5:	89 04 24             	mov    DWORD PTR [esp],eax
  4030d8:	e8 43 04 00 00       	call   403520 <___mingw_snprintf>
  4030dd:	66 89 46 06          	mov    WORD PTR [esi+0x6],ax
  4030e1:	8b 85 b8 fe ff ff    	mov    eax,DWORD PTR [ebp-0x148]
  4030e7:	24 58                	and    al,0x58
  4030e9:	83 f8 10             	cmp    eax,0x10
  4030ec:	76 12                	jbe    403100 <_dirent_findnext+0x90>
  4030ee:	c7 46 08 18 00 00 00 	mov    DWORD PTR [esi+0x8],0x18
  4030f5:	8d 65 f8             	lea    esp,[ebp-0x8]
  4030f8:	89 d8                	mov    eax,ebx
  4030fa:	5b                   	pop    ebx
  4030fb:	5e                   	pop    esi
  4030fc:	5d                   	pop    ebp
  4030fd:	c3                   	ret    
  4030fe:	66 90                	xchg   ax,ax
  403100:	89 46 08             	mov    DWORD PTR [esi+0x8],eax
  403103:	8d 65 f8             	lea    esp,[ebp-0x8]
  403106:	89 d8                	mov    eax,ebx
  403108:	5b                   	pop    ebx
  403109:	5e                   	pop    esi
  40310a:	5d                   	pop    ebp
  40310b:	c3                   	ret    
  40310c:	8d 74 26 00          	lea    esi,[esi+eiz*1+0x0]

00403110 <_dirent_findfirst>:
  403110:	55                   	push   ebp
  403111:	89 e5                	mov    ebp,esp
  403113:	56                   	push   esi
  403114:	53                   	push   ebx
  403115:	89 d3                	mov    ebx,edx
  403117:	81 ec 50 01 00 00    	sub    esp,0x150
  40311d:	8d 95 b8 fe ff ff    	lea    edx,[ebp-0x148]
  403123:	89 54 24 04          	mov    DWORD PTR [esp+0x4],edx
  403127:	89 04 24             	mov    DWORD PTR [esp],eax
  40312a:	e8 a1 4f 00 00       	call   4080d0 <_FindFirstFileA@8>
  40312f:	83 ec 08             	sub    esp,0x8
  403132:	83 f8 ff             	cmp    eax,0xffffffff
  403135:	89 c6                	mov    esi,eax
  403137:	74 4a                	je     403183 <_dirent_findfirst+0x73>
  403139:	8d 85 e4 fe ff ff    	lea    eax,[ebp-0x11c]
  40313f:	89 44 24 0c          	mov    DWORD PTR [esp+0xc],eax
  403143:	8d 43 0c             	lea    eax,[ebx+0xc]
  403146:	c7 44 24 08 30 a1 40 	mov    DWORD PTR [esp+0x8],0x40a130
  40314d:	00 
  40314e:	c7 44 24 04 04 01 00 	mov    DWORD PTR [esp+0x4],0x104
  403155:	00 
  403156:	89 04 24             	mov    DWORD PTR [esp],eax
  403159:	e8 c2 03 00 00       	call   403520 <___mingw_snprintf>
  40315e:	8b 8d b8 fe ff ff    	mov    ecx,DWORD PTR [ebp-0x148]
  403164:	80 e1 58             	and    cl,0x58
  403167:	83 f9 10             	cmp    ecx,0x10
  40316a:	66 89 43 06          	mov    WORD PTR [ebx+0x6],ax
  40316e:	89 4b 08             	mov    DWORD PTR [ebx+0x8],ecx
  403171:	76 07                	jbe    40317a <_dirent_findfirst+0x6a>
  403173:	c7 43 08 18 00 00 00 	mov    DWORD PTR [ebx+0x8],0x18
  40317a:	8d 65 f8             	lea    esp,[ebp-0x8]
  40317d:	89 f0                	mov    eax,esi
  40317f:	5b                   	pop    ebx
  403180:	5e                   	pop    esi
  403181:	5d                   	pop    ebp
  403182:	c3                   	ret    
  403183:	e8 a0 4e 00 00       	call   408028 <__errno>
  403188:	89 c3                	mov    ebx,eax
  40318a:	e8 29 4f 00 00       	call   4080b8 <_GetLastError@0>
  40318f:	83 f8 03             	cmp    eax,0x3
  403192:	89 03                	mov    DWORD PTR [ebx],eax
  403194:	74 2a                	je     4031c0 <_dirent_findfirst+0xb0>
  403196:	e8 8d 4e 00 00       	call   408028 <__errno>
  40319b:	81 38 0b 01 00 00    	cmp    DWORD PTR [eax],0x10b
  4031a1:	74 2d                	je     4031d0 <_dirent_findfirst+0xc0>
  4031a3:	e8 80 4e 00 00       	call   408028 <__errno>
  4031a8:	83 38 02             	cmp    DWORD PTR [eax],0x2
  4031ab:	74 cd                	je     40317a <_dirent_findfirst+0x6a>
  4031ad:	8d 76 00             	lea    esi,[esi+0x0]
  4031b0:	e8 73 4e 00 00       	call   408028 <__errno>
  4031b5:	c7 00 16 00 00 00    	mov    DWORD PTR [eax],0x16
  4031bb:	eb bd                	jmp    40317a <_dirent_findfirst+0x6a>
  4031bd:	8d 76 00             	lea    esi,[esi+0x0]
  4031c0:	e8 63 4e 00 00       	call   408028 <__errno>
  4031c5:	c7 00 02 00 00 00    	mov    DWORD PTR [eax],0x2
  4031cb:	eb ad                	jmp    40317a <_dirent_findfirst+0x6a>
  4031cd:	8d 76 00             	lea    esi,[esi+0x0]
  4031d0:	e8 53 4e 00 00       	call   408028 <__errno>
  4031d5:	c7 00 14 00 00 00    	mov    DWORD PTR [eax],0x14
  4031db:	eb 9d                	jmp    40317a <_dirent_findfirst+0x6a>
  4031dd:	8d 76 00             	lea    esi,[esi+0x0]

004031e0 <___mingw_opendir>:
  4031e0:	55                   	push   ebp
  4031e1:	57                   	push   edi
  4031e2:	56                   	push   esi
  4031e3:	53                   	push   ebx
  4031e4:	81 ec 2c 01 00 00    	sub    esp,0x12c
  4031ea:	8b 84 24 40 01 00 00 	mov    eax,DWORD PTR [esp+0x140]
  4031f1:	85 c0                	test   eax,eax
  4031f3:	0f 84 67 01 00 00    	je     403360 <___mingw_opendir+0x180>
  4031f9:	80 38 00             	cmp    BYTE PTR [eax],0x0
  4031fc:	0f 84 40 01 00 00    	je     403342 <___mingw_opendir+0x162>
  403202:	8d 7c 24 1c          	lea    edi,[esp+0x1c]
  403206:	c7 44 24 08 04 01 00 	mov    DWORD PTR [esp+0x8],0x104
  40320d:	00 
  40320e:	89 fb                	mov    ebx,edi
  403210:	89 44 24 04          	mov    DWORD PTR [esp+0x4],eax
  403214:	89 3c 24             	mov    DWORD PTR [esp],edi
  403217:	e8 04 4e 00 00       	call   408020 <__fullpath>
  40321c:	80 7c 24 1c 00       	cmp    BYTE PTR [esp+0x1c],0x0
  403221:	74 5d                	je     403280 <___mingw_opendir+0xa0>
  403223:	8b 13                	mov    edx,DWORD PTR [ebx]
  403225:	83 c3 04             	add    ebx,0x4
  403228:	8d 82 ff fe fe fe    	lea    eax,[edx-0x1010101]
  40322e:	f7 d2                	not    edx
  403230:	21 d0                	and    eax,edx
  403232:	25 80 80 80 80       	and    eax,0x80808080
  403237:	74 ea                	je     403223 <___mingw_opendir+0x43>
  403239:	a9 80 80 00 00       	test   eax,0x8080
  40323e:	0f 84 df 00 00 00    	je     403323 <___mingw_opendir+0x143>
  403244:	00 c0                	add    al,al
  403246:	83 db 03             	sbb    ebx,0x3
  403249:	29 fb                	sub    ebx,edi
  40324b:	0f b6 44 1c 1b       	movzx  eax,BYTE PTR [esp+ebx*1+0x1b]
  403250:	3c 5c                	cmp    al,0x5c
  403252:	74 50                	je     4032a4 <___mingw_opendir+0xc4>
  403254:	3c 2f                	cmp    al,0x2f
  403256:	74 4c                	je     4032a4 <___mingw_opendir+0xc4>
  403258:	b9 5c 00 00 00       	mov    ecx,0x5c
  40325d:	66 89 0c 1f          	mov    WORD PTR [edi+ebx*1],cx
  403261:	89 fb                	mov    ebx,edi
  403263:	8b 13                	mov    edx,DWORD PTR [ebx]
  403265:	83 c3 04             	add    ebx,0x4
  403268:	8d 82 ff fe fe fe    	lea    eax,[edx-0x1010101]
  40326e:	f7 d2                	not    edx
  403270:	21 d0                	and    eax,edx
  403272:	25 80 80 80 80       	and    eax,0x80808080
  403277:	74 ea                	je     403263 <___mingw_opendir+0x83>
  403279:	eb 1b                	jmp    403296 <___mingw_opendir+0xb6>
  40327b:	90                   	nop
  40327c:	8d 74 26 00          	lea    esi,[esi+eiz*1+0x0]
  403280:	8b 13                	mov    edx,DWORD PTR [ebx]
  403282:	83 c3 04             	add    ebx,0x4
  403285:	8d 82 ff fe fe fe    	lea    eax,[edx-0x1010101]
  40328b:	f7 d2                	not    edx
  40328d:	21 d0                	and    eax,edx
  40328f:	25 80 80 80 80       	and    eax,0x80808080
  403294:	74 ea                	je     403280 <___mingw_opendir+0xa0>
  403296:	a9 80 80 00 00       	test   eax,0x8080
  40329b:	74 7b                	je     403318 <___mingw_opendir+0x138>
  40329d:	00 c0                	add    al,al
  40329f:	83 db 03             	sbb    ebx,0x3
  4032a2:	29 fb                	sub    ebx,edi
  4032a4:	ba 2a 00 00 00       	mov    edx,0x2a
  4032a9:	8d 83 1d 01 00 00    	lea    eax,[ebx+0x11d]
  4032af:	66 89 14 1f          	mov    WORD PTR [edi+ebx*1],dx
  4032b3:	89 04 24             	mov    DWORD PTR [esp],eax
  4032b6:	e8 0d 4d 00 00       	call   407fc8 <_malloc>
  4032bb:	85 c0                	test   eax,eax
  4032bd:	89 c6                	mov    esi,eax
  4032bf:	0f 84 8c 00 00 00    	je     403351 <___mingw_opendir+0x171>
  4032c5:	8d a8 18 01 00 00    	lea    ebp,[eax+0x118]
  4032cb:	83 c3 02             	add    ebx,0x2
  4032ce:	89 5c 24 08          	mov    DWORD PTR [esp+0x8],ebx
  4032d2:	89 7c 24 04          	mov    DWORD PTR [esp+0x4],edi
  4032d6:	89 2c 24             	mov    DWORD PTR [esp],ebp
  4032d9:	e8 da 4c 00 00       	call   407fb8 <_memcpy>
  4032de:	89 f2                	mov    edx,esi
  4032e0:	89 e8                	mov    eax,ebp
  4032e2:	e8 29 fe ff ff       	call   403110 <_dirent_findfirst>
  4032e7:	83 f8 ff             	cmp    eax,0xffffffff
  4032ea:	89 86 10 01 00 00    	mov    DWORD PTR [esi+0x110],eax
  4032f0:	74 7d                	je     40336f <___mingw_opendir+0x18f>
  4032f2:	b8 10 01 00 00       	mov    eax,0x110
  4032f7:	66 89 46 04          	mov    WORD PTR [esi+0x4],ax
  4032fb:	89 f0                	mov    eax,esi
  4032fd:	c7 86 14 01 00 00 00 	mov    DWORD PTR [esi+0x114],0x0
  403304:	00 00 00 
  403307:	c7 06 00 00 00 00    	mov    DWORD PTR [esi],0x0
  40330d:	81 c4 2c 01 00 00    	add    esp,0x12c
  403313:	5b                   	pop    ebx
  403314:	5e                   	pop    esi
  403315:	5f                   	pop    edi
  403316:	5d                   	pop    ebp
  403317:	c3                   	ret    
  403318:	c1 e8 10             	shr    eax,0x10
  40331b:	83 c3 02             	add    ebx,0x2
  40331e:	e9 7a ff ff ff       	jmp    40329d <___mingw_opendir+0xbd>
  403323:	c1 e8 10             	shr    eax,0x10
  403326:	83 c3 02             	add    ebx,0x2
  403329:	00 c0                	add    al,al
  40332b:	83 db 03             	sbb    ebx,0x3
  40332e:	29 fb                	sub    ebx,edi
  403330:	0f b6 44 1c 1b       	movzx  eax,BYTE PTR [esp+ebx*1+0x1b]
  403335:	3c 5c                	cmp    al,0x5c
  403337:	0f 84 67 ff ff ff    	je     4032a4 <___mingw_opendir+0xc4>
  40333d:	e9 12 ff ff ff       	jmp    403254 <___mingw_opendir+0x74>
  403342:	e8 e1 4c 00 00       	call   408028 <__errno>
  403347:	c7 00 02 00 00 00    	mov    DWORD PTR [eax],0x2
  40334d:	31 c0                	xor    eax,eax
  40334f:	eb bc                	jmp    40330d <___mingw_opendir+0x12d>
  403351:	e8 d2 4c 00 00       	call   408028 <__errno>
  403356:	c7 00 0c 00 00 00    	mov    DWORD PTR [eax],0xc
  40335c:	31 c0                	xor    eax,eax
  40335e:	eb ad                	jmp    40330d <___mingw_opendir+0x12d>
  403360:	e8 c3 4c 00 00       	call   408028 <__errno>
  403365:	c7 00 16 00 00 00    	mov    DWORD PTR [eax],0x16
  40336b:	31 c0                	xor    eax,eax
  40336d:	eb 9e                	jmp    40330d <___mingw_opendir+0x12d>
  40336f:	89 34 24             	mov    DWORD PTR [esp],esi
  403372:	e8 79 4c 00 00       	call   407ff0 <_free>
  403377:	31 c0                	xor    eax,eax
  403379:	eb 92                	jmp    40330d <___mingw_opendir+0x12d>
  40337b:	90                   	nop
  40337c:	8d 74 26 00          	lea    esi,[esi+eiz*1+0x0]

00403380 <___mingw_readdir>:
  403380:	53                   	push   ebx
  403381:	83 ec 08             	sub    esp,0x8
  403384:	8b 5c 24 10          	mov    ebx,DWORD PTR [esp+0x10]
  403388:	85 db                	test   ebx,ebx
  40338a:	74 2b                	je     4033b7 <___mingw_readdir+0x37>
  40338c:	8b 83 14 01 00 00    	mov    eax,DWORD PTR [ebx+0x114]
  403392:	8d 50 01             	lea    edx,[eax+0x1]
  403395:	85 c0                	test   eax,eax
  403397:	89 93 14 01 00 00    	mov    DWORD PTR [ebx+0x114],edx
  40339d:	7e 11                	jle    4033b0 <___mingw_readdir+0x30>
  40339f:	8b 83 10 01 00 00    	mov    eax,DWORD PTR [ebx+0x110]
  4033a5:	89 da                	mov    edx,ebx
  4033a7:	e8 c4 fc ff ff       	call   403070 <_dirent_findnext>
  4033ac:	85 c0                	test   eax,eax
  4033ae:	74 02                	je     4033b2 <___mingw_readdir+0x32>
  4033b0:	89 d8                	mov    eax,ebx
  4033b2:	83 c4 08             	add    esp,0x8
  4033b5:	5b                   	pop    ebx
  4033b6:	c3                   	ret    
  4033b7:	e8 6c 4c 00 00       	call   408028 <__errno>
  4033bc:	c7 00 09 00 00 00    	mov    DWORD PTR [eax],0x9
  4033c2:	31 c0                	xor    eax,eax
  4033c4:	eb ec                	jmp    4033b2 <___mingw_readdir+0x32>
  4033c6:	8d 76 00             	lea    esi,[esi+0x0]
  4033c9:	8d bc 27 00 00 00 00 	lea    edi,[edi+eiz*1+0x0]

004033d0 <___mingw_closedir>:
  4033d0:	55                   	push   ebp
  4033d1:	89 e5                	mov    ebp,esp
  4033d3:	53                   	push   ebx
  4033d4:	83 ec 14             	sub    esp,0x14
  4033d7:	8b 5d 08             	mov    ebx,DWORD PTR [ebp+0x8]
  4033da:	85 db                	test   ebx,ebx
  4033dc:	74 24                	je     403402 <___mingw_closedir+0x32>
  4033de:	8b 83 10 01 00 00    	mov    eax,DWORD PTR [ebx+0x110]
  4033e4:	89 04 24             	mov    DWORD PTR [esp],eax
  4033e7:	e8 ec 4c 00 00       	call   4080d8 <_FindClose@4>
  4033ec:	83 ec 04             	sub    esp,0x4
  4033ef:	85 c0                	test   eax,eax
  4033f1:	74 0f                	je     403402 <___mingw_closedir+0x32>
  4033f3:	89 1c 24             	mov    DWORD PTR [esp],ebx
  4033f6:	e8 f5 4b 00 00       	call   407ff0 <_free>
  4033fb:	31 c0                	xor    eax,eax
  4033fd:	8b 5d fc             	mov    ebx,DWORD PTR [ebp-0x4]
  403400:	c9                   	leave  
  403401:	c3                   	ret    
  403402:	e8 21 4c 00 00       	call   408028 <__errno>
  403407:	c7 00 09 00 00 00    	mov    DWORD PTR [eax],0x9
  40340d:	b8 ff ff ff ff       	mov    eax,0xffffffff
  403412:	eb e9                	jmp    4033fd <___mingw_closedir+0x2d>
  403414:	8d b6 00 00 00 00    	lea    esi,[esi+0x0]
  40341a:	8d bf 00 00 00 00    	lea    edi,[edi+0x0]

00403420 <___mingw_rewinddir>:
  403420:	55                   	push   ebp
  403421:	89 e5                	mov    ebp,esp
  403423:	53                   	push   ebx
  403424:	83 ec 14             	sub    esp,0x14
  403427:	8b 5d 08             	mov    ebx,DWORD PTR [ebp+0x8]
  40342a:	85 db                	test   ebx,ebx
  40342c:	74 15                	je     403443 <___mingw_rewinddir+0x23>
  40342e:	8b 83 10 01 00 00    	mov    eax,DWORD PTR [ebx+0x110]
  403434:	89 04 24             	mov    DWORD PTR [esp],eax
  403437:	e8 9c 4c 00 00       	call   4080d8 <_FindClose@4>
  40343c:	83 ec 04             	sub    esp,0x4
  40343f:	85 c0                	test   eax,eax
  403441:	75 10                	jne    403453 <___mingw_rewinddir+0x33>
  403443:	e8 e0 4b 00 00       	call   408028 <__errno>
  403448:	c7 00 09 00 00 00    	mov    DWORD PTR [eax],0x9
  40344e:	8b 5d fc             	mov    ebx,DWORD PTR [ebp-0x4]
  403451:	c9                   	leave  
  403452:	c3                   	ret    
  403453:	8d 83 18 01 00 00    	lea    eax,[ebx+0x118]
  403459:	89 da                	mov    edx,ebx
  40345b:	e8 b0 fc ff ff       	call   403110 <_dirent_findfirst>
  403460:	83 f8 ff             	cmp    eax,0xffffffff
  403463:	89 83 10 01 00 00    	mov    DWORD PTR [ebx+0x110],eax
  403469:	74 e3                	je     40344e <___mingw_rewinddir+0x2e>
  40346b:	c7 83 14 01 00 00 00 	mov    DWORD PTR [ebx+0x114],0x0
  403472:	00 00 00 
  403475:	8b 5d fc             	mov    ebx,DWORD PTR [ebp-0x4]
  403478:	c9                   	leave  
  403479:	c3                   	ret    
  40347a:	8d b6 00 00 00 00    	lea    esi,[esi+0x0]

00403480 <___mingw_telldir>:
  403480:	83 ec 0c             	sub    esp,0xc
  403483:	8b 44 24 10          	mov    eax,DWORD PTR [esp+0x10]
  403487:	85 c0                	test   eax,eax
  403489:	74 0a                	je     403495 <___mingw_telldir+0x15>
  40348b:	8b 80 14 01 00 00    	mov    eax,DWORD PTR [eax+0x114]
  403491:	83 c4 0c             	add    esp,0xc
  403494:	c3                   	ret    
  403495:	e8 8e 4b 00 00       	call   408028 <__errno>
  40349a:	c7 00 09 00 00 00    	mov    DWORD PTR [eax],0x9
  4034a0:	b8 ff ff ff ff       	mov    eax,0xffffffff
  4034a5:	eb ea                	jmp    403491 <___mingw_telldir+0x11>
  4034a7:	89 f6                	mov    esi,esi
  4034a9:	8d bc 27 00 00 00 00 	lea    edi,[edi+eiz*1+0x0]

004034b0 <___mingw_seekdir>:
  4034b0:	56                   	push   esi
  4034b1:	53                   	push   ebx
  4034b2:	83 ec 14             	sub    esp,0x14
  4034b5:	8b 74 24 24          	mov    esi,DWORD PTR [esp+0x24]
  4034b9:	8b 5c 24 20          	mov    ebx,DWORD PTR [esp+0x20]
  4034bd:	85 f6                	test   esi,esi
  4034bf:	78 41                	js     403502 <___mingw_seekdir+0x52>
  4034c1:	89 1c 24             	mov    DWORD PTR [esp],ebx
  4034c4:	e8 57 ff ff ff       	call   403420 <___mingw_rewinddir>
  4034c9:	85 f6                	test   esi,esi
  4034cb:	74 2f                	je     4034fc <___mingw_seekdir+0x4c>
  4034cd:	83 bb 10 01 00 00 ff 	cmp    DWORD PTR [ebx+0x110],0xffffffff
  4034d4:	75 13                	jne    4034e9 <___mingw_seekdir+0x39>
  4034d6:	eb 24                	jmp    4034fc <___mingw_seekdir+0x4c>
  4034d8:	8b 83 10 01 00 00    	mov    eax,DWORD PTR [ebx+0x110]
  4034de:	89 da                	mov    edx,ebx
  4034e0:	e8 8b fb ff ff       	call   403070 <_dirent_findnext>
  4034e5:	85 c0                	test   eax,eax
  4034e7:	74 13                	je     4034fc <___mingw_seekdir+0x4c>
  4034e9:	8b 83 14 01 00 00    	mov    eax,DWORD PTR [ebx+0x114]
  4034ef:	83 c0 01             	add    eax,0x1
  4034f2:	39 c6                	cmp    esi,eax
  4034f4:	89 83 14 01 00 00    	mov    DWORD PTR [ebx+0x114],eax
  4034fa:	7f dc                	jg     4034d8 <___mingw_seekdir+0x28>
  4034fc:	83 c4 14             	add    esp,0x14
  4034ff:	5b                   	pop    ebx
  403500:	5e                   	pop    esi
  403501:	c3                   	ret    
  403502:	e8 21 4b 00 00       	call   408028 <__errno>
  403507:	c7 00 16 00 00 00    	mov    DWORD PTR [eax],0x16
  40350d:	83 c4 14             	add    esp,0x14
  403510:	5b                   	pop    ebx
  403511:	5e                   	pop    esi
  403512:	c3                   	ret    
  403513:	90                   	nop
  403514:	90                   	nop
  403515:	90                   	nop
  403516:	90                   	nop
  403517:	90                   	nop
  403518:	90                   	nop
  403519:	90                   	nop
  40351a:	90                   	nop
  40351b:	90                   	nop
  40351c:	90                   	nop
  40351d:	90                   	nop
  40351e:	90                   	nop
  40351f:	90                   	nop

00403520 <___mingw_snprintf>:
  403520:	83 ec 1c             	sub    esp,0x1c
  403523:	8d 44 24 2c          	lea    eax,[esp+0x2c]
  403527:	89 44 24 0c          	mov    DWORD PTR [esp+0xc],eax
  40352b:	8b 44 24 28          	mov    eax,DWORD PTR [esp+0x28]
  40352f:	89 44 24 08          	mov    DWORD PTR [esp+0x8],eax
  403533:	8b 44 24 24          	mov    eax,DWORD PTR [esp+0x24]
  403537:	89 44 24 04          	mov    DWORD PTR [esp+0x4],eax
  40353b:	8b 44 24 20          	mov    eax,DWORD PTR [esp+0x20]
  40353f:	89 04 24             	mov    DWORD PTR [esp],eax
  403542:	e8 09 00 00 00       	call   403550 <___mingw_vsnprintf>
  403547:	83 c4 1c             	add    esp,0x1c
  40354a:	c3                   	ret    
  40354b:	90                   	nop
  40354c:	90                   	nop
  40354d:	90                   	nop
  40354e:	90                   	nop
  40354f:	90                   	nop

00403550 <___mingw_vsnprintf>:
  403550:	56                   	push   esi
  403551:	53                   	push   ebx
  403552:	83 ec 24             	sub    esp,0x24
  403555:	8b 44 24 34          	mov    eax,DWORD PTR [esp+0x34]
  403559:	8b 5c 24 30          	mov    ebx,DWORD PTR [esp+0x30]
  40355d:	8b 54 24 38          	mov    edx,DWORD PTR [esp+0x38]
  403561:	8b 4c 24 3c          	mov    ecx,DWORD PTR [esp+0x3c]
  403565:	85 c0                	test   eax,eax
  403567:	74 37                	je     4035a0 <___mingw_vsnprintf+0x50>
  403569:	8d 70 ff             	lea    esi,[eax-0x1]
  40356c:	89 54 24 0c          	mov    DWORD PTR [esp+0xc],edx
  403570:	89 4c 24 10          	mov    DWORD PTR [esp+0x10],ecx
  403574:	89 74 24 08          	mov    DWORD PTR [esp+0x8],esi
  403578:	89 5c 24 04          	mov    DWORD PTR [esp+0x4],ebx
  40357c:	c7 04 24 00 00 00 00 	mov    DWORD PTR [esp],0x0
  403583:	e8 e8 15 00 00       	call   404b70 <___mingw_pformat>
  403588:	39 f0                	cmp    eax,esi
  40358a:	89 c2                	mov    edx,eax
  40358c:	77 0a                	ja     403598 <___mingw_vsnprintf+0x48>
  40358e:	c6 04 13 00          	mov    BYTE PTR [ebx+edx*1],0x0
  403592:	83 c4 24             	add    esp,0x24
  403595:	5b                   	pop    ebx
  403596:	5e                   	pop    esi
  403597:	c3                   	ret    
  403598:	89 f2                	mov    edx,esi
  40359a:	eb f2                	jmp    40358e <___mingw_vsnprintf+0x3e>
  40359c:	8d 74 26 00          	lea    esi,[esi+eiz*1+0x0]
  4035a0:	89 5c 24 04          	mov    DWORD PTR [esp+0x4],ebx
  4035a4:	89 4c 24 10          	mov    DWORD PTR [esp+0x10],ecx
  4035a8:	89 54 24 0c          	mov    DWORD PTR [esp+0xc],edx
  4035ac:	c7 44 24 08 00 00 00 	mov    DWORD PTR [esp+0x8],0x0
  4035b3:	00 
  4035b4:	c7 04 24 00 00 00 00 	mov    DWORD PTR [esp],0x0
  4035bb:	e8 b0 15 00 00       	call   404b70 <___mingw_pformat>
  4035c0:	83 c4 24             	add    esp,0x24
  4035c3:	5b                   	pop    ebx
  4035c4:	5e                   	pop    esi
  4035c5:	c3                   	ret    
  4035c6:	90                   	nop
  4035c7:	90                   	nop
  4035c8:	90                   	nop
  4035c9:	90                   	nop
  4035ca:	90                   	nop
  4035cb:	90                   	nop
  4035cc:	90                   	nop
  4035cd:	90                   	nop
  4035ce:	90                   	nop
  4035cf:	90                   	nop

004035d0 <___pformat_cvt>:
  4035d0:	53                   	push   ebx
  4035d1:	89 c1                	mov    ecx,eax
  4035d3:	83 ec 48             	sub    esp,0x48
  4035d6:	8b 44 24 50          	mov    eax,DWORD PTR [esp+0x50]
  4035da:	89 44 24 20          	mov    DWORD PTR [esp+0x20],eax
  4035de:	8b 44 24 54          	mov    eax,DWORD PTR [esp+0x54]
  4035e2:	89 44 24 24          	mov    DWORD PTR [esp+0x24],eax
  4035e6:	8b 44 24 58          	mov    eax,DWORD PTR [esp+0x58]
  4035ea:	89 44 24 28          	mov    DWORD PTR [esp+0x28],eax
  4035ee:	8b 44 24 5c          	mov    eax,DWORD PTR [esp+0x5c]
  4035f2:	db 6c 24 20          	fld    TBYTE PTR [esp+0x20]
  4035f6:	89 44 24 2c          	mov    DWORD PTR [esp+0x2c],eax
  4035fa:	d9 e5                	fxam   
  4035fc:	9b df e0             	fstsw  ax
  4035ff:	dd d8                	fstp   st(0)
  403601:	f6 c4 01             	test   ah,0x1
  403604:	74 1a                	je     403620 <___pformat_cvt+0x50>
  403606:	f6 c4 04             	test   ah,0x4
  403609:	0f 84 91 00 00 00    	je     4036a0 <___pformat_cvt+0xd0>
  40360f:	c7 44 24 38 03 00 00 	mov    DWORD PTR [esp+0x38],0x3
  403616:	00 
  403617:	0f b7 54 24 28       	movzx  edx,WORD PTR [esp+0x28]
  40361c:	31 c0                	xor    eax,eax
  40361e:	eb 14                	jmp    403634 <___pformat_cvt+0x64>
  403620:	f6 c4 04             	test   ah,0x4
  403623:	75 5c                	jne    403681 <___pformat_cvt+0xb1>
  403625:	0f b7 54 24 28       	movzx  edx,WORD PTR [esp+0x28]
  40362a:	31 c0                	xor    eax,eax
  40362c:	c7 44 24 38 00 00 00 	mov    DWORD PTR [esp+0x38],0x0
  403633:	00 
  403634:	81 e2 00 80 00 00    	and    edx,0x8000
  40363a:	8b 5c 24 68          	mov    ebx,DWORD PTR [esp+0x68]
  40363e:	89 13                	mov    DWORD PTR [ebx],edx
  403640:	8d 54 24 3c          	lea    edx,[esp+0x3c]
  403644:	89 54 24 1c          	mov    DWORD PTR [esp+0x1c],edx
  403648:	8b 54 24 64          	mov    edx,DWORD PTR [esp+0x64]
  40364c:	89 4c 24 10          	mov    DWORD PTR [esp+0x10],ecx
  403650:	89 44 24 04          	mov    DWORD PTR [esp+0x4],eax
  403654:	c7 04 24 0c 90 40 00 	mov    DWORD PTR [esp],0x40900c
  40365b:	89 54 24 18          	mov    DWORD PTR [esp+0x18],edx
  40365f:	8b 54 24 60          	mov    edx,DWORD PTR [esp+0x60]
  403663:	89 54 24 14          	mov    DWORD PTR [esp+0x14],edx
  403667:	8d 54 24 38          	lea    edx,[esp+0x38]
  40366b:	89 54 24 0c          	mov    DWORD PTR [esp+0xc],edx
  40366f:	8d 54 24 20          	lea    edx,[esp+0x20]
  403673:	89 54 24 08          	mov    DWORD PTR [esp+0x8],edx
  403677:	e8 e4 24 00 00       	call   405b60 <___gdtoa>
  40367c:	83 c4 48             	add    esp,0x48
  40367f:	5b                   	pop    ebx
  403680:	c3                   	ret    
  403681:	f6 c4 40             	test   ah,0x40
  403684:	74 2a                	je     4036b0 <___pformat_cvt+0xe0>
  403686:	c7 44 24 38 02 00 00 	mov    DWORD PTR [esp+0x38],0x2
  40368d:	00 
  40368e:	0f b7 54 24 28       	movzx  edx,WORD PTR [esp+0x28]
  403693:	b8 c3 bf ff ff       	mov    eax,0xffffbfc3
  403698:	eb 9a                	jmp    403634 <___pformat_cvt+0x64>
  40369a:	8d b6 00 00 00 00    	lea    esi,[esi+0x0]
  4036a0:	c7 44 24 38 04 00 00 	mov    DWORD PTR [esp+0x38],0x4
  4036a7:	00 
  4036a8:	31 c0                	xor    eax,eax
  4036aa:	31 d2                	xor    edx,edx
  4036ac:	eb 8c                	jmp    40363a <___pformat_cvt+0x6a>
  4036ae:	66 90                	xchg   ax,ax
  4036b0:	0f b7 54 24 28       	movzx  edx,WORD PTR [esp+0x28]
  4036b5:	c7 44 24 38 01 00 00 	mov    DWORD PTR [esp+0x38],0x1
  4036bc:	00 
  4036bd:	89 d0                	mov    eax,edx
  4036bf:	25 ff 7f 00 00       	and    eax,0x7fff
  4036c4:	2d 3e 40 00 00       	sub    eax,0x403e
  4036c9:	e9 66 ff ff ff       	jmp    403634 <___pformat_cvt+0x64>
  4036ce:	66 90                	xchg   ax,ax

004036d0 <___pformat_putc>:
  4036d0:	53                   	push   ebx
  4036d1:	83 ec 18             	sub    esp,0x18
  4036d4:	8b 4a 04             	mov    ecx,DWORD PTR [edx+0x4]
  4036d7:	f6 c5 20             	test   ch,0x20
  4036da:	75 08                	jne    4036e4 <___pformat_putc+0x14>
  4036dc:	8b 5a 18             	mov    ebx,DWORD PTR [edx+0x18]
  4036df:	39 5a 1c             	cmp    DWORD PTR [edx+0x1c],ebx
  4036e2:	7e 10                	jle    4036f4 <___pformat_putc+0x24>
  4036e4:	80 e5 10             	and    ch,0x10
  4036e7:	75 17                	jne    403700 <___pformat_putc+0x30>
  4036e9:	8b 1a                	mov    ebx,DWORD PTR [edx]
  4036eb:	8b 4a 18             	mov    ecx,DWORD PTR [edx+0x18]
  4036ee:	88 04 0b             	mov    BYTE PTR [ebx+ecx*1],al
  4036f1:	8b 5a 18             	mov    ebx,DWORD PTR [edx+0x18]
  4036f4:	83 c3 01             	add    ebx,0x1
  4036f7:	89 5a 18             	mov    DWORD PTR [edx+0x18],ebx
  4036fa:	83 c4 18             	add    esp,0x18
  4036fd:	5b                   	pop    ebx
  4036fe:	c3                   	ret    
  4036ff:	90                   	nop
  403700:	8b 0a                	mov    ecx,DWORD PTR [edx]
  403702:	89 04 24             	mov    DWORD PTR [esp],eax
  403705:	89 54 24 0c          	mov    DWORD PTR [esp+0xc],edx
  403709:	89 4c 24 04          	mov    DWORD PTR [esp+0x4],ecx
  40370d:	e8 e6 48 00 00       	call   407ff8 <_fputc>
  403712:	8b 54 24 0c          	mov    edx,DWORD PTR [esp+0xc]
  403716:	8b 5a 18             	mov    ebx,DWORD PTR [edx+0x18]
  403719:	83 c3 01             	add    ebx,0x1
  40371c:	89 5a 18             	mov    DWORD PTR [edx+0x18],ebx
  40371f:	83 c4 18             	add    esp,0x18
  403722:	5b                   	pop    ebx
  403723:	c3                   	ret    
  403724:	8d b6 00 00 00 00    	lea    esi,[esi+0x0]
  40372a:	8d bf 00 00 00 00    	lea    edi,[edi+0x0]

00403730 <___pformat_wputchars>:
  403730:	55                   	push   ebp
  403731:	57                   	push   edi
  403732:	56                   	push   esi
  403733:	89 d6                	mov    esi,edx
  403735:	53                   	push   ebx
  403736:	89 cb                	mov    ebx,ecx
  403738:	83 ec 4c             	sub    esp,0x4c
  40373b:	89 44 24 18          	mov    DWORD PTR [esp+0x18],eax
  40373f:	8d 6c 24 30          	lea    ebp,[esp+0x30]
  403743:	8d 44 24 2c          	lea    eax,[esp+0x2c]
  403747:	89 44 24 08          	mov    DWORD PTR [esp+0x8],eax
  40374b:	c7 44 24 04 00 00 00 	mov    DWORD PTR [esp+0x4],0x0
  403752:	00 
  403753:	89 2c 24             	mov    DWORD PTR [esp],ebp
  403756:	e8 35 22 00 00       	call   405990 <_wcrtomb>
  40375b:	8b 43 0c             	mov    eax,DWORD PTR [ebx+0xc]
  40375e:	85 c0                	test   eax,eax
  403760:	78 08                	js     40376a <___pformat_wputchars+0x3a>
  403762:	39 c6                	cmp    esi,eax
  403764:	0f 8f c7 00 00 00    	jg     403831 <___pformat_wputchars+0x101>
  40376a:	8b 43 08             	mov    eax,DWORD PTR [ebx+0x8]
  40376d:	39 c6                	cmp    esi,eax
  40376f:	0f 8d 8c 00 00 00    	jge    403801 <___pformat_wputchars+0xd1>
  403775:	29 f0                	sub    eax,esi
  403777:	85 c0                	test   eax,eax
  403779:	89 43 08             	mov    DWORD PTR [ebx+0x8],eax
  40377c:	7e 0a                	jle    403788 <___pformat_wputchars+0x58>
  40377e:	f6 43 05 04          	test   BYTE PTR [ebx+0x5],0x4
  403782:	0f 84 85 00 00 00    	je     40380d <___pformat_wputchars+0xdd>
  403788:	89 74 24 1c          	mov    DWORD PTR [esp+0x1c],esi
  40378c:	8d 74 26 00          	lea    esi,[esi+eiz*1+0x0]
  403790:	8b 44 24 1c          	mov    eax,DWORD PTR [esp+0x1c]
  403794:	85 c0                	test   eax,eax
  403796:	7e 54                	jle    4037ec <___pformat_wputchars+0xbc>
  403798:	83 44 24 18 02       	add    DWORD PTR [esp+0x18],0x2
  40379d:	8d 44 24 2c          	lea    eax,[esp+0x2c]
  4037a1:	89 44 24 08          	mov    DWORD PTR [esp+0x8],eax
  4037a5:	8b 44 24 18          	mov    eax,DWORD PTR [esp+0x18]
  4037a9:	0f b7 40 fe          	movzx  eax,WORD PTR [eax-0x2]
  4037ad:	89 2c 24             	mov    DWORD PTR [esp],ebp
  4037b0:	89 44 24 04          	mov    DWORD PTR [esp+0x4],eax
  4037b4:	e8 d7 21 00 00       	call   405990 <_wcrtomb>
  4037b9:	85 c0                	test   eax,eax
  4037bb:	7e 2f                	jle    4037ec <___pformat_wputchars+0xbc>
  4037bd:	8d 74 05 00          	lea    esi,[ebp+eax*1+0x0]
  4037c1:	89 ef                	mov    edi,ebp
  4037c3:	83 c7 01             	add    edi,0x1
  4037c6:	0f be 47 ff          	movsx  eax,BYTE PTR [edi-0x1]
  4037ca:	89 da                	mov    edx,ebx
  4037cc:	e8 ff fe ff ff       	call   4036d0 <___pformat_putc>
  4037d1:	39 f7                	cmp    edi,esi
  4037d3:	75 ee                	jne    4037c3 <___pformat_wputchars+0x93>
  4037d5:	83 6c 24 1c 01       	sub    DWORD PTR [esp+0x1c],0x1
  4037da:	eb b4                	jmp    403790 <___pformat_wputchars+0x60>
  4037dc:	8d 74 26 00          	lea    esi,[esi+eiz*1+0x0]
  4037e0:	89 da                	mov    edx,ebx
  4037e2:	b8 20 00 00 00       	mov    eax,0x20
  4037e7:	e8 e4 fe ff ff       	call   4036d0 <___pformat_putc>
  4037ec:	8b 43 08             	mov    eax,DWORD PTR [ebx+0x8]
  4037ef:	8d 50 ff             	lea    edx,[eax-0x1]
  4037f2:	85 c0                	test   eax,eax
  4037f4:	89 53 08             	mov    DWORD PTR [ebx+0x8],edx
  4037f7:	7f e7                	jg     4037e0 <___pformat_wputchars+0xb0>
  4037f9:	83 c4 4c             	add    esp,0x4c
  4037fc:	5b                   	pop    ebx
  4037fd:	5e                   	pop    esi
  4037fe:	5f                   	pop    edi
  4037ff:	5d                   	pop    ebp
  403800:	c3                   	ret    
  403801:	c7 43 08 ff ff ff ff 	mov    DWORD PTR [ebx+0x8],0xffffffff
  403808:	e9 7b ff ff ff       	jmp    403788 <___pformat_wputchars+0x58>
  40380d:	83 e8 01             	sub    eax,0x1
  403810:	89 43 08             	mov    DWORD PTR [ebx+0x8],eax
  403813:	89 da                	mov    edx,ebx
  403815:	b8 20 00 00 00       	mov    eax,0x20
  40381a:	e8 b1 fe ff ff       	call   4036d0 <___pformat_putc>
  40381f:	8b 43 08             	mov    eax,DWORD PTR [ebx+0x8]
  403822:	8d 50 ff             	lea    edx,[eax-0x1]
  403825:	85 c0                	test   eax,eax
  403827:	89 53 08             	mov    DWORD PTR [ebx+0x8],edx
  40382a:	75 e7                	jne    403813 <___pformat_wputchars+0xe3>
  40382c:	e9 57 ff ff ff       	jmp    403788 <___pformat_wputchars+0x58>
  403831:	89 c6                	mov    esi,eax
  403833:	e9 32 ff ff ff       	jmp    40376a <___pformat_wputchars+0x3a>
  403838:	90                   	nop
  403839:	8d b4 26 00 00 00 00 	lea    esi,[esi+eiz*1+0x0]

00403840 <___pformat_putchars>:
  403840:	57                   	push   edi
  403841:	89 c7                	mov    edi,eax
  403843:	8b 41 0c             	mov    eax,DWORD PTR [ecx+0xc]
  403846:	56                   	push   esi
  403847:	89 d6                	mov    esi,edx
  403849:	53                   	push   ebx
  40384a:	89 cb                	mov    ebx,ecx
  40384c:	85 c0                	test   eax,eax
  40384e:	78 08                	js     403858 <___pformat_putchars+0x18>
  403850:	39 c2                	cmp    edx,eax
  403852:	0f 8f 88 00 00 00    	jg     4038e0 <___pformat_putchars+0xa0>
  403858:	8b 43 08             	mov    eax,DWORD PTR [ebx+0x8]
  40385b:	39 c6                	cmp    esi,eax
  40385d:	7d 71                	jge    4038d0 <___pformat_putchars+0x90>
  40385f:	29 f0                	sub    eax,esi
  403861:	85 c0                	test   eax,eax
  403863:	89 43 08             	mov    DWORD PTR [ebx+0x8],eax
  403866:	7e 25                	jle    40388d <___pformat_putchars+0x4d>
  403868:	f6 43 05 04          	test   BYTE PTR [ebx+0x5],0x4
  40386c:	75 1f                	jne    40388d <___pformat_putchars+0x4d>
  40386e:	83 e8 01             	sub    eax,0x1
  403871:	89 43 08             	mov    DWORD PTR [ebx+0x8],eax
  403874:	89 da                	mov    edx,ebx
  403876:	b8 20 00 00 00       	mov    eax,0x20
  40387b:	e8 50 fe ff ff       	call   4036d0 <___pformat_putc>
  403880:	8b 43 08             	mov    eax,DWORD PTR [ebx+0x8]
  403883:	8d 50 ff             	lea    edx,[eax-0x1]
  403886:	85 c0                	test   eax,eax
  403888:	89 53 08             	mov    DWORD PTR [ebx+0x8],edx
  40388b:	75 e7                	jne    403874 <___pformat_putchars+0x34>
  40388d:	85 f6                	test   esi,esi
  40388f:	74 2c                	je     4038bd <___pformat_putchars+0x7d>
  403891:	83 c7 01             	add    edi,0x1
  403894:	0f be 47 ff          	movsx  eax,BYTE PTR [edi-0x1]
  403898:	89 da                	mov    edx,ebx
  40389a:	e8 31 fe ff ff       	call   4036d0 <___pformat_putc>
  40389f:	83 ee 01             	sub    esi,0x1
  4038a2:	75 ed                	jne    403891 <___pformat_putchars+0x51>
  4038a4:	8b 43 08             	mov    eax,DWORD PTR [ebx+0x8]
  4038a7:	8d 50 ff             	lea    edx,[eax-0x1]
  4038aa:	85 c0                	test   eax,eax
  4038ac:	89 53 08             	mov    DWORD PTR [ebx+0x8],edx
  4038af:	7e 19                	jle    4038ca <___pformat_putchars+0x8a>
  4038b1:	89 da                	mov    edx,ebx
  4038b3:	b8 20 00 00 00       	mov    eax,0x20
  4038b8:	e8 13 fe ff ff       	call   4036d0 <___pformat_putc>
  4038bd:	8b 43 08             	mov    eax,DWORD PTR [ebx+0x8]
  4038c0:	8d 50 ff             	lea    edx,[eax-0x1]
  4038c3:	85 c0                	test   eax,eax
  4038c5:	89 53 08             	mov    DWORD PTR [ebx+0x8],edx
  4038c8:	7f e7                	jg     4038b1 <___pformat_putchars+0x71>
  4038ca:	5b                   	pop    ebx
  4038cb:	5e                   	pop    esi
  4038cc:	5f                   	pop    edi
  4038cd:	c3                   	ret    
  4038ce:	66 90                	xchg   ax,ax
  4038d0:	c7 43 08 ff ff ff ff 	mov    DWORD PTR [ebx+0x8],0xffffffff
  4038d7:	eb b4                	jmp    40388d <___pformat_putchars+0x4d>
  4038d9:	8d b4 26 00 00 00 00 	lea    esi,[esi+eiz*1+0x0]
  4038e0:	89 c6                	mov    esi,eax
  4038e2:	e9 71 ff ff ff       	jmp    403858 <___pformat_putchars+0x18>
  4038e7:	89 f6                	mov    esi,esi
  4038e9:	8d bc 27 00 00 00 00 	lea    edi,[edi+eiz*1+0x0]

004038f0 <___pformat_emit_inf_or_nan>:
  4038f0:	55                   	push   ebp
  4038f1:	57                   	push   edi
  4038f2:	56                   	push   esi
  4038f3:	53                   	push   ebx
  4038f4:	83 ec 1c             	sub    esp,0x1c
  4038f7:	85 c0                	test   eax,eax
  4038f9:	c7 41 0c ff ff ff ff 	mov    DWORD PTR [ecx+0xc],0xffffffff
  403900:	74 3e                	je     403940 <___pformat_emit_inf_or_nan+0x50>
  403902:	8b 69 04             	mov    ebp,DWORD PTR [ecx+0x4]
  403905:	8d 7c 24 0d          	lea    edi,[esp+0xd]
  403909:	c6 44 24 0c 2d       	mov    BYTE PTR [esp+0xc],0x2d
  40390e:	8d 44 24 0c          	lea    eax,[esp+0xc]
  403912:	83 e5 20             	and    ebp,0x20
  403915:	31 f6                	xor    esi,esi
  403917:	0f b6 1c 32          	movzx  ebx,BYTE PTR [edx+esi*1]
  40391b:	83 e3 df             	and    ebx,0xffffffdf
  40391e:	09 eb                	or     ebx,ebp
  403920:	88 1c 37             	mov    BYTE PTR [edi+esi*1],bl
  403923:	83 c6 01             	add    esi,0x1
  403926:	83 fe 03             	cmp    esi,0x3
  403929:	75 ec                	jne    403917 <___pformat_emit_inf_or_nan+0x27>
  40392b:	8d 57 03             	lea    edx,[edi+0x3]
  40392e:	29 c2                	sub    edx,eax
  403930:	e8 0b ff ff ff       	call   403840 <___pformat_putchars>
  403935:	83 c4 1c             	add    esp,0x1c
  403938:	5b                   	pop    ebx
  403939:	5e                   	pop    esi
  40393a:	5f                   	pop    edi
  40393b:	5d                   	pop    ebp
  40393c:	c3                   	ret    
  40393d:	8d 76 00             	lea    esi,[esi+0x0]
  403940:	8b 69 04             	mov    ebp,DWORD PTR [ecx+0x4]
  403943:	f7 c5 00 01 00 00    	test   ebp,0x100
  403949:	74 15                	je     403960 <___pformat_emit_inf_or_nan+0x70>
  40394b:	c6 44 24 0c 2b       	mov    BYTE PTR [esp+0xc],0x2b
  403950:	8d 7c 24 0d          	lea    edi,[esp+0xd]
  403954:	8d 44 24 0c          	lea    eax,[esp+0xc]
  403958:	eb b8                	jmp    403912 <___pformat_emit_inf_or_nan+0x22>
  40395a:	8d b6 00 00 00 00    	lea    esi,[esi+0x0]
  403960:	f7 c5 40 00 00 00    	test   ebp,0x40
  403966:	74 0f                	je     403977 <___pformat_emit_inf_or_nan+0x87>
  403968:	c6 44 24 0c 20       	mov    BYTE PTR [esp+0xc],0x20
  40396d:	8d 7c 24 0d          	lea    edi,[esp+0xd]
  403971:	8d 44 24 0c          	lea    eax,[esp+0xc]
  403975:	eb 9b                	jmp    403912 <___pformat_emit_inf_or_nan+0x22>
  403977:	8d 44 24 0c          	lea    eax,[esp+0xc]
  40397b:	89 c7                	mov    edi,eax
  40397d:	eb 93                	jmp    403912 <___pformat_emit_inf_or_nan+0x22>
  40397f:	90                   	nop

00403980 <___pformat_int>:
  403980:	55                   	push   ebp
  403981:	89 e5                	mov    ebp,esp
  403983:	57                   	push   edi
  403984:	89 d7                	mov    edi,edx
  403986:	56                   	push   esi
  403987:	89 c6                	mov    esi,eax
  403989:	53                   	push   ebx
  40398a:	89 cb                	mov    ebx,ecx
  40398c:	83 ec 2c             	sub    esp,0x2c
  40398f:	89 55 dc             	mov    DWORD PTR [ebp-0x24],edx
  403992:	8b 51 0c             	mov    edx,DWORD PTR [ecx+0xc]
  403995:	89 45 d8             	mov    DWORD PTR [ebp-0x28],eax
  403998:	8b 49 08             	mov    ecx,DWORD PTR [ecx+0x8]
  40399b:	89 d0                	mov    eax,edx
  40399d:	c1 f8 1f             	sar    eax,0x1f
  4039a0:	f7 d0                	not    eax
  4039a2:	21 d0                	and    eax,edx
  4039a4:	83 c0 17             	add    eax,0x17
  4039a7:	39 c8                	cmp    eax,ecx
  4039a9:	7d 02                	jge    4039ad <___pformat_int+0x2d>
  4039ab:	89 c8                	mov    eax,ecx
  4039ad:	83 c0 0f             	add    eax,0xf
  4039b0:	83 e0 f0             	and    eax,0xfffffff0
  4039b3:	e8 a8 e5 ff ff       	call   401f60 <___chkstk_ms>
  4039b8:	29 c4                	sub    esp,eax
  4039ba:	8d 44 24 10          	lea    eax,[esp+0x10]
  4039be:	89 45 e4             	mov    DWORD PTR [ebp-0x1c],eax
  4039c1:	8b 43 04             	mov    eax,DWORD PTR [ebx+0x4]
  4039c4:	a8 80                	test   al,0x80
  4039c6:	74 0d                	je     4039d5 <___pformat_int+0x55>
  4039c8:	85 ff                	test   edi,edi
  4039ca:	0f 88 b0 01 00 00    	js     403b80 <___pformat_int+0x200>
  4039d0:	24 7f                	and    al,0x7f
  4039d2:	89 43 04             	mov    DWORD PTR [ebx+0x4],eax
  4039d5:	8b 4d dc             	mov    ecx,DWORD PTR [ebp-0x24]
  4039d8:	8b 7d d8             	mov    edi,DWORD PTR [ebp-0x28]
  4039db:	8b 75 e4             	mov    esi,DWORD PTR [ebp-0x1c]
  4039de:	89 c8                	mov    eax,ecx
  4039e0:	09 f8                	or     eax,edi
  4039e2:	74 5d                	je     403a41 <___pformat_int+0xc1>
  4039e4:	89 5d d8             	mov    DWORD PTR [ebp-0x28],ebx
  4039e7:	89 cb                	mov    ebx,ecx
  4039e9:	8d b4 26 00 00 00 00 	lea    esi,[esi+eiz*1+0x0]
  4039f0:	89 3c 24             	mov    DWORD PTR [esp],edi
  4039f3:	83 c6 01             	add    esi,0x1
  4039f6:	89 5c 24 04          	mov    DWORD PTR [esp+0x4],ebx
  4039fa:	c7 44 24 08 0a 00 00 	mov    DWORD PTR [esp+0x8],0xa
  403a01:	00 
  403a02:	c7 44 24 0c 00 00 00 	mov    DWORD PTR [esp+0xc],0x0
  403a09:	00 
  403a0a:	e8 01 48 00 00       	call   408210 <___umoddi3>
  403a0f:	83 c0 30             	add    eax,0x30
  403a12:	88 46 ff             	mov    BYTE PTR [esi-0x1],al
  403a15:	89 3c 24             	mov    DWORD PTR [esp],edi
  403a18:	89 5c 24 04          	mov    DWORD PTR [esp+0x4],ebx
  403a1c:	c7 44 24 08 0a 00 00 	mov    DWORD PTR [esp+0x8],0xa
  403a23:	00 
  403a24:	c7 44 24 0c 00 00 00 	mov    DWORD PTR [esp+0xc],0x0
  403a2b:	00 
  403a2c:	e8 cf 46 00 00       	call   408100 <___udivdi3>
  403a31:	89 c7                	mov    edi,eax
  403a33:	89 d0                	mov    eax,edx
  403a35:	09 f8                	or     eax,edi
  403a37:	89 d3                	mov    ebx,edx
  403a39:	75 b5                	jne    4039f0 <___pformat_int+0x70>
  403a3b:	8b 5d d8             	mov    ebx,DWORD PTR [ebp-0x28]
  403a3e:	8b 53 0c             	mov    edx,DWORD PTR [ebx+0xc]
  403a41:	85 d2                	test   edx,edx
  403a43:	89 f7                	mov    edi,esi
  403a45:	7e 19                	jle    403a60 <___pformat_int+0xe0>
  403a47:	8b 45 e4             	mov    eax,DWORD PTR [ebp-0x1c]
  403a4a:	29 f0                	sub    eax,esi
  403a4c:	01 c2                	add    edx,eax
  403a4e:	85 d2                	test   edx,edx
  403a50:	7e 0e                	jle    403a60 <___pformat_int+0xe0>
  403a52:	8d 3c 16             	lea    edi,[esi+edx*1]
  403a55:	83 c6 01             	add    esi,0x1
  403a58:	39 fe                	cmp    esi,edi
  403a5a:	c6 46 ff 30          	mov    BYTE PTR [esi-0x1],0x30
  403a5e:	75 f5                	jne    403a55 <___pformat_int+0xd5>
  403a60:	3b 7d e4             	cmp    edi,DWORD PTR [ebp-0x1c]
  403a63:	0f 84 29 01 00 00    	je     403b92 <___pformat_int+0x212>
  403a69:	8b 43 08             	mov    eax,DWORD PTR [ebx+0x8]
  403a6c:	85 c0                	test   eax,eax
  403a6e:	7e 59                	jle    403ac9 <___pformat_int+0x149>
  403a70:	8b 55 e4             	mov    edx,DWORD PTR [ebp-0x1c]
  403a73:	29 fa                	sub    edx,edi
  403a75:	01 c2                	add    edx,eax
  403a77:	8b 43 04             	mov    eax,DWORD PTR [ebx+0x4]
  403a7a:	85 d2                	test   edx,edx
  403a7c:	89 53 08             	mov    DWORD PTR [ebx+0x8],edx
  403a7f:	7e 4b                	jle    403acc <___pformat_int+0x14c>
  403a81:	a9 c0 01 00 00       	test   eax,0x1c0
  403a86:	74 06                	je     403a8e <___pformat_int+0x10e>
  403a88:	83 ea 01             	sub    edx,0x1
  403a8b:	89 53 08             	mov    DWORD PTR [ebx+0x8],edx
  403a8e:	8b 53 0c             	mov    edx,DWORD PTR [ebx+0xc]
  403a91:	85 d2                	test   edx,edx
  403a93:	0f 88 a7 00 00 00    	js     403b40 <___pformat_int+0x1c0>
  403a99:	f6 c4 04             	test   ah,0x4
  403a9c:	75 2e                	jne    403acc <___pformat_int+0x14c>
  403a9e:	8b 53 08             	mov    edx,DWORD PTR [ebx+0x8]
  403aa1:	8d 4a ff             	lea    ecx,[edx-0x1]
  403aa4:	85 d2                	test   edx,edx
  403aa6:	89 4b 08             	mov    DWORD PTR [ebx+0x8],ecx
  403aa9:	7e 21                	jle    403acc <___pformat_int+0x14c>
  403aab:	90                   	nop
  403aac:	8d 74 26 00          	lea    esi,[esi+eiz*1+0x0]
  403ab0:	89 da                	mov    edx,ebx
  403ab2:	b8 20 00 00 00       	mov    eax,0x20
  403ab7:	e8 14 fc ff ff       	call   4036d0 <___pformat_putc>
  403abc:	8b 43 08             	mov    eax,DWORD PTR [ebx+0x8]
  403abf:	8d 50 ff             	lea    edx,[eax-0x1]
  403ac2:	85 c0                	test   eax,eax
  403ac4:	89 53 08             	mov    DWORD PTR [ebx+0x8],edx
  403ac7:	7f e7                	jg     403ab0 <___pformat_int+0x130>
  403ac9:	8b 43 04             	mov    eax,DWORD PTR [ebx+0x4]
  403acc:	a8 80                	test   al,0x80
  403ace:	74 51                	je     403b21 <___pformat_int+0x1a1>
  403ad0:	8d 77 01             	lea    esi,[edi+0x1]
  403ad3:	c6 07 2d             	mov    BYTE PTR [edi],0x2d
  403ad6:	39 75 e4             	cmp    DWORD PTR [ebp-0x1c],esi
  403ad9:	8b 7d e4             	mov    edi,DWORD PTR [ebp-0x1c]
  403adc:	73 2e                	jae    403b0c <___pformat_int+0x18c>
  403ade:	66 90                	xchg   ax,ax
  403ae0:	83 ee 01             	sub    esi,0x1
  403ae3:	0f be 06             	movsx  eax,BYTE PTR [esi]
  403ae6:	89 da                	mov    edx,ebx
  403ae8:	e8 e3 fb ff ff       	call   4036d0 <___pformat_putc>
  403aed:	39 fe                	cmp    esi,edi
  403aef:	75 ef                	jne    403ae0 <___pformat_int+0x160>
  403af1:	8b 43 08             	mov    eax,DWORD PTR [ebx+0x8]
  403af4:	8d 50 ff             	lea    edx,[eax-0x1]
  403af7:	85 c0                	test   eax,eax
  403af9:	89 53 08             	mov    DWORD PTR [ebx+0x8],edx
  403afc:	7e 1b                	jle    403b19 <___pformat_int+0x199>
  403afe:	66 90                	xchg   ax,ax
  403b00:	89 da                	mov    edx,ebx
  403b02:	b8 20 00 00 00       	mov    eax,0x20
  403b07:	e8 c4 fb ff ff       	call   4036d0 <___pformat_putc>
  403b0c:	8b 43 08             	mov    eax,DWORD PTR [ebx+0x8]
  403b0f:	8d 50 ff             	lea    edx,[eax-0x1]
  403b12:	85 c0                	test   eax,eax
  403b14:	89 53 08             	mov    DWORD PTR [ebx+0x8],edx
  403b17:	7f e7                	jg     403b00 <___pformat_int+0x180>
  403b19:	8d 65 f4             	lea    esp,[ebp-0xc]
  403b1c:	5b                   	pop    ebx
  403b1d:	5e                   	pop    esi
  403b1e:	5f                   	pop    edi
  403b1f:	5d                   	pop    ebp
  403b20:	c3                   	ret    
  403b21:	f6 c4 01             	test   ah,0x1
  403b24:	74 0a                	je     403b30 <___pformat_int+0x1b0>
  403b26:	8d 77 01             	lea    esi,[edi+0x1]
  403b29:	c6 07 2b             	mov    BYTE PTR [edi],0x2b
  403b2c:	eb a8                	jmp    403ad6 <___pformat_int+0x156>
  403b2e:	66 90                	xchg   ax,ax
  403b30:	a8 40                	test   al,0x40
  403b32:	89 fe                	mov    esi,edi
  403b34:	74 a0                	je     403ad6 <___pformat_int+0x156>
  403b36:	83 c6 01             	add    esi,0x1
  403b39:	c6 07 20             	mov    BYTE PTR [edi],0x20
  403b3c:	eb 98                	jmp    403ad6 <___pformat_int+0x156>
  403b3e:	66 90                	xchg   ax,ax
  403b40:	89 c2                	mov    edx,eax
  403b42:	81 e2 00 06 00 00    	and    edx,0x600
  403b48:	81 fa 00 02 00 00    	cmp    edx,0x200
  403b4e:	0f 85 45 ff ff ff    	jne    403a99 <___pformat_int+0x119>
  403b54:	8b 53 08             	mov    edx,DWORD PTR [ebx+0x8]
  403b57:	8d 4a ff             	lea    ecx,[edx-0x1]
  403b5a:	85 d2                	test   edx,edx
  403b5c:	89 4b 08             	mov    DWORD PTR [ebx+0x8],ecx
  403b5f:	0f 8e 67 ff ff ff    	jle    403acc <___pformat_int+0x14c>
  403b65:	83 c7 01             	add    edi,0x1
  403b68:	c6 47 ff 30          	mov    BYTE PTR [edi-0x1],0x30
  403b6c:	8b 43 08             	mov    eax,DWORD PTR [ebx+0x8]
  403b6f:	8d 50 ff             	lea    edx,[eax-0x1]
  403b72:	85 c0                	test   eax,eax
  403b74:	89 53 08             	mov    DWORD PTR [ebx+0x8],edx
  403b77:	7f ec                	jg     403b65 <___pformat_int+0x1e5>
  403b79:	e9 4b ff ff ff       	jmp    403ac9 <___pformat_int+0x149>
  403b7e:	66 90                	xchg   ax,ax
  403b80:	f7 de                	neg    esi
  403b82:	83 d7 00             	adc    edi,0x0
  403b85:	f7 df                	neg    edi
  403b87:	89 75 d8             	mov    DWORD PTR [ebp-0x28],esi
  403b8a:	89 7d dc             	mov    DWORD PTR [ebp-0x24],edi
  403b8d:	e9 43 fe ff ff       	jmp    4039d5 <___pformat_int+0x55>
  403b92:	8b 4b 0c             	mov    ecx,DWORD PTR [ebx+0xc]
  403b95:	85 c9                	test   ecx,ecx
  403b97:	0f 84 cc fe ff ff    	je     403a69 <___pformat_int+0xe9>
  403b9d:	c6 07 30             	mov    BYTE PTR [edi],0x30
  403ba0:	83 c7 01             	add    edi,0x1
  403ba3:	e9 c1 fe ff ff       	jmp    403a69 <___pformat_int+0xe9>
  403ba8:	90                   	nop
  403ba9:	8d b4 26 00 00 00 00 	lea    esi,[esi+eiz*1+0x0]

00403bb0 <___pformat_xint>:
  403bb0:	55                   	push   ebp
  403bb1:	89 e5                	mov    ebp,esp
  403bb3:	57                   	push   edi
  403bb4:	89 cf                	mov    edi,ecx
  403bb6:	56                   	push   esi
  403bb7:	89 d6                	mov    esi,edx
  403bb9:	53                   	push   ebx
  403bba:	83 ec 2c             	sub    esp,0x2c
  403bbd:	89 55 dc             	mov    DWORD PTR [ebp-0x24],edx
  403bc0:	31 d2                	xor    edx,edx
  403bc2:	83 f8 6f             	cmp    eax,0x6f
  403bc5:	0f 94 c2             	sete   dl
  403bc8:	83 ea 01             	sub    edx,0x1
  403bcb:	83 e2 fa             	and    edx,0xfffffffa
  403bce:	89 4d d4             	mov    DWORD PTR [ebp-0x2c],ecx
  403bd1:	31 c9                	xor    ecx,ecx
  403bd3:	83 f8 6f             	cmp    eax,0x6f
  403bd6:	0f 95 c1             	setne  cl
  403bd9:	89 45 d8             	mov    DWORD PTR [ebp-0x28],eax
  403bdc:	89 c8                	mov    eax,ecx
  403bde:	89 45 e4             	mov    DWORD PTR [ebp-0x1c],eax
  403be1:	8b 45 08             	mov    eax,DWORD PTR [ebp+0x8]
  403be4:	8d 1c cd 07 00 00 00 	lea    ebx,[ecx*8+0x7]
  403beb:	89 5d d0             	mov    DWORD PTR [ebp-0x30],ebx
  403bee:	8b 4d 08             	mov    ecx,DWORD PTR [ebp+0x8]
  403bf1:	83 45 e4 03          	add    DWORD PTR [ebp-0x1c],0x3
  403bf5:	8b 58 0c             	mov    ebx,DWORD PTR [eax+0xc]
  403bf8:	8b 49 08             	mov    ecx,DWORD PTR [ecx+0x8]
  403bfb:	89 d8                	mov    eax,ebx
  403bfd:	c1 f8 1f             	sar    eax,0x1f
  403c00:	f7 d0                	not    eax
  403c02:	21 d8                	and    eax,ebx
  403c04:	8d 44 02 18          	lea    eax,[edx+eax*1+0x18]
  403c08:	39 c8                	cmp    eax,ecx
  403c0a:	7d 02                	jge    403c0e <___pformat_xint+0x5e>
  403c0c:	89 c8                	mov    eax,ecx
  403c0e:	83 c0 0f             	add    eax,0xf
  403c11:	83 e0 f0             	and    eax,0xfffffff0
  403c14:	e8 47 e3 ff ff       	call   401f60 <___chkstk_ms>
  403c19:	29 c4                	sub    esp,eax
  403c1b:	8b 45 d4             	mov    eax,DWORD PTR [ebp-0x2c]
  403c1e:	0b 45 dc             	or     eax,DWORD PTR [ebp-0x24]
  403c21:	89 65 e0             	mov    DWORD PTR [ebp-0x20],esp
  403c24:	0f 84 4a 02 00 00    	je     403e74 <___pformat_xint+0x2c4>
  403c2a:	0f b6 4d d8          	movzx  ecx,BYTE PTR [ebp-0x28]
  403c2e:	89 e0                	mov    eax,esp
  403c30:	0f b6 5d d0          	movzx  ebx,BYTE PTR [ebp-0x30]
  403c34:	83 e1 20             	and    ecx,0x20
  403c37:	88 4d dc             	mov    BYTE PTR [ebp-0x24],cl
  403c3a:	eb 1f                	jmp    403c5b <___pformat_xint+0xab>
  403c3c:	8d 74 26 00          	lea    esi,[esi+eiz*1+0x0]
  403c40:	88 48 ff             	mov    BYTE PTR [eax-0x1],cl
  403c43:	0f b6 4d e4          	movzx  ecx,BYTE PTR [ebp-0x1c]
  403c47:	0f ad fe             	shrd   esi,edi,cl
  403c4a:	d3 ef                	shr    edi,cl
  403c4c:	f6 c1 20             	test   cl,0x20
  403c4f:	74 04                	je     403c55 <___pformat_xint+0xa5>
  403c51:	89 fe                	mov    esi,edi
  403c53:	31 ff                	xor    edi,edi
  403c55:	89 f9                	mov    ecx,edi
  403c57:	09 f1                	or     ecx,esi
  403c59:	74 1a                	je     403c75 <___pformat_xint+0xc5>
  403c5b:	89 f2                	mov    edx,esi
  403c5d:	83 c0 01             	add    eax,0x1
  403c60:	21 da                	and    edx,ebx
  403c62:	8d 4a 30             	lea    ecx,[edx+0x30]
  403c65:	80 f9 39             	cmp    cl,0x39
  403c68:	7e d6                	jle    403c40 <___pformat_xint+0x90>
  403c6a:	83 c2 37             	add    edx,0x37
  403c6d:	0a 55 dc             	or     dl,BYTE PTR [ebp-0x24]
  403c70:	88 50 ff             	mov    BYTE PTR [eax-0x1],dl
  403c73:	eb ce                	jmp    403c43 <___pformat_xint+0x93>
  403c75:	39 45 e0             	cmp    DWORD PTR [ebp-0x20],eax
  403c78:	0f 84 f0 01 00 00    	je     403e6e <___pformat_xint+0x2be>
  403c7e:	8b 7d 08             	mov    edi,DWORD PTR [ebp+0x8]
  403c81:	8b 5f 0c             	mov    ebx,DWORD PTR [edi+0xc]
  403c84:	85 db                	test   ebx,ebx
  403c86:	0f 8e a5 01 00 00    	jle    403e31 <___pformat_xint+0x281>
  403c8c:	8b 4d e0             	mov    ecx,DWORD PTR [ebp-0x20]
  403c8f:	29 c1                	sub    ecx,eax
  403c91:	01 cb                	add    ebx,ecx
  403c93:	85 db                	test   ebx,ebx
  403c95:	0f 8e 96 01 00 00    	jle    403e31 <___pformat_xint+0x281>
  403c9b:	8d 3c 18             	lea    edi,[eax+ebx*1]
  403c9e:	66 90                	xchg   ax,ax
  403ca0:	83 c0 01             	add    eax,0x1
  403ca3:	39 f8                	cmp    eax,edi
  403ca5:	c6 40 ff 30          	mov    BYTE PTR [eax-0x1],0x30
  403ca9:	75 f5                	jne    403ca0 <___pformat_xint+0xf0>
  403cab:	3b 7d e0             	cmp    edi,DWORD PTR [ebp-0x20]
  403cae:	0f 84 a1 01 00 00    	je     403e55 <___pformat_xint+0x2a5>
  403cb4:	8b 45 08             	mov    eax,DWORD PTR [ebp+0x8]
  403cb7:	8b 70 08             	mov    esi,DWORD PTR [eax+0x8]
  403cba:	89 f8                	mov    eax,edi
  403cbc:	2b 45 e0             	sub    eax,DWORD PTR [ebp-0x20]
  403cbf:	39 c6                	cmp    esi,eax
  403cc1:	0f 8e a9 00 00 00    	jle    403d70 <___pformat_xint+0x1c0>
  403cc7:	29 c6                	sub    esi,eax
  403cc9:	8b 45 08             	mov    eax,DWORD PTR [ebp+0x8]
  403ccc:	85 f6                	test   esi,esi
  403cce:	89 70 08             	mov    DWORD PTR [eax+0x8],esi
  403cd1:	7e 21                	jle    403cf4 <___pformat_xint+0x144>
  403cd3:	83 7d d8 6f          	cmp    DWORD PTR [ebp-0x28],0x6f
  403cd7:	74 0d                	je     403ce6 <___pformat_xint+0x136>
  403cd9:	8b 45 08             	mov    eax,DWORD PTR [ebp+0x8]
  403cdc:	f6 40 05 08          	test   BYTE PTR [eax+0x5],0x8
  403ce0:	0f 85 00 01 00 00    	jne    403de6 <___pformat_xint+0x236>
  403ce6:	8b 45 08             	mov    eax,DWORD PTR [ebp+0x8]
  403ce9:	8b 58 0c             	mov    ebx,DWORD PTR [eax+0xc]
  403cec:	85 db                	test   ebx,ebx
  403cee:	0f 88 09 01 00 00    	js     403dfd <___pformat_xint+0x24d>
  403cf4:	8d 46 ff             	lea    eax,[esi-0x1]
  403cf7:	89 45 e4             	mov    DWORD PTR [ebp-0x1c],eax
  403cfa:	8b 45 e4             	mov    eax,DWORD PTR [ebp-0x1c]
  403cfd:	83 7d d8 6f          	cmp    DWORD PTR [ebp-0x28],0x6f
  403d01:	89 c3                	mov    ebx,eax
  403d03:	74 0d                	je     403d12 <___pformat_xint+0x162>
  403d05:	8b 45 08             	mov    eax,DWORD PTR [ebp+0x8]
  403d08:	f6 40 05 08          	test   BYTE PTR [eax+0x5],0x8
  403d0c:	0f 85 be 00 00 00    	jne    403dd0 <___pformat_xint+0x220>
  403d12:	85 f6                	test   esi,esi
  403d14:	7e 09                	jle    403d1f <___pformat_xint+0x16f>
  403d16:	8b 45 08             	mov    eax,DWORD PTR [ebp+0x8]
  403d19:	f6 40 05 04          	test   BYTE PTR [eax+0x5],0x4
  403d1d:	74 71                	je     403d90 <___pformat_xint+0x1e0>
  403d1f:	3b 7d e0             	cmp    edi,DWORD PTR [ebp-0x20]
  403d22:	76 25                	jbe    403d49 <___pformat_xint+0x199>
  403d24:	89 75 e4             	mov    DWORD PTR [ebp-0x1c],esi
  403d27:	8b 75 e0             	mov    esi,DWORD PTR [ebp-0x20]
  403d2a:	89 5d e0             	mov    DWORD PTR [ebp-0x20],ebx
  403d2d:	89 fb                	mov    ebx,edi
  403d2f:	8b 7d 08             	mov    edi,DWORD PTR [ebp+0x8]
  403d32:	83 eb 01             	sub    ebx,0x1
  403d35:	0f be 03             	movsx  eax,BYTE PTR [ebx]
  403d38:	89 fa                	mov    edx,edi
  403d3a:	e8 91 f9 ff ff       	call   4036d0 <___pformat_putc>
  403d3f:	39 f3                	cmp    ebx,esi
  403d41:	75 ef                	jne    403d32 <___pformat_xint+0x182>
  403d43:	8b 75 e4             	mov    esi,DWORD PTR [ebp-0x1c]
  403d46:	8b 5d e0             	mov    ebx,DWORD PTR [ebp-0x20]
  403d49:	85 f6                	test   esi,esi
  403d4b:	7e 19                	jle    403d66 <___pformat_xint+0x1b6>
  403d4d:	8b 75 08             	mov    esi,DWORD PTR [ebp+0x8]
  403d50:	b8 20 00 00 00       	mov    eax,0x20
  403d55:	83 eb 01             	sub    ebx,0x1
  403d58:	89 f2                	mov    edx,esi
  403d5a:	e8 71 f9 ff ff       	call   4036d0 <___pformat_putc>
  403d5f:	8d 43 01             	lea    eax,[ebx+0x1]
  403d62:	85 c0                	test   eax,eax
  403d64:	7f ea                	jg     403d50 <___pformat_xint+0x1a0>
  403d66:	8d 65 f4             	lea    esp,[ebp-0xc]
  403d69:	5b                   	pop    ebx
  403d6a:	5e                   	pop    esi
  403d6b:	5f                   	pop    edi
  403d6c:	5d                   	pop    ebp
  403d6d:	c3                   	ret    
  403d6e:	66 90                	xchg   ax,ax
  403d70:	8b 45 08             	mov    eax,DWORD PTR [ebp+0x8]
  403d73:	be ff ff ff ff       	mov    esi,0xffffffff
  403d78:	c7 45 e4 fe ff ff ff 	mov    DWORD PTR [ebp-0x1c],0xfffffffe
  403d7f:	c7 40 08 ff ff ff ff 	mov    DWORD PTR [eax+0x8],0xffffffff
  403d86:	e9 6f ff ff ff       	jmp    403cfa <___pformat_xint+0x14a>
  403d8b:	90                   	nop
  403d8c:	8d 74 26 00          	lea    esi,[esi+eiz*1+0x0]
  403d90:	8b 5d e4             	mov    ebx,DWORD PTR [ebp-0x1c]
  403d93:	89 c6                	mov    esi,eax
  403d95:	b8 20 00 00 00       	mov    eax,0x20
  403d9a:	83 eb 01             	sub    ebx,0x1
  403d9d:	89 f2                	mov    edx,esi
  403d9f:	e8 2c f9 ff ff       	call   4036d0 <___pformat_putc>
  403da4:	8d 43 01             	lea    eax,[ebx+0x1]
  403da7:	85 c0                	test   eax,eax
  403da9:	7f ea                	jg     403d95 <___pformat_xint+0x1e5>
  403dab:	8b 4d e4             	mov    ecx,DWORD PTR [ebp-0x1c]
  403dae:	89 c8                	mov    eax,ecx
  403db0:	c1 f8 1f             	sar    eax,0x1f
  403db3:	f7 d0                	not    eax
  403db5:	8d 71 ff             	lea    esi,[ecx-0x1]
  403db8:	21 c8                	and    eax,ecx
  403dba:	29 c6                	sub    esi,eax
  403dbc:	8d 5e ff             	lea    ebx,[esi-0x1]
  403dbf:	e9 5b ff ff ff       	jmp    403d1f <___pformat_xint+0x16f>
  403dc4:	83 ee 03             	sub    esi,0x3
  403dc7:	89 75 e4             	mov    DWORD PTR [ebp-0x1c],esi
  403dca:	89 c6                	mov    esi,eax
  403dcc:	8d 74 26 00          	lea    esi,[esi+eiz*1+0x0]
  403dd0:	0f b6 45 d8          	movzx  eax,BYTE PTR [ebp-0x28]
  403dd4:	83 c7 02             	add    edi,0x2
  403dd7:	c6 47 ff 30          	mov    BYTE PTR [edi-0x1],0x30
  403ddb:	8b 5d e4             	mov    ebx,DWORD PTR [ebp-0x1c]
  403dde:	88 47 fe             	mov    BYTE PTR [edi-0x2],al
  403de1:	e9 2c ff ff ff       	jmp    403d12 <___pformat_xint+0x162>
  403de6:	8d 46 fe             	lea    eax,[esi-0x2]
  403de9:	85 c0                	test   eax,eax
  403deb:	7e d7                	jle    403dc4 <___pformat_xint+0x214>
  403ded:	89 c6                	mov    esi,eax
  403def:	8b 45 08             	mov    eax,DWORD PTR [ebp+0x8]
  403df2:	8b 58 0c             	mov    ebx,DWORD PTR [eax+0xc]
  403df5:	85 db                	test   ebx,ebx
  403df7:	0f 89 f7 fe ff ff    	jns    403cf4 <___pformat_xint+0x144>
  403dfd:	8b 45 08             	mov    eax,DWORD PTR [ebp+0x8]
  403e00:	8b 40 04             	mov    eax,DWORD PTR [eax+0x4]
  403e03:	25 00 06 00 00       	and    eax,0x600
  403e08:	3d 00 02 00 00       	cmp    eax,0x200
  403e0d:	0f 85 e1 fe ff ff    	jne    403cf4 <___pformat_xint+0x144>
  403e13:	01 fe                	add    esi,edi
  403e15:	83 c7 01             	add    edi,0x1
  403e18:	39 f7                	cmp    edi,esi
  403e1a:	c6 47 ff 30          	mov    BYTE PTR [edi-0x1],0x30
  403e1e:	75 f5                	jne    403e15 <___pformat_xint+0x265>
  403e20:	c7 45 e4 fe ff ff ff 	mov    DWORD PTR [ebp-0x1c],0xfffffffe
  403e27:	be ff ff ff ff       	mov    esi,0xffffffff
  403e2c:	e9 c9 fe ff ff       	jmp    403cfa <___pformat_xint+0x14a>
  403e31:	83 7d d8 6f          	cmp    DWORD PTR [ebp-0x28],0x6f
  403e35:	89 c7                	mov    edi,eax
  403e37:	0f 85 6e fe ff ff    	jne    403cab <___pformat_xint+0xfb>
  403e3d:	8b 75 08             	mov    esi,DWORD PTR [ebp+0x8]
  403e40:	f6 46 05 08          	test   BYTE PTR [esi+0x5],0x8
  403e44:	0f 84 61 fe ff ff    	je     403cab <___pformat_xint+0xfb>
  403e4a:	83 c7 01             	add    edi,0x1
  403e4d:	c6 00 30             	mov    BYTE PTR [eax],0x30
  403e50:	e9 56 fe ff ff       	jmp    403cab <___pformat_xint+0xfb>
  403e55:	8b 45 08             	mov    eax,DWORD PTR [ebp+0x8]
  403e58:	8b 70 0c             	mov    esi,DWORD PTR [eax+0xc]
  403e5b:	85 f6                	test   esi,esi
  403e5d:	0f 84 51 fe ff ff    	je     403cb4 <___pformat_xint+0x104>
  403e63:	c6 07 30             	mov    BYTE PTR [edi],0x30
  403e66:	83 c7 01             	add    edi,0x1
  403e69:	e9 46 fe ff ff       	jmp    403cb4 <___pformat_xint+0x104>
  403e6e:	8b 45 08             	mov    eax,DWORD PTR [ebp+0x8]
  403e71:	8b 58 0c             	mov    ebx,DWORD PTR [eax+0xc]
  403e74:	8b 45 08             	mov    eax,DWORD PTR [ebp+0x8]
  403e77:	81 60 04 ff f7 ff ff 	and    DWORD PTR [eax+0x4],0xfffff7ff
  403e7e:	8b 45 e0             	mov    eax,DWORD PTR [ebp-0x20]
  403e81:	e9 fe fd ff ff       	jmp    403c84 <___pformat_xint+0xd4>
  403e86:	8d 76 00             	lea    esi,[esi+0x0]
  403e89:	8d bc 27 00 00 00 00 	lea    edi,[edi+eiz*1+0x0]

00403e90 <___pformat_emit_float>:
  403e90:	55                   	push   ebp
  403e91:	89 e5                	mov    ebp,esp
  403e93:	57                   	push   edi
  403e94:	56                   	push   esi
  403e95:	89 d6                	mov    esi,edx
  403e97:	53                   	push   ebx
  403e98:	89 cb                	mov    ebx,ecx
  403e9a:	83 ec 3c             	sub    esp,0x3c
  403e9d:	8b 7d 08             	mov    edi,DWORD PTR [ebp+0x8]
  403ea0:	85 c9                	test   ecx,ecx
  403ea2:	89 45 d4             	mov    DWORD PTR [ebp-0x2c],eax
  403ea5:	8b 47 08             	mov    eax,DWORD PTR [edi+0x8]
  403ea8:	0f 8e 7a 02 00 00    	jle    404128 <___pformat_emit_float+0x298>
  403eae:	39 c1                	cmp    ecx,eax
  403eb0:	0f 8d 3a 01 00 00    	jge    403ff0 <___pformat_emit_float+0x160>
  403eb6:	29 c8                	sub    eax,ecx
  403eb8:	89 47 08             	mov    DWORD PTR [edi+0x8],eax
  403ebb:	85 c0                	test   eax,eax
  403ebd:	0f 88 2d 01 00 00    	js     403ff0 <___pformat_emit_float+0x160>
  403ec3:	8b 57 0c             	mov    edx,DWORD PTR [edi+0xc]
  403ec6:	39 c2                	cmp    edx,eax
  403ec8:	0f 8d 22 01 00 00    	jge    403ff0 <___pformat_emit_float+0x160>
  403ece:	29 d0                	sub    eax,edx
  403ed0:	85 c0                	test   eax,eax
  403ed2:	89 47 08             	mov    DWORD PTR [edi+0x8],eax
  403ed5:	0f 8e 1c 01 00 00    	jle    403ff7 <___pformat_emit_float+0x167>
  403edb:	85 d2                	test   edx,edx
  403edd:	0f 8e ad 02 00 00    	jle    404190 <___pformat_emit_float+0x300>
  403ee3:	83 e8 01             	sub    eax,0x1
  403ee6:	85 c0                	test   eax,eax
  403ee8:	89 47 08             	mov    DWORD PTR [edi+0x8],eax
  403eeb:	0f 84 06 01 00 00    	je     403ff7 <___pformat_emit_float+0x167>
  403ef1:	8b 55 d4             	mov    edx,DWORD PTR [ebp-0x2c]
  403ef4:	85 d2                	test   edx,edx
  403ef6:	0f 85 ba 01 00 00    	jne    4040b6 <___pformat_emit_float+0x226>
  403efc:	8b 57 04             	mov    edx,DWORD PTR [edi+0x4]
  403eff:	f7 c2 c0 01 00 00    	test   edx,0x1c0
  403f05:	0f 85 ab 01 00 00    	jne    4040b6 <___pformat_emit_float+0x226>
  403f0b:	80 e6 06             	and    dh,0x6
  403f0e:	0f 85 e3 00 00 00    	jne    403ff7 <___pformat_emit_float+0x167>
  403f14:	eb 0c                	jmp    403f22 <___pformat_emit_float+0x92>
  403f16:	89 fa                	mov    edx,edi
  403f18:	b8 20 00 00 00       	mov    eax,0x20
  403f1d:	e8 ae f7 ff ff       	call   4036d0 <___pformat_putc>
  403f22:	8b 47 08             	mov    eax,DWORD PTR [edi+0x8]
  403f25:	8d 50 ff             	lea    edx,[eax-0x1]
  403f28:	85 c0                	test   eax,eax
  403f2a:	89 57 08             	mov    DWORD PTR [edi+0x8],edx
  403f2d:	7f e7                	jg     403f16 <___pformat_emit_float+0x86>
  403f2f:	8b 45 d4             	mov    eax,DWORD PTR [ebp-0x2c]
  403f32:	85 c0                	test   eax,eax
  403f34:	0f 84 c8 00 00 00    	je     404002 <___pformat_emit_float+0x172>
  403f3a:	89 fa                	mov    edx,edi
  403f3c:	b8 2d 00 00 00       	mov    eax,0x2d
  403f41:	e8 8a f7 ff ff       	call   4036d0 <___pformat_putc>
  403f46:	8b 57 08             	mov    edx,DWORD PTR [edi+0x8]
  403f49:	85 d2                	test   edx,edx
  403f4b:	7e 13                	jle    403f60 <___pformat_emit_float+0xd0>
  403f4d:	8b 47 04             	mov    eax,DWORD PTR [edi+0x4]
  403f50:	25 00 06 00 00       	and    eax,0x600
  403f55:	3d 00 02 00 00       	cmp    eax,0x200
  403f5a:	0f 84 f1 01 00 00    	je     404151 <___pformat_emit_float+0x2c1>
  403f60:	85 db                	test   ebx,ebx
  403f62:	0f 8e 10 02 00 00    	jle    404178 <___pformat_emit_float+0x2e8>
  403f68:	0f b6 16             	movzx  edx,BYTE PTR [esi]
  403f6b:	b8 30 00 00 00       	mov    eax,0x30
  403f70:	84 d2                	test   dl,dl
  403f72:	74 06                	je     403f7a <___pformat_emit_float+0xea>
  403f74:	83 c6 01             	add    esi,0x1
  403f77:	0f be c2             	movsx  eax,dl
  403f7a:	89 fa                	mov    edx,edi
  403f7c:	e8 4f f7 ff ff       	call   4036d0 <___pformat_putc>
  403f81:	83 eb 01             	sub    ebx,0x1
  403f84:	75 e2                	jne    403f68 <___pformat_emit_float+0xd8>
  403f86:	8b 47 0c             	mov    eax,DWORD PTR [edi+0xc]
  403f89:	85 c0                	test   eax,eax
  403f8b:	0f 8e 3f 01 00 00    	jle    4040d0 <___pformat_emit_float+0x240>
  403f91:	83 7f 10 fd          	cmp    DWORD PTR [edi+0x10],0xfffffffd
  403f95:	0f 84 49 01 00 00    	je     4040e4 <___pformat_emit_float+0x254>
  403f9b:	0f b7 57 14          	movzx  edx,WORD PTR [edi+0x14]
  403f9f:	66 85 d2             	test   dx,dx
  403fa2:	0f 85 7f 00 00 00    	jne    404027 <___pformat_emit_float+0x197>
  403fa8:	b8 2e 00 00 00       	mov    eax,0x2e
  403fad:	89 fa                	mov    edx,edi
  403faf:	e8 1c f7 ff ff       	call   4036d0 <___pformat_putc>
  403fb4:	8b 47 0c             	mov    eax,DWORD PTR [edi+0xc]
  403fb7:	85 db                	test   ebx,ebx
  403fb9:	74 21                	je     403fdc <___pformat_emit_float+0x14c>
  403fbb:	e9 d8 00 00 00       	jmp    404098 <___pformat_emit_float+0x208>
  403fc0:	0f b6 16             	movzx  edx,BYTE PTR [esi]
  403fc3:	b8 30 00 00 00       	mov    eax,0x30
  403fc8:	84 d2                	test   dl,dl
  403fca:	74 06                	je     403fd2 <___pformat_emit_float+0x142>
  403fcc:	83 c6 01             	add    esi,0x1
  403fcf:	0f be c2             	movsx  eax,dl
  403fd2:	89 fa                	mov    edx,edi
  403fd4:	e8 f7 f6 ff ff       	call   4036d0 <___pformat_putc>
  403fd9:	8b 47 0c             	mov    eax,DWORD PTR [edi+0xc]
  403fdc:	8d 50 ff             	lea    edx,[eax-0x1]
  403fdf:	85 c0                	test   eax,eax
  403fe1:	89 57 0c             	mov    DWORD PTR [edi+0xc],edx
  403fe4:	7f da                	jg     403fc0 <___pformat_emit_float+0x130>
  403fe6:	8d 65 f4             	lea    esp,[ebp-0xc]
  403fe9:	5b                   	pop    ebx
  403fea:	5e                   	pop    esi
  403feb:	5f                   	pop    edi
  403fec:	5d                   	pop    ebp
  403fed:	c3                   	ret    
  403fee:	66 90                	xchg   ax,ax
  403ff0:	c7 47 08 ff ff ff ff 	mov    DWORD PTR [edi+0x8],0xffffffff
  403ff7:	8b 45 d4             	mov    eax,DWORD PTR [ebp-0x2c]
  403ffa:	85 c0                	test   eax,eax
  403ffc:	0f 85 38 ff ff ff    	jne    403f3a <___pformat_emit_float+0xaa>
  404002:	8b 47 04             	mov    eax,DWORD PTR [edi+0x4]
  404005:	f6 c4 01             	test   ah,0x1
  404008:	0f 85 32 01 00 00    	jne    404140 <___pformat_emit_float+0x2b0>
  40400e:	a8 40                	test   al,0x40
  404010:	0f 84 30 ff ff ff    	je     403f46 <___pformat_emit_float+0xb6>
  404016:	89 fa                	mov    edx,edi
  404018:	b8 20 00 00 00       	mov    eax,0x20
  40401d:	e8 ae f6 ff ff       	call   4036d0 <___pformat_putc>
  404022:	e9 1f ff ff ff       	jmp    403f46 <___pformat_emit_float+0xb6>
  404027:	8b 47 10             	mov    eax,DWORD PTR [edi+0x10]
  40402a:	89 65 d4             	mov    DWORD PTR [ebp-0x2c],esp
  40402d:	83 c0 0f             	add    eax,0xf
  404030:	83 e0 f0             	and    eax,0xfffffff0
  404033:	e8 28 df ff ff       	call   401f60 <___chkstk_ms>
  404038:	29 c4                	sub    esp,eax
  40403a:	8d 4c 24 10          	lea    ecx,[esp+0x10]
  40403e:	8d 45 e4             	lea    eax,[ebp-0x1c]
  404041:	c7 45 e4 00 00 00 00 	mov    DWORD PTR [ebp-0x1c],0x0
  404048:	89 44 24 08          	mov    DWORD PTR [esp+0x8],eax
  40404c:	89 54 24 04          	mov    DWORD PTR [esp+0x4],edx
  404050:	89 0c 24             	mov    DWORD PTR [esp],ecx
  404053:	89 4d d0             	mov    DWORD PTR [ebp-0x30],ecx
  404056:	e8 35 19 00 00       	call   405990 <_wcrtomb>
  40405b:	85 c0                	test   eax,eax
  40405d:	0f 8e 42 01 00 00    	jle    4041a5 <___pformat_emit_float+0x315>
  404063:	8b 4d d0             	mov    ecx,DWORD PTR [ebp-0x30]
  404066:	89 5d cc             	mov    DWORD PTR [ebp-0x34],ebx
  404069:	89 75 d0             	mov    DWORD PTR [ebp-0x30],esi
  40406c:	01 c8                	add    eax,ecx
  40406e:	89 cb                	mov    ebx,ecx
  404070:	89 c6                	mov    esi,eax
  404072:	83 c3 01             	add    ebx,0x1
  404075:	0f be 43 ff          	movsx  eax,BYTE PTR [ebx-0x1]
  404079:	89 fa                	mov    edx,edi
  40407b:	e8 50 f6 ff ff       	call   4036d0 <___pformat_putc>
  404080:	39 f3                	cmp    ebx,esi
  404082:	75 ee                	jne    404072 <___pformat_emit_float+0x1e2>
  404084:	8b 75 d0             	mov    esi,DWORD PTR [ebp-0x30]
  404087:	8b 5d cc             	mov    ebx,DWORD PTR [ebp-0x34]
  40408a:	85 db                	test   ebx,ebx
  40408c:	8b 65 d4             	mov    esp,DWORD PTR [ebp-0x2c]
  40408f:	8b 47 0c             	mov    eax,DWORD PTR [edi+0xc]
  404092:	0f 84 44 ff ff ff    	je     403fdc <___pformat_emit_float+0x14c>
  404098:	01 d8                	add    eax,ebx
  40409a:	89 47 0c             	mov    DWORD PTR [edi+0xc],eax
  40409d:	8d 76 00             	lea    esi,[esi+0x0]
  4040a0:	89 fa                	mov    edx,edi
  4040a2:	b8 30 00 00 00       	mov    eax,0x30
  4040a7:	e8 24 f6 ff ff       	call   4036d0 <___pformat_putc>
  4040ac:	83 c3 01             	add    ebx,0x1
  4040af:	78 ef                	js     4040a0 <___pformat_emit_float+0x210>
  4040b1:	e9 23 ff ff ff       	jmp    403fd9 <___pformat_emit_float+0x149>
  4040b6:	83 e8 01             	sub    eax,0x1
  4040b9:	85 c0                	test   eax,eax
  4040bb:	89 47 08             	mov    DWORD PTR [edi+0x8],eax
  4040be:	0f 84 33 ff ff ff    	je     403ff7 <___pformat_emit_float+0x167>
  4040c4:	8b 57 04             	mov    edx,DWORD PTR [edi+0x4]
  4040c7:	e9 3f fe ff ff       	jmp    403f0b <___pformat_emit_float+0x7b>
  4040cc:	8d 74 26 00          	lea    esi,[esi+eiz*1+0x0]
  4040d0:	f6 47 05 08          	test   BYTE PTR [edi+0x5],0x8
  4040d4:	0f 84 dd fe ff ff    	je     403fb7 <___pformat_emit_float+0x127>
  4040da:	83 7f 10 fd          	cmp    DWORD PTR [edi+0x10],0xfffffffd
  4040de:	0f 85 b7 fe ff ff    	jne    403f9b <___pformat_emit_float+0x10b>
  4040e4:	c7 45 e4 00 00 00 00 	mov    DWORD PTR [ebp-0x1c],0x0
  4040eb:	e8 e0 3e 00 00       	call   407fd0 <_localeconv>
  4040f0:	8d 55 e4             	lea    edx,[ebp-0x1c]
  4040f3:	89 54 24 0c          	mov    DWORD PTR [esp+0xc],edx
  4040f7:	c7 44 24 08 10 00 00 	mov    DWORD PTR [esp+0x8],0x10
  4040fe:	00 
  4040ff:	8b 00                	mov    eax,DWORD PTR [eax]
  404101:	89 44 24 04          	mov    DWORD PTR [esp+0x4],eax
  404105:	8d 45 e2             	lea    eax,[ebp-0x1e]
  404108:	89 04 24             	mov    DWORD PTR [esp],eax
  40410b:	e8 50 15 00 00       	call   405660 <_mbrtowc>
  404110:	85 c0                	test   eax,eax
  404112:	0f 8e 9e 00 00 00    	jle    4041b6 <___pformat_emit_float+0x326>
  404118:	0f b7 55 e2          	movzx  edx,WORD PTR [ebp-0x1e]
  40411c:	66 89 57 14          	mov    WORD PTR [edi+0x14],dx
  404120:	89 47 10             	mov    DWORD PTR [edi+0x10],eax
  404123:	e9 77 fe ff ff       	jmp    403f9f <___pformat_emit_float+0x10f>
  404128:	85 c0                	test   eax,eax
  40412a:	0f 8e 8b fd ff ff    	jle    403ebb <___pformat_emit_float+0x2b>
  404130:	83 e8 01             	sub    eax,0x1
  404133:	89 47 08             	mov    DWORD PTR [edi+0x8],eax
  404136:	e9 88 fd ff ff       	jmp    403ec3 <___pformat_emit_float+0x33>
  40413b:	90                   	nop
  40413c:	8d 74 26 00          	lea    esi,[esi+eiz*1+0x0]
  404140:	89 fa                	mov    edx,edi
  404142:	b8 2b 00 00 00       	mov    eax,0x2b
  404147:	e8 84 f5 ff ff       	call   4036d0 <___pformat_putc>
  40414c:	e9 f5 fd ff ff       	jmp    403f46 <___pformat_emit_float+0xb6>
  404151:	83 ea 01             	sub    edx,0x1
  404154:	89 57 08             	mov    DWORD PTR [edi+0x8],edx
  404157:	89 fa                	mov    edx,edi
  404159:	b8 30 00 00 00       	mov    eax,0x30
  40415e:	e8 6d f5 ff ff       	call   4036d0 <___pformat_putc>
  404163:	8b 47 08             	mov    eax,DWORD PTR [edi+0x8]
  404166:	8d 50 ff             	lea    edx,[eax-0x1]
  404169:	85 c0                	test   eax,eax
  40416b:	89 57 08             	mov    DWORD PTR [edi+0x8],edx
  40416e:	7f e7                	jg     404157 <___pformat_emit_float+0x2c7>
  404170:	85 db                	test   ebx,ebx
  404172:	0f 8f f0 fd ff ff    	jg     403f68 <___pformat_emit_float+0xd8>
  404178:	89 fa                	mov    edx,edi
  40417a:	b8 30 00 00 00       	mov    eax,0x30
  40417f:	e8 4c f5 ff ff       	call   4036d0 <___pformat_putc>
  404184:	e9 fd fd ff ff       	jmp    403f86 <___pformat_emit_float+0xf6>
  404189:	8d b4 26 00 00 00 00 	lea    esi,[esi+eiz*1+0x0]
  404190:	f6 47 05 08          	test   BYTE PTR [edi+0x5],0x8
  404194:	0f 84 57 fd ff ff    	je     403ef1 <___pformat_emit_float+0x61>
  40419a:	8d b6 00 00 00 00    	lea    esi,[esi+0x0]
  4041a0:	e9 3e fd ff ff       	jmp    403ee3 <___pformat_emit_float+0x53>
  4041a5:	89 fa                	mov    edx,edi
  4041a7:	b8 2e 00 00 00       	mov    eax,0x2e
  4041ac:	e8 1f f5 ff ff       	call   4036d0 <___pformat_putc>
  4041b1:	e9 d4 fe ff ff       	jmp    40408a <___pformat_emit_float+0x1fa>
  4041b6:	0f b7 57 14          	movzx  edx,WORD PTR [edi+0x14]
  4041ba:	e9 61 ff ff ff       	jmp    404120 <___pformat_emit_float+0x290>
  4041bf:	90                   	nop

004041c0 <___pformat_emit_efloat>:
  4041c0:	55                   	push   ebp
  4041c1:	83 e9 01             	sub    ecx,0x1
  4041c4:	57                   	push   edi
  4041c5:	89 d5                	mov    ebp,edx
  4041c7:	56                   	push   esi
  4041c8:	be 01 00 00 00       	mov    esi,0x1
  4041cd:	53                   	push   ebx
  4041ce:	bb 67 66 66 66       	mov    ebx,0x66666667
  4041d3:	83 ec 1c             	sub    esp,0x1c
  4041d6:	89 44 24 04          	mov    DWORD PTR [esp+0x4],eax
  4041da:	89 c8                	mov    eax,ecx
  4041dc:	8b 7c 24 30          	mov    edi,DWORD PTR [esp+0x30]
  4041e0:	c1 f8 1f             	sar    eax,0x1f
  4041e3:	89 44 24 0c          	mov    DWORD PTR [esp+0xc],eax
  4041e7:	89 c8                	mov    eax,ecx
  4041e9:	f7 eb                	imul   ebx
  4041eb:	89 4c 24 08          	mov    DWORD PTR [esp+0x8],ecx
  4041ef:	c1 f9 1f             	sar    ecx,0x1f
  4041f2:	c1 fa 02             	sar    edx,0x2
  4041f5:	89 d3                	mov    ebx,edx
  4041f7:	29 cb                	sub    ebx,ecx
  4041f9:	74 18                	je     404213 <___pformat_emit_efloat+0x53>
  4041fb:	b9 67 66 66 66       	mov    ecx,0x66666667
  404200:	89 d8                	mov    eax,ebx
  404202:	83 c6 01             	add    esi,0x1
  404205:	f7 e9                	imul   ecx
  404207:	c1 fb 1f             	sar    ebx,0x1f
  40420a:	c1 fa 02             	sar    edx,0x2
  40420d:	29 da                	sub    edx,ebx
  40420f:	89 d3                	mov    ebx,edx
  404211:	75 ed                	jne    404200 <___pformat_emit_efloat+0x40>
  404213:	8b 47 20             	mov    eax,DWORD PTR [edi+0x20]
  404216:	39 c6                	cmp    esi,eax
  404218:	7d 02                	jge    40421c <___pformat_emit_efloat+0x5c>
  40421a:	89 c6                	mov    esi,eax
  40421c:	8b 57 08             	mov    edx,DWORD PTR [edi+0x8]
  40421f:	8d 46 02             	lea    eax,[esi+0x2]
  404222:	39 c2                	cmp    edx,eax
  404224:	7f 5a                	jg     404280 <___pformat_emit_efloat+0xc0>
  404226:	c7 47 08 ff ff ff ff 	mov    DWORD PTR [edi+0x8],0xffffffff
  40422d:	8b 44 24 04          	mov    eax,DWORD PTR [esp+0x4]
  404231:	b9 01 00 00 00       	mov    ecx,0x1
  404236:	89 ea                	mov    edx,ebp
  404238:	89 3c 24             	mov    DWORD PTR [esp],edi
  40423b:	83 c6 01             	add    esi,0x1
  40423e:	e8 4d fc ff ff       	call   403e90 <___pformat_emit_float>
  404243:	8b 47 20             	mov    eax,DWORD PTR [edi+0x20]
  404246:	89 47 0c             	mov    DWORD PTR [edi+0xc],eax
  404249:	8b 47 04             	mov    eax,DWORD PTR [edi+0x4]
  40424c:	89 c2                	mov    edx,eax
  40424e:	83 e0 20             	and    eax,0x20
  404251:	81 ca c0 01 00 00    	or     edx,0x1c0
  404257:	83 c8 45             	or     eax,0x45
  40425a:	89 57 04             	mov    DWORD PTR [edi+0x4],edx
  40425d:	89 fa                	mov    edx,edi
  40425f:	e8 6c f4 ff ff       	call   4036d0 <___pformat_putc>
  404264:	8b 44 24 08          	mov    eax,DWORD PTR [esp+0x8]
  404268:	89 f9                	mov    ecx,edi
  40426a:	01 77 08             	add    DWORD PTR [edi+0x8],esi
  40426d:	8b 54 24 0c          	mov    edx,DWORD PTR [esp+0xc]
  404271:	e8 0a f7 ff ff       	call   403980 <___pformat_int>
  404276:	83 c4 1c             	add    esp,0x1c
  404279:	5b                   	pop    ebx
  40427a:	5e                   	pop    esi
  40427b:	5f                   	pop    edi
  40427c:	5d                   	pop    ebp
  40427d:	c3                   	ret    
  40427e:	66 90                	xchg   ax,ax
  404280:	29 c2                	sub    edx,eax
  404282:	89 57 08             	mov    DWORD PTR [edi+0x8],edx
  404285:	eb a6                	jmp    40422d <___pformat_emit_efloat+0x6d>
  404287:	89 f6                	mov    esi,esi
  404289:	8d bc 27 00 00 00 00 	lea    edi,[edi+eiz*1+0x0]

00404290 <___pformat_efloat>:
  404290:	56                   	push   esi
  404291:	53                   	push   ebx
  404292:	89 c3                	mov    ebx,eax
  404294:	83 ec 44             	sub    esp,0x44
  404297:	8b 40 0c             	mov    eax,DWORD PTR [eax+0xc]
  40429a:	85 c0                	test   eax,eax
  40429c:	78 72                	js     404310 <___pformat_efloat+0x80>
  40429e:	83 c0 01             	add    eax,0x1
  4042a1:	db 6c 24 50          	fld    TBYTE PTR [esp+0x50]
  4042a5:	89 44 24 10          	mov    DWORD PTR [esp+0x10],eax
  4042a9:	8d 54 24 28          	lea    edx,[esp+0x28]
  4042ad:	db 7c 24 30          	fstp   TBYTE PTR [esp+0x30]
  4042b1:	8b 44 24 30          	mov    eax,DWORD PTR [esp+0x30]
  4042b5:	89 54 24 18          	mov    DWORD PTR [esp+0x18],edx
  4042b9:	8d 54 24 2c          	lea    edx,[esp+0x2c]
  4042bd:	89 54 24 14          	mov    DWORD PTR [esp+0x14],edx
  4042c1:	89 04 24             	mov    DWORD PTR [esp],eax
  4042c4:	8b 44 24 34          	mov    eax,DWORD PTR [esp+0x34]
  4042c8:	89 44 24 04          	mov    DWORD PTR [esp+0x4],eax
  4042cc:	8b 44 24 38          	mov    eax,DWORD PTR [esp+0x38]
  4042d0:	89 44 24 08          	mov    DWORD PTR [esp+0x8],eax
  4042d4:	8b 44 24 3c          	mov    eax,DWORD PTR [esp+0x3c]
  4042d8:	89 44 24 0c          	mov    DWORD PTR [esp+0xc],eax
  4042dc:	b8 02 00 00 00       	mov    eax,0x2
  4042e1:	e8 ea f2 ff ff       	call   4035d0 <___pformat_cvt>
  4042e6:	8b 4c 24 2c          	mov    ecx,DWORD PTR [esp+0x2c]
  4042ea:	81 f9 00 80 ff ff    	cmp    ecx,0xffff8000
  4042f0:	89 c6                	mov    esi,eax
  4042f2:	74 2c                	je     404320 <___pformat_efloat+0x90>
  4042f4:	89 c2                	mov    edx,eax
  4042f6:	8b 44 24 28          	mov    eax,DWORD PTR [esp+0x28]
  4042fa:	89 1c 24             	mov    DWORD PTR [esp],ebx
  4042fd:	e8 be fe ff ff       	call   4041c0 <___pformat_emit_efloat>
  404302:	89 34 24             	mov    DWORD PTR [esp],esi
  404305:	e8 e6 2e 00 00       	call   4071f0 <___freedtoa>
  40430a:	83 c4 44             	add    esp,0x44
  40430d:	5b                   	pop    ebx
  40430e:	5e                   	pop    esi
  40430f:	c3                   	ret    
  404310:	c7 43 0c 06 00 00 00 	mov    DWORD PTR [ebx+0xc],0x6
  404317:	b8 07 00 00 00       	mov    eax,0x7
  40431c:	eb 83                	jmp    4042a1 <___pformat_efloat+0x11>
  40431e:	66 90                	xchg   ax,ax
  404320:	89 c2                	mov    edx,eax
  404322:	8b 44 24 28          	mov    eax,DWORD PTR [esp+0x28]
  404326:	89 d9                	mov    ecx,ebx
  404328:	e8 c3 f5 ff ff       	call   4038f0 <___pformat_emit_inf_or_nan>
  40432d:	89 34 24             	mov    DWORD PTR [esp],esi
  404330:	e8 bb 2e 00 00       	call   4071f0 <___freedtoa>
  404335:	83 c4 44             	add    esp,0x44
  404338:	5b                   	pop    ebx
  404339:	5e                   	pop    esi
  40433a:	c3                   	ret    
  40433b:	90                   	nop
  40433c:	8d 74 26 00          	lea    esi,[esi+eiz*1+0x0]

00404340 <___pformat_float>:
  404340:	57                   	push   edi
  404341:	56                   	push   esi
  404342:	53                   	push   ebx
  404343:	89 c3                	mov    ebx,eax
  404345:	83 ec 40             	sub    esp,0x40
  404348:	8b 40 0c             	mov    eax,DWORD PTR [eax+0xc]
  40434b:	85 c0                	test   eax,eax
  40434d:	0f 88 9d 00 00 00    	js     4043f0 <___pformat_float+0xb0>
  404353:	db 6c 24 50          	fld    TBYTE PTR [esp+0x50]
  404357:	89 44 24 10          	mov    DWORD PTR [esp+0x10],eax
  40435b:	8d 54 24 28          	lea    edx,[esp+0x28]
  40435f:	db 7c 24 30          	fstp   TBYTE PTR [esp+0x30]
  404363:	8b 44 24 30          	mov    eax,DWORD PTR [esp+0x30]
  404367:	89 54 24 18          	mov    DWORD PTR [esp+0x18],edx
  40436b:	8d 54 24 2c          	lea    edx,[esp+0x2c]
  40436f:	89 54 24 14          	mov    DWORD PTR [esp+0x14],edx
  404373:	89 04 24             	mov    DWORD PTR [esp],eax
  404376:	8b 44 24 34          	mov    eax,DWORD PTR [esp+0x34]
  40437a:	89 44 24 04          	mov    DWORD PTR [esp+0x4],eax
  40437e:	8b 44 24 38          	mov    eax,DWORD PTR [esp+0x38]
  404382:	89 44 24 08          	mov    DWORD PTR [esp+0x8],eax
  404386:	8b 44 24 3c          	mov    eax,DWORD PTR [esp+0x3c]
  40438a:	89 44 24 0c          	mov    DWORD PTR [esp+0xc],eax
  40438e:	b8 03 00 00 00       	mov    eax,0x3
  404393:	e8 38 f2 ff ff       	call   4035d0 <___pformat_cvt>
  404398:	8b 4c 24 2c          	mov    ecx,DWORD PTR [esp+0x2c]
  40439c:	81 f9 00 80 ff ff    	cmp    ecx,0xffff8000
  4043a2:	89 c7                	mov    edi,eax
  4043a4:	74 5b                	je     404401 <___pformat_float+0xc1>
  4043a6:	89 c2                	mov    edx,eax
  4043a8:	8b 44 24 28          	mov    eax,DWORD PTR [esp+0x28]
  4043ac:	89 1c 24             	mov    DWORD PTR [esp],ebx
  4043af:	e8 dc fa ff ff       	call   403e90 <___pformat_emit_float>
  4043b4:	8b 43 08             	mov    eax,DWORD PTR [ebx+0x8]
  4043b7:	8d 50 ff             	lea    edx,[eax-0x1]
  4043ba:	85 c0                	test   eax,eax
  4043bc:	89 53 08             	mov    DWORD PTR [ebx+0x8],edx
  4043bf:	7e 19                	jle    4043da <___pformat_float+0x9a>
  4043c1:	89 da                	mov    edx,ebx
  4043c3:	b8 20 00 00 00       	mov    eax,0x20
  4043c8:	e8 03 f3 ff ff       	call   4036d0 <___pformat_putc>
  4043cd:	8b 4b 08             	mov    ecx,DWORD PTR [ebx+0x8]
  4043d0:	8d 71 ff             	lea    esi,[ecx-0x1]
  4043d3:	85 c9                	test   ecx,ecx
  4043d5:	89 73 08             	mov    DWORD PTR [ebx+0x8],esi
  4043d8:	7f e7                	jg     4043c1 <___pformat_float+0x81>
  4043da:	89 3c 24             	mov    DWORD PTR [esp],edi
  4043dd:	e8 0e 2e 00 00       	call   4071f0 <___freedtoa>
  4043e2:	83 c4 40             	add    esp,0x40
  4043e5:	5b                   	pop    ebx
  4043e6:	5e                   	pop    esi
  4043e7:	5f                   	pop    edi
  4043e8:	c3                   	ret    
  4043e9:	8d b4 26 00 00 00 00 	lea    esi,[esi+eiz*1+0x0]
  4043f0:	c7 43 0c 06 00 00 00 	mov    DWORD PTR [ebx+0xc],0x6
  4043f7:	b8 06 00 00 00       	mov    eax,0x6
  4043fc:	e9 52 ff ff ff       	jmp    404353 <___pformat_float+0x13>
  404401:	89 c2                	mov    edx,eax
  404403:	8b 44 24 28          	mov    eax,DWORD PTR [esp+0x28]
  404407:	89 d9                	mov    ecx,ebx
  404409:	e8 e2 f4 ff ff       	call   4038f0 <___pformat_emit_inf_or_nan>
  40440e:	89 3c 24             	mov    DWORD PTR [esp],edi
  404411:	e8 da 2d 00 00       	call   4071f0 <___freedtoa>
  404416:	83 c4 40             	add    esp,0x40
  404419:	5b                   	pop    ebx
  40441a:	5e                   	pop    esi
  40441b:	5f                   	pop    edi
  40441c:	c3                   	ret    
  40441d:	8d 76 00             	lea    esi,[esi+0x0]

00404420 <___pformat_gfloat>:
  404420:	57                   	push   edi
  404421:	56                   	push   esi
  404422:	53                   	push   ebx
  404423:	89 c3                	mov    ebx,eax
  404425:	83 ec 40             	sub    esp,0x40
  404428:	8b 40 0c             	mov    eax,DWORD PTR [eax+0xc]
  40442b:	85 c0                	test   eax,eax
  40442d:	0f 88 1d 01 00 00    	js     404550 <___pformat_gfloat+0x130>
  404433:	0f 84 fa 00 00 00    	je     404533 <___pformat_gfloat+0x113>
  404439:	db 6c 24 50          	fld    TBYTE PTR [esp+0x50]
  40443d:	89 44 24 10          	mov    DWORD PTR [esp+0x10],eax
  404441:	8d 54 24 28          	lea    edx,[esp+0x28]
  404445:	db 7c 24 30          	fstp   TBYTE PTR [esp+0x30]
  404449:	8b 44 24 30          	mov    eax,DWORD PTR [esp+0x30]
  40444d:	89 54 24 18          	mov    DWORD PTR [esp+0x18],edx
  404451:	8d 54 24 2c          	lea    edx,[esp+0x2c]
  404455:	89 54 24 14          	mov    DWORD PTR [esp+0x14],edx
  404459:	89 04 24             	mov    DWORD PTR [esp],eax
  40445c:	8b 44 24 34          	mov    eax,DWORD PTR [esp+0x34]
  404460:	89 44 24 04          	mov    DWORD PTR [esp+0x4],eax
  404464:	8b 44 24 38          	mov    eax,DWORD PTR [esp+0x38]
  404468:	89 44 24 08          	mov    DWORD PTR [esp+0x8],eax
  40446c:	8b 44 24 3c          	mov    eax,DWORD PTR [esp+0x3c]
  404470:	89 44 24 0c          	mov    DWORD PTR [esp+0xc],eax
  404474:	b8 02 00 00 00       	mov    eax,0x2
  404479:	e8 52 f1 ff ff       	call   4035d0 <___pformat_cvt>
  40447e:	8b 74 24 2c          	mov    esi,DWORD PTR [esp+0x2c]
  404482:	81 fe 00 80 ff ff    	cmp    esi,0xffff8000
  404488:	89 c7                	mov    edi,eax
  40448a:	0f 84 e0 00 00 00    	je     404570 <___pformat_gfloat+0x150>
  404490:	83 fe fd             	cmp    esi,0xfffffffd
  404493:	7c 6b                	jl     404500 <___pformat_gfloat+0xe0>
  404495:	8b 43 0c             	mov    eax,DWORD PTR [ebx+0xc]
  404498:	39 c6                	cmp    esi,eax
  40449a:	7f 64                	jg     404500 <___pformat_gfloat+0xe0>
  40449c:	f6 43 05 08          	test   BYTE PTR [ebx+0x5],0x8
  4044a0:	0f 85 bb 00 00 00    	jne    404561 <___pformat_gfloat+0x141>
  4044a6:	89 3c 24             	mov    DWORD PTR [esp],edi
  4044a9:	e8 d2 3a 00 00       	call   407f80 <_strlen>
  4044ae:	29 f0                	sub    eax,esi
  4044b0:	85 c0                	test   eax,eax
  4044b2:	89 43 0c             	mov    DWORD PTR [ebx+0xc],eax
  4044b5:	0f 88 c5 00 00 00    	js     404580 <___pformat_gfloat+0x160>
  4044bb:	8b 44 24 28          	mov    eax,DWORD PTR [esp+0x28]
  4044bf:	89 fa                	mov    edx,edi
  4044c1:	89 f1                	mov    ecx,esi
  4044c3:	89 1c 24             	mov    DWORD PTR [esp],ebx
  4044c6:	e8 c5 f9 ff ff       	call   403e90 <___pformat_emit_float>
  4044cb:	8b 43 08             	mov    eax,DWORD PTR [ebx+0x8]
  4044ce:	8d 50 ff             	lea    edx,[eax-0x1]
  4044d1:	85 c0                	test   eax,eax
  4044d3:	89 53 08             	mov    DWORD PTR [ebx+0x8],edx
  4044d6:	7e 4c                	jle    404524 <___pformat_gfloat+0x104>
  4044d8:	89 da                	mov    edx,ebx
  4044da:	b8 20 00 00 00       	mov    eax,0x20
  4044df:	e8 ec f1 ff ff       	call   4036d0 <___pformat_putc>
  4044e4:	8b 4b 08             	mov    ecx,DWORD PTR [ebx+0x8]
  4044e7:	8d 71 ff             	lea    esi,[ecx-0x1]
  4044ea:	85 c9                	test   ecx,ecx
  4044ec:	89 73 08             	mov    DWORD PTR [ebx+0x8],esi
  4044ef:	7f e7                	jg     4044d8 <___pformat_gfloat+0xb8>
  4044f1:	89 3c 24             	mov    DWORD PTR [esp],edi
  4044f4:	e8 f7 2c 00 00       	call   4071f0 <___freedtoa>
  4044f9:	83 c4 40             	add    esp,0x40
  4044fc:	5b                   	pop    ebx
  4044fd:	5e                   	pop    esi
  4044fe:	5f                   	pop    edi
  4044ff:	c3                   	ret    
  404500:	f6 43 05 08          	test   BYTE PTR [ebx+0x5],0x8
  404504:	75 3e                	jne    404544 <___pformat_gfloat+0x124>
  404506:	89 3c 24             	mov    DWORD PTR [esp],edi
  404509:	e8 72 3a 00 00       	call   407f80 <_strlen>
  40450e:	83 e8 01             	sub    eax,0x1
  404511:	89 43 0c             	mov    DWORD PTR [ebx+0xc],eax
  404514:	8b 44 24 28          	mov    eax,DWORD PTR [esp+0x28]
  404518:	89 f1                	mov    ecx,esi
  40451a:	89 fa                	mov    edx,edi
  40451c:	89 1c 24             	mov    DWORD PTR [esp],ebx
  40451f:	e8 9c fc ff ff       	call   4041c0 <___pformat_emit_efloat>
  404524:	89 3c 24             	mov    DWORD PTR [esp],edi
  404527:	e8 c4 2c 00 00       	call   4071f0 <___freedtoa>
  40452c:	83 c4 40             	add    esp,0x40
  40452f:	5b                   	pop    ebx
  404530:	5e                   	pop    esi
  404531:	5f                   	pop    edi
  404532:	c3                   	ret    
  404533:	c7 43 0c 01 00 00 00 	mov    DWORD PTR [ebx+0xc],0x1
  40453a:	b8 01 00 00 00       	mov    eax,0x1
  40453f:	e9 f5 fe ff ff       	jmp    404439 <___pformat_gfloat+0x19>
  404544:	83 6b 0c 01          	sub    DWORD PTR [ebx+0xc],0x1
  404548:	eb ca                	jmp    404514 <___pformat_gfloat+0xf4>
  40454a:	8d b6 00 00 00 00    	lea    esi,[esi+0x0]
  404550:	c7 43 0c 06 00 00 00 	mov    DWORD PTR [ebx+0xc],0x6
  404557:	b8 06 00 00 00       	mov    eax,0x6
  40455c:	e9 d8 fe ff ff       	jmp    404439 <___pformat_gfloat+0x19>
  404561:	29 f0                	sub    eax,esi
  404563:	89 43 0c             	mov    DWORD PTR [ebx+0xc],eax
  404566:	e9 50 ff ff ff       	jmp    4044bb <___pformat_gfloat+0x9b>
  40456b:	90                   	nop
  40456c:	8d 74 26 00          	lea    esi,[esi+eiz*1+0x0]
  404570:	89 c2                	mov    edx,eax
  404572:	8b 44 24 28          	mov    eax,DWORD PTR [esp+0x28]
  404576:	89 d9                	mov    ecx,ebx
  404578:	e8 73 f3 ff ff       	call   4038f0 <___pformat_emit_inf_or_nan>
  40457d:	eb a5                	jmp    404524 <___pformat_gfloat+0x104>
  40457f:	90                   	nop
  404580:	8b 53 08             	mov    edx,DWORD PTR [ebx+0x8]
  404583:	85 d2                	test   edx,edx
  404585:	0f 8e 30 ff ff ff    	jle    4044bb <___pformat_gfloat+0x9b>
  40458b:	01 d0                	add    eax,edx
  40458d:	89 43 08             	mov    DWORD PTR [ebx+0x8],eax
  404590:	e9 26 ff ff ff       	jmp    4044bb <___pformat_gfloat+0x9b>
  404595:	8d 74 26 00          	lea    esi,[esi+eiz*1+0x0]
  404599:	8d bc 27 00 00 00 00 	lea    edi,[edi+eiz*1+0x0]

004045a0 <___pformat_xldouble>:
  4045a0:	55                   	push   ebp
  4045a1:	89 e5                	mov    ebp,esp
  4045a3:	57                   	push   edi
  4045a4:	89 c7                	mov    edi,eax
  4045a6:	56                   	push   esi
  4045a7:	53                   	push   ebx
  4045a8:	83 ec 6c             	sub    esp,0x6c
  4045ab:	db 6d 08             	fld    TBYTE PTR [ebp+0x8]
  4045ae:	d9 c0                	fld    st(0)
  4045b0:	db 7d c0             	fstp   TBYTE PTR [ebp-0x40]
  4045b3:	d9 e5                	fxam   
  4045b5:	9b df e0             	fstsw  ax
  4045b8:	66 25 00 45          	and    ax,0x4500
  4045bc:	66 3d 00 01          	cmp    ax,0x100
  4045c0:	0f 84 1f 05 00 00    	je     404ae5 <___pformat_xldouble+0x545>
  4045c6:	0f b7 55 c8          	movzx  edx,WORD PTR [ebp-0x38]
  4045ca:	89 d3                	mov    ebx,edx
  4045cc:	81 e3 00 80 00 00    	and    ebx,0x8000
  4045d2:	0f 85 48 01 00 00    	jne    404720 <___pformat_xldouble+0x180>
  4045d8:	d9 e5                	fxam   
  4045da:	9b df e0             	fstsw  ax
  4045dd:	dd d8                	fstp   st(0)
  4045df:	66 25 00 45          	and    ax,0x4500
  4045e3:	66 3d 00 05          	cmp    ax,0x500
  4045e7:	0f 84 16 05 00 00    	je     404b03 <___pformat_xldouble+0x563>
  4045ed:	66 81 e2 ff 7f       	and    dx,0x7fff
  4045f2:	0f 84 b8 01 00 00    	je     4047b0 <___pformat_xldouble+0x210>
  4045f8:	8d b2 01 c0 ff ff    	lea    esi,[edx-0x3fff]
  4045fe:	8b 45 c0             	mov    eax,DWORD PTR [ebp-0x40]
  404601:	8b 55 c4             	mov    edx,DWORD PTR [ebp-0x3c]
  404604:	8b 5f 0c             	mov    ebx,DWORD PTR [edi+0xc]
  404607:	83 fb 0e             	cmp    ebx,0xe
  40460a:	0f 86 26 01 00 00    	jbe    404736 <___pformat_xldouble+0x196>
  404610:	89 d1                	mov    ecx,edx
  404612:	09 c1                	or     ecx,eax
  404614:	0f 84 fc 04 00 00    	je     404b16 <___pformat_xldouble+0x576>
  40461a:	8d 4d d6             	lea    ecx,[ebp-0x2a]
  40461d:	89 4d a4             	mov    DWORD PTR [ebp-0x5c],ecx
  404620:	89 4d ac             	mov    DWORD PTR [ebp-0x54],ecx
  404623:	89 7d a8             	mov    DWORD PTR [ebp-0x58],edi
  404626:	eb 5e                	jmp    404686 <___pformat_xldouble+0xe6>
  404628:	8b 4d a8             	mov    ecx,DWORD PTR [ebp-0x58]
  40462b:	8b 49 0c             	mov    ecx,DWORD PTR [ecx+0xc]
  40462e:	85 c9                	test   ecx,ecx
  404630:	7e 09                	jle    40463b <___pformat_xldouble+0x9b>
  404632:	8b 5d a8             	mov    ebx,DWORD PTR [ebp-0x58]
  404635:	83 e9 01             	sub    ecx,0x1
  404638:	89 4b 0c             	mov    DWORD PTR [ebx+0xc],ecx
  40463b:	8b 4d ac             	mov    ecx,DWORD PTR [ebp-0x54]
  40463e:	0f ac d0 04          	shrd   eax,edx,0x4
  404642:	c1 ea 04             	shr    edx,0x4
  404645:	85 ff                	test   edi,edi
  404647:	89 4d b0             	mov    DWORD PTR [ebp-0x50],ecx
  40464a:	0f 84 a8 00 00 00    	je     4046f8 <___pformat_xldouble+0x158>
  404650:	8b 4d b0             	mov    ecx,DWORD PTR [ebp-0x50]
  404653:	83 c1 01             	add    ecx,0x1
  404656:	83 ff 09             	cmp    edi,0x9
  404659:	89 4d ac             	mov    DWORD PTR [ebp-0x54],ecx
  40465c:	0f 8e b5 00 00 00    	jle    404717 <___pformat_xldouble+0x177>
  404662:	8d 4f 37             	lea    ecx,[edi+0x37]
  404665:	8b 7d a8             	mov    edi,DWORD PTR [ebp-0x58]
  404668:	8b 7f 04             	mov    edi,DWORD PTR [edi+0x4]
  40466b:	89 7d a0             	mov    DWORD PTR [ebp-0x60],edi
  40466e:	0f b6 5d a0          	movzx  ebx,BYTE PTR [ebp-0x60]
  404672:	83 e3 20             	and    ebx,0x20
  404675:	09 d9                	or     ecx,ebx
  404677:	8b 7d b0             	mov    edi,DWORD PTR [ebp-0x50]
  40467a:	88 0f                	mov    BYTE PTR [edi],cl
  40467c:	89 d7                	mov    edi,edx
  40467e:	09 c7                	or     edi,eax
  404680:	0f 84 60 01 00 00    	je     4047e6 <___pformat_xldouble+0x246>
  404686:	89 c7                	mov    edi,eax
  404688:	89 c1                	mov    ecx,eax
  40468a:	83 e7 0f             	and    edi,0xf
  40468d:	89 fb                	mov    ebx,edi
  40468f:	31 f9                	xor    ecx,edi
  404691:	c1 fb 1f             	sar    ebx,0x1f
  404694:	31 d3                	xor    ebx,edx
  404696:	09 cb                	or     ebx,ecx
  404698:	75 8e                	jne    404628 <___pformat_xldouble+0x88>
  40469a:	8b 4d a4             	mov    ecx,DWORD PTR [ebp-0x5c]
  40469d:	39 4d ac             	cmp    DWORD PTR [ebp-0x54],ecx
  4046a0:	77 1e                	ja     4046c0 <___pformat_xldouble+0x120>
  4046a2:	8b 4d a8             	mov    ecx,DWORD PTR [ebp-0x58]
  4046a5:	f6 41 05 08          	test   BYTE PTR [ecx+0x5],0x8
  4046a9:	75 15                	jne    4046c0 <___pformat_xldouble+0x120>
  4046ab:	8b 4d ac             	mov    ecx,DWORD PTR [ebp-0x54]
  4046ae:	89 4d b0             	mov    DWORD PTR [ebp-0x50],ecx
  4046b1:	8b 4d a8             	mov    ecx,DWORD PTR [ebp-0x58]
  4046b4:	8b 59 0c             	mov    ebx,DWORD PTR [ecx+0xc]
  4046b7:	85 db                	test   ebx,ebx
  4046b9:	7e 11                	jle    4046cc <___pformat_xldouble+0x12c>
  4046bb:	90                   	nop
  4046bc:	8d 74 26 00          	lea    esi,[esi+eiz*1+0x0]
  4046c0:	8b 4d ac             	mov    ecx,DWORD PTR [ebp-0x54]
  4046c3:	8d 59 01             	lea    ebx,[ecx+0x1]
  4046c6:	89 5d b0             	mov    DWORD PTR [ebp-0x50],ebx
  4046c9:	c6 01 2e             	mov    BYTE PTR [ecx],0x2e
  4046cc:	89 c1                	mov    ecx,eax
  4046ce:	83 f1 01             	xor    ecx,0x1
  4046d1:	09 d1                	or     ecx,edx
  4046d3:	74 17                	je     4046ec <___pformat_xldouble+0x14c>
  4046d5:	8d 4e ff             	lea    ecx,[esi-0x1]
  4046d8:	0f ac d0 01          	shrd   eax,edx,0x1
  4046dc:	89 ce                	mov    esi,ecx
  4046de:	89 c3                	mov    ebx,eax
  4046e0:	d1 ea                	shr    edx,1
  4046e2:	83 f3 01             	xor    ebx,0x1
  4046e5:	09 d3                	or     ebx,edx
  4046e7:	8d 4e ff             	lea    ecx,[esi-0x1]
  4046ea:	75 ec                	jne    4046d8 <___pformat_xldouble+0x138>
  4046ec:	31 c0                	xor    eax,eax
  4046ee:	31 d2                	xor    edx,edx
  4046f0:	85 ff                	test   edi,edi
  4046f2:	0f 85 58 ff ff ff    	jne    404650 <___pformat_xldouble+0xb0>
  4046f8:	8b 4d a4             	mov    ecx,DWORD PTR [ebp-0x5c]
  4046fb:	39 4d b0             	cmp    DWORD PTR [ebp-0x50],ecx
  4046fe:	77 0e                	ja     40470e <___pformat_xldouble+0x16e>
  404700:	8b 4d a8             	mov    ecx,DWORD PTR [ebp-0x58]
  404703:	8b 49 0c             	mov    ecx,DWORD PTR [ecx+0xc]
  404706:	85 c9                	test   ecx,ecx
  404708:	0f 88 b7 01 00 00    	js     4048c5 <___pformat_xldouble+0x325>
  40470e:	8b 4d b0             	mov    ecx,DWORD PTR [ebp-0x50]
  404711:	83 c1 01             	add    ecx,0x1
  404714:	89 4d ac             	mov    DWORD PTR [ebp-0x54],ecx
  404717:	8d 4f 30             	lea    ecx,[edi+0x30]
  40471a:	e9 58 ff ff ff       	jmp    404677 <___pformat_xldouble+0xd7>
  40471f:	90                   	nop
  404720:	81 4f 04 80 00 00 00 	or     DWORD PTR [edi+0x4],0x80
  404727:	e9 ac fe ff ff       	jmp    4045d8 <___pformat_xldouble+0x38>
  40472c:	8d 74 26 00          	lea    esi,[esi+eiz*1+0x0]
  404730:	0f a4 c2 01          	shld   edx,eax,0x1
  404734:	01 c0                	add    eax,eax
  404736:	85 d2                	test   edx,edx
  404738:	79 f6                	jns    404730 <___pformat_xldouble+0x190>
  40473a:	b9 0e 00 00 00       	mov    ecx,0xe
  40473f:	0f ac d0 01          	shrd   eax,edx,0x1
  404743:	29 d9                	sub    ecx,ebx
  404745:	d1 ea                	shr    edx,1
  404747:	c1 e1 02             	shl    ecx,0x2
  40474a:	89 45 b0             	mov    DWORD PTR [ebp-0x50],eax
  40474d:	b8 04 00 00 00       	mov    eax,0x4
  404752:	89 55 b4             	mov    DWORD PTR [ebp-0x4c],edx
  404755:	31 d2                	xor    edx,edx
  404757:	0f a5 c2             	shld   edx,eax,cl
  40475a:	d3 e0                	shl    eax,cl
  40475c:	f6 c1 20             	test   cl,0x20
  40475f:	74 04                	je     404765 <___pformat_xldouble+0x1c5>
  404761:	89 c2                	mov    edx,eax
  404763:	31 c0                	xor    eax,eax
  404765:	01 45 b0             	add    DWORD PTR [ebp-0x50],eax
  404768:	11 55 b4             	adc    DWORD PTR [ebp-0x4c],edx
  40476b:	8b 55 b4             	mov    edx,DWORD PTR [ebp-0x4c]
  40476e:	8b 45 b0             	mov    eax,DWORD PTR [ebp-0x50]
  404771:	85 d2                	test   edx,edx
  404773:	0f 88 64 03 00 00    	js     404add <___pformat_xldouble+0x53d>
  404779:	0f a4 c2 01          	shld   edx,eax,0x1
  40477d:	01 c0                	add    eax,eax
  40477f:	89 45 b0             	mov    DWORD PTR [ebp-0x50],eax
  404782:	89 55 b4             	mov    DWORD PTR [ebp-0x4c],edx
  404785:	8b 55 b4             	mov    edx,DWORD PTR [ebp-0x4c]
  404788:	b9 0f 00 00 00       	mov    ecx,0xf
  40478d:	8b 45 b0             	mov    eax,DWORD PTR [ebp-0x50]
  404790:	29 d9                	sub    ecx,ebx
  404792:	c1 e1 02             	shl    ecx,0x2
  404795:	0f ad d0             	shrd   eax,edx,cl
  404798:	d3 ea                	shr    edx,cl
  40479a:	f6 c1 20             	test   cl,0x20
  40479d:	0f 84 77 fe ff ff    	je     40461a <___pformat_xldouble+0x7a>
  4047a3:	89 d0                	mov    eax,edx
  4047a5:	31 d2                	xor    edx,edx
  4047a7:	e9 6e fe ff ff       	jmp    40461a <___pformat_xldouble+0x7a>
  4047ac:	8d 74 26 00          	lea    esi,[esi+eiz*1+0x0]
  4047b0:	8b 55 c4             	mov    edx,DWORD PTR [ebp-0x3c]
  4047b3:	8b 45 c0             	mov    eax,DWORD PTR [ebp-0x40]
  4047b6:	89 d6                	mov    esi,edx
  4047b8:	09 c6                	or     esi,eax
  4047ba:	0f 84 d7 02 00 00    	je     404a97 <___pformat_xldouble+0x4f7>
  4047c0:	85 d2                	test   edx,edx
  4047c2:	0f 88 84 03 00 00    	js     404b4c <___pformat_xldouble+0x5ac>
  4047c8:	b9 01 c0 ff ff       	mov    ecx,0xffffc001
  4047cd:	8d 76 00             	lea    esi,[esi+0x0]
  4047d0:	0f a4 c2 01          	shld   edx,eax,0x1
  4047d4:	89 cb                	mov    ebx,ecx
  4047d6:	01 c0                	add    eax,eax
  4047d8:	83 e9 01             	sub    ecx,0x1
  4047db:	85 d2                	test   edx,edx
  4047dd:	79 f1                	jns    4047d0 <___pformat_xldouble+0x230>
  4047df:	89 de                	mov    esi,ebx
  4047e1:	e9 1e fe ff ff       	jmp    404604 <___pformat_xldouble+0x64>
  4047e6:	8b 45 a4             	mov    eax,DWORD PTR [ebp-0x5c]
  4047e9:	39 45 ac             	cmp    DWORD PTR [ebp-0x54],eax
  4047ec:	8b 7d a8             	mov    edi,DWORD PTR [ebp-0x58]
  4047ef:	0f 84 52 03 00 00    	je     404b47 <___pformat_xldouble+0x5a7>
  4047f5:	8b 47 04             	mov    eax,DWORD PTR [edi+0x4]
  4047f8:	89 45 b0             	mov    DWORD PTR [ebp-0x50],eax
  4047fb:	8b 47 08             	mov    eax,DWORD PTR [edi+0x8]
  4047fe:	85 c0                	test   eax,eax
  404800:	89 45 a0             	mov    DWORD PTR [ebp-0x60],eax
  404803:	0f 8e 7c 02 00 00    	jle    404a85 <___pformat_xldouble+0x4e5>
  404809:	8b 57 0c             	mov    edx,DWORD PTR [edi+0xc]
  40480c:	0f bf f6             	movsx  esi,si
  40480f:	8b 45 ac             	mov    eax,DWORD PTR [ebp-0x54]
  404812:	2b 45 a4             	sub    eax,DWORD PTR [ebp-0x5c]
  404815:	89 75 a8             	mov    DWORD PTR [ebp-0x58],esi
  404818:	85 d2                	test   edx,edx
  40481a:	7e 02                	jle    40481e <___pformat_xldouble+0x27e>
  40481c:	01 d0                	add    eax,edx
  40481e:	8b 55 b0             	mov    edx,DWORD PTR [ebp-0x50]
  404821:	81 e2 c0 01 00 00    	and    edx,0x1c0
  404827:	83 fa 01             	cmp    edx,0x1
  40482a:	19 d2                	sbb    edx,edx
  40482c:	8d 74 10 06          	lea    esi,[eax+edx*1+0x6]
  404830:	8b 45 a8             	mov    eax,DWORD PTR [ebp-0x58]
  404833:	ba 67 66 66 66       	mov    edx,0x66666667
  404838:	f7 ea                	imul   edx
  40483a:	8b 45 a8             	mov    eax,DWORD PTR [ebp-0x58]
  40483d:	c1 fa 02             	sar    edx,0x2
  404840:	c1 f8 1f             	sar    eax,0x1f
  404843:	29 c2                	sub    edx,eax
  404845:	89 d1                	mov    ecx,edx
  404847:	0f 84 ee 02 00 00    	je     404b3b <___pformat_xldouble+0x59b>
  40484d:	bb 02 00 00 00       	mov    ebx,0x2
  404852:	b8 67 66 66 66       	mov    eax,0x66666667
  404857:	83 c6 01             	add    esi,0x1
  40485a:	f7 e9                	imul   ecx
  40485c:	83 c3 01             	add    ebx,0x1
  40485f:	c1 f9 1f             	sar    ecx,0x1f
  404862:	c1 fa 02             	sar    edx,0x2
  404865:	29 ca                	sub    edx,ecx
  404867:	89 d1                	mov    ecx,edx
  404869:	75 e7                	jne    404852 <___pformat_xldouble+0x2b2>
  40486b:	0f bf c3             	movsx  eax,bx
  40486e:	89 45 9c             	mov    DWORD PTR [ebp-0x64],eax
  404871:	39 75 a0             	cmp    DWORD PTR [ebp-0x60],esi
  404874:	7e 5a                	jle    4048d0 <___pformat_xldouble+0x330>
  404876:	8b 45 a0             	mov    eax,DWORD PTR [ebp-0x60]
  404879:	29 f0                	sub    eax,esi
  40487b:	f7 45 b0 00 06 00 00 	test   DWORD PTR [ebp-0x50],0x600
  404882:	0f 85 1a 02 00 00    	jne    404aa2 <___pformat_xldouble+0x502>
  404888:	8d 50 ff             	lea    edx,[eax-0x1]
  40488b:	85 c0                	test   eax,eax
  40488d:	89 57 08             	mov    DWORD PTR [edi+0x8],edx
  404890:	7e 45                	jle    4048d7 <___pformat_xldouble+0x337>
  404892:	89 fa                	mov    edx,edi
  404894:	b8 20 00 00 00       	mov    eax,0x20
  404899:	e8 32 ee ff ff       	call   4036d0 <___pformat_putc>
  40489e:	8b 47 08             	mov    eax,DWORD PTR [edi+0x8]
  4048a1:	8d 50 ff             	lea    edx,[eax-0x1]
  4048a4:	85 c0                	test   eax,eax
  4048a6:	89 57 08             	mov    DWORD PTR [edi+0x8],edx
  4048a9:	7f e7                	jg     404892 <___pformat_xldouble+0x2f2>
  4048ab:	8b 47 04             	mov    eax,DWORD PTR [edi+0x4]
  4048ae:	89 45 b0             	mov    DWORD PTR [ebp-0x50],eax
  4048b1:	f6 45 b0 80          	test   BYTE PTR [ebp-0x50],0x80
  4048b5:	74 26                	je     4048dd <___pformat_xldouble+0x33d>
  4048b7:	89 fa                	mov    edx,edi
  4048b9:	b8 2d 00 00 00       	mov    eax,0x2d
  4048be:	e8 0d ee ff ff       	call   4036d0 <___pformat_putc>
  4048c3:	eb 2f                	jmp    4048f4 <___pformat_xldouble+0x354>
  4048c5:	8b 7d b0             	mov    edi,DWORD PTR [ebp-0x50]
  4048c8:	89 7d ac             	mov    DWORD PTR [ebp-0x54],edi
  4048cb:	e9 ac fd ff ff       	jmp    40467c <___pformat_xldouble+0xdc>
  4048d0:	c7 47 08 ff ff ff ff 	mov    DWORD PTR [edi+0x8],0xffffffff
  4048d7:	f6 45 b0 80          	test   BYTE PTR [ebp-0x50],0x80
  4048db:	75 da                	jne    4048b7 <___pformat_xldouble+0x317>
  4048dd:	f7 45 b0 00 01 00 00 	test   DWORD PTR [ebp-0x50],0x100
  4048e4:	0f 85 c0 01 00 00    	jne    404aaa <___pformat_xldouble+0x50a>
  4048ea:	f6 45 b0 40          	test   BYTE PTR [ebp-0x50],0x40
  4048ee:	0f 85 d8 01 00 00    	jne    404acc <___pformat_xldouble+0x52c>
  4048f4:	89 fa                	mov    edx,edi
  4048f6:	b8 30 00 00 00       	mov    eax,0x30
  4048fb:	e8 d0 ed ff ff       	call   4036d0 <___pformat_putc>
  404900:	8b 47 04             	mov    eax,DWORD PTR [edi+0x4]
  404903:	89 fa                	mov    edx,edi
  404905:	83 e0 20             	and    eax,0x20
  404908:	83 c8 58             	or     eax,0x58
  40490b:	e8 c0 ed ff ff       	call   4036d0 <___pformat_putc>
  404910:	8b 47 08             	mov    eax,DWORD PTR [edi+0x8]
  404913:	85 c0                	test   eax,eax
  404915:	7e 25                	jle    40493c <___pformat_xldouble+0x39c>
  404917:	f6 47 05 02          	test   BYTE PTR [edi+0x5],0x2
  40491b:	74 1f                	je     40493c <___pformat_xldouble+0x39c>
  40491d:	83 e8 01             	sub    eax,0x1
  404920:	89 47 08             	mov    DWORD PTR [edi+0x8],eax
  404923:	89 fa                	mov    edx,edi
  404925:	b8 30 00 00 00       	mov    eax,0x30
  40492a:	e8 a1 ed ff ff       	call   4036d0 <___pformat_putc>
  40492f:	8b 47 08             	mov    eax,DWORD PTR [edi+0x8]
  404932:	8d 50 ff             	lea    edx,[eax-0x1]
  404935:	85 c0                	test   eax,eax
  404937:	89 57 08             	mov    DWORD PTR [edi+0x8],edx
  40493a:	7f e7                	jg     404923 <___pformat_xldouble+0x383>
  40493c:	8b 45 a4             	mov    eax,DWORD PTR [ebp-0x5c]
  40493f:	39 45 ac             	cmp    DWORD PTR [ebp-0x54],eax
  404942:	8b 5d ac             	mov    ebx,DWORD PTR [ebp-0x54]
  404945:	77 19                	ja     404960 <___pformat_xldouble+0x3c0>
  404947:	e9 a1 00 00 00       	jmp    4049ed <___pformat_xldouble+0x44d>
  40494c:	8d 74 26 00          	lea    esi,[esi+eiz*1+0x0]
  404950:	89 fa                	mov    edx,edi
  404952:	e8 79 ed ff ff       	call   4036d0 <___pformat_putc>
  404957:	3b 5d a4             	cmp    ebx,DWORD PTR [ebp-0x5c]
  40495a:	0f 84 8d 00 00 00    	je     4049ed <___pformat_xldouble+0x44d>
  404960:	83 eb 01             	sub    ebx,0x1
  404963:	0f be 03             	movsx  eax,BYTE PTR [ebx]
  404966:	83 f8 2e             	cmp    eax,0x2e
  404969:	75 e5                	jne    404950 <___pformat_xldouble+0x3b0>
  40496b:	83 7f 10 fd          	cmp    DWORD PTR [edi+0x10],0xfffffffd
  40496f:	0f 84 cc 00 00 00    	je     404a41 <___pformat_xldouble+0x4a1>
  404975:	0f b7 57 14          	movzx  edx,WORD PTR [edi+0x14]
  404979:	66 85 d2             	test   dx,dx
  40497c:	0f 84 ae 00 00 00    	je     404a30 <___pformat_xldouble+0x490>
  404982:	8b 47 10             	mov    eax,DWORD PTR [edi+0x10]
  404985:	89 65 b0             	mov    DWORD PTR [ebp-0x50],esp
  404988:	83 c0 0f             	add    eax,0xf
  40498b:	83 e0 f0             	and    eax,0xfffffff0
  40498e:	e8 cd d5 ff ff       	call   401f60 <___chkstk_ms>
  404993:	29 c4                	sub    esp,eax
  404995:	8d 74 24 10          	lea    esi,[esp+0x10]
  404999:	8d 45 bc             	lea    eax,[ebp-0x44]
  40499c:	c7 45 bc 00 00 00 00 	mov    DWORD PTR [ebp-0x44],0x0
  4049a3:	89 44 24 08          	mov    DWORD PTR [esp+0x8],eax
  4049a7:	89 54 24 04          	mov    DWORD PTR [esp+0x4],edx
  4049ab:	89 34 24             	mov    DWORD PTR [esp],esi
  4049ae:	e8 dd 0f 00 00       	call   405990 <_wcrtomb>
  4049b3:	85 c0                	test   eax,eax
  4049b5:	0f 8e 00 01 00 00    	jle    404abb <___pformat_xldouble+0x51b>
  4049bb:	01 f0                	add    eax,esi
  4049bd:	89 5d ac             	mov    DWORD PTR [ebp-0x54],ebx
  4049c0:	89 f3                	mov    ebx,esi
  4049c2:	89 c6                	mov    esi,eax
  4049c4:	83 c3 01             	add    ebx,0x1
  4049c7:	0f be 43 ff          	movsx  eax,BYTE PTR [ebx-0x1]
  4049cb:	89 fa                	mov    edx,edi
  4049cd:	e8 fe ec ff ff       	call   4036d0 <___pformat_putc>
  4049d2:	39 f3                	cmp    ebx,esi
  4049d4:	75 ee                	jne    4049c4 <___pformat_xldouble+0x424>
  4049d6:	8b 5d ac             	mov    ebx,DWORD PTR [ebp-0x54]
  4049d9:	8b 65 b0             	mov    esp,DWORD PTR [ebp-0x50]
  4049dc:	e9 76 ff ff ff       	jmp    404957 <___pformat_xldouble+0x3b7>
  4049e1:	89 fa                	mov    edx,edi
  4049e3:	b8 30 00 00 00       	mov    eax,0x30
  4049e8:	e8 e3 ec ff ff       	call   4036d0 <___pformat_putc>
  4049ed:	8b 47 0c             	mov    eax,DWORD PTR [edi+0xc]
  4049f0:	8d 50 ff             	lea    edx,[eax-0x1]
  4049f3:	85 c0                	test   eax,eax
  4049f5:	89 57 0c             	mov    DWORD PTR [edi+0xc],edx
  4049f8:	7f e7                	jg     4049e1 <___pformat_xldouble+0x441>
  4049fa:	8b 47 04             	mov    eax,DWORD PTR [edi+0x4]
  4049fd:	89 fa                	mov    edx,edi
  4049ff:	83 e0 20             	and    eax,0x20
  404a02:	83 c8 50             	or     eax,0x50
  404a05:	e8 c6 ec ff ff       	call   4036d0 <___pformat_putc>
  404a0a:	8b 45 9c             	mov    eax,DWORD PTR [ebp-0x64]
  404a0d:	89 f9                	mov    ecx,edi
  404a0f:	01 47 08             	add    DWORD PTR [edi+0x8],eax
  404a12:	8b 45 a8             	mov    eax,DWORD PTR [ebp-0x58]
  404a15:	81 4f 04 c0 01 00 00 	or     DWORD PTR [edi+0x4],0x1c0
  404a1c:	99                   	cdq    
  404a1d:	e8 5e ef ff ff       	call   403980 <___pformat_int>
  404a22:	8d 65 f4             	lea    esp,[ebp-0xc]
  404a25:	5b                   	pop    ebx
  404a26:	5e                   	pop    esi
  404a27:	5f                   	pop    edi
  404a28:	5d                   	pop    ebp
  404a29:	c3                   	ret    
  404a2a:	8d b6 00 00 00 00    	lea    esi,[esi+0x0]
  404a30:	89 fa                	mov    edx,edi
  404a32:	b8 2e 00 00 00       	mov    eax,0x2e
  404a37:	e8 94 ec ff ff       	call   4036d0 <___pformat_putc>
  404a3c:	e9 16 ff ff ff       	jmp    404957 <___pformat_xldouble+0x3b7>
  404a41:	c7 45 bc 00 00 00 00 	mov    DWORD PTR [ebp-0x44],0x0
  404a48:	8d 75 bc             	lea    esi,[ebp-0x44]
  404a4b:	e8 80 35 00 00       	call   407fd0 <_localeconv>
  404a50:	89 74 24 0c          	mov    DWORD PTR [esp+0xc],esi
  404a54:	c7 44 24 08 10 00 00 	mov    DWORD PTR [esp+0x8],0x10
  404a5b:	00 
  404a5c:	8b 00                	mov    eax,DWORD PTR [eax]
  404a5e:	89 44 24 04          	mov    DWORD PTR [esp+0x4],eax
  404a62:	8d 45 ba             	lea    eax,[ebp-0x46]
  404a65:	89 04 24             	mov    DWORD PTR [esp],eax
  404a68:	e8 f3 0b 00 00       	call   405660 <_mbrtowc>
  404a6d:	85 c0                	test   eax,eax
  404a6f:	0f 8e 85 00 00 00    	jle    404afa <___pformat_xldouble+0x55a>
  404a75:	0f b7 55 ba          	movzx  edx,WORD PTR [ebp-0x46]
  404a79:	66 89 57 14          	mov    WORD PTR [edi+0x14],dx
  404a7d:	89 47 10             	mov    DWORD PTR [edi+0x10],eax
  404a80:	e9 f4 fe ff ff       	jmp    404979 <___pformat_xldouble+0x3d9>
  404a85:	0f bf c6             	movsx  eax,si
  404a88:	c7 45 9c 02 00 00 00 	mov    DWORD PTR [ebp-0x64],0x2
  404a8f:	89 45 a8             	mov    DWORD PTR [ebp-0x58],eax
  404a92:	e9 40 fe ff ff       	jmp    4048d7 <___pformat_xldouble+0x337>
  404a97:	31 f6                	xor    esi,esi
  404a99:	31 c0                	xor    eax,eax
  404a9b:	31 d2                	xor    edx,edx
  404a9d:	e9 62 fb ff ff       	jmp    404604 <___pformat_xldouble+0x64>
  404aa2:	89 47 08             	mov    DWORD PTR [edi+0x8],eax
  404aa5:	e9 2d fe ff ff       	jmp    4048d7 <___pformat_xldouble+0x337>
  404aaa:	89 fa                	mov    edx,edi
  404aac:	b8 2b 00 00 00       	mov    eax,0x2b
  404ab1:	e8 1a ec ff ff       	call   4036d0 <___pformat_putc>
  404ab6:	e9 39 fe ff ff       	jmp    4048f4 <___pformat_xldouble+0x354>
  404abb:	89 fa                	mov    edx,edi
  404abd:	b8 2e 00 00 00       	mov    eax,0x2e
  404ac2:	e8 09 ec ff ff       	call   4036d0 <___pformat_putc>
  404ac7:	e9 0d ff ff ff       	jmp    4049d9 <___pformat_xldouble+0x439>
  404acc:	89 fa                	mov    edx,edi
  404ace:	b8 20 00 00 00       	mov    eax,0x20
  404ad3:	e8 f8 eb ff ff       	call   4036d0 <___pformat_putc>
  404ad8:	e9 17 fe ff ff       	jmp    4048f4 <___pformat_xldouble+0x354>
  404add:	83 c6 01             	add    esi,0x1
  404ae0:	e9 a0 fc ff ff       	jmp    404785 <___pformat_xldouble+0x1e5>
  404ae5:	dd d8                	fstp   st(0)
  404ae7:	89 f9                	mov    ecx,edi
  404ae9:	ba 34 a1 40 00       	mov    edx,0x40a134
  404aee:	31 c0                	xor    eax,eax
  404af0:	e8 fb ed ff ff       	call   4038f0 <___pformat_emit_inf_or_nan>
  404af5:	e9 28 ff ff ff       	jmp    404a22 <___pformat_xldouble+0x482>
  404afa:	0f b7 57 14          	movzx  edx,WORD PTR [edi+0x14]
  404afe:	e9 7a ff ff ff       	jmp    404a7d <___pformat_xldouble+0x4dd>
  404b03:	89 f9                	mov    ecx,edi
  404b05:	ba 38 a1 40 00       	mov    edx,0x40a138
  404b0a:	89 d8                	mov    eax,ebx
  404b0c:	e8 df ed ff ff       	call   4038f0 <___pformat_emit_inf_or_nan>
  404b11:	e9 0c ff ff ff       	jmp    404a22 <___pformat_xldouble+0x482>
  404b16:	8d 45 d6             	lea    eax,[ebp-0x2a]
  404b19:	89 45 a4             	mov    DWORD PTR [ebp-0x5c],eax
  404b1c:	85 db                	test   ebx,ebx
  404b1e:	8b 47 04             	mov    eax,DWORD PTR [edi+0x4]
  404b21:	7e 33                	jle    404b56 <___pformat_xldouble+0x5b6>
  404b23:	89 45 b0             	mov    DWORD PTR [ebp-0x50],eax
  404b26:	c6 45 d6 2e          	mov    BYTE PTR [ebp-0x2a],0x2e
  404b2a:	8d 45 d7             	lea    eax,[ebp-0x29]
  404b2d:	8d 50 01             	lea    edx,[eax+0x1]
  404b30:	89 55 ac             	mov    DWORD PTR [ebp-0x54],edx
  404b33:	c6 00 30             	mov    BYTE PTR [eax],0x30
  404b36:	e9 c0 fc ff ff       	jmp    4047fb <___pformat_xldouble+0x25b>
  404b3b:	c7 45 9c 02 00 00 00 	mov    DWORD PTR [ebp-0x64],0x2
  404b42:	e9 2a fd ff ff       	jmp    404871 <___pformat_xldouble+0x2d1>
  404b47:	8b 5f 0c             	mov    ebx,DWORD PTR [edi+0xc]
  404b4a:	eb d0                	jmp    404b1c <___pformat_xldouble+0x57c>
  404b4c:	be 02 c0 ff ff       	mov    esi,0xffffc002
  404b51:	e9 ae fa ff ff       	jmp    404604 <___pformat_xldouble+0x64>
  404b56:	89 c2                	mov    edx,eax
  404b58:	80 e6 08             	and    dh,0x8
  404b5b:	89 45 b0             	mov    DWORD PTR [ebp-0x50],eax
  404b5e:	8b 45 a4             	mov    eax,DWORD PTR [ebp-0x5c]
  404b61:	74 ca                	je     404b2d <___pformat_xldouble+0x58d>
  404b63:	eb c1                	jmp    404b26 <___pformat_xldouble+0x586>
  404b65:	8d 74 26 00          	lea    esi,[esi+eiz*1+0x0]
  404b69:	8d bc 27 00 00 00 00 	lea    edi,[edi+eiz*1+0x0]

00404b70 <___mingw_pformat>:
  404b70:	55                   	push   ebp
  404b71:	57                   	push   edi
  404b72:	56                   	push   esi
  404b73:	53                   	push   ebx
  404b74:	83 ec 5c             	sub    esp,0x5c
  404b77:	8b 44 24 74          	mov    eax,DWORD PTR [esp+0x74]
  404b7b:	81 64 24 70 00 30 00 	and    DWORD PTR [esp+0x70],0x3000
  404b82:	00 
  404b83:	8b 74 24 7c          	mov    esi,DWORD PTR [esp+0x7c]
  404b87:	c7 04 24 51 a1 40 00 	mov    DWORD PTR [esp],0x40a151
  404b8e:	8b ac 24 80 00 00 00 	mov    ebp,DWORD PTR [esp+0x80]
  404b95:	89 44 24 2c          	mov    DWORD PTR [esp+0x2c],eax
  404b99:	8b 44 24 70          	mov    eax,DWORD PTR [esp+0x70]
  404b9d:	c7 44 24 34 ff ff ff 	mov    DWORD PTR [esp+0x34],0xffffffff
  404ba4:	ff 
  404ba5:	c7 44 24 38 ff ff ff 	mov    DWORD PTR [esp+0x38],0xffffffff
  404bac:	ff 
  404bad:	c7 44 24 3c fd ff ff 	mov    DWORD PTR [esp+0x3c],0xfffffffd
  404bb4:	ff 
  404bb5:	89 44 24 30          	mov    DWORD PTR [esp+0x30],eax
  404bb9:	31 c0                	xor    eax,eax
  404bbb:	66 89 44 24 40       	mov    WORD PTR [esp+0x40],ax
  404bc0:	8b 44 24 78          	mov    eax,DWORD PTR [esp+0x78]
  404bc4:	c7 44 24 44 00 00 00 	mov    DWORD PTR [esp+0x44],0x0
  404bcb:	00 
  404bcc:	89 44 24 48          	mov    DWORD PTR [esp+0x48],eax
  404bd0:	e8 0b 34 00 00       	call   407fe0 <_getenv>
  404bd5:	85 c0                	test   eax,eax
  404bd7:	0f 84 d3 00 00 00    	je     404cb0 <___mingw_pformat+0x140>
  404bdd:	0f be 00             	movsx  eax,BYTE PTR [eax]
  404be0:	83 e8 30             	sub    eax,0x30
  404be3:	83 f8 02             	cmp    eax,0x2
  404be6:	0f 87 c4 00 00 00    	ja     404cb0 <___mingw_pformat+0x140>
  404bec:	b8 02 00 00 00       	mov    eax,0x2
  404bf1:	89 44 24 4c          	mov    DWORD PTR [esp+0x4c],eax
  404bf5:	8b 44 24 70          	mov    eax,DWORD PTR [esp+0x70]
  404bf9:	80 cc 02             	or     ah,0x2
  404bfc:	89 44 24 1c          	mov    DWORD PTR [esp+0x1c],eax
  404c00:	0f be 06             	movsx  eax,BYTE PTR [esi]
  404c03:	8d 5e 01             	lea    ebx,[esi+0x1]
  404c06:	89 d9                	mov    ecx,ebx
  404c08:	85 c0                	test   eax,eax
  404c0a:	0f 84 92 00 00 00    	je     404ca2 <___mingw_pformat+0x132>
  404c10:	83 f8 25             	cmp    eax,0x25
  404c13:	0f 85 de 00 00 00    	jne    404cf7 <___mingw_pformat+0x187>
  404c19:	8b 44 24 70          	mov    eax,DWORD PTR [esp+0x70]
  404c1d:	c7 44 24 38 ff ff ff 	mov    DWORD PTR [esp+0x38],0xffffffff
  404c24:	ff 
  404c25:	c7 44 24 34 ff ff ff 	mov    DWORD PTR [esp+0x34],0xffffffff
  404c2c:	ff 
  404c2d:	c7 44 24 14 00 00 00 	mov    DWORD PTR [esp+0x14],0x0
  404c34:	00 
  404c35:	89 44 24 30          	mov    DWORD PTR [esp+0x30],eax
  404c39:	0f b6 56 01          	movzx  edx,BYTE PTR [esi+0x1]
  404c3d:	8d 44 24 34          	lea    eax,[esp+0x34]
  404c41:	89 44 24 18          	mov    DWORD PTR [esp+0x18],eax
  404c45:	c7 44 24 10 00 00 00 	mov    DWORD PTR [esp+0x10],0x0
  404c4c:	00 
  404c4d:	84 d2                	test   dl,dl
  404c4f:	74 3f                	je     404c90 <___mingw_pformat+0x120>
  404c51:	8d 42 e0             	lea    eax,[edx-0x20]
  404c54:	0f be fa             	movsx  edi,dl
  404c57:	3c 5a                	cmp    al,0x5a
  404c59:	8d 71 01             	lea    esi,[ecx+0x1]
  404c5c:	0f 87 70 04 00 00    	ja     4050d2 <___mingw_pformat+0x562>
  404c62:	0f b6 c0             	movzx  eax,al
  404c65:	ff 24 85 68 a1 40 00 	jmp    DWORD PTR [eax*4+0x40a168]
  404c6c:	8d 74 26 00          	lea    esi,[esi+eiz*1+0x0]
  404c70:	0f b6 51 01          	movzx  edx,BYTE PTR [ecx+0x1]
  404c74:	89 f1                	mov    ecx,esi
  404c76:	c7 44 24 14 02 00 00 	mov    DWORD PTR [esp+0x14],0x2
  404c7d:	00 
  404c7e:	c7 44 24 10 04 00 00 	mov    DWORD PTR [esp+0x10],0x4
  404c85:	00 
  404c86:	84 d2                	test   dl,dl
  404c88:	75 c7                	jne    404c51 <___mingw_pformat+0xe1>
  404c8a:	8d b6 00 00 00 00    	lea    esi,[esi+0x0]
  404c90:	89 ce                	mov    esi,ecx
  404c92:	0f be 06             	movsx  eax,BYTE PTR [esi]
  404c95:	8d 5e 01             	lea    ebx,[esi+0x1]
  404c98:	89 d9                	mov    ecx,ebx
  404c9a:	85 c0                	test   eax,eax
  404c9c:	0f 85 6e ff ff ff    	jne    404c10 <___mingw_pformat+0xa0>
  404ca2:	8b 44 24 44          	mov    eax,DWORD PTR [esp+0x44]
  404ca6:	83 c4 5c             	add    esp,0x5c
  404ca9:	5b                   	pop    ebx
  404caa:	5e                   	pop    esi
  404cab:	5f                   	pop    edi
  404cac:	5d                   	pop    ebp
  404cad:	c3                   	ret    
  404cae:	66 90                	xchg   ax,ax
  404cb0:	f6 05 6c d0 40 00 01 	test   BYTE PTR ds:0x40d06c,0x1
  404cb7:	0f 85 2f ff ff ff    	jne    404bec <___mingw_pformat+0x7c>
  404cbd:	b8 03 00 00 00       	mov    eax,0x3
  404cc2:	e9 2a ff ff ff       	jmp    404bf1 <___mingw_pformat+0x81>
  404cc7:	80 79 01 6c          	cmp    BYTE PTR [ecx+0x1],0x6c
  404ccb:	c7 44 24 14 02 00 00 	mov    DWORD PTR [esp+0x14],0x2
  404cd2:	00 
  404cd3:	75 0b                	jne    404ce0 <___mingw_pformat+0x170>
  404cd5:	8d 71 02             	lea    esi,[ecx+0x2]
  404cd8:	c7 44 24 14 03 00 00 	mov    DWORD PTR [esp+0x14],0x3
  404cdf:	00 
  404ce0:	83 4c 24 30 04       	or     DWORD PTR [esp+0x30],0x4
  404ce5:	89 f1                	mov    ecx,esi
  404ce7:	0f b6 16             	movzx  edx,BYTE PTR [esi]
  404cea:	c7 44 24 10 04 00 00 	mov    DWORD PTR [esp+0x10],0x4
  404cf1:	00 
  404cf2:	e9 56 ff ff ff       	jmp    404c4d <___mingw_pformat+0xdd>
  404cf7:	8d 54 24 2c          	lea    edx,[esp+0x2c]
  404cfb:	89 de                	mov    esi,ebx
  404cfd:	e8 ce e9 ff ff       	call   4036d0 <___pformat_putc>
  404d02:	e9 f9 fe ff ff       	jmp    404c00 <___mingw_pformat+0x90>
  404d07:	8b 54 24 14          	mov    edx,DWORD PTR [esp+0x14]
  404d0b:	89 e8                	mov    eax,ebp
  404d0d:	83 ea 02             	sub    edx,0x2
  404d10:	83 fa 01             	cmp    edx,0x1
  404d13:	0f 86 07 05 00 00    	jbe    405220 <___mingw_pformat+0x6b0>
  404d19:	8b 18                	mov    ebx,DWORD PTR [eax]
  404d1b:	83 c5 04             	add    ebp,0x4
  404d1e:	85 db                	test   ebx,ebx
  404d20:	0f 84 89 06 00 00    	je     4053af <___mingw_pformat+0x83f>
  404d26:	89 1c 24             	mov    DWORD PTR [esp],ebx
  404d29:	e8 52 32 00 00       	call   407f80 <_strlen>
  404d2e:	89 c2                	mov    edx,eax
  404d30:	8d 4c 24 2c          	lea    ecx,[esp+0x2c]
  404d34:	89 d8                	mov    eax,ebx
  404d36:	e8 05 eb ff ff       	call   403840 <___pformat_putchars>
  404d3b:	e9 c0 fe ff ff       	jmp    404c00 <___mingw_pformat+0x90>
  404d40:	8b 54 24 14          	mov    edx,DWORD PTR [esp+0x14]
  404d44:	89 e8                	mov    eax,ebp
  404d46:	c7 44 24 38 ff ff ff 	mov    DWORD PTR [esp+0x38],0xffffffff
  404d4d:	ff 
  404d4e:	83 ea 02             	sub    edx,0x2
  404d51:	83 fa 01             	cmp    edx,0x1
  404d54:	0f 86 23 03 00 00    	jbe    40507d <___mingw_pformat+0x50d>
  404d5a:	8b 00                	mov    eax,DWORD PTR [eax]
  404d5c:	8d 4c 24 2c          	lea    ecx,[esp+0x2c]
  404d60:	ba 01 00 00 00       	mov    edx,0x1
  404d65:	83 c5 04             	add    ebp,0x4
  404d68:	88 44 24 20          	mov    BYTE PTR [esp+0x20],al
  404d6c:	8d 44 24 20          	lea    eax,[esp+0x20]
  404d70:	e8 cb ea ff ff       	call   403840 <___pformat_putchars>
  404d75:	e9 86 fe ff ff       	jmp    404c00 <___mingw_pformat+0x90>
  404d7a:	8d b6 00 00 00 00    	lea    esi,[esi+0x0]
  404d80:	83 7c 24 14 04       	cmp    DWORD PTR [esp+0x14],0x4
  404d85:	0f 84 f0 05 00 00    	je     40537b <___mingw_pformat+0x80b>
  404d8b:	83 7c 24 14 01       	cmp    DWORD PTR [esp+0x14],0x1
  404d90:	8b 45 00             	mov    eax,DWORD PTR [ebp+0x0]
  404d93:	8b 54 24 44          	mov    edx,DWORD PTR [esp+0x44]
  404d97:	0f 84 17 05 00 00    	je     4052b4 <___mingw_pformat+0x744>
  404d9d:	83 7c 24 14 02       	cmp    DWORD PTR [esp+0x14],0x2
  404da2:	0f 84 43 06 00 00    	je     4053eb <___mingw_pformat+0x87b>
  404da8:	83 7c 24 14 03       	cmp    DWORD PTR [esp+0x14],0x3
  404dad:	89 10                	mov    DWORD PTR [eax],edx
  404daf:	0f 84 a9 06 00 00    	je     40545e <___mingw_pformat+0x8ee>
  404db5:	83 c5 04             	add    ebp,0x4
  404db8:	e9 43 fe ff ff       	jmp    404c00 <___mingw_pformat+0x90>
  404dbd:	8d 76 00             	lea    esi,[esi+0x0]
  404dc0:	0f b6 51 01          	movzx  edx,BYTE PTR [ecx+0x1]
  404dc4:	89 f1                	mov    ecx,esi
  404dc6:	c7 44 24 14 03 00 00 	mov    DWORD PTR [esp+0x14],0x3
  404dcd:	00 
  404dce:	c7 44 24 10 04 00 00 	mov    DWORD PTR [esp+0x10],0x4
  404dd5:	00 
  404dd6:	e9 72 fe ff ff       	jmp    404c4d <___mingw_pformat+0xdd>
  404ddb:	90                   	nop
  404ddc:	8d 74 26 00          	lea    esi,[esi+eiz*1+0x0]
  404de0:	0f b6 51 01          	movzx  edx,BYTE PTR [ecx+0x1]
  404de4:	80 fa 68             	cmp    dl,0x68
  404de7:	0f 84 4c 05 00 00    	je     405339 <___mingw_pformat+0x7c9>
  404ded:	89 f1                	mov    ecx,esi
  404def:	c7 44 24 14 01 00 00 	mov    DWORD PTR [esp+0x14],0x1
  404df6:	00 
  404df7:	c7 44 24 10 04 00 00 	mov    DWORD PTR [esp+0x10],0x4
  404dfe:	00 
  404dff:	e9 49 fe ff ff       	jmp    404c4d <___mingw_pformat+0xdd>
  404e04:	8b 44 24 10          	mov    eax,DWORD PTR [esp+0x10]
  404e08:	85 c0                	test   eax,eax
  404e0a:	75 0e                	jne    404e1a <___mingw_pformat+0x2aa>
  404e0c:	8b 44 24 70          	mov    eax,DWORD PTR [esp+0x70]
  404e10:	39 44 24 30          	cmp    DWORD PTR [esp+0x30],eax
  404e14:	0f 84 a4 05 00 00    	je     4053be <___mingw_pformat+0x84e>
  404e1a:	8b 45 00             	mov    eax,DWORD PTR [ebp+0x0]
  404e1d:	8d 5d 04             	lea    ebx,[ebp+0x4]
  404e20:	c7 44 24 24 00 00 00 	mov    DWORD PTR [esp+0x24],0x0
  404e27:	00 
  404e28:	8b 4c 24 24          	mov    ecx,DWORD PTR [esp+0x24]
  404e2c:	89 dd                	mov    ebp,ebx
  404e2e:	89 44 24 20          	mov    DWORD PTR [esp+0x20],eax
  404e32:	8b 54 24 20          	mov    edx,DWORD PTR [esp+0x20]
  404e36:	8d 44 24 2c          	lea    eax,[esp+0x2c]
  404e3a:	89 04 24             	mov    DWORD PTR [esp],eax
  404e3d:	b8 78 00 00 00       	mov    eax,0x78
  404e42:	e8 69 ed ff ff       	call   403bb0 <___pformat_xint>
  404e47:	e9 b4 fd ff ff       	jmp    404c00 <___mingw_pformat+0x90>
  404e4c:	8d 74 26 00          	lea    esi,[esi+eiz*1+0x0]
  404e50:	8b 44 24 30          	mov    eax,DWORD PTR [esp+0x30]
  404e54:	83 c8 20             	or     eax,0x20
  404e57:	a8 04                	test   al,0x4
  404e59:	89 44 24 30          	mov    DWORD PTR [esp+0x30],eax
  404e5d:	0f 84 4a 02 00 00    	je     4050ad <___mingw_pformat+0x53d>
  404e63:	db 6d 00             	fld    TBYTE PTR [ebp+0x0]
  404e66:	8d 5d 0c             	lea    ebx,[ebp+0xc]
  404e69:	db 3c 24             	fstp   TBYTE PTR [esp]
  404e6c:	89 dd                	mov    ebp,ebx
  404e6e:	8d 44 24 2c          	lea    eax,[esp+0x2c]
  404e72:	e8 29 f7 ff ff       	call   4045a0 <___pformat_xldouble>
  404e77:	e9 84 fd ff ff       	jmp    404c00 <___mingw_pformat+0x90>
  404e7c:	8d 74 26 00          	lea    esi,[esi+eiz*1+0x0]
  404e80:	83 7c 24 14 03       	cmp    DWORD PTR [esp+0x14],0x3
  404e85:	89 f8                	mov    eax,edi
  404e87:	0f 84 80 04 00 00    	je     40530d <___mingw_pformat+0x79d>
  404e8d:	83 7c 24 14 02       	cmp    DWORD PTR [esp+0x14],0x2
  404e92:	0f 84 27 04 00 00    	je     4052bf <___mingw_pformat+0x74f>
  404e98:	8b 7d 00             	mov    edi,DWORD PTR [ebp+0x0]
  404e9b:	8d 55 04             	lea    edx,[ebp+0x4]
  404e9e:	83 7c 24 14 01       	cmp    DWORD PTR [esp+0x14],0x1
  404ea3:	c7 44 24 24 00 00 00 	mov    DWORD PTR [esp+0x24],0x0
  404eaa:	00 
  404eab:	89 7c 24 20          	mov    DWORD PTR [esp+0x20],edi
  404eaf:	0f 84 1e 05 00 00    	je     4053d3 <___mingw_pformat+0x863>
  404eb5:	83 7c 24 14 04       	cmp    DWORD PTR [esp+0x14],0x4
  404eba:	89 d5                	mov    ebp,edx
  404ebc:	0f 84 86 05 00 00    	je     405448 <___mingw_pformat+0x8d8>
  404ec2:	83 f8 75             	cmp    eax,0x75
  404ec5:	0f 84 ec 00 00 00    	je     404fb7 <___mingw_pformat+0x447>
  404ecb:	8b 54 24 20          	mov    edx,DWORD PTR [esp+0x20]
  404ecf:	8d 7c 24 2c          	lea    edi,[esp+0x2c]
  404ed3:	8b 4c 24 24          	mov    ecx,DWORD PTR [esp+0x24]
  404ed7:	89 3c 24             	mov    DWORD PTR [esp],edi
  404eda:	e8 d1 ec ff ff       	call   403bb0 <___pformat_xint>
  404edf:	e9 1c fd ff ff       	jmp    404c00 <___mingw_pformat+0x90>
  404ee4:	8b 44 24 30          	mov    eax,DWORD PTR [esp+0x30]
  404ee8:	83 c8 20             	or     eax,0x20
  404eeb:	a8 04                	test   al,0x4
  404eed:	89 44 24 30          	mov    DWORD PTR [esp+0x30],eax
  404ef1:	0f 84 15 01 00 00    	je     40500c <___mingw_pformat+0x49c>
  404ef7:	db 6d 00             	fld    TBYTE PTR [ebp+0x0]
  404efa:	8d 5d 0c             	lea    ebx,[ebp+0xc]
  404efd:	db 3c 24             	fstp   TBYTE PTR [esp]
  404f00:	89 dd                	mov    ebp,ebx
  404f02:	8d 44 24 2c          	lea    eax,[esp+0x2c]
  404f06:	e8 15 f5 ff ff       	call   404420 <___pformat_gfloat>
  404f0b:	e9 f0 fc ff ff       	jmp    404c00 <___mingw_pformat+0x90>
  404f10:	8b 44 24 30          	mov    eax,DWORD PTR [esp+0x30]
  404f14:	83 c8 20             	or     eax,0x20
  404f17:	a8 04                	test   al,0x4
  404f19:	89 44 24 30          	mov    DWORD PTR [esp+0x30],eax
  404f1d:	0f 84 0e 01 00 00    	je     405031 <___mingw_pformat+0x4c1>
  404f23:	db 6d 00             	fld    TBYTE PTR [ebp+0x0]
  404f26:	8d 5d 0c             	lea    ebx,[ebp+0xc]
  404f29:	db 3c 24             	fstp   TBYTE PTR [esp]
  404f2c:	89 dd                	mov    ebp,ebx
  404f2e:	8d 44 24 2c          	lea    eax,[esp+0x2c]
  404f32:	e8 09 f4 ff ff       	call   404340 <___pformat_float>
  404f37:	e9 c4 fc ff ff       	jmp    404c00 <___mingw_pformat+0x90>
  404f3c:	8d 74 26 00          	lea    esi,[esi+eiz*1+0x0]
  404f40:	8b 44 24 30          	mov    eax,DWORD PTR [esp+0x30]
  404f44:	83 c8 20             	or     eax,0x20
  404f47:	a8 04                	test   al,0x4
  404f49:	89 44 24 30          	mov    DWORD PTR [esp+0x30],eax
  404f4d:	0f 84 09 01 00 00    	je     40505c <___mingw_pformat+0x4ec>
  404f53:	db 6d 00             	fld    TBYTE PTR [ebp+0x0]
  404f56:	8d 5d 0c             	lea    ebx,[ebp+0xc]
  404f59:	db 3c 24             	fstp   TBYTE PTR [esp]
  404f5c:	89 dd                	mov    ebp,ebx
  404f5e:	8d 44 24 2c          	lea    eax,[esp+0x2c]
  404f62:	e8 29 f3 ff ff       	call   404290 <___pformat_efloat>
  404f67:	e9 94 fc ff ff       	jmp    404c00 <___mingw_pformat+0x90>
  404f6c:	8d 74 26 00          	lea    esi,[esi+eiz*1+0x0]
  404f70:	81 4c 24 30 80 00 00 	or     DWORD PTR [esp+0x30],0x80
  404f77:	00 
  404f78:	83 7c 24 14 03       	cmp    DWORD PTR [esp+0x14],0x3
  404f7d:	0f 84 a0 03 00 00    	je     405323 <___mingw_pformat+0x7b3>
  404f83:	83 7c 24 14 02       	cmp    DWORD PTR [esp+0x14],0x2
  404f88:	0f 84 48 03 00 00    	je     4052d6 <___mingw_pformat+0x766>
  404f8e:	8b 45 00             	mov    eax,DWORD PTR [ebp+0x0]
  404f91:	8d 55 04             	lea    edx,[ebp+0x4]
  404f94:	89 44 24 20          	mov    DWORD PTR [esp+0x20],eax
  404f98:	c1 f8 1f             	sar    eax,0x1f
  404f9b:	83 7c 24 14 01       	cmp    DWORD PTR [esp+0x14],0x1
  404fa0:	89 44 24 24          	mov    DWORD PTR [esp+0x24],eax
  404fa4:	0f 84 4b 04 00 00    	je     4053f5 <___mingw_pformat+0x885>
  404faa:	83 7c 24 14 04       	cmp    DWORD PTR [esp+0x14],0x4
  404faf:	89 d5                	mov    ebp,edx
  404fb1:	0f 84 7c 04 00 00    	je     405433 <___mingw_pformat+0x8c3>
  404fb7:	8b 44 24 20          	mov    eax,DWORD PTR [esp+0x20]
  404fbb:	8d 4c 24 2c          	lea    ecx,[esp+0x2c]
  404fbf:	8b 54 24 24          	mov    edx,DWORD PTR [esp+0x24]
  404fc3:	e8 b8 e9 ff ff       	call   403980 <___pformat_int>
  404fc8:	e9 33 fc ff ff       	jmp    404c00 <___mingw_pformat+0x90>
  404fcd:	8d 76 00             	lea    esi,[esi+0x0]
  404fd0:	0f b6 51 01          	movzx  edx,BYTE PTR [ecx+0x1]
  404fd4:	80 fa 36             	cmp    dl,0x36
  404fd7:	0f 84 78 03 00 00    	je     405355 <___mingw_pformat+0x7e5>
  404fdd:	80 fa 33             	cmp    dl,0x33
  404fe0:	0f 84 a8 02 00 00    	je     40528e <___mingw_pformat+0x71e>
  404fe6:	89 f1                	mov    ecx,esi
  404fe8:	c7 44 24 14 02 00 00 	mov    DWORD PTR [esp+0x14],0x2
  404fef:	00 
  404ff0:	c7 44 24 10 04 00 00 	mov    DWORD PTR [esp+0x10],0x4
  404ff7:	00 
  404ff8:	e9 50 fc ff ff       	jmp    404c4d <___mingw_pformat+0xdd>
  404ffd:	8d 76 00             	lea    esi,[esi+0x0]
  405000:	8b 44 24 30          	mov    eax,DWORD PTR [esp+0x30]
  405004:	a8 04                	test   al,0x4
  405006:	0f 85 eb fe ff ff    	jne    404ef7 <___mingw_pformat+0x387>
  40500c:	dd 45 00             	fld    QWORD PTR [ebp+0x0]
  40500f:	8d 5d 08             	lea    ebx,[ebp+0x8]
  405012:	db 3c 24             	fstp   TBYTE PTR [esp]
  405015:	89 dd                	mov    ebp,ebx
  405017:	8d 44 24 2c          	lea    eax,[esp+0x2c]
  40501b:	e8 00 f4 ff ff       	call   404420 <___pformat_gfloat>
  405020:	e9 db fb ff ff       	jmp    404c00 <___mingw_pformat+0x90>
  405025:	8b 44 24 30          	mov    eax,DWORD PTR [esp+0x30]
  405029:	a8 04                	test   al,0x4
  40502b:	0f 85 f2 fe ff ff    	jne    404f23 <___mingw_pformat+0x3b3>
  405031:	dd 45 00             	fld    QWORD PTR [ebp+0x0]
  405034:	8d 5d 08             	lea    ebx,[ebp+0x8]
  405037:	db 3c 24             	fstp   TBYTE PTR [esp]
  40503a:	89 dd                	mov    ebp,ebx
  40503c:	8d 44 24 2c          	lea    eax,[esp+0x2c]
  405040:	e8 fb f2 ff ff       	call   404340 <___pformat_float>
  405045:	e9 b6 fb ff ff       	jmp    404c00 <___mingw_pformat+0x90>
  40504a:	8d b6 00 00 00 00    	lea    esi,[esi+0x0]
  405050:	8b 44 24 30          	mov    eax,DWORD PTR [esp+0x30]
  405054:	a8 04                	test   al,0x4
  405056:	0f 85 f7 fe ff ff    	jne    404f53 <___mingw_pformat+0x3e3>
  40505c:	dd 45 00             	fld    QWORD PTR [ebp+0x0]
  40505f:	8d 5d 08             	lea    ebx,[ebp+0x8]
  405062:	db 3c 24             	fstp   TBYTE PTR [esp]
  405065:	89 dd                	mov    ebp,ebx
  405067:	8d 44 24 2c          	lea    eax,[esp+0x2c]
  40506b:	e8 20 f2 ff ff       	call   404290 <___pformat_efloat>
  405070:	e9 8b fb ff ff       	jmp    404c00 <___mingw_pformat+0x90>
  405075:	c7 44 24 38 ff ff ff 	mov    DWORD PTR [esp+0x38],0xffffffff
  40507c:	ff 
  40507d:	8b 45 00             	mov    eax,DWORD PTR [ebp+0x0]
  405080:	8d 5d 04             	lea    ebx,[ebp+0x4]
  405083:	ba 01 00 00 00       	mov    edx,0x1
  405088:	8d 4c 24 2c          	lea    ecx,[esp+0x2c]
  40508c:	89 dd                	mov    ebp,ebx
  40508e:	66 89 44 24 20       	mov    WORD PTR [esp+0x20],ax
  405093:	8d 44 24 20          	lea    eax,[esp+0x20]
  405097:	e8 94 e6 ff ff       	call   403730 <___pformat_wputchars>
  40509c:	e9 5f fb ff ff       	jmp    404c00 <___mingw_pformat+0x90>
  4050a1:	8b 44 24 30          	mov    eax,DWORD PTR [esp+0x30]
  4050a5:	a8 04                	test   al,0x4
  4050a7:	0f 85 b6 fd ff ff    	jne    404e63 <___mingw_pformat+0x2f3>
  4050ad:	dd 45 00             	fld    QWORD PTR [ebp+0x0]
  4050b0:	8d 5d 08             	lea    ebx,[ebp+0x8]
  4050b3:	db 3c 24             	fstp   TBYTE PTR [esp]
  4050b6:	89 dd                	mov    ebp,ebx
  4050b8:	8d 44 24 2c          	lea    eax,[esp+0x2c]
  4050bc:	e8 df f4 ff ff       	call   4045a0 <___pformat_xldouble>
  4050c1:	e9 3a fb ff ff       	jmp    404c00 <___mingw_pformat+0x90>
  4050c6:	8b 44 24 10          	mov    eax,DWORD PTR [esp+0x10]
  4050ca:	85 c0                	test   eax,eax
  4050cc:	0f 84 8e 01 00 00    	je     405260 <___mingw_pformat+0x6f0>
  4050d2:	8b 44 24 10          	mov    eax,DWORD PTR [esp+0x10]
  4050d6:	83 f8 04             	cmp    eax,0x4
  4050d9:	0f 84 c7 03 00 00    	je     4054a6 <___mingw_pformat+0x936>
  4050df:	83 ea 30             	sub    edx,0x30
  4050e2:	80 fa 09             	cmp    dl,0x9
  4050e5:	0f 87 bb 03 00 00    	ja     4054a6 <___mingw_pformat+0x936>
  4050eb:	85 c0                	test   eax,eax
  4050ed:	0f 84 5d 01 00 00    	je     405250 <___mingw_pformat+0x6e0>
  4050f3:	83 f8 02             	cmp    eax,0x2
  4050f6:	0f 84 f0 01 00 00    	je     4052ec <___mingw_pformat+0x77c>
  4050fc:	8b 44 24 18          	mov    eax,DWORD PTR [esp+0x18]
  405100:	85 c0                	test   eax,eax
  405102:	74 1b                	je     40511f <___mingw_pformat+0x5af>
  405104:	8b 44 24 18          	mov    eax,DWORD PTR [esp+0x18]
  405108:	8b 00                	mov    eax,DWORD PTR [eax]
  40510a:	85 c0                	test   eax,eax
  40510c:	0f 88 e7 01 00 00    	js     4052f9 <___mingw_pformat+0x789>
  405112:	8d 04 80             	lea    eax,[eax+eax*4]
  405115:	8d 44 47 d0          	lea    eax,[edi+eax*2-0x30]
  405119:	8b 7c 24 18          	mov    edi,DWORD PTR [esp+0x18]
  40511d:	89 07                	mov    DWORD PTR [edi],eax
  40511f:	0f b6 51 01          	movzx  edx,BYTE PTR [ecx+0x1]
  405123:	89 f1                	mov    ecx,esi
  405125:	e9 23 fb ff ff       	jmp    404c4d <___mingw_pformat+0xdd>
  40512a:	8d b6 00 00 00 00    	lea    esi,[esi+0x0]
  405130:	83 7c 24 10 01       	cmp    DWORD PTR [esp+0x10],0x1
  405135:	0f 86 51 02 00 00    	jbe    40538c <___mingw_pformat+0x81c>
  40513b:	0f b6 51 01          	movzx  edx,BYTE PTR [ecx+0x1]
  40513f:	89 f1                	mov    ecx,esi
  405141:	c7 44 24 10 04 00 00 	mov    DWORD PTR [esp+0x10],0x4
  405148:	00 
  405149:	e9 ff fa ff ff       	jmp    404c4d <___mingw_pformat+0xdd>
  40514e:	66 90                	xchg   ax,ax
  405150:	8b 44 24 10          	mov    eax,DWORD PTR [esp+0x10]
  405154:	85 c0                	test   eax,eax
  405156:	75 c7                	jne    40511f <___mingw_pformat+0x5af>
  405158:	81 4c 24 30 00 04 00 	or     DWORD PTR [esp+0x30],0x400
  40515f:	00 
  405160:	0f b6 51 01          	movzx  edx,BYTE PTR [ecx+0x1]
  405164:	89 f1                	mov    ecx,esi
  405166:	e9 e2 fa ff ff       	jmp    404c4d <___mingw_pformat+0xdd>
  40516b:	90                   	nop
  40516c:	8d 74 26 00          	lea    esi,[esi+eiz*1+0x0]
  405170:	8b 44 24 10          	mov    eax,DWORD PTR [esp+0x10]
  405174:	85 c0                	test   eax,eax
  405176:	75 a7                	jne    40511f <___mingw_pformat+0x5af>
  405178:	81 4c 24 30 00 01 00 	or     DWORD PTR [esp+0x30],0x100
  40517f:	00 
  405180:	0f b6 51 01          	movzx  edx,BYTE PTR [ecx+0x1]
  405184:	89 f1                	mov    ecx,esi
  405186:	e9 c2 fa ff ff       	jmp    404c4d <___mingw_pformat+0xdd>
  40518b:	90                   	nop
  40518c:	8d 74 26 00          	lea    esi,[esi+eiz*1+0x0]
  405190:	8b 7c 24 18          	mov    edi,DWORD PTR [esp+0x18]
  405194:	85 ff                	test   edi,edi
  405196:	74 a3                	je     40513b <___mingw_pformat+0x5cb>
  405198:	f6 44 24 10 05       	test   BYTE PTR [esp+0x10],0x5
  40519d:	0f 85 d0 00 00 00    	jne    405273 <___mingw_pformat+0x703>
  4051a3:	8b 45 00             	mov    eax,DWORD PTR [ebp+0x0]
  4051a6:	8d 7d 04             	lea    edi,[ebp+0x4]
  4051a9:	8b 54 24 18          	mov    edx,DWORD PTR [esp+0x18]
  4051ad:	85 c0                	test   eax,eax
  4051af:	89 02                	mov    DWORD PTR [edx],eax
  4051b1:	0f 88 5f 02 00 00    	js     405416 <___mingw_pformat+0x8a6>
  4051b7:	0f b6 51 01          	movzx  edx,BYTE PTR [ecx+0x1]
  4051bb:	89 fd                	mov    ebp,edi
  4051bd:	89 f1                	mov    ecx,esi
  4051bf:	c7 44 24 18 00 00 00 	mov    DWORD PTR [esp+0x18],0x0
  4051c6:	00 
  4051c7:	e9 81 fa ff ff       	jmp    404c4d <___mingw_pformat+0xdd>
  4051cc:	8d 74 26 00          	lea    esi,[esi+eiz*1+0x0]
  4051d0:	89 f8                	mov    eax,edi
  4051d2:	8d 54 24 2c          	lea    edx,[esp+0x2c]
  4051d6:	e8 f5 e4 ff ff       	call   4036d0 <___pformat_putc>
  4051db:	e9 20 fa ff ff       	jmp    404c00 <___mingw_pformat+0x90>
  4051e0:	8b 44 24 10          	mov    eax,DWORD PTR [esp+0x10]
  4051e4:	85 c0                	test   eax,eax
  4051e6:	0f 85 33 ff ff ff    	jne    40511f <___mingw_pformat+0x5af>
  4051ec:	81 4c 24 30 00 08 00 	or     DWORD PTR [esp+0x30],0x800
  4051f3:	00 
  4051f4:	0f b6 51 01          	movzx  edx,BYTE PTR [ecx+0x1]
  4051f8:	89 f1                	mov    ecx,esi
  4051fa:	e9 4e fa ff ff       	jmp    404c4d <___mingw_pformat+0xdd>
  4051ff:	90                   	nop
  405200:	8b 44 24 10          	mov    eax,DWORD PTR [esp+0x10]
  405204:	85 c0                	test   eax,eax
  405206:	0f 85 13 ff ff ff    	jne    40511f <___mingw_pformat+0x5af>
  40520c:	83 4c 24 30 40       	or     DWORD PTR [esp+0x30],0x40
  405211:	0f b6 51 01          	movzx  edx,BYTE PTR [ecx+0x1]
  405215:	89 f1                	mov    ecx,esi
  405217:	e9 31 fa ff ff       	jmp    404c4d <___mingw_pformat+0xdd>
  40521c:	8d 74 26 00          	lea    esi,[esi+eiz*1+0x0]
  405220:	8b 5d 00             	mov    ebx,DWORD PTR [ebp+0x0]
  405223:	8d 7d 04             	lea    edi,[ebp+0x4]
  405226:	85 db                	test   ebx,ebx
  405228:	0f 84 de 01 00 00    	je     40540c <___mingw_pformat+0x89c>
  40522e:	89 1c 24             	mov    DWORD PTR [esp],ebx
  405231:	89 fd                	mov    ebp,edi
  405233:	e8 30 2d 00 00       	call   407f68 <_wcslen>
  405238:	8d 4c 24 2c          	lea    ecx,[esp+0x2c]
  40523c:	89 c2                	mov    edx,eax
  40523e:	89 d8                	mov    eax,ebx
  405240:	e8 eb e4 ff ff       	call   403730 <___pformat_wputchars>
  405245:	e9 b6 f9 ff ff       	jmp    404c00 <___mingw_pformat+0x90>
  40524a:	8d b6 00 00 00 00    	lea    esi,[esi+0x0]
  405250:	c7 44 24 10 01 00 00 	mov    DWORD PTR [esp+0x10],0x1
  405257:	00 
  405258:	e9 9f fe ff ff       	jmp    4050fc <___mingw_pformat+0x58c>
  40525d:	8d 76 00             	lea    esi,[esi+0x0]
  405260:	81 4c 24 30 00 02 00 	or     DWORD PTR [esp+0x30],0x200
  405267:	00 
  405268:	0f b6 51 01          	movzx  edx,BYTE PTR [ecx+0x1]
  40526c:	89 f1                	mov    ecx,esi
  40526e:	e9 da f9 ff ff       	jmp    404c4d <___mingw_pformat+0xdd>
  405273:	0f b6 51 01          	movzx  edx,BYTE PTR [ecx+0x1]
  405277:	89 f1                	mov    ecx,esi
  405279:	c7 44 24 18 00 00 00 	mov    DWORD PTR [esp+0x18],0x0
  405280:	00 
  405281:	c7 44 24 10 04 00 00 	mov    DWORD PTR [esp+0x10],0x4
  405288:	00 
  405289:	e9 bf f9 ff ff       	jmp    404c4d <___mingw_pformat+0xdd>
  40528e:	80 79 02 32          	cmp    BYTE PTR [ecx+0x2],0x32
  405292:	0f 84 f2 01 00 00    	je     40548a <___mingw_pformat+0x91a>
  405298:	89 f1                	mov    ecx,esi
  40529a:	ba 33 00 00 00       	mov    edx,0x33
  40529f:	c7 44 24 14 02 00 00 	mov    DWORD PTR [esp+0x14],0x2
  4052a6:	00 
  4052a7:	c7 44 24 10 04 00 00 	mov    DWORD PTR [esp+0x10],0x4
  4052ae:	00 
  4052af:	e9 9d f9 ff ff       	jmp    404c51 <___mingw_pformat+0xe1>
  4052b4:	66 89 10             	mov    WORD PTR [eax],dx
  4052b7:	83 c5 04             	add    ebp,0x4
  4052ba:	e9 41 f9 ff ff       	jmp    404c00 <___mingw_pformat+0x90>
  4052bf:	8b 7d 00             	mov    edi,DWORD PTR [ebp+0x0]
  4052c2:	83 c5 04             	add    ebp,0x4
  4052c5:	c7 44 24 24 00 00 00 	mov    DWORD PTR [esp+0x24],0x0
  4052cc:	00 
  4052cd:	89 7c 24 20          	mov    DWORD PTR [esp+0x20],edi
  4052d1:	e9 ec fb ff ff       	jmp    404ec2 <___mingw_pformat+0x352>
  4052d6:	8b 45 00             	mov    eax,DWORD PTR [ebp+0x0]
  4052d9:	83 c5 04             	add    ebp,0x4
  4052dc:	89 44 24 20          	mov    DWORD PTR [esp+0x20],eax
  4052e0:	c1 f8 1f             	sar    eax,0x1f
  4052e3:	89 44 24 24          	mov    DWORD PTR [esp+0x24],eax
  4052e7:	e9 cb fc ff ff       	jmp    404fb7 <___mingw_pformat+0x447>
  4052ec:	c7 44 24 10 03 00 00 	mov    DWORD PTR [esp+0x10],0x3
  4052f3:	00 
  4052f4:	e9 03 fe ff ff       	jmp    4050fc <___mingw_pformat+0x58c>
  4052f9:	8b 44 24 18          	mov    eax,DWORD PTR [esp+0x18]
  4052fd:	83 ef 30             	sub    edi,0x30
  405300:	89 38                	mov    DWORD PTR [eax],edi
  405302:	0f b6 51 01          	movzx  edx,BYTE PTR [ecx+0x1]
  405306:	89 f1                	mov    ecx,esi
  405308:	e9 40 f9 ff ff       	jmp    404c4d <___mingw_pformat+0xdd>
  40530d:	8b 4d 00             	mov    ecx,DWORD PTR [ebp+0x0]
  405310:	83 c5 08             	add    ebp,0x8
  405313:	8b 5d fc             	mov    ebx,DWORD PTR [ebp-0x4]
  405316:	89 4c 24 20          	mov    DWORD PTR [esp+0x20],ecx
  40531a:	89 5c 24 24          	mov    DWORD PTR [esp+0x24],ebx
  40531e:	e9 9f fb ff ff       	jmp    404ec2 <___mingw_pformat+0x352>
  405323:	8b 45 00             	mov    eax,DWORD PTR [ebp+0x0]
  405326:	83 c5 08             	add    ebp,0x8
  405329:	8b 55 fc             	mov    edx,DWORD PTR [ebp-0x4]
  40532c:	89 44 24 20          	mov    DWORD PTR [esp+0x20],eax
  405330:	89 54 24 24          	mov    DWORD PTR [esp+0x24],edx
  405334:	e9 7e fc ff ff       	jmp    404fb7 <___mingw_pformat+0x447>
  405339:	0f b6 51 02          	movzx  edx,BYTE PTR [ecx+0x2]
  40533d:	83 c1 02             	add    ecx,0x2
  405340:	c7 44 24 14 04 00 00 	mov    DWORD PTR [esp+0x14],0x4
  405347:	00 
  405348:	c7 44 24 10 04 00 00 	mov    DWORD PTR [esp+0x10],0x4
  40534f:	00 
  405350:	e9 f8 f8 ff ff       	jmp    404c4d <___mingw_pformat+0xdd>
  405355:	80 79 02 34          	cmp    BYTE PTR [ecx+0x2],0x34
  405359:	0f 84 0f 01 00 00    	je     40546e <___mingw_pformat+0x8fe>
  40535f:	89 f1                	mov    ecx,esi
  405361:	ba 36 00 00 00       	mov    edx,0x36
  405366:	c7 44 24 14 02 00 00 	mov    DWORD PTR [esp+0x14],0x2
  40536d:	00 
  40536e:	c7 44 24 10 04 00 00 	mov    DWORD PTR [esp+0x10],0x4
  405375:	00 
  405376:	e9 d6 f8 ff ff       	jmp    404c51 <___mingw_pformat+0xe1>
  40537b:	8b 55 00             	mov    edx,DWORD PTR [ebp+0x0]
  40537e:	83 c5 04             	add    ebp,0x4
  405381:	8b 44 24 44          	mov    eax,DWORD PTR [esp+0x44]
  405385:	88 02                	mov    BYTE PTR [edx],al
  405387:	e9 74 f8 ff ff       	jmp    404c00 <___mingw_pformat+0x90>
  40538c:	8d 44 24 38          	lea    eax,[esp+0x38]
  405390:	c7 44 24 38 00 00 00 	mov    DWORD PTR [esp+0x38],0x0
  405397:	00 
  405398:	0f b6 51 01          	movzx  edx,BYTE PTR [ecx+0x1]
  40539c:	89 f1                	mov    ecx,esi
  40539e:	89 44 24 18          	mov    DWORD PTR [esp+0x18],eax
  4053a2:	c7 44 24 10 02 00 00 	mov    DWORD PTR [esp+0x10],0x2
  4053a9:	00 
  4053aa:	e9 9e f8 ff ff       	jmp    404c4d <___mingw_pformat+0xdd>
  4053af:	ba 06 00 00 00       	mov    edx,0x6
  4053b4:	bb 4a a1 40 00       	mov    ebx,0x40a14a
  4053b9:	e9 72 f9 ff ff       	jmp    404d30 <___mingw_pformat+0x1c0>
  4053be:	8b 44 24 1c          	mov    eax,DWORD PTR [esp+0x1c]
  4053c2:	c7 44 24 38 08 00 00 	mov    DWORD PTR [esp+0x38],0x8
  4053c9:	00 
  4053ca:	89 44 24 30          	mov    DWORD PTR [esp+0x30],eax
  4053ce:	e9 47 fa ff ff       	jmp    404e1a <___mingw_pformat+0x2aa>
  4053d3:	0f b7 4c 24 20       	movzx  ecx,WORD PTR [esp+0x20]
  4053d8:	89 d5                	mov    ebp,edx
  4053da:	c7 44 24 24 00 00 00 	mov    DWORD PTR [esp+0x24],0x0
  4053e1:	00 
  4053e2:	89 4c 24 20          	mov    DWORD PTR [esp+0x20],ecx
  4053e6:	e9 d7 fa ff ff       	jmp    404ec2 <___mingw_pformat+0x352>
  4053eb:	89 10                	mov    DWORD PTR [eax],edx
  4053ed:	83 c5 04             	add    ebp,0x4
  4053f0:	e9 0b f8 ff ff       	jmp    404c00 <___mingw_pformat+0x90>
  4053f5:	0f bf 44 24 20       	movsx  eax,WORD PTR [esp+0x20]
  4053fa:	89 d5                	mov    ebp,edx
  4053fc:	89 44 24 20          	mov    DWORD PTR [esp+0x20],eax
  405400:	c1 f8 1f             	sar    eax,0x1f
  405403:	89 44 24 24          	mov    DWORD PTR [esp+0x24],eax
  405407:	e9 ab fb ff ff       	jmp    404fb7 <___mingw_pformat+0x447>
  40540c:	bb 3c a1 40 00       	mov    ebx,0x40a13c
  405411:	e9 18 fe ff ff       	jmp    40522e <___mingw_pformat+0x6be>
  405416:	8b 54 24 10          	mov    edx,DWORD PTR [esp+0x10]
  40541a:	85 d2                	test   edx,edx
  40541c:	0f 85 99 00 00 00    	jne    4054bb <___mingw_pformat+0x94b>
  405422:	81 4c 24 30 00 04 00 	or     DWORD PTR [esp+0x30],0x400
  405429:	00 
  40542a:	f7 5c 24 34          	neg    DWORD PTR [esp+0x34]
  40542e:	e9 84 fd ff ff       	jmp    4051b7 <___mingw_pformat+0x647>
  405433:	0f be 44 24 20       	movsx  eax,BYTE PTR [esp+0x20]
  405438:	89 44 24 20          	mov    DWORD PTR [esp+0x20],eax
  40543c:	c1 f8 1f             	sar    eax,0x1f
  40543f:	89 44 24 24          	mov    DWORD PTR [esp+0x24],eax
  405443:	e9 6f fb ff ff       	jmp    404fb7 <___mingw_pformat+0x447>
  405448:	0f b6 54 24 20       	movzx  edx,BYTE PTR [esp+0x20]
  40544d:	c7 44 24 24 00 00 00 	mov    DWORD PTR [esp+0x24],0x0
  405454:	00 
  405455:	89 54 24 20          	mov    DWORD PTR [esp+0x20],edx
  405459:	e9 64 fa ff ff       	jmp    404ec2 <___mingw_pformat+0x352>
  40545e:	89 d7                	mov    edi,edx
  405460:	83 c5 04             	add    ebp,0x4
  405463:	c1 ff 1f             	sar    edi,0x1f
  405466:	89 78 04             	mov    DWORD PTR [eax+0x4],edi
  405469:	e9 92 f7 ff ff       	jmp    404c00 <___mingw_pformat+0x90>
  40546e:	0f b6 51 03          	movzx  edx,BYTE PTR [ecx+0x3]
  405472:	83 c1 03             	add    ecx,0x3
  405475:	c7 44 24 14 03 00 00 	mov    DWORD PTR [esp+0x14],0x3
  40547c:	00 
  40547d:	c7 44 24 10 04 00 00 	mov    DWORD PTR [esp+0x10],0x4
  405484:	00 
  405485:	e9 c3 f7 ff ff       	jmp    404c4d <___mingw_pformat+0xdd>
  40548a:	0f b6 51 03          	movzx  edx,BYTE PTR [ecx+0x3]
  40548e:	83 c1 03             	add    ecx,0x3
  405491:	c7 44 24 14 02 00 00 	mov    DWORD PTR [esp+0x14],0x2
  405498:	00 
  405499:	c7 44 24 10 04 00 00 	mov    DWORD PTR [esp+0x10],0x4
  4054a0:	00 
  4054a1:	e9 a7 f7 ff ff       	jmp    404c4d <___mingw_pformat+0xdd>
  4054a6:	8d 54 24 2c          	lea    edx,[esp+0x2c]
  4054aa:	b8 25 00 00 00       	mov    eax,0x25
  4054af:	89 de                	mov    esi,ebx
  4054b1:	e8 1a e2 ff ff       	call   4036d0 <___pformat_putc>
  4054b6:	e9 45 f7 ff ff       	jmp    404c00 <___mingw_pformat+0x90>
  4054bb:	c7 44 24 38 ff ff ff 	mov    DWORD PTR [esp+0x38],0xffffffff
  4054c2:	ff 
  4054c3:	89 fd                	mov    ebp,edi
  4054c5:	0f b6 51 01          	movzx  edx,BYTE PTR [ecx+0x1]
  4054c9:	c7 44 24 18 00 00 00 	mov    DWORD PTR [esp+0x18],0x0
  4054d0:	00 
  4054d1:	89 f1                	mov    ecx,esi
  4054d3:	e9 75 f7 ff ff       	jmp    404c4d <___mingw_pformat+0xdd>
  4054d8:	90                   	nop
  4054d9:	90                   	nop
  4054da:	90                   	nop
  4054db:	90                   	nop
  4054dc:	90                   	nop
  4054dd:	90                   	nop
  4054de:	90                   	nop
  4054df:	90                   	nop

004054e0 <___mbrtowc_cp>:
  4054e0:	55                   	push   ebp
  4054e1:	89 e5                	mov    ebp,esp
  4054e3:	56                   	push   esi
  4054e4:	53                   	push   ebx
  4054e5:	83 ec 30             	sub    esp,0x30
  4054e8:	8b 5d 0c             	mov    ebx,DWORD PTR [ebp+0xc]
  4054eb:	8b 75 14             	mov    esi,DWORD PTR [ebp+0x14]
  4054ee:	85 db                	test   ebx,ebx
  4054f0:	0f 84 2d 01 00 00    	je     405623 <___mbrtowc_cp+0x143>
  4054f6:	8b 4d 10             	mov    ecx,DWORD PTR [ebp+0x10]
  4054f9:	85 c9                	test   ecx,ecx
  4054fb:	0f 84 2f 01 00 00    	je     405630 <___mbrtowc_cp+0x150>
  405501:	8b 06                	mov    eax,DWORD PTR [esi]
  405503:	c7 06 00 00 00 00    	mov    DWORD PTR [esi],0x0
  405509:	89 45 f4             	mov    DWORD PTR [ebp-0xc],eax
  40550c:	0f b6 03             	movzx  eax,BYTE PTR [ebx]
  40550f:	84 c0                	test   al,al
  405511:	0f 84 99 00 00 00    	je     4055b0 <___mbrtowc_cp+0xd0>
  405517:	83 7d 1c 01          	cmp    DWORD PTR [ebp+0x1c],0x1
  40551b:	76 73                	jbe    405590 <___mbrtowc_cp+0xb0>
  40551d:	80 7d f4 00          	cmp    BYTE PTR [ebp-0xc],0x0
  405521:	0f 85 9a 00 00 00    	jne    4055c1 <___mbrtowc_cp+0xe1>
  405527:	89 44 24 04          	mov    DWORD PTR [esp+0x4],eax
  40552b:	8b 45 18             	mov    eax,DWORD PTR [ebp+0x18]
  40552e:	89 04 24             	mov    DWORD PTR [esp],eax
  405531:	e8 5a 2b 00 00       	call   408090 <_IsDBCSLeadByteEx@8>
  405536:	83 ec 08             	sub    esp,0x8
  405539:	85 c0                	test   eax,eax
  40553b:	74 53                	je     405590 <___mbrtowc_cp+0xb0>
  40553d:	83 7d 10 01          	cmp    DWORD PTR [ebp+0x10],0x1
  405541:	0f 86 05 01 00 00    	jbe    40564c <___mbrtowc_cp+0x16c>
  405547:	8b 45 08             	mov    eax,DWORD PTR [ebp+0x8]
  40554a:	c7 44 24 14 01 00 00 	mov    DWORD PTR [esp+0x14],0x1
  405551:	00 
  405552:	c7 44 24 0c 02 00 00 	mov    DWORD PTR [esp+0xc],0x2
  405559:	00 
  40555a:	89 5c 24 08          	mov    DWORD PTR [esp+0x8],ebx
  40555e:	89 44 24 10          	mov    DWORD PTR [esp+0x10],eax
  405562:	8b 45 18             	mov    eax,DWORD PTR [ebp+0x18]
  405565:	c7 44 24 04 08 00 00 	mov    DWORD PTR [esp+0x4],0x8
  40556c:	00 
  40556d:	89 04 24             	mov    DWORD PTR [esp],eax
  405570:	e8 0b 2b 00 00       	call   408080 <_MultiByteToWideChar@24>
  405575:	83 ec 18             	sub    esp,0x18
  405578:	85 c0                	test   eax,eax
  40557a:	0f 84 b7 00 00 00    	je     405637 <___mbrtowc_cp+0x157>
  405580:	8d 65 f8             	lea    esp,[ebp-0x8]
  405583:	b8 02 00 00 00       	mov    eax,0x2
  405588:	5b                   	pop    ebx
  405589:	5e                   	pop    esi
  40558a:	5d                   	pop    ebp
  40558b:	c3                   	ret    
  40558c:	8d 74 26 00          	lea    esi,[esi+eiz*1+0x0]
  405590:	8b 45 18             	mov    eax,DWORD PTR [ebp+0x18]
  405593:	85 c0                	test   eax,eax
  405595:	75 50                	jne    4055e7 <___mbrtowc_cp+0x107>
  405597:	0f b6 03             	movzx  eax,BYTE PTR [ebx]
  40559a:	8b 55 08             	mov    edx,DWORD PTR [ebp+0x8]
  40559d:	66 89 02             	mov    WORD PTR [edx],ax
  4055a0:	8d 65 f8             	lea    esp,[ebp-0x8]
  4055a3:	b8 01 00 00 00       	mov    eax,0x1
  4055a8:	5b                   	pop    ebx
  4055a9:	5e                   	pop    esi
  4055aa:	5d                   	pop    ebp
  4055ab:	c3                   	ret    
  4055ac:	8d 74 26 00          	lea    esi,[esi+eiz*1+0x0]
  4055b0:	8b 45 08             	mov    eax,DWORD PTR [ebp+0x8]
  4055b3:	31 d2                	xor    edx,edx
  4055b5:	66 89 10             	mov    WORD PTR [eax],dx
  4055b8:	31 c0                	xor    eax,eax
  4055ba:	8d 65 f8             	lea    esp,[ebp-0x8]
  4055bd:	5b                   	pop    ebx
  4055be:	5e                   	pop    esi
  4055bf:	5d                   	pop    ebp
  4055c0:	c3                   	ret    
  4055c1:	88 45 f5             	mov    BYTE PTR [ebp-0xb],al
  4055c4:	8b 45 08             	mov    eax,DWORD PTR [ebp+0x8]
  4055c7:	c7 44 24 14 01 00 00 	mov    DWORD PTR [esp+0x14],0x1
  4055ce:	00 
  4055cf:	c7 44 24 0c 02 00 00 	mov    DWORD PTR [esp+0xc],0x2
  4055d6:	00 
  4055d7:	89 44 24 10          	mov    DWORD PTR [esp+0x10],eax
  4055db:	8d 45 f4             	lea    eax,[ebp-0xc]
  4055de:	89 44 24 08          	mov    DWORD PTR [esp+0x8],eax
  4055e2:	e9 7b ff ff ff       	jmp    405562 <___mbrtowc_cp+0x82>
  4055e7:	8b 45 08             	mov    eax,DWORD PTR [ebp+0x8]
  4055ea:	c7 44 24 14 01 00 00 	mov    DWORD PTR [esp+0x14],0x1
  4055f1:	00 
  4055f2:	c7 44 24 0c 01 00 00 	mov    DWORD PTR [esp+0xc],0x1
  4055f9:	00 
  4055fa:	89 5c 24 08          	mov    DWORD PTR [esp+0x8],ebx
  4055fe:	89 44 24 10          	mov    DWORD PTR [esp+0x10],eax
  405602:	8b 45 18             	mov    eax,DWORD PTR [ebp+0x18]
  405605:	c7 44 24 04 08 00 00 	mov    DWORD PTR [esp+0x4],0x8
  40560c:	00 
  40560d:	89 04 24             	mov    DWORD PTR [esp],eax
  405610:	e8 6b 2a 00 00       	call   408080 <_MultiByteToWideChar@24>
  405615:	83 ec 18             	sub    esp,0x18
  405618:	85 c0                	test   eax,eax
  40561a:	74 1b                	je     405637 <___mbrtowc_cp+0x157>
  40561c:	b8 01 00 00 00       	mov    eax,0x1
  405621:	eb 97                	jmp    4055ba <___mbrtowc_cp+0xda>
  405623:	8d 65 f8             	lea    esp,[ebp-0x8]
  405626:	31 c0                	xor    eax,eax
  405628:	5b                   	pop    ebx
  405629:	5e                   	pop    esi
  40562a:	5d                   	pop    ebp
  40562b:	c3                   	ret    
  40562c:	8d 74 26 00          	lea    esi,[esi+eiz*1+0x0]
  405630:	b8 fe ff ff ff       	mov    eax,0xfffffffe
  405635:	eb 83                	jmp    4055ba <___mbrtowc_cp+0xda>
  405637:	e8 ec 29 00 00       	call   408028 <__errno>
  40563c:	c7 00 2a 00 00 00    	mov    DWORD PTR [eax],0x2a
  405642:	b8 ff ff ff ff       	mov    eax,0xffffffff
  405647:	e9 6e ff ff ff       	jmp    4055ba <___mbrtowc_cp+0xda>
  40564c:	0f b6 03             	movzx  eax,BYTE PTR [ebx]
  40564f:	88 06                	mov    BYTE PTR [esi],al
  405651:	b8 fe ff ff ff       	mov    eax,0xfffffffe
  405656:	e9 5f ff ff ff       	jmp    4055ba <___mbrtowc_cp+0xda>
  40565b:	90                   	nop
  40565c:	8d 74 26 00          	lea    esi,[esi+eiz*1+0x0]

00405660 <_mbrtowc>:
  405660:	56                   	push   esi
  405661:	31 f6                	xor    esi,esi
  405663:	53                   	push   ebx
  405664:	83 ec 34             	sub    esp,0x34
  405667:	8b 5c 24 40          	mov    ebx,DWORD PTR [esp+0x40]
  40566b:	66 89 74 24 2e       	mov    WORD PTR [esp+0x2e],si
  405670:	85 db                	test   ebx,ebx
  405672:	74 70                	je     4056e4 <_mbrtowc+0x84>
  405674:	a1 ac e1 40 00       	mov    eax,ds:0x40e1ac
  405679:	8b 30                	mov    esi,DWORD PTR [eax]
  40567b:	c7 44 24 04 00 00 00 	mov    DWORD PTR [esp+0x4],0x0
  405682:	00 
  405683:	c7 04 24 02 00 00 00 	mov    DWORD PTR [esp],0x2
  40568a:	e8 11 29 00 00       	call   407fa0 <_setlocale>
  40568f:	c7 44 24 04 2e 00 00 	mov    DWORD PTR [esp+0x4],0x2e
  405696:	00 
  405697:	89 04 24             	mov    DWORD PTR [esp],eax
  40569a:	e8 f1 28 00 00       	call   407f90 <_strchr>
  40569f:	31 c9                	xor    ecx,ecx
  4056a1:	85 c0                	test   eax,eax
  4056a3:	74 0d                	je     4056b2 <_mbrtowc+0x52>
  4056a5:	83 c0 01             	add    eax,0x1
  4056a8:	89 04 24             	mov    DWORD PTR [esp],eax
  4056ab:	e8 58 29 00 00       	call   408008 <_atoi>
  4056b0:	89 c1                	mov    ecx,eax
  4056b2:	8b 54 24 4c          	mov    edx,DWORD PTR [esp+0x4c]
  4056b6:	85 d2                	test   edx,edx
  4056b8:	74 36                	je     4056f0 <_mbrtowc+0x90>
  4056ba:	8b 44 24 48          	mov    eax,DWORD PTR [esp+0x48]
  4056be:	89 74 24 14          	mov    DWORD PTR [esp+0x14],esi
  4056c2:	89 1c 24             	mov    DWORD PTR [esp],ebx
  4056c5:	89 4c 24 10          	mov    DWORD PTR [esp+0x10],ecx
  4056c9:	89 44 24 08          	mov    DWORD PTR [esp+0x8],eax
  4056cd:	8b 44 24 44          	mov    eax,DWORD PTR [esp+0x44]
  4056d1:	89 54 24 0c          	mov    DWORD PTR [esp+0xc],edx
  4056d5:	89 44 24 04          	mov    DWORD PTR [esp+0x4],eax
  4056d9:	e8 02 fe ff ff       	call   4054e0 <___mbrtowc_cp>
  4056de:	83 c4 34             	add    esp,0x34
  4056e1:	5b                   	pop    ebx
  4056e2:	5e                   	pop    esi
  4056e3:	c3                   	ret    
  4056e4:	8d 5c 24 2e          	lea    ebx,[esp+0x2e]
  4056e8:	eb 8a                	jmp    405674 <_mbrtowc+0x14>
  4056ea:	8d b6 00 00 00 00    	lea    esi,[esi+0x0]
  4056f0:	ba 78 d0 40 00       	mov    edx,0x40d078
  4056f5:	eb c3                	jmp    4056ba <_mbrtowc+0x5a>
  4056f7:	89 f6                	mov    esi,esi
  4056f9:	8d bc 27 00 00 00 00 	lea    edi,[edi+eiz*1+0x0]

00405700 <_mbsrtowcs>:
  405700:	55                   	push   ebp
  405701:	57                   	push   edi
  405702:	56                   	push   esi
  405703:	53                   	push   ebx
  405704:	83 ec 3c             	sub    esp,0x3c
  405707:	8b 44 24 5c          	mov    eax,DWORD PTR [esp+0x5c]
  40570b:	8b 5c 24 50          	mov    ebx,DWORD PTR [esp+0x50]
  40570f:	8b 74 24 54          	mov    esi,DWORD PTR [esp+0x54]
  405713:	8b 7c 24 58          	mov    edi,DWORD PTR [esp+0x58]
  405717:	85 c0                	test   eax,eax
  405719:	0f 84 41 01 00 00    	je     405860 <_mbsrtowcs+0x160>
  40571f:	c7 44 24 04 00 00 00 	mov    DWORD PTR [esp+0x4],0x0
  405726:	00 
  405727:	c7 04 24 02 00 00 00 	mov    DWORD PTR [esp],0x2
  40572e:	e8 6d 28 00 00       	call   407fa0 <_setlocale>
  405733:	c7 44 24 04 2e 00 00 	mov    DWORD PTR [esp+0x4],0x2e
  40573a:	00 
  40573b:	89 04 24             	mov    DWORD PTR [esp],eax
  40573e:	e8 4d 28 00 00       	call   407f90 <_strchr>
  405743:	c7 44 24 18 00 00 00 	mov    DWORD PTR [esp+0x18],0x0
  40574a:	00 
  40574b:	85 c0                	test   eax,eax
  40574d:	74 0f                	je     40575e <_mbsrtowcs+0x5e>
  40574f:	83 c0 01             	add    eax,0x1
  405752:	89 04 24             	mov    DWORD PTR [esp],eax
  405755:	e8 ae 28 00 00       	call   408008 <_atoi>
  40575a:	89 44 24 18          	mov    DWORD PTR [esp+0x18],eax
  40575e:	a1 ac e1 40 00       	mov    eax,ds:0x40e1ac
  405763:	85 f6                	test   esi,esi
  405765:	8b 00                	mov    eax,DWORD PTR [eax]
  405767:	89 44 24 1c          	mov    DWORD PTR [esp+0x1c],eax
  40576b:	0f 84 df 00 00 00    	je     405850 <_mbsrtowcs+0x150>
  405771:	8b 0e                	mov    ecx,DWORD PTR [esi]
  405773:	85 c9                	test   ecx,ecx
  405775:	0f 84 d5 00 00 00    	je     405850 <_mbsrtowcs+0x150>
  40577b:	85 db                	test   ebx,ebx
  40577d:	74 71                	je     4057f0 <_mbsrtowcs+0xf0>
  40577f:	85 ff                	test   edi,edi
  405781:	0f 84 c9 00 00 00    	je     405850 <_mbsrtowcs+0x150>
  405787:	89 74 24 54          	mov    DWORD PTR [esp+0x54],esi
  40578b:	31 ed                	xor    ebp,ebp
  40578d:	89 de                	mov    esi,ebx
  40578f:	8b 5c 24 54          	mov    ebx,DWORD PTR [esp+0x54]
  405793:	eb 0f                	jmp    4057a4 <_mbsrtowcs+0xa4>
  405795:	8b 0b                	mov    ecx,DWORD PTR [ebx]
  405797:	01 c5                	add    ebp,eax
  405799:	83 c6 02             	add    esi,0x2
  40579c:	01 c1                	add    ecx,eax
  40579e:	39 ef                	cmp    edi,ebp
  4057a0:	89 0b                	mov    DWORD PTR [ebx],ecx
  4057a2:	76 30                	jbe    4057d4 <_mbsrtowcs+0xd4>
  4057a4:	8b 44 24 1c          	mov    eax,DWORD PTR [esp+0x1c]
  4057a8:	89 4c 24 04          	mov    DWORD PTR [esp+0x4],ecx
  4057ac:	89 34 24             	mov    DWORD PTR [esp],esi
  4057af:	89 44 24 14          	mov    DWORD PTR [esp+0x14],eax
  4057b3:	8b 44 24 18          	mov    eax,DWORD PTR [esp+0x18]
  4057b7:	89 44 24 10          	mov    DWORD PTR [esp+0x10],eax
  4057bb:	8b 44 24 5c          	mov    eax,DWORD PTR [esp+0x5c]
  4057bf:	89 44 24 0c          	mov    DWORD PTR [esp+0xc],eax
  4057c3:	89 f8                	mov    eax,edi
  4057c5:	29 e8                	sub    eax,ebp
  4057c7:	89 44 24 08          	mov    DWORD PTR [esp+0x8],eax
  4057cb:	e8 10 fd ff ff       	call   4054e0 <___mbrtowc_cp>
  4057d0:	85 c0                	test   eax,eax
  4057d2:	7f c1                	jg     405795 <_mbsrtowcs+0x95>
  4057d4:	85 c0                	test   eax,eax
  4057d6:	75 6e                	jne    405846 <_mbsrtowcs+0x146>
  4057d8:	39 fd                	cmp    ebp,edi
  4057da:	73 6a                	jae    405846 <_mbsrtowcs+0x146>
  4057dc:	c7 03 00 00 00 00    	mov    DWORD PTR [ebx],0x0
  4057e2:	83 c4 3c             	add    esp,0x3c
  4057e5:	89 e8                	mov    eax,ebp
  4057e7:	5b                   	pop    ebx
  4057e8:	5e                   	pop    esi
  4057e9:	5f                   	pop    edi
  4057ea:	5d                   	pop    ebp
  4057eb:	c3                   	ret    
  4057ec:	8d 74 26 00          	lea    esi,[esi+eiz*1+0x0]
  4057f0:	31 ed                	xor    ebp,ebp
  4057f2:	66 89 6c 24 2e       	mov    WORD PTR [esp+0x2e],bp
  4057f7:	31 ed                	xor    ebp,ebp
  4057f9:	85 ff                	test   edi,edi
  4057fb:	74 49                	je     405846 <_mbsrtowcs+0x146>
  4057fd:	89 7c 24 58          	mov    DWORD PTR [esp+0x58],edi
  405801:	8d 5c 24 2e          	lea    ebx,[esp+0x2e]
  405805:	89 f7                	mov    edi,esi
  405807:	8b 74 24 1c          	mov    esi,DWORD PTR [esp+0x1c]
  40580b:	eb 11                	jmp    40581e <_mbsrtowcs+0x11e>
  40580d:	8d 76 00             	lea    esi,[esi+0x0]
  405810:	8b 0f                	mov    ecx,DWORD PTR [edi]
  405812:	01 c5                	add    ebp,eax
  405814:	01 c1                	add    ecx,eax
  405816:	39 6c 24 58          	cmp    DWORD PTR [esp+0x58],ebp
  40581a:	89 0f                	mov    DWORD PTR [edi],ecx
  40581c:	76 28                	jbe    405846 <_mbsrtowcs+0x146>
  40581e:	8b 44 24 18          	mov    eax,DWORD PTR [esp+0x18]
  405822:	89 74 24 14          	mov    DWORD PTR [esp+0x14],esi
  405826:	89 74 24 08          	mov    DWORD PTR [esp+0x8],esi
  40582a:	89 4c 24 04          	mov    DWORD PTR [esp+0x4],ecx
  40582e:	89 44 24 10          	mov    DWORD PTR [esp+0x10],eax
  405832:	8b 44 24 5c          	mov    eax,DWORD PTR [esp+0x5c]
  405836:	89 1c 24             	mov    DWORD PTR [esp],ebx
  405839:	89 44 24 0c          	mov    DWORD PTR [esp+0xc],eax
  40583d:	e8 9e fc ff ff       	call   4054e0 <___mbrtowc_cp>
  405842:	85 c0                	test   eax,eax
  405844:	7f ca                	jg     405810 <_mbsrtowcs+0x110>
  405846:	83 c4 3c             	add    esp,0x3c
  405849:	89 e8                	mov    eax,ebp
  40584b:	5b                   	pop    ebx
  40584c:	5e                   	pop    esi
  40584d:	5f                   	pop    edi
  40584e:	5d                   	pop    ebp
  40584f:	c3                   	ret    
  405850:	83 c4 3c             	add    esp,0x3c
  405853:	31 c0                	xor    eax,eax
  405855:	5b                   	pop    ebx
  405856:	5e                   	pop    esi
  405857:	5f                   	pop    edi
  405858:	5d                   	pop    ebp
  405859:	c3                   	ret    
  40585a:	8d b6 00 00 00 00    	lea    esi,[esi+0x0]
  405860:	c7 44 24 5c 74 d0 40 	mov    DWORD PTR [esp+0x5c],0x40d074
  405867:	00 
  405868:	e9 b2 fe ff ff       	jmp    40571f <_mbsrtowcs+0x1f>
  40586d:	8d 76 00             	lea    esi,[esi+0x0]

00405870 <_mbrlen>:
  405870:	53                   	push   ebx
  405871:	31 c0                	xor    eax,eax
  405873:	83 ec 38             	sub    esp,0x38
  405876:	66 89 44 24 2e       	mov    WORD PTR [esp+0x2e],ax
  40587b:	a1 ac e1 40 00       	mov    eax,ds:0x40e1ac
  405880:	8b 18                	mov    ebx,DWORD PTR [eax]
  405882:	c7 44 24 04 00 00 00 	mov    DWORD PTR [esp+0x4],0x0
  405889:	00 
  40588a:	c7 04 24 02 00 00 00 	mov    DWORD PTR [esp],0x2
  405891:	e8 0a 27 00 00       	call   407fa0 <_setlocale>
  405896:	c7 44 24 04 2e 00 00 	mov    DWORD PTR [esp+0x4],0x2e
  40589d:	00 
  40589e:	89 04 24             	mov    DWORD PTR [esp],eax
  4058a1:	e8 ea 26 00 00       	call   407f90 <_strchr>
  4058a6:	31 c9                	xor    ecx,ecx
  4058a8:	85 c0                	test   eax,eax
  4058aa:	74 0d                	je     4058b9 <_mbrlen+0x49>
  4058ac:	83 c0 01             	add    eax,0x1
  4058af:	89 04 24             	mov    DWORD PTR [esp],eax
  4058b2:	e8 51 27 00 00       	call   408008 <_atoi>
  4058b7:	89 c1                	mov    ecx,eax
  4058b9:	8b 54 24 48          	mov    edx,DWORD PTR [esp+0x48]
  4058bd:	85 d2                	test   edx,edx
  4058bf:	74 2f                	je     4058f0 <_mbrlen+0x80>
  4058c1:	8b 44 24 44          	mov    eax,DWORD PTR [esp+0x44]
  4058c5:	89 5c 24 14          	mov    DWORD PTR [esp+0x14],ebx
  4058c9:	89 4c 24 10          	mov    DWORD PTR [esp+0x10],ecx
  4058cd:	89 54 24 0c          	mov    DWORD PTR [esp+0xc],edx
  4058d1:	89 44 24 08          	mov    DWORD PTR [esp+0x8],eax
  4058d5:	8b 44 24 40          	mov    eax,DWORD PTR [esp+0x40]
  4058d9:	89 44 24 04          	mov    DWORD PTR [esp+0x4],eax
  4058dd:	8d 44 24 2e          	lea    eax,[esp+0x2e]
  4058e1:	89 04 24             	mov    DWORD PTR [esp],eax
  4058e4:	e8 f7 fb ff ff       	call   4054e0 <___mbrtowc_cp>
  4058e9:	83 c4 38             	add    esp,0x38
  4058ec:	5b                   	pop    ebx
  4058ed:	c3                   	ret    
  4058ee:	66 90                	xchg   ax,ax
  4058f0:	ba 70 d0 40 00       	mov    edx,0x40d070
  4058f5:	eb ca                	jmp    4058c1 <_mbrlen+0x51>
  4058f7:	90                   	nop
  4058f8:	90                   	nop
  4058f9:	90                   	nop
  4058fa:	90                   	nop
  4058fb:	90                   	nop
  4058fc:	90                   	nop
  4058fd:	90                   	nop
  4058fe:	90                   	nop
  4058ff:	90                   	nop

00405900 <___wcrtomb_cp>:
  405900:	55                   	push   ebp
  405901:	89 e5                	mov    ebp,esp
  405903:	83 ec 48             	sub    esp,0x48
  405906:	8b 55 10             	mov    edx,DWORD PTR [ebp+0x10]
  405909:	8b 45 0c             	mov    eax,DWORD PTR [ebp+0xc]
  40590c:	85 d2                	test   edx,edx
  40590e:	66 89 45 e4          	mov    WORD PTR [ebp-0x1c],ax
  405912:	75 12                	jne    405926 <___wcrtomb_cp+0x26>
  405914:	66 3d ff 00          	cmp    ax,0xff
  405918:	77 5d                	ja     405977 <___wcrtomb_cp+0x77>
  40591a:	8b 4d 08             	mov    ecx,DWORD PTR [ebp+0x8]
  40591d:	88 01                	mov    BYTE PTR [ecx],al
  40591f:	b8 01 00 00 00       	mov    eax,0x1
  405924:	c9                   	leave  
  405925:	c3                   	ret    
  405926:	8d 45 f4             	lea    eax,[ebp-0xc]
  405929:	89 44 24 1c          	mov    DWORD PTR [esp+0x1c],eax
  40592d:	8b 45 14             	mov    eax,DWORD PTR [ebp+0x14]
  405930:	c7 44 24 18 00 00 00 	mov    DWORD PTR [esp+0x18],0x0
  405937:	00 
  405938:	c7 44 24 0c 01 00 00 	mov    DWORD PTR [esp+0xc],0x1
  40593f:	00 
  405940:	c7 44 24 04 00 00 00 	mov    DWORD PTR [esp+0x4],0x0
  405947:	00 
  405948:	89 44 24 14          	mov    DWORD PTR [esp+0x14],eax
  40594c:	8b 45 08             	mov    eax,DWORD PTR [ebp+0x8]
  40594f:	89 14 24             	mov    DWORD PTR [esp],edx
  405952:	c7 45 f4 00 00 00 00 	mov    DWORD PTR [ebp-0xc],0x0
  405959:	89 44 24 10          	mov    DWORD PTR [esp+0x10],eax
  40595d:	8d 45 e4             	lea    eax,[ebp-0x1c]
  405960:	89 44 24 08          	mov    DWORD PTR [esp+0x8],eax
  405964:	e8 e7 26 00 00       	call   408050 <_WideCharToMultiByte@32>
  405969:	83 ec 20             	sub    esp,0x20
  40596c:	85 c0                	test   eax,eax
  40596e:	74 07                	je     405977 <___wcrtomb_cp+0x77>
  405970:	8b 55 f4             	mov    edx,DWORD PTR [ebp-0xc]
  405973:	85 d2                	test   edx,edx
  405975:	74 ad                	je     405924 <___wcrtomb_cp+0x24>
  405977:	e8 ac 26 00 00       	call   408028 <__errno>
  40597c:	c7 00 2a 00 00 00    	mov    DWORD PTR [eax],0x2a
  405982:	b8 ff ff ff ff       	mov    eax,0xffffffff
  405987:	c9                   	leave  
  405988:	c3                   	ret    
  405989:	8d b4 26 00 00 00 00 	lea    esi,[esi+eiz*1+0x0]

00405990 <_wcrtomb>:
  405990:	57                   	push   edi
  405991:	56                   	push   esi
  405992:	53                   	push   ebx
  405993:	83 ec 20             	sub    esp,0x20
  405996:	8b 5c 24 30          	mov    ebx,DWORD PTR [esp+0x30]
  40599a:	8b 74 24 34          	mov    esi,DWORD PTR [esp+0x34]
  40599e:	85 db                	test   ebx,ebx
  4059a0:	74 5e                	je     405a00 <_wcrtomb+0x70>
  4059a2:	a1 ac e1 40 00       	mov    eax,ds:0x40e1ac
  4059a7:	8b 38                	mov    edi,DWORD PTR [eax]
  4059a9:	c7 44 24 04 00 00 00 	mov    DWORD PTR [esp+0x4],0x0
  4059b0:	00 
  4059b1:	c7 04 24 02 00 00 00 	mov    DWORD PTR [esp],0x2
  4059b8:	e8 e3 25 00 00       	call   407fa0 <_setlocale>
  4059bd:	c7 44 24 04 2e 00 00 	mov    DWORD PTR [esp+0x4],0x2e
  4059c4:	00 
  4059c5:	89 04 24             	mov    DWORD PTR [esp],eax
  4059c8:	e8 c3 25 00 00       	call   407f90 <_strchr>
  4059cd:	31 d2                	xor    edx,edx
  4059cf:	85 c0                	test   eax,eax
  4059d1:	74 0d                	je     4059e0 <_wcrtomb+0x50>
  4059d3:	83 c0 01             	add    eax,0x1
  4059d6:	89 04 24             	mov    DWORD PTR [esp],eax
  4059d9:	e8 2a 26 00 00       	call   408008 <_atoi>
  4059de:	89 c2                	mov    edx,eax
  4059e0:	0f b7 f6             	movzx  esi,si
  4059e3:	89 7c 24 0c          	mov    DWORD PTR [esp+0xc],edi
  4059e7:	89 74 24 04          	mov    DWORD PTR [esp+0x4],esi
  4059eb:	89 1c 24             	mov    DWORD PTR [esp],ebx
  4059ee:	89 54 24 08          	mov    DWORD PTR [esp+0x8],edx
  4059f2:	e8 09 ff ff ff       	call   405900 <___wcrtomb_cp>
  4059f7:	83 c4 20             	add    esp,0x20
  4059fa:	5b                   	pop    ebx
  4059fb:	5e                   	pop    esi
  4059fc:	5f                   	pop    edi
  4059fd:	c3                   	ret    
  4059fe:	66 90                	xchg   ax,ax
  405a00:	8d 5c 24 1e          	lea    ebx,[esp+0x1e]
  405a04:	eb 9c                	jmp    4059a2 <_wcrtomb+0x12>
  405a06:	8d 76 00             	lea    esi,[esi+0x0]
  405a09:	8d bc 27 00 00 00 00 	lea    edi,[edi+eiz*1+0x0]

00405a10 <_wcsrtombs>:
  405a10:	55                   	push   ebp
  405a11:	57                   	push   edi
  405a12:	56                   	push   esi
  405a13:	31 f6                	xor    esi,esi
  405a15:	53                   	push   ebx
  405a16:	83 ec 3c             	sub    esp,0x3c
  405a19:	c7 44 24 04 00 00 00 	mov    DWORD PTR [esp+0x4],0x0
  405a20:	00 
  405a21:	8b 5c 24 50          	mov    ebx,DWORD PTR [esp+0x50]
  405a25:	c7 04 24 02 00 00 00 	mov    DWORD PTR [esp],0x2
  405a2c:	e8 6f 25 00 00       	call   407fa0 <_setlocale>
  405a31:	c7 44 24 04 2e 00 00 	mov    DWORD PTR [esp+0x4],0x2e
  405a38:	00 
  405a39:	89 04 24             	mov    DWORD PTR [esp],eax
  405a3c:	e8 4f 25 00 00       	call   407f90 <_strchr>
  405a41:	85 c0                	test   eax,eax
  405a43:	74 0d                	je     405a52 <_wcsrtombs+0x42>
  405a45:	83 c0 01             	add    eax,0x1
  405a48:	89 04 24             	mov    DWORD PTR [esp],eax
  405a4b:	e8 b8 25 00 00       	call   408008 <_atoi>
  405a50:	89 c6                	mov    esi,eax
  405a52:	a1 ac e1 40 00       	mov    eax,ds:0x40e1ac
  405a57:	8b 00                	mov    eax,DWORD PTR [eax]
  405a59:	89 44 24 1c          	mov    DWORD PTR [esp+0x1c],eax
  405a5d:	8b 44 24 54          	mov    eax,DWORD PTR [esp+0x54]
  405a61:	8b 38                	mov    edi,DWORD PTR [eax]
  405a63:	85 ff                	test   edi,edi
  405a65:	0f 84 cc 00 00 00    	je     405b37 <_wcsrtombs+0x127>
  405a6b:	31 ed                	xor    ebp,ebp
  405a6d:	85 db                	test   ebx,ebx
  405a6f:	74 76                	je     405ae7 <_wcsrtombs+0xd7>
  405a71:	8b 4c 24 58          	mov    ecx,DWORD PTR [esp+0x58]
  405a75:	85 c9                	test   ecx,ecx
  405a77:	74 49                	je     405ac2 <_wcsrtombs+0xb2>
  405a79:	89 f0                	mov    eax,esi
  405a7b:	89 fe                	mov    esi,edi
  405a7d:	89 c7                	mov    edi,eax
  405a7f:	eb 13                	jmp    405a94 <_wcsrtombs+0x84>
  405a81:	01 c3                	add    ebx,eax
  405a83:	01 c5                	add    ebp,eax
  405a85:	80 7b ff 00          	cmp    BYTE PTR [ebx-0x1],0x0
  405a89:	74 47                	je     405ad2 <_wcsrtombs+0xc2>
  405a8b:	83 c6 02             	add    esi,0x2
  405a8e:	39 6c 24 58          	cmp    DWORD PTR [esp+0x58],ebp
  405a92:	76 2c                	jbe    405ac0 <_wcsrtombs+0xb0>
  405a94:	8b 44 24 1c          	mov    eax,DWORD PTR [esp+0x1c]
  405a98:	89 7c 24 08          	mov    DWORD PTR [esp+0x8],edi
  405a9c:	89 44 24 0c          	mov    DWORD PTR [esp+0xc],eax
  405aa0:	0f b7 06             	movzx  eax,WORD PTR [esi]
  405aa3:	89 1c 24             	mov    DWORD PTR [esp],ebx
  405aa6:	89 44 24 04          	mov    DWORD PTR [esp+0x4],eax
  405aaa:	e8 51 fe ff ff       	call   405900 <___wcrtomb_cp>
  405aaf:	85 c0                	test   eax,eax
  405ab1:	7f ce                	jg     405a81 <_wcsrtombs+0x71>
  405ab3:	b8 ff ff ff ff       	mov    eax,0xffffffff
  405ab8:	83 c4 3c             	add    esp,0x3c
  405abb:	5b                   	pop    ebx
  405abc:	5e                   	pop    esi
  405abd:	5f                   	pop    edi
  405abe:	5d                   	pop    ebp
  405abf:	c3                   	ret    
  405ac0:	89 f7                	mov    edi,esi
  405ac2:	8b 44 24 54          	mov    eax,DWORD PTR [esp+0x54]
  405ac6:	89 38                	mov    DWORD PTR [eax],edi
  405ac8:	83 c4 3c             	add    esp,0x3c
  405acb:	89 e8                	mov    eax,ebp
  405acd:	5b                   	pop    ebx
  405ace:	5e                   	pop    esi
  405acf:	5f                   	pop    edi
  405ad0:	5d                   	pop    ebp
  405ad1:	c3                   	ret    
  405ad2:	8b 44 24 54          	mov    eax,DWORD PTR [esp+0x54]
  405ad6:	c7 00 00 00 00 00    	mov    DWORD PTR [eax],0x0
  405adc:	83 c4 3c             	add    esp,0x3c
  405adf:	5b                   	pop    ebx
  405ae0:	8d 45 ff             	lea    eax,[ebp-0x1]
  405ae3:	5e                   	pop    esi
  405ae4:	5f                   	pop    edi
  405ae5:	5d                   	pop    ebp
  405ae6:	c3                   	ret    
  405ae7:	8b 44 24 58          	mov    eax,DWORD PTR [esp+0x58]
  405aeb:	85 c0                	test   eax,eax
  405aed:	74 63                	je     405b52 <_wcsrtombs+0x142>
  405aef:	89 e8                	mov    eax,ebp
  405af1:	8b 5c 24 1c          	mov    ebx,DWORD PTR [esp+0x1c]
  405af5:	89 fd                	mov    ebp,edi
  405af7:	89 c7                	mov    edi,eax
  405af9:	eb 17                	jmp    405b12 <_wcsrtombs+0x102>
  405afb:	90                   	nop
  405afc:	8d 74 26 00          	lea    esi,[esi+eiz*1+0x0]
  405b00:	01 c7                	add    edi,eax
  405b02:	80 7c 04 2d 00       	cmp    BYTE PTR [esp+eax*1+0x2d],0x0
  405b07:	74 38                	je     405b41 <_wcsrtombs+0x131>
  405b09:	83 c5 02             	add    ebp,0x2
  405b0c:	39 7c 24 58          	cmp    DWORD PTR [esp+0x58],edi
  405b10:	76 37                	jbe    405b49 <_wcsrtombs+0x139>
  405b12:	89 5c 24 0c          	mov    DWORD PTR [esp+0xc],ebx
  405b16:	89 74 24 08          	mov    DWORD PTR [esp+0x8],esi
  405b1a:	0f b7 45 00          	movzx  eax,WORD PTR [ebp+0x0]
  405b1e:	89 44 24 04          	mov    DWORD PTR [esp+0x4],eax
  405b22:	8d 44 24 2e          	lea    eax,[esp+0x2e]
  405b26:	89 04 24             	mov    DWORD PTR [esp],eax
  405b29:	e8 d2 fd ff ff       	call   405900 <___wcrtomb_cp>
  405b2e:	85 c0                	test   eax,eax
  405b30:	7f ce                	jg     405b00 <_wcsrtombs+0xf0>
  405b32:	e9 7c ff ff ff       	jmp    405ab3 <_wcsrtombs+0xa3>
  405b37:	83 c4 3c             	add    esp,0x3c
  405b3a:	31 c0                	xor    eax,eax
  405b3c:	5b                   	pop    ebx
  405b3d:	5e                   	pop    esi
  405b3e:	5f                   	pop    edi
  405b3f:	5d                   	pop    ebp
  405b40:	c3                   	ret    
  405b41:	8d 47 ff             	lea    eax,[edi-0x1]
  405b44:	e9 6f ff ff ff       	jmp    405ab8 <_wcsrtombs+0xa8>
  405b49:	89 fd                	mov    ebp,edi
  405b4b:	89 e8                	mov    eax,ebp
  405b4d:	e9 66 ff ff ff       	jmp    405ab8 <_wcsrtombs+0xa8>
  405b52:	89 dd                	mov    ebp,ebx
  405b54:	89 e8                	mov    eax,ebp
  405b56:	e9 5d ff ff ff       	jmp    405ab8 <_wcsrtombs+0xa8>
  405b5b:	90                   	nop
  405b5c:	90                   	nop
  405b5d:	90                   	nop
  405b5e:	90                   	nop
  405b5f:	90                   	nop

00405b60 <___gdtoa>:
  405b60:	55                   	push   ebp
  405b61:	57                   	push   edi
  405b62:	56                   	push   esi
  405b63:	53                   	push   ebx
  405b64:	83 ec 6c             	sub    esp,0x6c
  405b67:	8b 84 24 8c 00 00 00 	mov    eax,DWORD PTR [esp+0x8c]
  405b6e:	8b 9c 24 8c 00 00 00 	mov    ebx,DWORD PTR [esp+0x8c]
  405b75:	8b 30                	mov    esi,DWORD PTR [eax]
  405b77:	89 f0                	mov    eax,esi
  405b79:	83 e0 cf             	and    eax,0xffffffcf
  405b7c:	89 03                	mov    DWORD PTR [ebx],eax
  405b7e:	89 f0                	mov    eax,esi
  405b80:	83 e0 07             	and    eax,0x7
  405b83:	83 f8 04             	cmp    eax,0x4
  405b86:	0f 87 5f 14 00 00    	ja     406feb <___gdtoa+0x148b>
  405b8c:	ff 24 85 e8 a2 40 00 	jmp    DWORD PTR [eax*4+0x40a2e8]
  405b93:	8b 84 24 80 00 00 00 	mov    eax,DWORD PTR [esp+0x80]
  405b9a:	31 d2                	xor    edx,edx
  405b9c:	8b 38                	mov    edi,DWORD PTR [eax]
  405b9e:	83 ff 20             	cmp    edi,0x20
  405ba1:	7e 0e                	jle    405bb1 <___gdtoa+0x51>
  405ba3:	b8 20 00 00 00       	mov    eax,0x20
  405ba8:	01 c0                	add    eax,eax
  405baa:	83 c2 01             	add    edx,0x1
  405bad:	39 c7                	cmp    edi,eax
  405baf:	7f f7                	jg     405ba8 <___gdtoa+0x48>
  405bb1:	89 14 24             	mov    DWORD PTR [esp],edx
  405bb4:	e8 77 19 00 00       	call   407530 <___Balloc_D2A>
  405bb9:	8b 8c 24 88 00 00 00 	mov    ecx,DWORD PTR [esp+0x88]
  405bc0:	89 c3                	mov    ebx,eax
  405bc2:	8d 47 ff             	lea    eax,[edi-0x1]
  405bc5:	c1 f8 05             	sar    eax,0x5
  405bc8:	8d 2c 81             	lea    ebp,[ecx+eax*4]
  405bcb:	8b 84 24 88 00 00 00 	mov    eax,DWORD PTR [esp+0x88]
  405bd2:	8d 4b 14             	lea    ecx,[ebx+0x14]
  405bd5:	89 ca                	mov    edx,ecx
  405bd7:	89 4c 24 0c          	mov    DWORD PTR [esp+0xc],ecx
  405bdb:	90                   	nop
  405bdc:	8d 74 26 00          	lea    esi,[esi+eiz*1+0x0]
  405be0:	8b 08                	mov    ecx,DWORD PTR [eax]
  405be2:	83 c0 04             	add    eax,0x4
  405be5:	83 c2 04             	add    edx,0x4
  405be8:	39 c5                	cmp    ebp,eax
  405bea:	89 4a fc             	mov    DWORD PTR [edx-0x4],ecx
  405bed:	73 f1                	jae    405be0 <___gdtoa+0x80>
  405bef:	8b 4c 24 0c          	mov    ecx,DWORD PTR [esp+0xc]
  405bf3:	29 ca                	sub    edx,ecx
  405bf5:	c1 fa 02             	sar    edx,0x2
  405bf8:	eb 10                	jmp    405c0a <___gdtoa+0xaa>
  405bfa:	8d b6 00 00 00 00    	lea    esi,[esi+0x0]
  405c00:	85 c0                	test   eax,eax
  405c02:	0f 84 6e 04 00 00    	je     406076 <___gdtoa+0x516>
  405c08:	89 c2                	mov    edx,eax
  405c0a:	8d 42 ff             	lea    eax,[edx-0x1]
  405c0d:	8b 2c 81             	mov    ebp,DWORD PTR [ecx+eax*4]
  405c10:	85 ed                	test   ebp,ebp
  405c12:	74 ec                	je     405c00 <___gdtoa+0xa0>
  405c14:	0f bd 44 93 10       	bsr    eax,DWORD PTR [ebx+edx*4+0x10]
  405c19:	89 53 10             	mov    DWORD PTR [ebx+0x10],edx
  405c1c:	c1 e2 05             	shl    edx,0x5
  405c1f:	89 d5                	mov    ebp,edx
  405c21:	83 f0 1f             	xor    eax,0x1f
  405c24:	29 c5                	sub    ebp,eax
  405c26:	89 1c 24             	mov    DWORD PTR [esp],ebx
  405c29:	e8 f2 14 00 00       	call   407120 <___trailz_D2A>
  405c2e:	8b 8c 24 84 00 00 00 	mov    ecx,DWORD PTR [esp+0x84]
  405c35:	89 4c 24 20          	mov    DWORD PTR [esp+0x20],ecx
  405c39:	85 c0                	test   eax,eax
  405c3b:	89 44 24 5c          	mov    DWORD PTR [esp+0x5c],eax
  405c3f:	0f 85 3f 04 00 00    	jne    406084 <___gdtoa+0x524>
  405c45:	8b 4b 10             	mov    ecx,DWORD PTR [ebx+0x10]
  405c48:	85 c9                	test   ecx,ecx
  405c4a:	0f 85 a8 00 00 00    	jne    405cf8 <___gdtoa+0x198>
  405c50:	89 1c 24             	mov    DWORD PTR [esp],ebx
  405c53:	e8 a8 19 00 00       	call   407600 <___Bfree_D2A>
  405c58:	8b 84 24 98 00 00 00 	mov    eax,DWORD PTR [esp+0x98]
  405c5f:	c7 00 01 00 00 00    	mov    DWORD PTR [eax],0x1
  405c65:	8b 84 24 9c 00 00 00 	mov    eax,DWORD PTR [esp+0x9c]
  405c6c:	c7 44 24 08 01 00 00 	mov    DWORD PTR [esp+0x8],0x1
  405c73:	00 
  405c74:	c7 04 24 e5 a2 40 00 	mov    DWORD PTR [esp],0x40a2e5
  405c7b:	89 44 24 04          	mov    DWORD PTR [esp+0x4],eax
  405c7f:	e8 1c 15 00 00       	call   4071a0 <___nrv_alloc_D2A>
  405c84:	83 c4 6c             	add    esp,0x6c
  405c87:	5b                   	pop    ebx
  405c88:	5e                   	pop    esi
  405c89:	5f                   	pop    edi
  405c8a:	5d                   	pop    ebp
  405c8b:	c3                   	ret    
  405c8c:	8d 74 26 00          	lea    esi,[esi+eiz*1+0x0]
  405c90:	8b 84 24 98 00 00 00 	mov    eax,DWORD PTR [esp+0x98]
  405c97:	c7 00 00 80 ff ff    	mov    DWORD PTR [eax],0xffff8000
  405c9d:	8b 84 24 9c 00 00 00 	mov    eax,DWORD PTR [esp+0x9c]
  405ca4:	c7 44 24 08 03 00 00 	mov    DWORD PTR [esp+0x8],0x3
  405cab:	00 
  405cac:	c7 04 24 e1 a2 40 00 	mov    DWORD PTR [esp],0x40a2e1
  405cb3:	89 44 24 04          	mov    DWORD PTR [esp+0x4],eax
  405cb7:	e8 e4 14 00 00       	call   4071a0 <___nrv_alloc_D2A>
  405cbc:	83 c4 6c             	add    esp,0x6c
  405cbf:	5b                   	pop    ebx
  405cc0:	5e                   	pop    esi
  405cc1:	5f                   	pop    edi
  405cc2:	5d                   	pop    ebp
  405cc3:	c3                   	ret    
  405cc4:	8b 84 24 98 00 00 00 	mov    eax,DWORD PTR [esp+0x98]
  405ccb:	c7 00 00 80 ff ff    	mov    DWORD PTR [eax],0xffff8000
  405cd1:	8b 84 24 9c 00 00 00 	mov    eax,DWORD PTR [esp+0x9c]
  405cd8:	c7 44 24 08 08 00 00 	mov    DWORD PTR [esp+0x8],0x8
  405cdf:	00 
  405ce0:	c7 04 24 d8 a2 40 00 	mov    DWORD PTR [esp],0x40a2d8
  405ce7:	89 44 24 04          	mov    DWORD PTR [esp+0x4],eax
  405ceb:	e8 b0 14 00 00       	call   4071a0 <___nrv_alloc_D2A>
  405cf0:	83 c4 6c             	add    esp,0x6c
  405cf3:	5b                   	pop    ebx
  405cf4:	5e                   	pop    esi
  405cf5:	5f                   	pop    edi
  405cf6:	5d                   	pop    ebp
  405cf7:	c3                   	ret    
  405cf8:	8d 44 24 5c          	lea    eax,[esp+0x5c]
  405cfc:	89 44 24 04          	mov    DWORD PTR [esp+0x4],eax
  405d00:	89 1c 24             	mov    DWORD PTR [esp],ebx
  405d03:	e8 48 20 00 00       	call   407d50 <___b2d_D2A>
  405d08:	8b 44 24 20          	mov    eax,DWORD PTR [esp+0x20]
  405d0c:	8d 54 28 ff          	lea    edx,[eax+ebp*1-0x1]
  405d10:	89 54 24 48          	mov    DWORD PTR [esp+0x48],edx
  405d14:	89 d0                	mov    eax,edx
  405d16:	dd 5c 24 10          	fstp   QWORD PTR [esp+0x10]
  405d1a:	8b 4c 24 14          	mov    ecx,DWORD PTR [esp+0x14]
  405d1e:	c1 f8 1f             	sar    eax,0x1f
  405d21:	89 44 24 0c          	mov    DWORD PTR [esp+0xc],eax
  405d25:	31 d0                	xor    eax,edx
  405d27:	2b 44 24 0c          	sub    eax,DWORD PTR [esp+0xc]
  405d2b:	81 e1 ff ff 0f 00    	and    ecx,0xfffff
  405d31:	81 c9 00 00 f0 3f    	or     ecx,0x3ff00000
  405d37:	89 4c 24 14          	mov    DWORD PTR [esp+0x14],ecx
  405d3b:	2d 35 04 00 00       	sub    eax,0x435
  405d40:	dd 44 24 10          	fld    QWORD PTR [esp+0x10]
  405d44:	85 c0                	test   eax,eax
  405d46:	d8 25 fc a2 40 00    	fsub   DWORD PTR ds:0x40a2fc
  405d4c:	dc 0d 00 a3 40 00    	fmul   QWORD PTR ds:0x40a300
  405d52:	dc 05 08 a3 40 00    	fadd   QWORD PTR ds:0x40a308
  405d58:	db 44 24 48          	fild   DWORD PTR [esp+0x48]
  405d5c:	dc 0d 10 a3 40 00    	fmul   QWORD PTR ds:0x40a310
  405d62:	de c1                	faddp  st(1),st
  405d64:	7e 10                	jle    405d76 <___gdtoa+0x216>
  405d66:	89 44 24 48          	mov    DWORD PTR [esp+0x48],eax
  405d6a:	db 44 24 48          	fild   DWORD PTR [esp+0x48]
  405d6e:	dc 0d 18 a3 40 00    	fmul   QWORD PTR ds:0x40a318
  405d74:	de c1                	faddp  st(1),st
  405d76:	d9 7c 24 4e          	fnstcw WORD PTR [esp+0x4e]
  405d7a:	0f b7 44 24 4e       	movzx  eax,WORD PTR [esp+0x4e]
  405d7f:	b4 0c                	mov    ah,0xc
  405d81:	66 89 44 24 4c       	mov    WORD PTR [esp+0x4c],ax
  405d86:	d9 6c 24 4c          	fldcw  WORD PTR [esp+0x4c]
  405d8a:	db 54 24 0c          	fist   DWORD PTR [esp+0xc]
  405d8e:	d9 6c 24 4e          	fldcw  WORD PTR [esp+0x4e]
  405d92:	d9 ee                	fldz   
  405d94:	dd e9                	fucomp st(1)
  405d96:	df e0                	fnstsw ax
  405d98:	9e                   	sahf   
  405d99:	0f 87 76 07 00 00    	ja     406515 <___gdtoa+0x9b5>
  405d9f:	dd d8                	fstp   st(0)
  405da1:	89 d0                	mov    eax,edx
  405da3:	c1 e0 14             	shl    eax,0x14
  405da6:	01 c8                	add    eax,ecx
  405da8:	83 7c 24 0c 16       	cmp    DWORD PTR [esp+0xc],0x16
  405dad:	89 44 24 14          	mov    DWORD PTR [esp+0x14],eax
  405db1:	c7 44 24 34 01 00 00 	mov    DWORD PTR [esp+0x34],0x1
  405db8:	00 
  405db9:	77 29                	ja     405de4 <___gdtoa+0x284>
  405dbb:	8b 44 24 0c          	mov    eax,DWORD PTR [esp+0xc]
  405dbf:	dd 04 c5 60 a3 40 00 	fld    QWORD PTR [eax*8+0x40a360]
  405dc6:	dd 44 24 10          	fld    QWORD PTR [esp+0x10]
  405dca:	d9 c9                	fxch   st(1)
  405dcc:	da e9                	fucompp 
  405dce:	df e0                	fnstsw ax
  405dd0:	9e                   	sahf   
  405dd1:	0f 86 6d 06 00 00    	jbe    406444 <___gdtoa+0x8e4>
  405dd7:	83 6c 24 0c 01       	sub    DWORD PTR [esp+0xc],0x1
  405ddc:	c7 44 24 34 00 00 00 	mov    DWORD PTR [esp+0x34],0x0
  405de3:	00 
  405de4:	89 e8                	mov    eax,ebp
  405de6:	29 d0                	sub    eax,edx
  405de8:	83 e8 01             	sub    eax,0x1
  405deb:	c7 44 24 28 00 00 00 	mov    DWORD PTR [esp+0x28],0x0
  405df2:	00 
  405df3:	89 44 24 1c          	mov    DWORD PTR [esp+0x1c],eax
  405df7:	0f 88 05 07 00 00    	js     406502 <___gdtoa+0x9a2>
  405dfd:	8b 44 24 0c          	mov    eax,DWORD PTR [esp+0xc]
  405e01:	85 c0                	test   eax,eax
  405e03:	0f 88 de 06 00 00    	js     4064e7 <___gdtoa+0x987>
  405e09:	01 44 24 1c          	add    DWORD PTR [esp+0x1c],eax
  405e0d:	89 44 24 3c          	mov    DWORD PTR [esp+0x3c],eax
  405e11:	c7 44 24 30 00 00 00 	mov    DWORD PTR [esp+0x30],0x0
  405e18:	00 
  405e19:	83 bc 24 90 00 00 00 	cmp    DWORD PTR [esp+0x90],0x9
  405e20:	09 
  405e21:	0f 87 81 02 00 00    	ja     4060a8 <___gdtoa+0x548>
  405e27:	83 bc 24 90 00 00 00 	cmp    DWORD PTR [esp+0x90],0x5
  405e2e:	05 
  405e2f:	0f 8e c0 11 00 00    	jle    406ff5 <___gdtoa+0x1495>
  405e35:	83 ac 24 90 00 00 00 	sub    DWORD PTR [esp+0x90],0x4
  405e3c:	04 
  405e3d:	31 c0                	xor    eax,eax
  405e3f:	83 bc 24 90 00 00 00 	cmp    DWORD PTR [esp+0x90],0x3
  405e46:	03 
  405e47:	0f 84 11 06 00 00    	je     40645e <___gdtoa+0x8fe>
  405e4d:	0f 8e 18 06 00 00    	jle    40646b <___gdtoa+0x90b>
  405e53:	83 bc 24 90 00 00 00 	cmp    DWORD PTR [esp+0x90],0x4
  405e5a:	04 
  405e5b:	c7 44 24 40 01 00 00 	mov    DWORD PTR [esp+0x40],0x1
  405e62:	00 
  405e63:	0f 84 18 06 00 00    	je     406481 <___gdtoa+0x921>
  405e69:	83 bc 24 90 00 00 00 	cmp    DWORD PTR [esp+0x90],0x5
  405e70:	05 
  405e71:	0f 85 3c 02 00 00    	jne    4060b3 <___gdtoa+0x553>
  405e77:	8b 4c 24 0c          	mov    ecx,DWORD PTR [esp+0xc]
  405e7b:	03 8c 24 94 00 00 00 	add    ecx,DWORD PTR [esp+0x94]
  405e82:	89 4c 24 44          	mov    DWORD PTR [esp+0x44],ecx
  405e86:	83 c1 01             	add    ecx,0x1
  405e89:	85 c9                	test   ecx,ecx
  405e8b:	89 4c 24 18          	mov    DWORD PTR [esp+0x18],ecx
  405e8f:	0f 8e e3 0a 00 00    	jle    406978 <___gdtoa+0xe18>
  405e95:	83 f9 0e             	cmp    ecx,0xe
  405e98:	0f 96 c2             	setbe  dl
  405e9b:	21 c2                	and    edx,eax
  405e9d:	89 c8                	mov    eax,ecx
  405e9f:	89 4c 24 5c          	mov    DWORD PTR [esp+0x5c],ecx
  405ea3:	89 04 24             	mov    DWORD PTR [esp],eax
  405ea6:	89 54 24 38          	mov    DWORD PTR [esp+0x38],edx
  405eaa:	e8 b1 12 00 00       	call   407160 <___rv_alloc_D2A>
  405eaf:	8b 54 24 38          	mov    edx,DWORD PTR [esp+0x38]
  405eb3:	89 44 24 24          	mov    DWORD PTR [esp+0x24],eax
  405eb7:	8b 84 24 80 00 00 00 	mov    eax,DWORD PTR [esp+0x80]
  405ebe:	8b 40 0c             	mov    eax,DWORD PTR [eax+0xc]
  405ec1:	83 e8 01             	sub    eax,0x1
  405ec4:	89 44 24 2c          	mov    DWORD PTR [esp+0x2c],eax
  405ec8:	74 0f                	je     405ed9 <___gdtoa+0x379>
  405eca:	0f 88 81 05 00 00    	js     406451 <___gdtoa+0x8f1>
  405ed0:	83 e6 08             	and    esi,0x8
  405ed3:	0f 85 59 05 00 00    	jne    406432 <___gdtoa+0x8d2>
  405ed9:	84 d2                	test   dl,dl
  405edb:	90                   	nop
  405edc:	8d 74 26 00          	lea    esi,[esi+eiz*1+0x0]
  405ee0:	0f 84 70 02 00 00    	je     406156 <___gdtoa+0x5f6>
  405ee6:	8b 44 24 2c          	mov    eax,DWORD PTR [esp+0x2c]
  405eea:	0b 44 24 0c          	or     eax,DWORD PTR [esp+0xc]
  405eee:	0f 85 62 02 00 00    	jne    406156 <___gdtoa+0x5f6>
  405ef4:	8b 44 24 34          	mov    eax,DWORD PTR [esp+0x34]
  405ef8:	c7 44 24 5c 00 00 00 	mov    DWORD PTR [esp+0x5c],0x0
  405eff:	00 
  405f00:	dd 44 24 10          	fld    QWORD PTR [esp+0x10]
  405f04:	85 c0                	test   eax,eax
  405f06:	74 0d                	je     405f15 <___gdtoa+0x3b5>
  405f08:	d9 e8                	fld1   
  405f0a:	dd e9                	fucomp st(1)
  405f0c:	df e0                	fnstsw ax
  405f0e:	9e                   	sahf   
  405f0f:	0f 87 e7 0d 00 00    	ja     406cfc <___gdtoa+0x119c>
  405f15:	d9 c0                	fld    st(0)
  405f17:	8b 74 24 18          	mov    esi,DWORD PTR [esp+0x18]
  405f1b:	d8 c1                	fadd   st,st(1)
  405f1d:	d8 05 34 a3 40 00    	fadd   DWORD PTR ds:0x40a334
  405f23:	dd 5c 24 10          	fstp   QWORD PTR [esp+0x10]
  405f27:	81 6c 24 14 00 00 40 	sub    DWORD PTR [esp+0x14],0x3400000
  405f2e:	03 
  405f2f:	85 f6                	test   esi,esi
  405f31:	0f 84 e1 01 00 00    	je     406118 <___gdtoa+0x5b8>
  405f37:	8b 54 24 18          	mov    edx,DWORD PTR [esp+0x18]
  405f3b:	d9 c0                	fld    st(0)
  405f3d:	c7 44 24 38 00 00 00 	mov    DWORD PTR [esp+0x38],0x0
  405f44:	00 
  405f45:	8b 4c 24 40          	mov    ecx,DWORD PTR [esp+0x40]
  405f49:	85 c9                	test   ecx,ecx
  405f4b:	0f 84 58 0a 00 00    	je     4069a9 <___gdtoa+0xe49>
  405f51:	d9 05 3c a3 40 00    	fld    DWORD PTR ds:0x40a33c
  405f57:	dc 34 d5 58 a3 40 00 	fdiv   QWORD PTR [edx*8+0x40a358]
  405f5e:	d9 7c 24 4e          	fnstcw WORD PTR [esp+0x4e]
  405f62:	c7 44 24 5c 00 00 00 	mov    DWORD PTR [esp+0x5c],0x0
  405f69:	00 
  405f6a:	0f b7 44 24 4e       	movzx  eax,WORD PTR [esp+0x4e]
  405f6f:	b4 0c                	mov    ah,0xc
  405f71:	66 89 44 24 4c       	mov    WORD PTR [esp+0x4c],ax
  405f76:	8b 44 24 24          	mov    eax,DWORD PTR [esp+0x24]
  405f7a:	8d 70 01             	lea    esi,[eax+0x1]
  405f7d:	dc 64 24 10          	fsub   QWORD PTR [esp+0x10]
  405f81:	d9 c9                	fxch   st(1)
  405f83:	d9 6c 24 4c          	fldcw  WORD PTR [esp+0x4c]
  405f87:	db 54 24 48          	fist   DWORD PTR [esp+0x48]
  405f8b:	d9 6c 24 4e          	fldcw  WORD PTR [esp+0x4e]
  405f8f:	8b 4c 24 48          	mov    ecx,DWORD PTR [esp+0x48]
  405f93:	89 4c 24 48          	mov    DWORD PTR [esp+0x48],ecx
  405f97:	83 c1 30             	add    ecx,0x30
  405f9a:	db 44 24 48          	fild   DWORD PTR [esp+0x48]
  405f9e:	de e9                	fsubrp st(1),st
  405fa0:	d9 c9                	fxch   st(1)
  405fa2:	88 08                	mov    BYTE PTR [eax],cl
  405fa4:	dd e1                	fucom  st(1)
  405fa6:	df e0                	fnstsw ax
  405fa8:	9e                   	sahf   
  405fa9:	0f 87 9a 00 00 00    	ja     406049 <___gdtoa+0x4e9>
  405faf:	d9 c1                	fld    st(1)
  405fb1:	d8 2d 28 a3 40 00    	fsubr  DWORD PTR ds:0x40a328
  405fb7:	d9 c9                	fxch   st(1)
  405fb9:	dd e1                	fucom  st(1)
  405fbb:	df e0                	fnstsw ax
  405fbd:	dd d9                	fstp   st(1)
  405fbf:	9e                   	sahf   
  405fc0:	0f 87 f1 0a 00 00    	ja     406ab7 <___gdtoa+0xf57>
  405fc6:	8b 44 24 5c          	mov    eax,DWORD PTR [esp+0x5c]
  405fca:	83 c0 01             	add    eax,0x1
  405fcd:	39 c2                	cmp    edx,eax
  405fcf:	89 44 24 5c          	mov    DWORD PTR [esp+0x5c],eax
  405fd3:	0f 8e 69 01 00 00    	jle    406142 <___gdtoa+0x5e2>
  405fd9:	d9 05 2c a3 40 00    	fld    DWORD PTR ds:0x40a32c
  405fdf:	eb 2e                	jmp    40600f <___gdtoa+0x4af>
  405fe1:	d9 c1                	fld    st(1)
  405fe3:	d8 2d 28 a3 40 00    	fsubr  DWORD PTR ds:0x40a328
  405fe9:	d9 c9                	fxch   st(1)
  405feb:	dd e1                	fucom  st(1)
  405fed:	df e0                	fnstsw ax
  405fef:	dd d9                	fstp   st(1)
  405ff1:	9e                   	sahf   
  405ff2:	0f 87 c7 0a 00 00    	ja     406abf <___gdtoa+0xf5f>
  405ff8:	8b 44 24 5c          	mov    eax,DWORD PTR [esp+0x5c]
  405ffc:	83 c0 01             	add    eax,0x1
  405fff:	39 c2                	cmp    edx,eax
  406001:	89 44 24 5c          	mov    DWORD PTR [esp+0x5c],eax
  406005:	0f 8e 3d 01 00 00    	jle    406148 <___gdtoa+0x5e8>
  40600b:	d9 c9                	fxch   st(1)
  40600d:	d9 ca                	fxch   st(2)
  40600f:	dc c9                	fmul   st(1),st
  406011:	83 c6 01             	add    esi,0x1
  406014:	dc ca                	fmul   st(2),st
  406016:	d9 ca                	fxch   st(2)
  406018:	d9 6c 24 4c          	fldcw  WORD PTR [esp+0x4c]
  40601c:	db 54 24 48          	fist   DWORD PTR [esp+0x48]
  406020:	d9 6c 24 4e          	fldcw  WORD PTR [esp+0x4e]
  406024:	8b 44 24 48          	mov    eax,DWORD PTR [esp+0x48]
  406028:	89 44 24 48          	mov    DWORD PTR [esp+0x48],eax
  40602c:	8d 48 30             	lea    ecx,[eax+0x30]
  40602f:	db 44 24 48          	fild   DWORD PTR [esp+0x48]
  406033:	de e9                	fsubrp st(1),st
  406035:	d9 c9                	fxch   st(1)
  406037:	88 4e ff             	mov    BYTE PTR [esi-0x1],cl
  40603a:	dd e1                	fucom  st(1)
  40603c:	df e0                	fnstsw ax
  40603e:	9e                   	sahf   
  40603f:	76 a0                	jbe    405fe1 <___gdtoa+0x481>
  406041:	dd d8                	fstp   st(0)
  406043:	dd d9                	fstp   st(1)
  406045:	dd d9                	fstp   st(1)
  406047:	eb 04                	jmp    40604d <___gdtoa+0x4ed>
  406049:	dd d8                	fstp   st(0)
  40604b:	dd d9                	fstp   st(1)
  40604d:	d9 ee                	fldz   
  40604f:	d9 c9                	fxch   st(1)
  406051:	da e9                	fucompp 
  406053:	df e0                	fnstsw ax
  406055:	9e                   	sahf   
  406056:	8b 44 24 38          	mov    eax,DWORD PTR [esp+0x38]
  40605a:	7a 06                	jp     406062 <___gdtoa+0x502>
  40605c:	0f 84 ad 05 00 00    	je     40660f <___gdtoa+0xaaf>
  406062:	83 c0 01             	add    eax,0x1
  406065:	89 44 24 0c          	mov    DWORD PTR [esp+0xc],eax
  406069:	c7 44 24 18 10 00 00 	mov    DWORD PTR [esp+0x18],0x10
  406070:	00 
  406071:	e9 77 03 00 00       	jmp    4063ed <___gdtoa+0x88d>
  406076:	c7 43 10 00 00 00 00 	mov    DWORD PTR [ebx+0x10],0x0
  40607d:	31 ed                	xor    ebp,ebp
  40607f:	e9 a2 fb ff ff       	jmp    405c26 <___gdtoa+0xc6>
  406084:	89 44 24 04          	mov    DWORD PTR [esp+0x4],eax
  406088:	89 1c 24             	mov    DWORD PTR [esp],ebx
  40608b:	e8 70 0f 00 00       	call   407000 <___rshift_D2A>
  406090:	8b 44 24 5c          	mov    eax,DWORD PTR [esp+0x5c]
  406094:	8b 8c 24 84 00 00 00 	mov    ecx,DWORD PTR [esp+0x84]
  40609b:	29 c5                	sub    ebp,eax
  40609d:	01 c1                	add    ecx,eax
  40609f:	89 4c 24 20          	mov    DWORD PTR [esp+0x20],ecx
  4060a3:	e9 9d fb ff ff       	jmp    405c45 <___gdtoa+0xe5>
  4060a8:	c7 84 24 90 00 00 00 	mov    DWORD PTR [esp+0x90],0x0
  4060af:	00 00 00 00 
  4060b3:	89 7c 24 48          	mov    DWORD PTR [esp+0x48],edi
  4060b7:	31 d2                	xor    edx,edx
  4060b9:	db 44 24 48          	fild   DWORD PTR [esp+0x48]
  4060bd:	dc 0d 20 a3 40 00    	fmul   QWORD PTR ds:0x40a320
  4060c3:	c7 44 24 40 01 00 00 	mov    DWORD PTR [esp+0x40],0x1
  4060ca:	00 
  4060cb:	c7 44 24 44 ff ff ff 	mov    DWORD PTR [esp+0x44],0xffffffff
  4060d2:	ff 
  4060d3:	c7 44 24 18 ff ff ff 	mov    DWORD PTR [esp+0x18],0xffffffff
  4060da:	ff 
  4060db:	c7 84 24 94 00 00 00 	mov    DWORD PTR [esp+0x94],0x0
  4060e2:	00 00 00 00 
  4060e6:	d9 6c 24 4c          	fldcw  WORD PTR [esp+0x4c]
  4060ea:	db 5c 24 48          	fistp  DWORD PTR [esp+0x48]
  4060ee:	d9 6c 24 4e          	fldcw  WORD PTR [esp+0x4e]
  4060f2:	8b 44 24 48          	mov    eax,DWORD PTR [esp+0x48]
  4060f6:	83 c0 03             	add    eax,0x3
  4060f9:	89 44 24 5c          	mov    DWORD PTR [esp+0x5c],eax
  4060fd:	e9 a1 fd ff ff       	jmp    405ea3 <___gdtoa+0x343>
  406102:	d9 c0                	fld    st(0)
  406104:	d8 c1                	fadd   st,st(1)
  406106:	d8 05 34 a3 40 00    	fadd   DWORD PTR ds:0x40a334
  40610c:	dd 5c 24 10          	fstp   QWORD PTR [esp+0x10]
  406110:	81 6c 24 14 00 00 40 	sub    DWORD PTR [esp+0x14],0x3400000
  406117:	03 
  406118:	d9 c0                	fld    st(0)
  40611a:	d8 25 38 a3 40 00    	fsub   DWORD PTR ds:0x40a338
  406120:	dd 44 24 10          	fld    QWORD PTR [esp+0x10]
  406124:	d9 c9                	fxch   st(1)
  406126:	dd e1                	fucom  st(1)
  406128:	df e0                	fnstsw ax
  40612a:	9e                   	sahf   
  40612b:	0f 87 52 09 00 00    	ja     406a83 <___gdtoa+0xf23>
  406131:	d9 c9                	fxch   st(1)
  406133:	d9 e0                	fchs   
  406135:	da e9                	fucompp 
  406137:	df e0                	fnstsw ax
  406139:	9e                   	sahf   
  40613a:	0f 87 77 03 00 00    	ja     4064b7 <___gdtoa+0x957>
  406140:	eb 10                	jmp    406152 <___gdtoa+0x5f2>
  406142:	dd d8                	fstp   st(0)
  406144:	dd d8                	fstp   st(0)
  406146:	eb 0a                	jmp    406152 <___gdtoa+0x5f2>
  406148:	dd d8                	fstp   st(0)
  40614a:	dd d8                	fstp   st(0)
  40614c:	dd d8                	fstp   st(0)
  40614e:	eb 02                	jmp    406152 <___gdtoa+0x5f2>
  406150:	dd d8                	fstp   st(0)
  406152:	dd 5c 24 10          	fstp   QWORD PTR [esp+0x10]
  406156:	83 7c 24 0c 0e       	cmp    DWORD PTR [esp+0xc],0xe
  40615b:	0f 8e df 01 00 00    	jle    406340 <___gdtoa+0x7e0>
  406161:	8b 44 24 40          	mov    eax,DWORD PTR [esp+0x40]
  406165:	85 c0                	test   eax,eax
  406167:	0f 84 c3 03 00 00    	je     406530 <___gdtoa+0x9d0>
  40616d:	83 bc 24 90 00 00 00 	cmp    DWORD PTR [esp+0x90],0x1
  406174:	01 
  406175:	0f 8e 93 09 00 00    	jle    406b0e <___gdtoa+0xfae>
  40617b:	8b 44 24 18          	mov    eax,DWORD PTR [esp+0x18]
  40617f:	83 e8 01             	sub    eax,0x1
  406182:	39 44 24 30          	cmp    DWORD PTR [esp+0x30],eax
  406186:	0f 8c 08 08 00 00    	jl     406994 <___gdtoa+0xe34>
  40618c:	8b 7c 24 30          	mov    edi,DWORD PTR [esp+0x30]
  406190:	29 c7                	sub    edi,eax
  406192:	8b 44 24 18          	mov    eax,DWORD PTR [esp+0x18]
  406196:	85 c0                	test   eax,eax
  406198:	0f 88 15 0a 00 00    	js     406bb3 <___gdtoa+0x1053>
  40619e:	8b 74 24 28          	mov    esi,DWORD PTR [esp+0x28]
  4061a2:	89 44 24 5c          	mov    DWORD PTR [esp+0x5c],eax
  4061a6:	c7 04 24 01 00 00 00 	mov    DWORD PTR [esp],0x1
  4061ad:	01 44 24 28          	add    DWORD PTR [esp+0x28],eax
  4061b1:	01 44 24 1c          	add    DWORD PTR [esp+0x1c],eax
  4061b5:	e8 96 15 00 00       	call   407750 <___i2b_D2A>
  4061ba:	89 44 24 20          	mov    DWORD PTR [esp+0x20],eax
  4061be:	8b 44 24 1c          	mov    eax,DWORD PTR [esp+0x1c]
  4061c2:	85 c0                	test   eax,eax
  4061c4:	7e 1e                	jle    4061e4 <___gdtoa+0x684>
  4061c6:	85 f6                	test   esi,esi
  4061c8:	7e 1a                	jle    4061e4 <___gdtoa+0x684>
  4061ca:	8b 4c 24 1c          	mov    ecx,DWORD PTR [esp+0x1c]
  4061ce:	39 f1                	cmp    ecx,esi
  4061d0:	89 c8                	mov    eax,ecx
  4061d2:	7e 02                	jle    4061d6 <___gdtoa+0x676>
  4061d4:	89 f0                	mov    eax,esi
  4061d6:	29 44 24 28          	sub    DWORD PTR [esp+0x28],eax
  4061da:	29 c6                	sub    esi,eax
  4061dc:	29 44 24 1c          	sub    DWORD PTR [esp+0x1c],eax
  4061e0:	89 44 24 5c          	mov    DWORD PTR [esp+0x5c],eax
  4061e4:	8b 4c 24 30          	mov    ecx,DWORD PTR [esp+0x30]
  4061e8:	85 c9                	test   ecx,ecx
  4061ea:	7e 4e                	jle    40623a <___gdtoa+0x6da>
  4061ec:	8b 54 24 40          	mov    edx,DWORD PTR [esp+0x40]
  4061f0:	85 d2                	test   edx,edx
  4061f2:	0f 84 dd 05 00 00    	je     4067d5 <___gdtoa+0xc75>
  4061f8:	85 ff                	test   edi,edi
  4061fa:	7e 32                	jle    40622e <___gdtoa+0x6ce>
  4061fc:	8b 44 24 20          	mov    eax,DWORD PTR [esp+0x20]
  406200:	89 7c 24 04          	mov    DWORD PTR [esp+0x4],edi
  406204:	89 04 24             	mov    DWORD PTR [esp],eax
  406207:	e8 d4 16 00 00       	call   4078e0 <___pow5mult_D2A>
  40620c:	89 5c 24 04          	mov    DWORD PTR [esp+0x4],ebx
  406210:	89 04 24             	mov    DWORD PTR [esp],eax
  406213:	89 44 24 20          	mov    DWORD PTR [esp+0x20],eax
  406217:	e8 64 15 00 00       	call   407780 <___mult_D2A>
  40621c:	89 1c 24             	mov    DWORD PTR [esp],ebx
  40621f:	89 44 24 10          	mov    DWORD PTR [esp+0x10],eax
  406223:	e8 d8 13 00 00       	call   407600 <___Bfree_D2A>
  406228:	8b 44 24 10          	mov    eax,DWORD PTR [esp+0x10]
  40622c:	89 c3                	mov    ebx,eax
  40622e:	8b 44 24 30          	mov    eax,DWORD PTR [esp+0x30]
  406232:	29 f8                	sub    eax,edi
  406234:	0f 85 9f 05 00 00    	jne    4067d9 <___gdtoa+0xc79>
  40623a:	c7 04 24 01 00 00 00 	mov    DWORD PTR [esp],0x1
  406241:	e8 0a 15 00 00       	call   407750 <___i2b_D2A>
  406246:	89 c7                	mov    edi,eax
  406248:	8b 44 24 3c          	mov    eax,DWORD PTR [esp+0x3c]
  40624c:	85 c0                	test   eax,eax
  40624e:	7e 0e                	jle    40625e <___gdtoa+0x6fe>
  406250:	89 3c 24             	mov    DWORD PTR [esp],edi
  406253:	89 44 24 04          	mov    DWORD PTR [esp+0x4],eax
  406257:	e8 84 16 00 00       	call   4078e0 <___pow5mult_D2A>
  40625c:	89 c7                	mov    edi,eax
  40625e:	83 bc 24 90 00 00 00 	cmp    DWORD PTR [esp+0x90],0x1
  406265:	01 
  406266:	c7 44 24 10 00 00 00 	mov    DWORD PTR [esp+0x10],0x0
  40626d:	00 
  40626e:	0f 8e 8f 06 00 00    	jle    406903 <___gdtoa+0xda3>
  406274:	8b 44 24 3c          	mov    eax,DWORD PTR [esp+0x3c]
  406278:	bd 1f 00 00 00       	mov    ebp,0x1f
  40627d:	85 c0                	test   eax,eax
  40627f:	74 0b                	je     40628c <___gdtoa+0x72c>
  406281:	8b 47 10             	mov    eax,DWORD PTR [edi+0x10]
  406284:	0f bd 6c 87 10       	bsr    ebp,DWORD PTR [edi+eax*4+0x10]
  406289:	83 f5 1f             	xor    ebp,0x1f
  40628c:	2b 6c 24 1c          	sub    ebp,DWORD PTR [esp+0x1c]
  406290:	8b 54 24 28          	mov    edx,DWORD PTR [esp+0x28]
  406294:	83 ed 04             	sub    ebp,0x4
  406297:	83 e5 1f             	and    ebp,0x1f
  40629a:	01 ea                	add    edx,ebp
  40629c:	89 e8                	mov    eax,ebp
  40629e:	85 d2                	test   edx,edx
  4062a0:	89 6c 24 5c          	mov    DWORD PTR [esp+0x5c],ebp
  4062a4:	7e 12                	jle    4062b8 <___gdtoa+0x758>
  4062a6:	89 1c 24             	mov    DWORD PTR [esp],ebx
  4062a9:	89 54 24 04          	mov    DWORD PTR [esp+0x4],edx
  4062ad:	e8 be 17 00 00       	call   407a70 <___lshift_D2A>
  4062b2:	89 c3                	mov    ebx,eax
  4062b4:	8b 44 24 5c          	mov    eax,DWORD PTR [esp+0x5c]
  4062b8:	03 44 24 1c          	add    eax,DWORD PTR [esp+0x1c]
  4062bc:	85 c0                	test   eax,eax
  4062be:	7e 0e                	jle    4062ce <___gdtoa+0x76e>
  4062c0:	89 3c 24             	mov    DWORD PTR [esp],edi
  4062c3:	89 44 24 04          	mov    DWORD PTR [esp+0x4],eax
  4062c7:	e8 a4 17 00 00       	call   407a70 <___lshift_D2A>
  4062cc:	89 c7                	mov    edi,eax
  4062ce:	8b 44 24 34          	mov    eax,DWORD PTR [esp+0x34]
  4062d2:	85 c0                	test   eax,eax
  4062d4:	0f 85 12 05 00 00    	jne    4067ec <___gdtoa+0xc8c>
  4062da:	83 bc 24 90 00 00 00 	cmp    DWORD PTR [esp+0x90],0x2
  4062e1:	02 
  4062e2:	0f 8e 3b 03 00 00    	jle    406623 <___gdtoa+0xac3>
  4062e8:	8b 44 24 18          	mov    eax,DWORD PTR [esp+0x18]
  4062ec:	85 c0                	test   eax,eax
  4062ee:	0f 8f 2f 03 00 00    	jg     406623 <___gdtoa+0xac3>
  4062f4:	8b 44 24 18          	mov    eax,DWORD PTR [esp+0x18]
  4062f8:	85 c0                	test   eax,eax
  4062fa:	0f 85 c7 01 00 00    	jne    4064c7 <___gdtoa+0x967>
  406300:	89 3c 24             	mov    DWORD PTR [esp],edi
  406303:	c7 44 24 08 00 00 00 	mov    DWORD PTR [esp+0x8],0x0
  40630a:	00 
  40630b:	c7 44 24 04 05 00 00 	mov    DWORD PTR [esp+0x4],0x5
  406312:	00 
  406313:	e8 58 13 00 00       	call   407670 <___multadd_D2A>
  406318:	89 1c 24             	mov    DWORD PTR [esp],ebx
  40631b:	89 44 24 04          	mov    DWORD PTR [esp+0x4],eax
  40631f:	89 c7                	mov    edi,eax
  406321:	e8 5a 18 00 00       	call   407b80 <___cmp_D2A>
  406326:	85 c0                	test   eax,eax
  406328:	0f 8e 99 01 00 00    	jle    4064c7 <___gdtoa+0x967>
  40632e:	8b 44 24 0c          	mov    eax,DWORD PTR [esp+0xc]
  406332:	83 c0 02             	add    eax,0x2
  406335:	89 44 24 0c          	mov    DWORD PTR [esp+0xc],eax
  406339:	eb 72                	jmp    4063ad <___gdtoa+0x84d>
  40633b:	90                   	nop
  40633c:	8d 74 26 00          	lea    esi,[esi+eiz*1+0x0]
  406340:	8b 44 24 20          	mov    eax,DWORD PTR [esp+0x20]
  406344:	85 c0                	test   eax,eax
  406346:	0f 88 15 fe ff ff    	js     406161 <___gdtoa+0x601>
  40634c:	8b 44 24 0c          	mov    eax,DWORD PTR [esp+0xc]
  406350:	dd 04 c5 60 a3 40 00 	fld    QWORD PTR [eax*8+0x40a360]
  406357:	8b 44 24 18          	mov    eax,DWORD PTR [esp+0x18]
  40635b:	85 c0                	test   eax,eax
  40635d:	0f 8f e2 01 00 00    	jg     406545 <___gdtoa+0x9e5>
  406363:	8b 84 24 94 00 00 00 	mov    eax,DWORD PTR [esp+0x94]
  40636a:	c1 e8 1f             	shr    eax,0x1f
  40636d:	84 c0                	test   al,al
  40636f:	0f 84 d0 01 00 00    	je     406545 <___gdtoa+0x9e5>
  406375:	8b 44 24 18          	mov    eax,DWORD PTR [esp+0x18]
  406379:	85 c0                	test   eax,eax
  40637b:	0f 85 3a 01 00 00    	jne    4064bb <___gdtoa+0x95b>
  406381:	d8 0d 38 a3 40 00    	fmul   DWORD PTR ds:0x40a338
  406387:	dd 44 24 10          	fld    QWORD PTR [esp+0x10]
  40638b:	d9 c9                	fxch   st(1)
  40638d:	da e9                	fucompp 
  40638f:	df e0                	fnstsw ax
  406391:	9e                   	sahf   
  406392:	0f 83 25 01 00 00    	jae    4064bd <___gdtoa+0x95d>
  406398:	8b 44 24 0c          	mov    eax,DWORD PTR [esp+0xc]
  40639c:	31 ff                	xor    edi,edi
  40639e:	c7 44 24 20 00 00 00 	mov    DWORD PTR [esp+0x20],0x0
  4063a5:	00 
  4063a6:	83 c0 02             	add    eax,0x2
  4063a9:	89 44 24 0c          	mov    DWORD PTR [esp+0xc],eax
  4063ad:	8b 44 24 24          	mov    eax,DWORD PTR [esp+0x24]
  4063b1:	31 d2                	xor    edx,edx
  4063b3:	c7 44 24 18 20 00 00 	mov    DWORD PTR [esp+0x18],0x20
  4063ba:	00 
  4063bb:	8d 70 01             	lea    esi,[eax+0x1]
  4063be:	c6 00 31             	mov    BYTE PTR [eax],0x31
  4063c1:	89 3c 24             	mov    DWORD PTR [esp],edi
  4063c4:	89 54 24 10          	mov    DWORD PTR [esp+0x10],edx
  4063c8:	e8 33 12 00 00       	call   407600 <___Bfree_D2A>
  4063cd:	8b 44 24 20          	mov    eax,DWORD PTR [esp+0x20]
  4063d1:	85 c0                	test   eax,eax
  4063d3:	74 18                	je     4063ed <___gdtoa+0x88d>
  4063d5:	8b 54 24 10          	mov    edx,DWORD PTR [esp+0x10]
  4063d9:	39 c2                	cmp    edx,eax
  4063db:	0f 85 dd 03 00 00    	jne    4067be <___gdtoa+0xc5e>
  4063e1:	8b 44 24 20          	mov    eax,DWORD PTR [esp+0x20]
  4063e5:	89 04 24             	mov    DWORD PTR [esp],eax
  4063e8:	e8 13 12 00 00       	call   407600 <___Bfree_D2A>
  4063ed:	89 1c 24             	mov    DWORD PTR [esp],ebx
  4063f0:	e8 0b 12 00 00       	call   407600 <___Bfree_D2A>
  4063f5:	8b 84 24 98 00 00 00 	mov    eax,DWORD PTR [esp+0x98]
  4063fc:	8b 7c 24 0c          	mov    edi,DWORD PTR [esp+0xc]
  406400:	c6 06 00             	mov    BYTE PTR [esi],0x0
  406403:	89 38                	mov    DWORD PTR [eax],edi
  406405:	8b 84 24 9c 00 00 00 	mov    eax,DWORD PTR [esp+0x9c]
  40640c:	85 c0                	test   eax,eax
  40640e:	74 09                	je     406419 <___gdtoa+0x8b9>
  406410:	8b 84 24 9c 00 00 00 	mov    eax,DWORD PTR [esp+0x9c]
  406417:	89 30                	mov    DWORD PTR [eax],esi
  406419:	8b 84 24 8c 00 00 00 	mov    eax,DWORD PTR [esp+0x8c]
  406420:	8b 7c 24 18          	mov    edi,DWORD PTR [esp+0x18]
  406424:	09 38                	or     DWORD PTR [eax],edi
  406426:	8b 44 24 24          	mov    eax,DWORD PTR [esp+0x24]
  40642a:	83 c4 6c             	add    esp,0x6c
  40642d:	5b                   	pop    ebx
  40642e:	5e                   	pop    esi
  40642f:	5f                   	pop    edi
  406430:	5d                   	pop    ebp
  406431:	c3                   	ret    
  406432:	b8 03 00 00 00       	mov    eax,0x3
  406437:	2b 44 24 2c          	sub    eax,DWORD PTR [esp+0x2c]
  40643b:	89 44 24 2c          	mov    DWORD PTR [esp+0x2c],eax
  40643f:	e9 95 fa ff ff       	jmp    405ed9 <___gdtoa+0x379>
  406444:	c7 44 24 34 00 00 00 	mov    DWORD PTR [esp+0x34],0x0
  40644b:	00 
  40644c:	e9 93 f9 ff ff       	jmp    405de4 <___gdtoa+0x284>
  406451:	c7 44 24 2c 02 00 00 	mov    DWORD PTR [esp+0x2c],0x2
  406458:	00 
  406459:	e9 72 fa ff ff       	jmp    405ed0 <___gdtoa+0x370>
  40645e:	c7 44 24 40 00 00 00 	mov    DWORD PTR [esp+0x40],0x0
  406465:	00 
  406466:	e9 0c fa ff ff       	jmp    405e77 <___gdtoa+0x317>
  40646b:	83 bc 24 90 00 00 00 	cmp    DWORD PTR [esp+0x90],0x2
  406472:	02 
  406473:	c7 44 24 40 00 00 00 	mov    DWORD PTR [esp+0x40],0x0
  40647a:	00 
  40647b:	0f 85 32 fc ff ff    	jne    4060b3 <___gdtoa+0x553>
  406481:	8b 94 24 94 00 00 00 	mov    edx,DWORD PTR [esp+0x94]
  406488:	85 d2                	test   edx,edx
  40648a:	0f 8e d3 04 00 00    	jle    406963 <___gdtoa+0xe03>
  406490:	83 bc 24 94 00 00 00 	cmp    DWORD PTR [esp+0x94],0xe
  406497:	0e 
  406498:	0f 96 c2             	setbe  dl
  40649b:	8b 8c 24 94 00 00 00 	mov    ecx,DWORD PTR [esp+0x94]
  4064a2:	21 c2                	and    edx,eax
  4064a4:	89 4c 24 5c          	mov    DWORD PTR [esp+0x5c],ecx
  4064a8:	89 c8                	mov    eax,ecx
  4064aa:	89 4c 24 44          	mov    DWORD PTR [esp+0x44],ecx
  4064ae:	89 4c 24 18          	mov    DWORD PTR [esp+0x18],ecx
  4064b2:	e9 ec f9 ff ff       	jmp    405ea3 <___gdtoa+0x343>
  4064b7:	dd d8                	fstp   st(0)
  4064b9:	eb 02                	jmp    4064bd <___gdtoa+0x95d>
  4064bb:	dd d8                	fstp   st(0)
  4064bd:	31 ff                	xor    edi,edi
  4064bf:	c7 44 24 20 00 00 00 	mov    DWORD PTR [esp+0x20],0x0
  4064c6:	00 
  4064c7:	8b 84 24 94 00 00 00 	mov    eax,DWORD PTR [esp+0x94]
  4064ce:	31 d2                	xor    edx,edx
  4064d0:	8b 74 24 24          	mov    esi,DWORD PTR [esp+0x24]
  4064d4:	c7 44 24 18 10 00 00 	mov    DWORD PTR [esp+0x18],0x10
  4064db:	00 
  4064dc:	f7 d8                	neg    eax
  4064de:	89 44 24 0c          	mov    DWORD PTR [esp+0xc],eax
  4064e2:	e9 da fe ff ff       	jmp    4063c1 <___gdtoa+0x861>
  4064e7:	8b 44 24 0c          	mov    eax,DWORD PTR [esp+0xc]
  4064eb:	29 44 24 28          	sub    DWORD PTR [esp+0x28],eax
  4064ef:	c7 44 24 3c 00 00 00 	mov    DWORD PTR [esp+0x3c],0x0
  4064f6:	00 
  4064f7:	f7 d8                	neg    eax
  4064f9:	89 44 24 30          	mov    DWORD PTR [esp+0x30],eax
  4064fd:	e9 17 f9 ff ff       	jmp    405e19 <___gdtoa+0x2b9>
  406502:	f7 d8                	neg    eax
  406504:	89 44 24 28          	mov    DWORD PTR [esp+0x28],eax
  406508:	c7 44 24 1c 00 00 00 	mov    DWORD PTR [esp+0x1c],0x0
  40650f:	00 
  406510:	e9 e8 f8 ff ff       	jmp    405dfd <___gdtoa+0x29d>
  406515:	db 44 24 0c          	fild   DWORD PTR [esp+0xc]
  406519:	da e9                	fucompp 
  40651b:	df e0                	fnstsw ax
  40651d:	9e                   	sahf   
  40651e:	7a 06                	jp     406526 <___gdtoa+0x9c6>
  406520:	0f 84 7b f8 ff ff    	je     405da1 <___gdtoa+0x241>
  406526:	83 6c 24 0c 01       	sub    DWORD PTR [esp+0xc],0x1
  40652b:	e9 71 f8 ff ff       	jmp    405da1 <___gdtoa+0x241>
  406530:	8b 7c 24 30          	mov    edi,DWORD PTR [esp+0x30]
  406534:	8b 74 24 28          	mov    esi,DWORD PTR [esp+0x28]
  406538:	c7 44 24 20 00 00 00 	mov    DWORD PTR [esp+0x20],0x0
  40653f:	00 
  406540:	e9 79 fc ff ff       	jmp    4061be <___gdtoa+0x65e>
  406545:	dd 44 24 10          	fld    QWORD PTR [esp+0x10]
  406549:	d9 c0                	fld    st(0)
  40654b:	8b 7c 24 24          	mov    edi,DWORD PTR [esp+0x24]
  40654f:	d8 f2                	fdiv   st,st(2)
  406551:	d9 7c 24 4e          	fnstcw WORD PTR [esp+0x4e]
  406555:	c7 44 24 5c 01 00 00 	mov    DWORD PTR [esp+0x5c],0x1
  40655c:	00 
  40655d:	8d 77 01             	lea    esi,[edi+0x1]
  406560:	0f b7 44 24 4e       	movzx  eax,WORD PTR [esp+0x4e]
  406565:	b4 0c                	mov    ah,0xc
  406567:	66 89 44 24 4c       	mov    WORD PTR [esp+0x4c],ax
  40656c:	d9 6c 24 4c          	fldcw  WORD PTR [esp+0x4c]
  406570:	db 5c 24 48          	fistp  DWORD PTR [esp+0x48]
  406574:	d9 6c 24 4e          	fldcw  WORD PTR [esp+0x4e]
  406578:	8b 4c 24 48          	mov    ecx,DWORD PTR [esp+0x48]
  40657c:	89 4c 24 48          	mov    DWORD PTR [esp+0x48],ecx
  406580:	8d 41 30             	lea    eax,[ecx+0x30]
  406583:	db 44 24 48          	fild   DWORD PTR [esp+0x48]
  406587:	d8 ca                	fmul   st,st(2)
  406589:	88 07                	mov    BYTE PTR [edi],al
  40658b:	de e9                	fsubrp st(1),st
  40658d:	d9 ee                	fldz   
  40658f:	d9 c9                	fxch   st(1)
  406591:	dd e1                	fucom  st(1)
  406593:	df e0                	fnstsw ax
  406595:	dd d9                	fstp   st(1)
  406597:	9e                   	sahf   
  406598:	0f 8b 52 09 00 00    	jnp    406ef0 <___gdtoa+0x1390>
  40659e:	8b 44 24 5c          	mov    eax,DWORD PTR [esp+0x5c]
  4065a2:	39 44 24 18          	cmp    DWORD PTR [esp+0x18],eax
  4065a6:	0f 84 93 03 00 00    	je     40693f <___gdtoa+0xddf>
  4065ac:	d9 05 2c a3 40 00    	fld    DWORD PTR ds:0x40a32c
  4065b2:	8b 54 24 18          	mov    edx,DWORD PTR [esp+0x18]
  4065b6:	eb 0c                	jmp    4065c4 <___gdtoa+0xa64>
  4065b8:	8b 44 24 5c          	mov    eax,DWORD PTR [esp+0x5c]
  4065bc:	39 c2                	cmp    edx,eax
  4065be:	0f 84 79 03 00 00    	je     40693d <___gdtoa+0xddd>
  4065c4:	83 c0 01             	add    eax,0x1
  4065c7:	dc c9                	fmul   st(1),st
  4065c9:	83 c6 01             	add    esi,0x1
  4065cc:	89 44 24 5c          	mov    DWORD PTR [esp+0x5c],eax
  4065d0:	d9 c1                	fld    st(1)
  4065d2:	d8 f3                	fdiv   st,st(3)
  4065d4:	d9 6c 24 4c          	fldcw  WORD PTR [esp+0x4c]
  4065d8:	db 5c 24 48          	fistp  DWORD PTR [esp+0x48]
  4065dc:	d9 6c 24 4e          	fldcw  WORD PTR [esp+0x4e]
  4065e0:	8b 4c 24 48          	mov    ecx,DWORD PTR [esp+0x48]
  4065e4:	89 4c 24 48          	mov    DWORD PTR [esp+0x48],ecx
  4065e8:	8d 41 30             	lea    eax,[ecx+0x30]
  4065eb:	db 44 24 48          	fild   DWORD PTR [esp+0x48]
  4065ef:	d8 cb                	fmul   st,st(3)
  4065f1:	88 46 ff             	mov    BYTE PTR [esi-0x1],al
  4065f4:	de ea                	fsubrp st(2),st
  4065f6:	d9 ee                	fldz   
  4065f8:	d9 ca                	fxch   st(2)
  4065fa:	dd e2                	fucom  st(2)
  4065fc:	df e0                	fnstsw ax
  4065fe:	dd da                	fstp   st(2)
  406600:	9e                   	sahf   
  406601:	7a b5                	jp     4065b8 <___gdtoa+0xa58>
  406603:	75 b3                	jne    4065b8 <___gdtoa+0xa58>
  406605:	dd d8                	fstp   st(0)
  406607:	dd d8                	fstp   st(0)
  406609:	dd d8                	fstp   st(0)
  40660b:	8b 44 24 0c          	mov    eax,DWORD PTR [esp+0xc]
  40660f:	83 c0 01             	add    eax,0x1
  406612:	89 44 24 0c          	mov    DWORD PTR [esp+0xc],eax
  406616:	c7 44 24 18 00 00 00 	mov    DWORD PTR [esp+0x18],0x0
  40661d:	00 
  40661e:	e9 ca fd ff ff       	jmp    4063ed <___gdtoa+0x88d>
  406623:	8b 44 24 40          	mov    eax,DWORD PTR [esp+0x40]
  406627:	85 c0                	test   eax,eax
  406629:	0f 84 19 02 00 00    	je     406848 <___gdtoa+0xce8>
  40662f:	8d 04 2e             	lea    eax,[esi+ebp*1]
  406632:	85 c0                	test   eax,eax
  406634:	7e 14                	jle    40664a <___gdtoa+0xaea>
  406636:	89 44 24 04          	mov    DWORD PTR [esp+0x4],eax
  40663a:	8b 44 24 20          	mov    eax,DWORD PTR [esp+0x20]
  40663e:	89 04 24             	mov    DWORD PTR [esp],eax
  406641:	e8 2a 14 00 00       	call   407a70 <___lshift_D2A>
  406646:	89 44 24 20          	mov    DWORD PTR [esp+0x20],eax
  40664a:	8b 74 24 10          	mov    esi,DWORD PTR [esp+0x10]
  40664e:	8b 6c 24 20          	mov    ebp,DWORD PTR [esp+0x20]
  406652:	85 f6                	test   esi,esi
  406654:	0f 85 e9 06 00 00    	jne    406d43 <___gdtoa+0x11e3>
  40665a:	8b 74 24 24          	mov    esi,DWORD PTR [esp+0x24]
  40665e:	89 7c 24 1c          	mov    DWORD PTR [esp+0x1c],edi
  406662:	8b 7c 24 20          	mov    edi,DWORD PTR [esp+0x20]
  406666:	c7 44 24 5c 01 00 00 	mov    DWORD PTR [esp+0x5c],0x1
  40666d:	00 
  40666e:	89 74 24 28          	mov    DWORD PTR [esp+0x28],esi
  406672:	e9 d6 00 00 00       	jmp    40674d <___gdtoa+0xbed>
  406677:	89 14 24             	mov    DWORD PTR [esp],edx
  40667a:	89 44 24 20          	mov    DWORD PTR [esp+0x20],eax
  40667e:	e8 7d 0f 00 00       	call   407600 <___Bfree_D2A>
  406683:	8b 44 24 20          	mov    eax,DWORD PTR [esp+0x20]
  406687:	89 c1                	mov    ecx,eax
  406689:	0b 8c 24 90 00 00 00 	or     ecx,DWORD PTR [esp+0x90]
  406690:	75 18                	jne    4066aa <___gdtoa+0xb4a>
  406692:	8b 8c 24 88 00 00 00 	mov    ecx,DWORD PTR [esp+0x88]
  406699:	f6 01 01             	test   BYTE PTR [ecx],0x1
  40669c:	75 0c                	jne    4066aa <___gdtoa+0xb4a>
  40669e:	8b 54 24 2c          	mov    edx,DWORD PTR [esp+0x2c]
  4066a2:	85 d2                	test   edx,edx
  4066a4:	0f 84 55 08 00 00    	je     406eff <___gdtoa+0x139f>
  4066aa:	85 f6                	test   esi,esi
  4066ac:	0f 88 18 05 00 00    	js     406bca <___gdtoa+0x106a>
  4066b2:	0b b4 24 90 00 00 00 	or     esi,DWORD PTR [esp+0x90]
  4066b9:	75 10                	jne    4066cb <___gdtoa+0xb6b>
  4066bb:	8b b4 24 88 00 00 00 	mov    esi,DWORD PTR [esp+0x88]
  4066c2:	f6 06 01             	test   BYTE PTR [esi],0x1
  4066c5:	0f 84 ff 04 00 00    	je     406bca <___gdtoa+0x106a>
  4066cb:	85 c0                	test   eax,eax
  4066cd:	0f 8f c9 06 00 00    	jg     406d9c <___gdtoa+0x123c>
  4066d3:	83 44 24 28 01       	add    DWORD PTR [esp+0x28],0x1
  4066d8:	0f b6 44 24 10       	movzx  eax,BYTE PTR [esp+0x10]
  4066dd:	8b 74 24 28          	mov    esi,DWORD PTR [esp+0x28]
  4066e1:	88 46 ff             	mov    BYTE PTR [esi-0x1],al
  4066e4:	8b 44 24 18          	mov    eax,DWORD PTR [esp+0x18]
  4066e8:	39 44 24 5c          	cmp    DWORD PTR [esp+0x5c],eax
  4066ec:	0f 84 97 06 00 00    	je     406d89 <___gdtoa+0x1229>
  4066f2:	89 1c 24             	mov    DWORD PTR [esp],ebx
  4066f5:	c7 44 24 08 00 00 00 	mov    DWORD PTR [esp+0x8],0x0
  4066fc:	00 
  4066fd:	c7 44 24 04 0a 00 00 	mov    DWORD PTR [esp+0x4],0xa
  406704:	00 
  406705:	e8 66 0f 00 00       	call   407670 <___multadd_D2A>
  40670a:	39 ef                	cmp    edi,ebp
  40670c:	c7 44 24 08 00 00 00 	mov    DWORD PTR [esp+0x8],0x0
  406713:	00 
  406714:	c7 44 24 04 0a 00 00 	mov    DWORD PTR [esp+0x4],0xa
  40671b:	00 
  40671c:	89 3c 24             	mov    DWORD PTR [esp],edi
  40671f:	89 c3                	mov    ebx,eax
  406721:	0f 84 8c 00 00 00    	je     4067b3 <___gdtoa+0xc53>
  406727:	e8 44 0f 00 00       	call   407670 <___multadd_D2A>
  40672c:	89 2c 24             	mov    DWORD PTR [esp],ebp
  40672f:	c7 44 24 08 00 00 00 	mov    DWORD PTR [esp+0x8],0x0
  406736:	00 
  406737:	c7 44 24 04 0a 00 00 	mov    DWORD PTR [esp+0x4],0xa
  40673e:	00 
  40673f:	89 c7                	mov    edi,eax
  406741:	e8 2a 0f 00 00       	call   407670 <___multadd_D2A>
  406746:	89 c5                	mov    ebp,eax
  406748:	83 44 24 5c 01       	add    DWORD PTR [esp+0x5c],0x1
  40674d:	8b 44 24 1c          	mov    eax,DWORD PTR [esp+0x1c]
  406751:	89 1c 24             	mov    DWORD PTR [esp],ebx
  406754:	89 44 24 04          	mov    DWORD PTR [esp+0x4],eax
  406758:	e8 b3 0a 00 00       	call   407210 <___quorem_D2A>
  40675d:	89 7c 24 04          	mov    DWORD PTR [esp+0x4],edi
  406761:	89 1c 24             	mov    DWORD PTR [esp],ebx
  406764:	89 c6                	mov    esi,eax
  406766:	83 c6 30             	add    esi,0x30
  406769:	89 74 24 10          	mov    DWORD PTR [esp+0x10],esi
  40676d:	89 44 24 30          	mov    DWORD PTR [esp+0x30],eax
  406771:	e8 0a 14 00 00       	call   407b80 <___cmp_D2A>
  406776:	89 6c 24 04          	mov    DWORD PTR [esp+0x4],ebp
  40677a:	89 c6                	mov    esi,eax
  40677c:	8b 44 24 1c          	mov    eax,DWORD PTR [esp+0x1c]
  406780:	89 04 24             	mov    DWORD PTR [esp],eax
  406783:	e8 48 14 00 00       	call   407bd0 <___diff_D2A>
  406788:	89 c2                	mov    edx,eax
  40678a:	b8 01 00 00 00       	mov    eax,0x1
  40678f:	8b 4a 0c             	mov    ecx,DWORD PTR [edx+0xc]
  406792:	85 c9                	test   ecx,ecx
  406794:	0f 85 dd fe ff ff    	jne    406677 <___gdtoa+0xb17>
  40679a:	89 54 24 04          	mov    DWORD PTR [esp+0x4],edx
  40679e:	89 1c 24             	mov    DWORD PTR [esp],ebx
  4067a1:	89 54 24 20          	mov    DWORD PTR [esp+0x20],edx
  4067a5:	e8 d6 13 00 00       	call   407b80 <___cmp_D2A>
  4067aa:	8b 54 24 20          	mov    edx,DWORD PTR [esp+0x20]
  4067ae:	e9 c4 fe ff ff       	jmp    406677 <___gdtoa+0xb17>
  4067b3:	e8 b8 0e 00 00       	call   407670 <___multadd_D2A>
  4067b8:	89 c7                	mov    edi,eax
  4067ba:	89 c5                	mov    ebp,eax
  4067bc:	eb 8a                	jmp    406748 <___gdtoa+0xbe8>
  4067be:	85 d2                	test   edx,edx
  4067c0:	0f 84 1b fc ff ff    	je     4063e1 <___gdtoa+0x881>
  4067c6:	89 14 24             	mov    DWORD PTR [esp],edx
  4067c9:	e8 32 0e 00 00       	call   407600 <___Bfree_D2A>
  4067ce:	66 90                	xchg   ax,ax
  4067d0:	e9 0c fc ff ff       	jmp    4063e1 <___gdtoa+0x881>
  4067d5:	8b 44 24 30          	mov    eax,DWORD PTR [esp+0x30]
  4067d9:	89 1c 24             	mov    DWORD PTR [esp],ebx
  4067dc:	89 44 24 04          	mov    DWORD PTR [esp+0x4],eax
  4067e0:	e8 fb 10 00 00       	call   4078e0 <___pow5mult_D2A>
  4067e5:	89 c3                	mov    ebx,eax
  4067e7:	e9 4e fa ff ff       	jmp    40623a <___gdtoa+0x6da>
  4067ec:	89 7c 24 04          	mov    DWORD PTR [esp+0x4],edi
  4067f0:	89 1c 24             	mov    DWORD PTR [esp],ebx
  4067f3:	e8 88 13 00 00       	call   407b80 <___cmp_D2A>
  4067f8:	85 c0                	test   eax,eax
  4067fa:	0f 89 da fa ff ff    	jns    4062da <___gdtoa+0x77a>
  406800:	89 1c 24             	mov    DWORD PTR [esp],ebx
  406803:	c7 44 24 08 00 00 00 	mov    DWORD PTR [esp+0x8],0x0
  40680a:	00 
  40680b:	c7 44 24 04 0a 00 00 	mov    DWORD PTR [esp+0x4],0xa
  406812:	00 
  406813:	83 6c 24 0c 01       	sub    DWORD PTR [esp+0xc],0x1
  406818:	e8 53 0e 00 00       	call   407670 <___multadd_D2A>
  40681d:	89 c3                	mov    ebx,eax
  40681f:	8b 44 24 40          	mov    eax,DWORD PTR [esp+0x40]
  406823:	85 c0                	test   eax,eax
  406825:	0f 85 24 07 00 00    	jne    406f4f <___gdtoa+0x13ef>
  40682b:	83 bc 24 90 00 00 00 	cmp    DWORD PTR [esp+0x90],0x2
  406832:	02 
  406833:	8b 44 24 44          	mov    eax,DWORD PTR [esp+0x44]
  406837:	7e 0b                	jle    406844 <___gdtoa+0xce4>
  406839:	83 7c 24 44 00       	cmp    DWORD PTR [esp+0x44],0x0
  40683e:	0f 8e 86 07 00 00    	jle    406fca <___gdtoa+0x146a>
  406844:	89 44 24 18          	mov    DWORD PTR [esp+0x18],eax
  406848:	c7 44 24 5c 01 00 00 	mov    DWORD PTR [esp+0x5c],0x1
  40684f:	00 
  406850:	8b 74 24 24          	mov    esi,DWORD PTR [esp+0x24]
  406854:	8b 6c 24 18          	mov    ebp,DWORD PTR [esp+0x18]
  406858:	eb 25                	jmp    40687f <___gdtoa+0xd1f>
  40685a:	8d b6 00 00 00 00    	lea    esi,[esi+0x0]
  406860:	89 1c 24             	mov    DWORD PTR [esp],ebx
  406863:	c7 44 24 08 00 00 00 	mov    DWORD PTR [esp+0x8],0x0
  40686a:	00 
  40686b:	c7 44 24 04 0a 00 00 	mov    DWORD PTR [esp+0x4],0xa
  406872:	00 
  406873:	e8 f8 0d 00 00       	call   407670 <___multadd_D2A>
  406878:	83 44 24 5c 01       	add    DWORD PTR [esp+0x5c],0x1
  40687d:	89 c3                	mov    ebx,eax
  40687f:	89 7c 24 04          	mov    DWORD PTR [esp+0x4],edi
  406883:	83 c6 01             	add    esi,0x1
  406886:	89 1c 24             	mov    DWORD PTR [esp],ebx
  406889:	e8 82 09 00 00       	call   407210 <___quorem_D2A>
  40688e:	83 c0 30             	add    eax,0x30
  406891:	88 46 ff             	mov    BYTE PTR [esi-0x1],al
  406894:	3b 6c 24 5c          	cmp    ebp,DWORD PTR [esp+0x5c]
  406898:	7f c6                	jg     406860 <___gdtoa+0xd00>
  40689a:	89 44 24 10          	mov    DWORD PTR [esp+0x10],eax
  40689e:	31 d2                	xor    edx,edx
  4068a0:	8b 44 24 2c          	mov    eax,DWORD PTR [esp+0x2c]
  4068a4:	85 c0                	test   eax,eax
  4068a6:	0f 84 e5 03 00 00    	je     406c91 <___gdtoa+0x1131>
  4068ac:	83 f8 02             	cmp    eax,0x2
  4068af:	0f 84 18 04 00 00    	je     406ccd <___gdtoa+0x116d>
  4068b5:	83 7b 10 01          	cmp    DWORD PTR [ebx+0x10],0x1
  4068b9:	0f 8e cb 05 00 00    	jle    406e8a <___gdtoa+0x132a>
  4068bf:	0f b6 4e ff          	movzx  ecx,BYTE PTR [esi-0x1]
  4068c3:	8b 6c 24 24          	mov    ebp,DWORD PTR [esp+0x24]
  4068c7:	eb 15                	jmp    4068de <___gdtoa+0xd7e>
  4068c9:	8d b4 26 00 00 00 00 	lea    esi,[esi+eiz*1+0x0]
  4068d0:	39 e8                	cmp    eax,ebp
  4068d2:	0f 84 a6 02 00 00    	je     406b7e <___gdtoa+0x101e>
  4068d8:	0f b6 48 ff          	movzx  ecx,BYTE PTR [eax-0x1]
  4068dc:	89 c6                	mov    esi,eax
  4068de:	80 f9 39             	cmp    cl,0x39
  4068e1:	8d 46 ff             	lea    eax,[esi-0x1]
  4068e4:	74 ea                	je     4068d0 <___gdtoa+0xd70>
  4068e6:	83 c1 01             	add    ecx,0x1
  4068e9:	88 08                	mov    BYTE PTR [eax],cl
  4068eb:	8b 44 24 0c          	mov    eax,DWORD PTR [esp+0xc]
  4068ef:	c7 44 24 18 20 00 00 	mov    DWORD PTR [esp+0x18],0x20
  4068f6:	00 
  4068f7:	83 c0 01             	add    eax,0x1
  4068fa:	89 44 24 0c          	mov    DWORD PTR [esp+0xc],eax
  4068fe:	e9 be fa ff ff       	jmp    4063c1 <___gdtoa+0x861>
  406903:	83 fd 01             	cmp    ebp,0x1
  406906:	0f 85 68 f9 ff ff    	jne    406274 <___gdtoa+0x714>
  40690c:	8b 84 24 80 00 00 00 	mov    eax,DWORD PTR [esp+0x80]
  406913:	8b 40 04             	mov    eax,DWORD PTR [eax+0x4]
  406916:	83 c0 01             	add    eax,0x1
  406919:	39 84 24 84 00 00 00 	cmp    DWORD PTR [esp+0x84],eax
  406920:	0f 8e 4e f9 ff ff    	jle    406274 <___gdtoa+0x714>
  406926:	83 44 24 28 01       	add    DWORD PTR [esp+0x28],0x1
  40692b:	83 44 24 1c 01       	add    DWORD PTR [esp+0x1c],0x1
  406930:	c7 44 24 10 01 00 00 	mov    DWORD PTR [esp+0x10],0x1
  406937:	00 
  406938:	e9 37 f9 ff ff       	jmp    406274 <___gdtoa+0x714>
  40693d:	dd d8                	fstp   st(0)
  40693f:	8b 44 24 2c          	mov    eax,DWORD PTR [esp+0x2c]
  406943:	85 c0                	test   eax,eax
  406945:	0f 84 fe 01 00 00    	je     406b49 <___gdtoa+0xfe9>
  40694b:	dd d8                	fstp   st(0)
  40694d:	dd d8                	fstp   st(0)
  40694f:	83 7c 24 2c 01       	cmp    DWORD PTR [esp+0x2c],0x1
  406954:	0f 84 22 03 00 00    	je     406c7c <___gdtoa+0x111c>
  40695a:	8b 44 24 0c          	mov    eax,DWORD PTR [esp+0xc]
  40695e:	e9 ff f6 ff ff       	jmp    406062 <___gdtoa+0x502>
  406963:	ba 01 00 00 00       	mov    edx,0x1
  406968:	c7 84 24 94 00 00 00 	mov    DWORD PTR [esp+0x94],0x1
  40696f:	01 00 00 00 
  406973:	e9 23 fb ff ff       	jmp    40649b <___gdtoa+0x93b>
  406978:	83 7c 24 18 0e       	cmp    DWORD PTR [esp+0x18],0xe
  40697d:	c7 44 24 5c 01 00 00 	mov    DWORD PTR [esp+0x5c],0x1
  406984:	00 
  406985:	0f 96 c2             	setbe  dl
  406988:	21 c2                	and    edx,eax
  40698a:	b8 01 00 00 00       	mov    eax,0x1
  40698f:	e9 0f f5 ff ff       	jmp    405ea3 <___gdtoa+0x343>
  406994:	89 c2                	mov    edx,eax
  406996:	31 ff                	xor    edi,edi
  406998:	2b 54 24 30          	sub    edx,DWORD PTR [esp+0x30]
  40699c:	89 44 24 30          	mov    DWORD PTR [esp+0x30],eax
  4069a0:	01 54 24 3c          	add    DWORD PTR [esp+0x3c],edx
  4069a4:	e9 e9 f7 ff ff       	jmp    406192 <___gdtoa+0x632>
  4069a9:	d9 7c 24 4e          	fnstcw WORD PTR [esp+0x4e]
  4069ad:	dd 44 24 10          	fld    QWORD PTR [esp+0x10]
  4069b1:	dc 0c d5 58 a3 40 00 	fmul   QWORD PTR [edx*8+0x40a358]
  4069b8:	c7 44 24 5c 01 00 00 	mov    DWORD PTR [esp+0x5c],0x1
  4069bf:	00 
  4069c0:	8b 74 24 24          	mov    esi,DWORD PTR [esp+0x24]
  4069c4:	0f b7 44 24 4e       	movzx  eax,WORD PTR [esp+0x4e]
  4069c9:	b4 0c                	mov    ah,0xc
  4069cb:	d9 05 2c a3 40 00    	fld    DWORD PTR ds:0x40a32c
  4069d1:	d9 ca                	fxch   st(2)
  4069d3:	66 89 44 24 4c       	mov    WORD PTR [esp+0x4c],ax
  4069d8:	eb 0f                	jmp    4069e9 <___gdtoa+0xe89>
  4069da:	8d b6 00 00 00 00    	lea    esi,[esi+0x0]
  4069e0:	d8 ca                	fmul   st,st(2)
  4069e2:	83 c0 01             	add    eax,0x1
  4069e5:	89 44 24 5c          	mov    DWORD PTR [esp+0x5c],eax
  4069e9:	d9 6c 24 4c          	fldcw  WORD PTR [esp+0x4c]
  4069ed:	db 54 24 48          	fist   DWORD PTR [esp+0x48]
  4069f1:	d9 6c 24 4e          	fldcw  WORD PTR [esp+0x4e]
  4069f5:	8b 44 24 48          	mov    eax,DWORD PTR [esp+0x48]
  4069f9:	85 c0                	test   eax,eax
  4069fb:	74 0a                	je     406a07 <___gdtoa+0xea7>
  4069fd:	89 44 24 48          	mov    DWORD PTR [esp+0x48],eax
  406a01:	db 44 24 48          	fild   DWORD PTR [esp+0x48]
  406a05:	de e9                	fsubrp st(1),st
  406a07:	83 c6 01             	add    esi,0x1
  406a0a:	8d 48 30             	lea    ecx,[eax+0x30]
  406a0d:	88 4e ff             	mov    BYTE PTR [esi-0x1],cl
  406a10:	8b 44 24 5c          	mov    eax,DWORD PTR [esp+0x5c]
  406a14:	39 d0                	cmp    eax,edx
  406a16:	75 c8                	jne    4069e0 <___gdtoa+0xe80>
  406a18:	dd da                	fstp   st(2)
  406a1a:	d9 c9                	fxch   st(1)
  406a1c:	d9 05 3c a3 40 00    	fld    DWORD PTR ds:0x40a33c
  406a22:	d9 c2                	fld    st(2)
  406a24:	d8 c1                	fadd   st,st(1)
  406a26:	d9 ca                	fxch   st(2)
  406a28:	dd e2                	fucom  st(2)
  406a2a:	df e0                	fnstsw ax
  406a2c:	dd da                	fstp   st(2)
  406a2e:	9e                   	sahf   
  406a2f:	0f 87 94 00 00 00    	ja     406ac9 <___gdtoa+0xf69>
  406a35:	de e2                	fsubp  st(2),st
  406a37:	d9 c9                	fxch   st(1)
  406a39:	dd e9                	fucomp st(1)
  406a3b:	df e0                	fnstsw ax
  406a3d:	9e                   	sahf   
  406a3e:	0f 86 0c f7 ff ff    	jbe    406150 <___gdtoa+0x5f0>
  406a44:	dd d9                	fstp   st(1)
  406a46:	d9 ee                	fldz   
  406a48:	d9 c9                	fxch   st(1)
  406a4a:	da e9                	fucompp 
  406a4c:	df e0                	fnstsw ax
  406a4e:	9e                   	sahf   
  406a4f:	0f 8a 4d 04 00 00    	jp     406ea2 <___gdtoa+0x1342>
  406a55:	0f 85 47 04 00 00    	jne    406ea2 <___gdtoa+0x1342>
  406a5b:	c7 44 24 18 00 00 00 	mov    DWORD PTR [esp+0x18],0x0
  406a62:	00 
  406a63:	eb 06                	jmp    406a6b <___gdtoa+0xf0b>
  406a65:	0f b6 48 ff          	movzx  ecx,BYTE PTR [eax-0x1]
  406a69:	89 c6                	mov    esi,eax
  406a6b:	80 f9 30             	cmp    cl,0x30
  406a6e:	8d 46 ff             	lea    eax,[esi-0x1]
  406a71:	74 f2                	je     406a65 <___gdtoa+0xf05>
  406a73:	8b 44 24 38          	mov    eax,DWORD PTR [esp+0x38]
  406a77:	83 c0 01             	add    eax,0x1
  406a7a:	89 44 24 0c          	mov    DWORD PTR [esp+0xc],eax
  406a7e:	e9 6a f9 ff ff       	jmp    4063ed <___gdtoa+0x88d>
  406a83:	dd d8                	fstp   st(0)
  406a85:	dd d8                	fstp   st(0)
  406a87:	dd d8                	fstp   st(0)
  406a89:	c7 44 24 0c 02 00 00 	mov    DWORD PTR [esp+0xc],0x2
  406a90:	00 
  406a91:	31 ff                	xor    edi,edi
  406a93:	c7 44 24 20 00 00 00 	mov    DWORD PTR [esp+0x20],0x0
  406a9a:	00 
  406a9b:	e9 0d f9 ff ff       	jmp    4063ad <___gdtoa+0x84d>
  406aa0:	8b 44 24 0c          	mov    eax,DWORD PTR [esp+0xc]
  406aa4:	83 e1 01             	and    ecx,0x1
  406aa7:	0f b6 4e ff          	movzx  ecx,BYTE PTR [esi-0x1]
  406aab:	89 44 24 38          	mov    DWORD PTR [esp+0x38],eax
  406aaf:	0f 84 ed 03 00 00    	je     406ea2 <___gdtoa+0x1342>
  406ab5:	eb 1a                	jmp    406ad1 <___gdtoa+0xf71>
  406ab7:	dd d8                	fstp   st(0)
  406ab9:	dd d8                	fstp   st(0)
  406abb:	dd d8                	fstp   st(0)
  406abd:	eb 12                	jmp    406ad1 <___gdtoa+0xf71>
  406abf:	dd d8                	fstp   st(0)
  406ac1:	dd d8                	fstp   st(0)
  406ac3:	dd d8                	fstp   st(0)
  406ac5:	dd d8                	fstp   st(0)
  406ac7:	eb 08                	jmp    406ad1 <___gdtoa+0xf71>
  406ac9:	dd d8                	fstp   st(0)
  406acb:	dd d8                	fstp   st(0)
  406acd:	dd d8                	fstp   st(0)
  406acf:	dd d8                	fstp   st(0)
  406ad1:	8b 54 24 24          	mov    edx,DWORD PTR [esp+0x24]
  406ad5:	eb 0e                	jmp    406ae5 <___gdtoa+0xf85>
  406ad7:	39 d0                	cmp    eax,edx
  406ad9:	0f 84 be 00 00 00    	je     406b9d <___gdtoa+0x103d>
  406adf:	0f b6 48 ff          	movzx  ecx,BYTE PTR [eax-0x1]
  406ae3:	89 c6                	mov    esi,eax
  406ae5:	80 f9 39             	cmp    cl,0x39
  406ae8:	8d 46 ff             	lea    eax,[esi-0x1]
  406aeb:	74 ea                	je     406ad7 <___gdtoa+0xf77>
  406aed:	89 54 24 24          	mov    DWORD PTR [esp+0x24],edx
  406af1:	83 c1 01             	add    ecx,0x1
  406af4:	88 08                	mov    BYTE PTR [eax],cl
  406af6:	8b 44 24 38          	mov    eax,DWORD PTR [esp+0x38]
  406afa:	c7 44 24 18 20 00 00 	mov    DWORD PTR [esp+0x18],0x20
  406b01:	00 
  406b02:	83 c0 01             	add    eax,0x1
  406b05:	89 44 24 0c          	mov    DWORD PTR [esp+0xc],eax
  406b09:	e9 df f8 ff ff       	jmp    4063ed <___gdtoa+0x88d>
  406b0e:	8b b4 24 80 00 00 00 	mov    esi,DWORD PTR [esp+0x80]
  406b15:	29 ef                	sub    edi,ebp
  406b17:	8b 54 24 20          	mov    edx,DWORD PTR [esp+0x20]
  406b1b:	8d 47 01             	lea    eax,[edi+0x1]
  406b1e:	89 44 24 5c          	mov    DWORD PTR [esp+0x5c],eax
  406b22:	8b 4e 04             	mov    ecx,DWORD PTR [esi+0x4]
  406b25:	29 fa                	sub    edx,edi
  406b27:	39 ca                	cmp    edx,ecx
  406b29:	0f 8d be 02 00 00    	jge    406ded <___gdtoa+0x128d>
  406b2f:	8b 44 24 20          	mov    eax,DWORD PTR [esp+0x20]
  406b33:	8b 7c 24 30          	mov    edi,DWORD PTR [esp+0x30]
  406b37:	8b 74 24 28          	mov    esi,DWORD PTR [esp+0x28]
  406b3b:	29 c8                	sub    eax,ecx
  406b3d:	83 c0 01             	add    eax,0x1
  406b40:	89 44 24 5c          	mov    DWORD PTR [esp+0x5c],eax
  406b44:	e9 5d f6 ff ff       	jmp    4061a6 <___gdtoa+0x646>
  406b49:	d8 c0                	fadd   st,st(0)
  406b4b:	dd e1                	fucom  st(1)
  406b4d:	df e0                	fnstsw ax
  406b4f:	9e                   	sahf   
  406b50:	0f 87 22 01 00 00    	ja     406c78 <___gdtoa+0x1118>
  406b56:	d9 c9                	fxch   st(1)
  406b58:	da e9                	fucompp 
  406b5a:	df e0                	fnstsw ax
  406b5c:	9e                   	sahf   
  406b5d:	7a 06                	jp     406b65 <___gdtoa+0x1005>
  406b5f:	0f 84 3b ff ff ff    	je     406aa0 <___gdtoa+0xf40>
  406b65:	8b 44 24 0c          	mov    eax,DWORD PTR [esp+0xc]
  406b69:	0f b6 4e ff          	movzx  ecx,BYTE PTR [esi-0x1]
  406b6d:	c7 44 24 18 10 00 00 	mov    DWORD PTR [esp+0x18],0x10
  406b74:	00 
  406b75:	89 44 24 38          	mov    DWORD PTR [esp+0x38],eax
  406b79:	e9 ed fe ff ff       	jmp    406a6b <___gdtoa+0xf0b>
  406b7e:	8b 44 24 24          	mov    eax,DWORD PTR [esp+0x24]
  406b82:	c7 44 24 18 20 00 00 	mov    DWORD PTR [esp+0x18],0x20
  406b89:	00 
  406b8a:	c6 00 31             	mov    BYTE PTR [eax],0x31
  406b8d:	8b 44 24 0c          	mov    eax,DWORD PTR [esp+0xc]
  406b91:	83 c0 02             	add    eax,0x2
  406b94:	89 44 24 0c          	mov    DWORD PTR [esp+0xc],eax
  406b98:	e9 24 f8 ff ff       	jmp    4063c1 <___gdtoa+0x861>
  406b9d:	89 54 24 24          	mov    DWORD PTR [esp+0x24],edx
  406ba1:	b9 31 00 00 00       	mov    ecx,0x31
  406ba6:	83 44 24 38 01       	add    DWORD PTR [esp+0x38],0x1
  406bab:	c6 02 30             	mov    BYTE PTR [edx],0x30
  406bae:	e9 41 ff ff ff       	jmp    406af4 <___gdtoa+0xf94>
  406bb3:	8b 74 24 28          	mov    esi,DWORD PTR [esp+0x28]
  406bb7:	31 c0                	xor    eax,eax
  406bb9:	2b 74 24 18          	sub    esi,DWORD PTR [esp+0x18]
  406bbd:	c7 44 24 5c 00 00 00 	mov    DWORD PTR [esp+0x5c],0x0
  406bc4:	00 
  406bc5:	e9 dc f5 ff ff       	jmp    4061a6 <___gdtoa+0x646>
  406bca:	8b 4c 24 2c          	mov    ecx,DWORD PTR [esp+0x2c]
  406bce:	89 7c 24 20          	mov    DWORD PTR [esp+0x20],edi
  406bd2:	8b 74 24 28          	mov    esi,DWORD PTR [esp+0x28]
  406bd6:	8b 7c 24 1c          	mov    edi,DWORD PTR [esp+0x1c]
  406bda:	8b 54 24 10          	mov    edx,DWORD PTR [esp+0x10]
  406bde:	85 c9                	test   ecx,ecx
  406be0:	0f 84 1e 02 00 00    	je     406e04 <___gdtoa+0x12a4>
  406be6:	83 7b 10 01          	cmp    DWORD PTR [ebx+0x10],0x1
  406bea:	0f 8e 0a 02 00 00    	jle    406dfa <___gdtoa+0x129a>
  406bf0:	83 7c 24 2c 02       	cmp    DWORD PTR [esp+0x2c],0x2
  406bf5:	75 3a                	jne    406c31 <___gdtoa+0x10d1>
  406bf7:	e9 63 02 00 00       	jmp    406e5f <___gdtoa+0x12ff>
  406bfc:	8d 74 26 00          	lea    esi,[esi+eiz*1+0x0]
  406c00:	89 1c 24             	mov    DWORD PTR [esp],ebx
  406c03:	c7 44 24 08 00 00 00 	mov    DWORD PTR [esp+0x8],0x0
  406c0a:	00 
  406c0b:	c7 44 24 04 0a 00 00 	mov    DWORD PTR [esp+0x4],0xa
  406c12:	00 
  406c13:	e8 58 0a 00 00       	call   407670 <___multadd_D2A>
  406c18:	89 7c 24 04          	mov    DWORD PTR [esp+0x4],edi
  406c1c:	89 04 24             	mov    DWORD PTR [esp],eax
  406c1f:	89 c3                	mov    ebx,eax
  406c21:	e8 ea 05 00 00       	call   407210 <___quorem_D2A>
  406c26:	8b 6c 24 18          	mov    ebp,DWORD PTR [esp+0x18]
  406c2a:	83 c0 30             	add    eax,0x30
  406c2d:	89 44 24 10          	mov    DWORD PTR [esp+0x10],eax
  406c31:	89 6c 24 04          	mov    DWORD PTR [esp+0x4],ebp
  406c35:	89 3c 24             	mov    DWORD PTR [esp],edi
  406c38:	e8 43 0f 00 00       	call   407b80 <___cmp_D2A>
  406c3d:	85 c0                	test   eax,eax
  406c3f:	0f 8e 88 02 00 00    	jle    406ecd <___gdtoa+0x136d>
  406c45:	0f b6 44 24 10       	movzx  eax,BYTE PTR [esp+0x10]
  406c4a:	83 c6 01             	add    esi,0x1
  406c4d:	88 46 ff             	mov    BYTE PTR [esi-0x1],al
  406c50:	c7 44 24 08 00 00 00 	mov    DWORD PTR [esp+0x8],0x0
  406c57:	00 
  406c58:	c7 44 24 04 0a 00 00 	mov    DWORD PTR [esp+0x4],0xa
  406c5f:	00 
  406c60:	89 2c 24             	mov    DWORD PTR [esp],ebp
  406c63:	e8 08 0a 00 00       	call   407670 <___multadd_D2A>
  406c68:	39 6c 24 20          	cmp    DWORD PTR [esp+0x20],ebp
  406c6c:	89 44 24 18          	mov    DWORD PTR [esp+0x18],eax
  406c70:	75 8e                	jne    406c00 <___gdtoa+0x10a0>
  406c72:	89 44 24 20          	mov    DWORD PTR [esp+0x20],eax
  406c76:	eb 88                	jmp    406c00 <___gdtoa+0x10a0>
  406c78:	dd d8                	fstp   st(0)
  406c7a:	dd d8                	fstp   st(0)
  406c7c:	8b 44 24 0c          	mov    eax,DWORD PTR [esp+0xc]
  406c80:	0f b6 4e ff          	movzx  ecx,BYTE PTR [esi-0x1]
  406c84:	8b 54 24 24          	mov    edx,DWORD PTR [esp+0x24]
  406c88:	89 44 24 38          	mov    DWORD PTR [esp+0x38],eax
  406c8c:	e9 54 fe ff ff       	jmp    406ae5 <___gdtoa+0xf85>
  406c91:	89 1c 24             	mov    DWORD PTR [esp],ebx
  406c94:	c7 44 24 04 01 00 00 	mov    DWORD PTR [esp+0x4],0x1
  406c9b:	00 
  406c9c:	89 54 24 18          	mov    DWORD PTR [esp+0x18],edx
  406ca0:	e8 cb 0d 00 00       	call   407a70 <___lshift_D2A>
  406ca5:	89 7c 24 04          	mov    DWORD PTR [esp+0x4],edi
  406ca9:	89 04 24             	mov    DWORD PTR [esp],eax
  406cac:	89 c3                	mov    ebx,eax
  406cae:	e8 cd 0e 00 00       	call   407b80 <___cmp_D2A>
  406cb3:	8b 54 24 18          	mov    edx,DWORD PTR [esp+0x18]
  406cb7:	83 f8 00             	cmp    eax,0x0
  406cba:	0f 8f ff fb ff ff    	jg     4068bf <___gdtoa+0xd5f>
  406cc0:	75 0b                	jne    406ccd <___gdtoa+0x116d>
  406cc2:	f6 44 24 10 01       	test   BYTE PTR [esp+0x10],0x1
  406cc7:	0f 85 f2 fb ff ff    	jne    4068bf <___gdtoa+0xd5f>
  406ccd:	83 7b 10 01          	cmp    DWORD PTR [ebx+0x10],0x1
  406cd1:	0f 8e dc 02 00 00    	jle    406fb3 <___gdtoa+0x1453>
  406cd7:	c7 44 24 18 10 00 00 	mov    DWORD PTR [esp+0x18],0x10
  406cde:	00 
  406cdf:	eb 02                	jmp    406ce3 <___gdtoa+0x1183>
  406ce1:	89 c6                	mov    esi,eax
  406ce3:	80 7e ff 30          	cmp    BYTE PTR [esi-0x1],0x30
  406ce7:	8d 46 ff             	lea    eax,[esi-0x1]
  406cea:	74 f5                	je     406ce1 <___gdtoa+0x1181>
  406cec:	8b 44 24 0c          	mov    eax,DWORD PTR [esp+0xc]
  406cf0:	83 c0 01             	add    eax,0x1
  406cf3:	89 44 24 0c          	mov    DWORD PTR [esp+0xc],eax
  406cf7:	e9 c5 f6 ff ff       	jmp    4063c1 <___gdtoa+0x861>
  406cfc:	8b 44 24 18          	mov    eax,DWORD PTR [esp+0x18]
  406d00:	85 c0                	test   eax,eax
  406d02:	0f 84 fa f3 ff ff    	je     406102 <___gdtoa+0x5a2>
  406d08:	8b 54 24 44          	mov    edx,DWORD PTR [esp+0x44]
  406d0c:	85 d2                	test   edx,edx
  406d0e:	0f 8e 3e f4 ff ff    	jle    406152 <___gdtoa+0x5f2>
  406d14:	d9 c0                	fld    st(0)
  406d16:	d8 0d 2c a3 40 00    	fmul   DWORD PTR ds:0x40a32c
  406d1c:	c7 44 24 38 ff ff ff 	mov    DWORD PTR [esp+0x38],0xffffffff
  406d23:	ff 
  406d24:	d9 c0                	fld    st(0)
  406d26:	d8 0d 30 a3 40 00    	fmul   DWORD PTR ds:0x40a330
  406d2c:	d8 05 34 a3 40 00    	fadd   DWORD PTR ds:0x40a334
  406d32:	dd 5c 24 10          	fstp   QWORD PTR [esp+0x10]
  406d36:	81 6c 24 14 00 00 40 	sub    DWORD PTR [esp+0x14],0x3400000
  406d3d:	03 
  406d3e:	e9 02 f2 ff ff       	jmp    405f45 <___gdtoa+0x3e5>
  406d43:	8b 45 04             	mov    eax,DWORD PTR [ebp+0x4]
  406d46:	89 04 24             	mov    DWORD PTR [esp],eax
  406d49:	e8 e2 07 00 00       	call   407530 <___Balloc_D2A>
  406d4e:	8d 48 0c             	lea    ecx,[eax+0xc]
  406d51:	89 c6                	mov    esi,eax
  406d53:	8b 45 10             	mov    eax,DWORD PTR [ebp+0x10]
  406d56:	89 0c 24             	mov    DWORD PTR [esp],ecx
  406d59:	8d 14 85 08 00 00 00 	lea    edx,[eax*4+0x8]
  406d60:	89 e8                	mov    eax,ebp
  406d62:	83 c0 0c             	add    eax,0xc
  406d65:	89 54 24 08          	mov    DWORD PTR [esp+0x8],edx
  406d69:	89 44 24 04          	mov    DWORD PTR [esp+0x4],eax
  406d6d:	e8 46 12 00 00       	call   407fb8 <_memcpy>
  406d72:	c7 44 24 04 01 00 00 	mov    DWORD PTR [esp+0x4],0x1
  406d79:	00 
  406d7a:	89 34 24             	mov    DWORD PTR [esp],esi
  406d7d:	e8 ee 0c 00 00       	call   407a70 <___lshift_D2A>
  406d82:	89 c5                	mov    ebp,eax
  406d84:	e9 d1 f8 ff ff       	jmp    40665a <___gdtoa+0xafa>
  406d89:	89 fa                	mov    edx,edi
  406d8b:	8b 74 24 28          	mov    esi,DWORD PTR [esp+0x28]
  406d8f:	8b 7c 24 1c          	mov    edi,DWORD PTR [esp+0x1c]
  406d93:	89 6c 24 20          	mov    DWORD PTR [esp+0x20],ebp
  406d97:	e9 04 fb ff ff       	jmp    4068a0 <___gdtoa+0xd40>
  406d9c:	83 7c 24 2c 02       	cmp    DWORD PTR [esp+0x2c],0x2
  406da1:	0f 84 2c f9 ff ff    	je     4066d3 <___gdtoa+0xb73>
  406da7:	8b 74 24 28          	mov    esi,DWORD PTR [esp+0x28]
  406dab:	83 7c 24 10 39       	cmp    DWORD PTR [esp+0x10],0x39
  406db0:	89 7c 24 20          	mov    DWORD PTR [esp+0x20],edi
  406db4:	8b 7c 24 1c          	mov    edi,DWORD PTR [esp+0x1c]
  406db8:	89 f0                	mov    eax,esi
  406dba:	0f 84 f1 00 00 00    	je     406eb1 <___gdtoa+0x1351>
  406dc0:	0f b6 4c 24 10       	movzx  ecx,BYTE PTR [esp+0x10]
  406dc5:	83 c6 01             	add    esi,0x1
  406dc8:	8b 54 24 20          	mov    edx,DWORD PTR [esp+0x20]
  406dcc:	c7 44 24 18 20 00 00 	mov    DWORD PTR [esp+0x18],0x20
  406dd3:	00 
  406dd4:	89 6c 24 20          	mov    DWORD PTR [esp+0x20],ebp
  406dd8:	83 c1 01             	add    ecx,0x1
  406ddb:	88 08                	mov    BYTE PTR [eax],cl
  406ddd:	8b 44 24 0c          	mov    eax,DWORD PTR [esp+0xc]
  406de1:	83 c0 01             	add    eax,0x1
  406de4:	89 44 24 0c          	mov    DWORD PTR [esp+0xc],eax
  406de8:	e9 d4 f5 ff ff       	jmp    4063c1 <___gdtoa+0x861>
  406ded:	8b 7c 24 30          	mov    edi,DWORD PTR [esp+0x30]
  406df1:	8b 74 24 28          	mov    esi,DWORD PTR [esp+0x28]
  406df5:	e9 ac f3 ff ff       	jmp    4061a6 <___gdtoa+0x646>
  406dfa:	83 7b 14 00          	cmp    DWORD PTR [ebx+0x14],0x0
  406dfe:	0f 85 ec fd ff ff    	jne    406bf0 <___gdtoa+0x1090>
  406e04:	85 c0                	test   eax,eax
  406e06:	89 54 24 18          	mov    DWORD PTR [esp+0x18],edx
  406e0a:	0f 8e d3 00 00 00    	jle    406ee3 <___gdtoa+0x1383>
  406e10:	89 1c 24             	mov    DWORD PTR [esp],ebx
  406e13:	c7 44 24 04 01 00 00 	mov    DWORD PTR [esp+0x4],0x1
  406e1a:	00 
  406e1b:	e8 50 0c 00 00       	call   407a70 <___lshift_D2A>
  406e20:	89 7c 24 04          	mov    DWORD PTR [esp+0x4],edi
  406e24:	89 04 24             	mov    DWORD PTR [esp],eax
  406e27:	89 c3                	mov    ebx,eax
  406e29:	e8 52 0d 00 00       	call   407b80 <___cmp_D2A>
  406e2e:	8b 54 24 18          	mov    edx,DWORD PTR [esp+0x18]
  406e32:	83 f8 00             	cmp    eax,0x0
  406e35:	0f 8e 98 01 00 00    	jle    406fd3 <___gdtoa+0x1473>
  406e3b:	8b 44 24 30          	mov    eax,DWORD PTR [esp+0x30]
  406e3f:	83 c0 31             	add    eax,0x31
  406e42:	83 fa 39             	cmp    edx,0x39
  406e45:	89 44 24 10          	mov    DWORD PTR [esp+0x10],eax
  406e49:	74 64                	je     406eaf <___gdtoa+0x134f>
  406e4b:	c7 44 24 18 20 00 00 	mov    DWORD PTR [esp+0x18],0x20
  406e52:	00 
  406e53:	83 7b 10 01          	cmp    DWORD PTR [ebx+0x10],0x1
  406e57:	7f 06                	jg     406e5f <___gdtoa+0x12ff>
  406e59:	83 7b 14 00          	cmp    DWORD PTR [ebx+0x14],0x0
  406e5d:	74 08                	je     406e67 <___gdtoa+0x1307>
  406e5f:	c7 44 24 18 10 00 00 	mov    DWORD PTR [esp+0x18],0x10
  406e66:	00 
  406e67:	0f b6 44 24 10       	movzx  eax,BYTE PTR [esp+0x10]
  406e6c:	83 c6 01             	add    esi,0x1
  406e6f:	8b 54 24 20          	mov    edx,DWORD PTR [esp+0x20]
  406e73:	89 6c 24 20          	mov    DWORD PTR [esp+0x20],ebp
  406e77:	88 46 ff             	mov    BYTE PTR [esi-0x1],al
  406e7a:	8b 44 24 0c          	mov    eax,DWORD PTR [esp+0xc]
  406e7e:	83 c0 01             	add    eax,0x1
  406e81:	89 44 24 0c          	mov    DWORD PTR [esp+0xc],eax
  406e85:	e9 37 f5 ff ff       	jmp    4063c1 <___gdtoa+0x861>
  406e8a:	8b 4b 14             	mov    ecx,DWORD PTR [ebx+0x14]
  406e8d:	85 c9                	test   ecx,ecx
  406e8f:	0f 85 2a fa ff ff    	jne    4068bf <___gdtoa+0xd5f>
  406e95:	c7 44 24 18 00 00 00 	mov    DWORD PTR [esp+0x18],0x0
  406e9c:	00 
  406e9d:	e9 41 fe ff ff       	jmp    406ce3 <___gdtoa+0x1183>
  406ea2:	c7 44 24 18 10 00 00 	mov    DWORD PTR [esp+0x18],0x10
  406ea9:	00 
  406eaa:	e9 bc fb ff ff       	jmp    406a6b <___gdtoa+0xf0b>
  406eaf:	89 f0                	mov    eax,esi
  406eb1:	8b 54 24 20          	mov    edx,DWORD PTR [esp+0x20]
  406eb5:	83 c6 01             	add    esi,0x1
  406eb8:	b9 39 00 00 00       	mov    ecx,0x39
  406ebd:	89 6c 24 20          	mov    DWORD PTR [esp+0x20],ebp
  406ec1:	8b 6c 24 24          	mov    ebp,DWORD PTR [esp+0x24]
  406ec5:	c6 00 39             	mov    BYTE PTR [eax],0x39
  406ec8:	e9 11 fa ff ff       	jmp    4068de <___gdtoa+0xd7e>
  406ecd:	83 7c 24 10 39       	cmp    DWORD PTR [esp+0x10],0x39
  406ed2:	74 db                	je     406eaf <___gdtoa+0x134f>
  406ed4:	83 44 24 10 01       	add    DWORD PTR [esp+0x10],0x1
  406ed9:	c7 44 24 18 20 00 00 	mov    DWORD PTR [esp+0x18],0x20
  406ee0:	00 
  406ee1:	eb 84                	jmp    406e67 <___gdtoa+0x1307>
  406ee3:	c7 44 24 18 00 00 00 	mov    DWORD PTR [esp+0x18],0x0
  406eea:	00 
  406eeb:	e9 63 ff ff ff       	jmp    406e53 <___gdtoa+0x12f3>
  406ef0:	0f 85 a8 f6 ff ff    	jne    40659e <___gdtoa+0xa3e>
  406ef6:	dd d8                	fstp   st(0)
  406ef8:	dd d8                	fstp   st(0)
  406efa:	e9 0c f7 ff ff       	jmp    40660b <___gdtoa+0xaab>
  406eff:	89 f1                	mov    ecx,esi
  406f01:	8b 74 24 28          	mov    esi,DWORD PTR [esp+0x28]
  406f05:	83 7c 24 10 39       	cmp    DWORD PTR [esp+0x10],0x39
  406f0a:	89 7c 24 20          	mov    DWORD PTR [esp+0x20],edi
  406f0e:	8b 7c 24 1c          	mov    edi,DWORD PTR [esp+0x1c]
  406f12:	89 f0                	mov    eax,esi
  406f14:	74 99                	je     406eaf <___gdtoa+0x134f>
  406f16:	85 c9                	test   ecx,ecx
  406f18:	7e 73                	jle    406f8d <___gdtoa+0x142d>
  406f1a:	8b 4c 24 30          	mov    ecx,DWORD PTR [esp+0x30]
  406f1e:	c7 44 24 18 20 00 00 	mov    DWORD PTR [esp+0x18],0x20
  406f25:	00 
  406f26:	83 c1 31             	add    ecx,0x31
  406f29:	89 4c 24 10          	mov    DWORD PTR [esp+0x10],ecx
  406f2d:	0f b6 4c 24 10       	movzx  ecx,BYTE PTR [esp+0x10]
  406f32:	83 c6 01             	add    esi,0x1
  406f35:	8b 54 24 20          	mov    edx,DWORD PTR [esp+0x20]
  406f39:	89 6c 24 20          	mov    DWORD PTR [esp+0x20],ebp
  406f3d:	88 08                	mov    BYTE PTR [eax],cl
  406f3f:	8b 44 24 0c          	mov    eax,DWORD PTR [esp+0xc]
  406f43:	83 c0 01             	add    eax,0x1
  406f46:	89 44 24 0c          	mov    DWORD PTR [esp+0xc],eax
  406f4a:	e9 72 f4 ff ff       	jmp    4063c1 <___gdtoa+0x861>
  406f4f:	8b 44 24 20          	mov    eax,DWORD PTR [esp+0x20]
  406f53:	c7 44 24 08 00 00 00 	mov    DWORD PTR [esp+0x8],0x0
  406f5a:	00 
  406f5b:	c7 44 24 04 0a 00 00 	mov    DWORD PTR [esp+0x4],0xa
  406f62:	00 
  406f63:	89 04 24             	mov    DWORD PTR [esp],eax
  406f66:	e8 05 07 00 00       	call   407670 <___multadd_D2A>
  406f6b:	83 7c 24 44 00       	cmp    DWORD PTR [esp+0x44],0x0
  406f70:	89 44 24 20          	mov    DWORD PTR [esp+0x20],eax
  406f74:	8b 44 24 44          	mov    eax,DWORD PTR [esp+0x44]
  406f78:	7f 0a                	jg     406f84 <___gdtoa+0x1424>
  406f7a:	83 bc 24 90 00 00 00 	cmp    DWORD PTR [esp+0x90],0x2
  406f81:	02 
  406f82:	7f 46                	jg     406fca <___gdtoa+0x146a>
  406f84:	89 44 24 18          	mov    DWORD PTR [esp+0x18],eax
  406f88:	e9 a2 f6 ff ff       	jmp    40662f <___gdtoa+0xacf>
  406f8d:	83 7b 10 01          	cmp    DWORD PTR [ebx+0x10],0x1
  406f91:	c7 44 24 18 10 00 00 	mov    DWORD PTR [esp+0x18],0x10
  406f98:	00 
  406f99:	7f 92                	jg     406f2d <___gdtoa+0x13cd>
  406f9b:	83 7b 14 01          	cmp    DWORD PTR [ebx+0x14],0x1
  406f9f:	19 c9                	sbb    ecx,ecx
  406fa1:	89 4c 24 18          	mov    DWORD PTR [esp+0x18],ecx
  406fa5:	f7 54 24 18          	not    DWORD PTR [esp+0x18]
  406fa9:	83 64 24 18 10       	and    DWORD PTR [esp+0x18],0x10
  406fae:	e9 7a ff ff ff       	jmp    406f2d <___gdtoa+0x13cd>
  406fb3:	83 7b 14 00          	cmp    DWORD PTR [ebx+0x14],0x0
  406fb7:	c7 44 24 18 00 00 00 	mov    DWORD PTR [esp+0x18],0x0
  406fbe:	00 
  406fbf:	0f 85 12 fd ff ff    	jne    406cd7 <___gdtoa+0x1177>
  406fc5:	e9 19 fd ff ff       	jmp    406ce3 <___gdtoa+0x1183>
  406fca:	89 44 24 18          	mov    DWORD PTR [esp+0x18],eax
  406fce:	e9 21 f3 ff ff       	jmp    4062f4 <___gdtoa+0x794>
  406fd3:	0f 85 72 fe ff ff    	jne    406e4b <___gdtoa+0x12eb>
  406fd9:	f6 44 24 10 01       	test   BYTE PTR [esp+0x10],0x1
  406fde:	66 90                	xchg   ax,ax
  406fe0:	0f 84 65 fe ff ff    	je     406e4b <___gdtoa+0x12eb>
  406fe6:	e9 50 fe ff ff       	jmp    406e3b <___gdtoa+0x12db>
  406feb:	31 c0                	xor    eax,eax
  406fed:	8d 76 00             	lea    esi,[esi+0x0]
  406ff0:	e9 8f ec ff ff       	jmp    405c84 <___gdtoa+0x124>
  406ff5:	b8 01 00 00 00       	mov    eax,0x1
  406ffa:	e9 40 ee ff ff       	jmp    405e3f <___gdtoa+0x2df>
  406fff:	90                   	nop

00407000 <___rshift_D2A>:
  407000:	55                   	push   ebp
  407001:	57                   	push   edi
  407002:	56                   	push   esi
  407003:	53                   	push   ebx
  407004:	83 ec 10             	sub    esp,0x10
  407007:	8b 74 24 24          	mov    esi,DWORD PTR [esp+0x24]
  40700b:	8b 44 24 24          	mov    eax,DWORD PTR [esp+0x24]
  40700f:	8b 4c 24 28          	mov    ecx,DWORD PTR [esp+0x28]
  407013:	8b 56 10             	mov    edx,DWORD PTR [esi+0x10]
  407016:	8d 68 14             	lea    ebp,[eax+0x14]
  407019:	89 c8                	mov    eax,ecx
  40701b:	c1 f8 05             	sar    eax,0x5
  40701e:	39 d0                	cmp    eax,edx
  407020:	0f 8d 8a 00 00 00    	jge    4070b0 <___rshift_D2A+0xb0>
  407026:	8d 44 85 00          	lea    eax,[ebp+eax*4+0x0]
  40702a:	83 e1 1f             	and    ecx,0x1f
  40702d:	8d 7c 95 00          	lea    edi,[ebp+edx*4+0x0]
  407031:	89 44 24 04          	mov    DWORD PTR [esp+0x4],eax
  407035:	89 0c 24             	mov    DWORD PTR [esp],ecx
  407038:	0f 84 92 00 00 00    	je     4070d0 <___rshift_D2A+0xd0>
  40703e:	8b 74 24 04          	mov    esi,DWORD PTR [esp+0x4]
  407042:	8b 04 24             	mov    eax,DWORD PTR [esp]
  407045:	c7 44 24 08 20 00 00 	mov    DWORD PTR [esp+0x8],0x20
  40704c:	00 
  40704d:	29 44 24 08          	sub    DWORD PTR [esp+0x8],eax
  407051:	8b 1e                	mov    ebx,DWORD PTR [esi]
  407053:	8d 56 04             	lea    edx,[esi+0x4]
  407056:	89 c1                	mov    ecx,eax
  407058:	d3 eb                	shr    ebx,cl
  40705a:	39 d7                	cmp    edi,edx
  40705c:	0f 86 ac 00 00 00    	jbe    40710e <___rshift_D2A+0x10e>
  407062:	89 ee                	mov    esi,ebp
  407064:	89 6c 24 0c          	mov    DWORD PTR [esp+0xc],ebp
  407068:	8b 6c 24 08          	mov    ebp,DWORD PTR [esp+0x8]
  40706c:	8d 74 26 00          	lea    esi,[esi+eiz*1+0x0]
  407070:	8b 02                	mov    eax,DWORD PTR [edx]
  407072:	89 e9                	mov    ecx,ebp
  407074:	83 c6 04             	add    esi,0x4
  407077:	83 c2 04             	add    edx,0x4
  40707a:	d3 e0                	shl    eax,cl
  40707c:	0f b6 0c 24          	movzx  ecx,BYTE PTR [esp]
  407080:	09 d8                	or     eax,ebx
  407082:	89 46 fc             	mov    DWORD PTR [esi-0x4],eax
  407085:	8b 5a fc             	mov    ebx,DWORD PTR [edx-0x4]
  407088:	d3 eb                	shr    ebx,cl
  40708a:	39 d7                	cmp    edi,edx
  40708c:	77 e2                	ja     407070 <___rshift_D2A+0x70>
  40708e:	2b 7c 24 04          	sub    edi,DWORD PTR [esp+0x4]
  407092:	8b 6c 24 0c          	mov    ebp,DWORD PTR [esp+0xc]
  407096:	8d 47 fb             	lea    eax,[edi-0x5]
  407099:	c1 e8 02             	shr    eax,0x2
  40709c:	8d 44 85 04          	lea    eax,[ebp+eax*4+0x4]
  4070a0:	85 db                	test   ebx,ebx
  4070a2:	89 18                	mov    DWORD PTR [eax],ebx
  4070a4:	74 03                	je     4070a9 <___rshift_D2A+0xa9>
  4070a6:	83 c0 04             	add    eax,0x4
  4070a9:	29 e8                	sub    eax,ebp
  4070ab:	c1 f8 02             	sar    eax,0x2
  4070ae:	eb 4b                	jmp    4070fb <___rshift_D2A+0xfb>
  4070b0:	8b 44 24 24          	mov    eax,DWORD PTR [esp+0x24]
  4070b4:	c7 40 10 00 00 00 00 	mov    DWORD PTR [eax+0x10],0x0
  4070bb:	8b 44 24 24          	mov    eax,DWORD PTR [esp+0x24]
  4070bf:	c7 40 14 00 00 00 00 	mov    DWORD PTR [eax+0x14],0x0
  4070c6:	83 c4 10             	add    esp,0x10
  4070c9:	5b                   	pop    ebx
  4070ca:	5e                   	pop    esi
  4070cb:	5f                   	pop    edi
  4070cc:	5d                   	pop    ebp
  4070cd:	c3                   	ret    
  4070ce:	66 90                	xchg   ax,ax
  4070d0:	39 c7                	cmp    edi,eax
  4070d2:	89 ea                	mov    edx,ebp
  4070d4:	76 da                	jbe    4070b0 <___rshift_D2A+0xb0>
  4070d6:	83 c0 04             	add    eax,0x4
  4070d9:	8b 48 fc             	mov    ecx,DWORD PTR [eax-0x4]
  4070dc:	83 c2 04             	add    edx,0x4
  4070df:	39 c7                	cmp    edi,eax
  4070e1:	89 4a fc             	mov    DWORD PTR [edx-0x4],ecx
  4070e4:	77 f0                	ja     4070d6 <___rshift_D2A+0xd6>
  4070e6:	8b 44 24 04          	mov    eax,DWORD PTR [esp+0x4]
  4070ea:	f7 d0                	not    eax
  4070ec:	01 f8                	add    eax,edi
  4070ee:	c1 e8 02             	shr    eax,0x2
  4070f1:	8d 04 85 04 00 00 00 	lea    eax,[eax*4+0x4]
  4070f8:	c1 f8 02             	sar    eax,0x2
  4070fb:	8b 74 24 24          	mov    esi,DWORD PTR [esp+0x24]
  4070ff:	85 c0                	test   eax,eax
  407101:	89 46 10             	mov    DWORD PTR [esi+0x10],eax
  407104:	74 b5                	je     4070bb <___rshift_D2A+0xbb>
  407106:	83 c4 10             	add    esp,0x10
  407109:	5b                   	pop    ebx
  40710a:	5e                   	pop    esi
  40710b:	5f                   	pop    edi
  40710c:	5d                   	pop    ebp
  40710d:	c3                   	ret    
  40710e:	89 e8                	mov    eax,ebp
  407110:	eb 8e                	jmp    4070a0 <___rshift_D2A+0xa0>
  407112:	8d b4 26 00 00 00 00 	lea    esi,[esi+eiz*1+0x0]
  407119:	8d bc 27 00 00 00 00 	lea    edi,[edi+eiz*1+0x0]

00407120 <___trailz_D2A>:
  407120:	53                   	push   ebx
  407121:	8b 44 24 08          	mov    eax,DWORD PTR [esp+0x8]
  407125:	8b 48 10             	mov    ecx,DWORD PTR [eax+0x10]
  407128:	8d 50 14             	lea    edx,[eax+0x14]
  40712b:	8d 1c 8a             	lea    ebx,[edx+ecx*4]
  40712e:	39 da                	cmp    edx,ebx
  407130:	73 28                	jae    40715a <___trailz_D2A+0x3a>
  407132:	8b 48 14             	mov    ecx,DWORD PTR [eax+0x14]
  407135:	31 c0                	xor    eax,eax
  407137:	85 c9                	test   ecx,ecx
  407139:	74 0b                	je     407146 <___trailz_D2A+0x26>
  40713b:	eb 15                	jmp    407152 <___trailz_D2A+0x32>
  40713d:	8d 76 00             	lea    esi,[esi+0x0]
  407140:	8b 0a                	mov    ecx,DWORD PTR [edx]
  407142:	85 c9                	test   ecx,ecx
  407144:	75 0c                	jne    407152 <___trailz_D2A+0x32>
  407146:	83 c2 04             	add    edx,0x4
  407149:	83 c0 20             	add    eax,0x20
  40714c:	39 d3                	cmp    ebx,edx
  40714e:	77 f0                	ja     407140 <___trailz_D2A+0x20>
  407150:	5b                   	pop    ebx
  407151:	c3                   	ret    
  407152:	f3 0f bc c9          	tzcnt  ecx,ecx
  407156:	01 c8                	add    eax,ecx
  407158:	5b                   	pop    ebx
  407159:	c3                   	ret    
  40715a:	31 c0                	xor    eax,eax
  40715c:	5b                   	pop    ebx
  40715d:	c3                   	ret    
  40715e:	90                   	nop
  40715f:	90                   	nop

00407160 <___rv_alloc_D2A>:
  407160:	53                   	push   ebx
  407161:	31 db                	xor    ebx,ebx
  407163:	83 ec 18             	sub    esp,0x18
  407166:	8b 4c 24 20          	mov    ecx,DWORD PTR [esp+0x20]
  40716a:	83 f9 13             	cmp    ecx,0x13
  40716d:	76 11                	jbe    407180 <___rv_alloc_D2A+0x20>
  40716f:	b8 04 00 00 00       	mov    eax,0x4
  407174:	01 c0                	add    eax,eax
  407176:	83 c3 01             	add    ebx,0x1
  407179:	8d 50 10             	lea    edx,[eax+0x10]
  40717c:	39 ca                	cmp    edx,ecx
  40717e:	76 f4                	jbe    407174 <___rv_alloc_D2A+0x14>
  407180:	89 1c 24             	mov    DWORD PTR [esp],ebx
  407183:	e8 a8 03 00 00       	call   407530 <___Balloc_D2A>
  407188:	89 18                	mov    DWORD PTR [eax],ebx
  40718a:	83 c4 18             	add    esp,0x18
  40718d:	83 c0 04             	add    eax,0x4
  407190:	5b                   	pop    ebx
  407191:	c3                   	ret    
  407192:	8d b4 26 00 00 00 00 	lea    esi,[esi+eiz*1+0x0]
  407199:	8d bc 27 00 00 00 00 	lea    edi,[edi+eiz*1+0x0]

004071a0 <___nrv_alloc_D2A>:
  4071a0:	56                   	push   esi
  4071a1:	53                   	push   ebx
  4071a2:	83 ec 14             	sub    esp,0x14
  4071a5:	8b 44 24 28          	mov    eax,DWORD PTR [esp+0x28]
  4071a9:	8b 5c 24 20          	mov    ebx,DWORD PTR [esp+0x20]
  4071ad:	8b 74 24 24          	mov    esi,DWORD PTR [esp+0x24]
  4071b1:	89 04 24             	mov    DWORD PTR [esp],eax
  4071b4:	e8 a7 ff ff ff       	call   407160 <___rv_alloc_D2A>
  4071b9:	0f b6 13             	movzx  edx,BYTE PTR [ebx]
  4071bc:	8d 4b 01             	lea    ecx,[ebx+0x1]
  4071bf:	84 d2                	test   dl,dl
  4071c1:	88 10                	mov    BYTE PTR [eax],dl
  4071c3:	89 c2                	mov    edx,eax
  4071c5:	74 10                	je     4071d7 <___nrv_alloc_D2A+0x37>
  4071c7:	83 c1 01             	add    ecx,0x1
  4071ca:	0f b6 59 ff          	movzx  ebx,BYTE PTR [ecx-0x1]
  4071ce:	83 c2 01             	add    edx,0x1
  4071d1:	84 db                	test   bl,bl
  4071d3:	88 1a                	mov    BYTE PTR [edx],bl
  4071d5:	75 f0                	jne    4071c7 <___nrv_alloc_D2A+0x27>
  4071d7:	85 f6                	test   esi,esi
  4071d9:	74 02                	je     4071dd <___nrv_alloc_D2A+0x3d>
  4071db:	89 16                	mov    DWORD PTR [esi],edx
  4071dd:	83 c4 14             	add    esp,0x14
  4071e0:	5b                   	pop    ebx
  4071e1:	5e                   	pop    esi
  4071e2:	c3                   	ret    
  4071e3:	8d b6 00 00 00 00    	lea    esi,[esi+0x0]
  4071e9:	8d bc 27 00 00 00 00 	lea    edi,[edi+eiz*1+0x0]

004071f0 <___freedtoa>:
  4071f0:	8b 44 24 04          	mov    eax,DWORD PTR [esp+0x4]
  4071f4:	ba 01 00 00 00       	mov    edx,0x1
  4071f9:	8b 48 fc             	mov    ecx,DWORD PTR [eax-0x4]
  4071fc:	83 e8 04             	sub    eax,0x4
  4071ff:	d3 e2                	shl    edx,cl
  407201:	89 48 04             	mov    DWORD PTR [eax+0x4],ecx
  407204:	89 50 08             	mov    DWORD PTR [eax+0x8],edx
  407207:	89 44 24 04          	mov    DWORD PTR [esp+0x4],eax
  40720b:	e9 f0 03 00 00       	jmp    407600 <___Bfree_D2A>

00407210 <___quorem_D2A>:
  407210:	55                   	push   ebp
  407211:	57                   	push   edi
  407212:	56                   	push   esi
  407213:	53                   	push   ebx
  407214:	83 ec 4c             	sub    esp,0x4c
  407217:	8b 44 24 64          	mov    eax,DWORD PTR [esp+0x64]
  40721b:	8b 7c 24 60          	mov    edi,DWORD PTR [esp+0x60]
  40721f:	8b 50 10             	mov    edx,DWORD PTR [eax+0x10]
  407222:	31 c0                	xor    eax,eax
  407224:	3b 57 10             	cmp    edx,DWORD PTR [edi+0x10]
  407227:	0f 8f d6 01 00 00    	jg     407403 <___quorem_D2A+0x1f3>
  40722d:	8b 44 24 64          	mov    eax,DWORD PTR [esp+0x64]
  407231:	8b 74 24 60          	mov    esi,DWORD PTR [esp+0x60]
  407235:	83 c0 14             	add    eax,0x14
  407238:	89 c7                	mov    edi,eax
  40723a:	89 44 24 38          	mov    DWORD PTR [esp+0x38],eax
  40723e:	8d 42 ff             	lea    eax,[edx-0x1]
  407241:	31 d2                	xor    edx,edx
  407243:	89 44 24 30          	mov    DWORD PTR [esp+0x30],eax
  407247:	c1 e0 02             	shl    eax,0x2
  40724a:	01 c7                	add    edi,eax
  40724c:	8d 5e 14             	lea    ebx,[esi+0x14]
  40724f:	01 d8                	add    eax,ebx
  407251:	89 7c 24 28          	mov    DWORD PTR [esp+0x28],edi
  407255:	8b 3f                	mov    edi,DWORD PTR [edi]
  407257:	89 44 24 3c          	mov    DWORD PTR [esp+0x3c],eax
  40725b:	8b 00                	mov    eax,DWORD PTR [eax]
  40725d:	89 5c 24 2c          	mov    DWORD PTR [esp+0x2c],ebx
  407261:	8d 4f 01             	lea    ecx,[edi+0x1]
  407264:	f7 f1                	div    ecx
  407266:	89 7c 24 10          	mov    DWORD PTR [esp+0x10],edi
  40726a:	85 c0                	test   eax,eax
  40726c:	89 c5                	mov    ebp,eax
  40726e:	89 44 24 34          	mov    DWORD PTR [esp+0x34],eax
  407272:	0f 84 c7 00 00 00    	je     40733f <___quorem_D2A+0x12f>
  407278:	8b 7c 24 38          	mov    edi,DWORD PTR [esp+0x38]
  40727c:	89 de                	mov    esi,ebx
  40727e:	c7 44 24 20 00 00 00 	mov    DWORD PTR [esp+0x20],0x0
  407285:	00 
  407286:	c7 44 24 24 00 00 00 	mov    DWORD PTR [esp+0x24],0x0
  40728d:	00 
  40728e:	c7 44 24 10 00 00 00 	mov    DWORD PTR [esp+0x10],0x0
  407295:	00 
  407296:	c7 44 24 14 00 00 00 	mov    DWORD PTR [esp+0x14],0x0
  40729d:	00 
  40729e:	66 90                	xchg   ax,ax
  4072a0:	83 c7 04             	add    edi,0x4
  4072a3:	89 e8                	mov    eax,ebp
  4072a5:	f7 67 fc             	mul    DWORD PTR [edi-0x4]
  4072a8:	03 44 24 20          	add    eax,DWORD PTR [esp+0x20]
  4072ac:	13 54 24 24          	adc    edx,DWORD PTR [esp+0x24]
  4072b0:	c7 44 24 1c 00 00 00 	mov    DWORD PTR [esp+0x1c],0x0
  4072b7:	00 
  4072b8:	89 44 24 18          	mov    DWORD PTR [esp+0x18],eax
  4072bc:	89 d3                	mov    ebx,edx
  4072be:	89 d9                	mov    ecx,ebx
  4072c0:	31 db                	xor    ebx,ebx
  4072c2:	89 4c 24 20          	mov    DWORD PTR [esp+0x20],ecx
  4072c6:	8b 0e                	mov    ecx,DWORD PTR [esi]
  4072c8:	89 5c 24 24          	mov    DWORD PTR [esp+0x24],ebx
  4072cc:	31 db                	xor    ebx,ebx
  4072ce:	2b 4c 24 18          	sub    ecx,DWORD PTR [esp+0x18]
  4072d2:	1b 5c 24 1c          	sbb    ebx,DWORD PTR [esp+0x1c]
  4072d6:	2b 4c 24 10          	sub    ecx,DWORD PTR [esp+0x10]
  4072da:	1b 5c 24 14          	sbb    ebx,DWORD PTR [esp+0x14]
  4072de:	83 c6 04             	add    esi,0x4
  4072e1:	c7 44 24 14 00 00 00 	mov    DWORD PTR [esp+0x14],0x0
  4072e8:	00 
  4072e9:	89 d8                	mov    eax,ebx
  4072eb:	83 e0 01             	and    eax,0x1
  4072ee:	39 7c 24 28          	cmp    DWORD PTR [esp+0x28],edi
  4072f2:	89 44 24 10          	mov    DWORD PTR [esp+0x10],eax
  4072f6:	89 4e fc             	mov    DWORD PTR [esi-0x4],ecx
  4072f9:	73 a5                	jae    4072a0 <___quorem_D2A+0x90>
  4072fb:	8b 44 24 3c          	mov    eax,DWORD PTR [esp+0x3c]
  4072ff:	8b 38                	mov    edi,DWORD PTR [eax]
  407301:	85 ff                	test   edi,edi
  407303:	75 3a                	jne    40733f <___quorem_D2A+0x12f>
  407305:	8b 4c 24 2c          	mov    ecx,DWORD PTR [esp+0x2c]
  407309:	89 c6                	mov    esi,eax
  40730b:	83 e8 04             	sub    eax,0x4
  40730e:	39 c1                	cmp    ecx,eax
  407310:	73 22                	jae    407334 <___quorem_D2A+0x124>
  407312:	8b 76 fc             	mov    esi,DWORD PTR [esi-0x4]
  407315:	85 f6                	test   esi,esi
  407317:	75 1b                	jne    407334 <___quorem_D2A+0x124>
  407319:	8b 54 24 30          	mov    edx,DWORD PTR [esp+0x30]
  40731d:	eb 07                	jmp    407326 <___quorem_D2A+0x116>
  40731f:	90                   	nop
  407320:	8b 18                	mov    ebx,DWORD PTR [eax]
  407322:	85 db                	test   ebx,ebx
  407324:	75 0a                	jne    407330 <___quorem_D2A+0x120>
  407326:	83 e8 04             	sub    eax,0x4
  407329:	83 ea 01             	sub    edx,0x1
  40732c:	39 c1                	cmp    ecx,eax
  40732e:	72 f0                	jb     407320 <___quorem_D2A+0x110>
  407330:	89 54 24 30          	mov    DWORD PTR [esp+0x30],edx
  407334:	8b 44 24 60          	mov    eax,DWORD PTR [esp+0x60]
  407338:	8b 7c 24 30          	mov    edi,DWORD PTR [esp+0x30]
  40733c:	89 78 10             	mov    DWORD PTR [eax+0x10],edi
  40733f:	8b 44 24 64          	mov    eax,DWORD PTR [esp+0x64]
  407343:	89 44 24 04          	mov    DWORD PTR [esp+0x4],eax
  407347:	8b 44 24 60          	mov    eax,DWORD PTR [esp+0x60]
  40734b:	89 04 24             	mov    DWORD PTR [esp],eax
  40734e:	e8 2d 08 00 00       	call   407b80 <___cmp_D2A>
  407353:	85 c0                	test   eax,eax
  407355:	0f 88 a4 00 00 00    	js     4073ff <___quorem_D2A+0x1ef>
  40735b:	31 f6                	xor    esi,esi
  40735d:	31 ff                	xor    edi,edi
  40735f:	8d 45 01             	lea    eax,[ebp+0x1]
  407362:	8b 6c 24 2c          	mov    ebp,DWORD PTR [esp+0x2c]
  407366:	89 74 24 10          	mov    DWORD PTR [esp+0x10],esi
  40736a:	8b 74 24 38          	mov    esi,DWORD PTR [esp+0x38]
  40736e:	89 7c 24 14          	mov    DWORD PTR [esp+0x14],edi
  407372:	8b 7c 24 28          	mov    edi,DWORD PTR [esp+0x28]
  407376:	89 44 24 34          	mov    DWORD PTR [esp+0x34],eax
  40737a:	8d b6 00 00 00 00    	lea    esi,[esi+0x0]
  407380:	83 c6 04             	add    esi,0x4
  407383:	8b 45 00             	mov    eax,DWORD PTR [ebp+0x0]
  407386:	31 db                	xor    ebx,ebx
  407388:	8b 4e fc             	mov    ecx,DWORD PTR [esi-0x4]
  40738b:	31 d2                	xor    edx,edx
  40738d:	29 c8                	sub    eax,ecx
  40738f:	19 da                	sbb    edx,ebx
  407391:	2b 44 24 10          	sub    eax,DWORD PTR [esp+0x10]
  407395:	1b 54 24 14          	sbb    edx,DWORD PTR [esp+0x14]
  407399:	83 c5 04             	add    ebp,0x4
  40739c:	c7 44 24 14 00 00 00 	mov    DWORD PTR [esp+0x14],0x0
  4073a3:	00 
  4073a4:	89 d3                	mov    ebx,edx
  4073a6:	83 e3 01             	and    ebx,0x1
  4073a9:	39 f7                	cmp    edi,esi
  4073ab:	89 5c 24 10          	mov    DWORD PTR [esp+0x10],ebx
  4073af:	89 45 fc             	mov    DWORD PTR [ebp-0x4],eax
  4073b2:	73 cc                	jae    407380 <___quorem_D2A+0x170>
  4073b4:	8b 44 24 2c          	mov    eax,DWORD PTR [esp+0x2c]
  4073b8:	8b 5c 24 30          	mov    ebx,DWORD PTR [esp+0x30]
  4073bc:	8d 14 98             	lea    edx,[eax+ebx*4]
  4073bf:	8b 3a                	mov    edi,DWORD PTR [edx]
  4073c1:	85 ff                	test   edi,edi
  4073c3:	75 3a                	jne    4073ff <___quorem_D2A+0x1ef>
  4073c5:	8b 4c 24 2c          	mov    ecx,DWORD PTR [esp+0x2c]
  4073c9:	8d 42 fc             	lea    eax,[edx-0x4]
  4073cc:	39 c1                	cmp    ecx,eax
  4073ce:	73 24                	jae    4073f4 <___quorem_D2A+0x1e4>
  4073d0:	8b 72 fc             	mov    esi,DWORD PTR [edx-0x4]
  4073d3:	85 f6                	test   esi,esi
  4073d5:	75 1d                	jne    4073f4 <___quorem_D2A+0x1e4>
  4073d7:	89 da                	mov    edx,ebx
  4073d9:	eb 0b                	jmp    4073e6 <___quorem_D2A+0x1d6>
  4073db:	90                   	nop
  4073dc:	8d 74 26 00          	lea    esi,[esi+eiz*1+0x0]
  4073e0:	8b 18                	mov    ebx,DWORD PTR [eax]
  4073e2:	85 db                	test   ebx,ebx
  4073e4:	75 0a                	jne    4073f0 <___quorem_D2A+0x1e0>
  4073e6:	83 e8 04             	sub    eax,0x4
  4073e9:	83 ea 01             	sub    edx,0x1
  4073ec:	39 c1                	cmp    ecx,eax
  4073ee:	72 f0                	jb     4073e0 <___quorem_D2A+0x1d0>
  4073f0:	89 54 24 30          	mov    DWORD PTR [esp+0x30],edx
  4073f4:	8b 44 24 60          	mov    eax,DWORD PTR [esp+0x60]
  4073f8:	8b 7c 24 30          	mov    edi,DWORD PTR [esp+0x30]
  4073fc:	89 78 10             	mov    DWORD PTR [eax+0x10],edi
  4073ff:	8b 44 24 34          	mov    eax,DWORD PTR [esp+0x34]
  407403:	83 c4 4c             	add    esp,0x4c
  407406:	5b                   	pop    ebx
  407407:	5e                   	pop    esi
  407408:	5f                   	pop    edi
  407409:	5d                   	pop    ebp
  40740a:	c3                   	ret    
  40740b:	90                   	nop
  40740c:	90                   	nop
  40740d:	90                   	nop
  40740e:	90                   	nop
  40740f:	90                   	nop

00407410 <_dtoa_lock>:
  407410:	55                   	push   ebp
  407411:	89 e5                	mov    ebp,esp
  407413:	53                   	push   ebx
  407414:	89 c3                	mov    ebx,eax
  407416:	83 ec 14             	sub    esp,0x14
  407419:	8b 15 c8 d9 40 00    	mov    edx,DWORD PTR ds:0x40d9c8
  40741f:	83 fa 02             	cmp    edx,0x2
  407422:	74 7f                	je     4074a3 <_dtoa_lock+0x93>
  407424:	85 d2                	test   edx,edx
  407426:	75 1d                	jne    407445 <_dtoa_lock+0x35>
  407428:	eb 2a                	jmp    407454 <_dtoa_lock+0x44>
  40742a:	8d b6 00 00 00 00    	lea    esi,[esi+0x0]
  407430:	c7 04 24 01 00 00 00 	mov    DWORD PTR [esp],0x1
  407437:	e8 34 0c 00 00       	call   408070 <_Sleep@4>
  40743c:	83 ec 04             	sub    esp,0x4
  40743f:	8b 15 c8 d9 40 00    	mov    edx,DWORD PTR ds:0x40d9c8
  407445:	83 fa 01             	cmp    edx,0x1
  407448:	74 e6                	je     407430 <_dtoa_lock+0x20>
  40744a:	83 fa 02             	cmp    edx,0x2
  40744d:	74 54                	je     4074a3 <_dtoa_lock+0x93>
  40744f:	8b 5d fc             	mov    ebx,DWORD PTR [ebp-0x4]
  407452:	c9                   	leave  
  407453:	c3                   	ret    
  407454:	c7 44 24 04 01 00 00 	mov    DWORD PTR [esp+0x4],0x1
  40745b:	00 
  40745c:	c7 04 24 c8 d9 40 00 	mov    DWORD PTR [esp],0x40d9c8
  407463:	e8 30 0c 00 00       	call   408098 <_InterlockedExchange@8>
  407468:	83 ec 08             	sub    esp,0x8
  40746b:	85 c0                	test   eax,eax
  40746d:	75 51                	jne    4074c0 <_dtoa_lock+0xb0>
  40746f:	c7 04 24 e0 d9 40 00 	mov    DWORD PTR [esp],0x40d9e0
  407476:	e8 25 0c 00 00       	call   4080a0 <_InitializeCriticalSection@4>
  40747b:	83 ec 04             	sub    esp,0x4
  40747e:	c7 04 24 f8 d9 40 00 	mov    DWORD PTR [esp],0x40d9f8
  407485:	e8 16 0c 00 00       	call   4080a0 <_InitializeCriticalSection@4>
  40748a:	83 ec 04             	sub    esp,0x4
  40748d:	c7 04 24 e0 74 40 00 	mov    DWORD PTR [esp],0x4074e0
  407494:	e8 47 9e ff ff       	call   4012e0 <_atexit>
  407499:	c7 05 c8 d9 40 00 02 	mov    DWORD PTR ds:0x40d9c8,0x2
  4074a0:	00 00 00 
  4074a3:	8d 04 5b             	lea    eax,[ebx+ebx*2]
  4074a6:	8d 04 c5 e0 d9 40 00 	lea    eax,[eax*8+0x40d9e0]
  4074ad:	89 04 24             	mov    DWORD PTR [esp],eax
  4074b0:	e8 33 0c 00 00       	call   4080e8 <_EnterCriticalSection@4>
  4074b5:	8b 5d fc             	mov    ebx,DWORD PTR [ebp-0x4]
  4074b8:	83 ec 04             	sub    esp,0x4
  4074bb:	c9                   	leave  
  4074bc:	c3                   	ret    
  4074bd:	8d 76 00             	lea    esi,[esi+0x0]
  4074c0:	83 f8 02             	cmp    eax,0x2
  4074c3:	0f 85 76 ff ff ff    	jne    40743f <_dtoa_lock+0x2f>
  4074c9:	c7 05 c8 d9 40 00 02 	mov    DWORD PTR ds:0x40d9c8,0x2
  4074d0:	00 00 00 
  4074d3:	eb ce                	jmp    4074a3 <_dtoa_lock+0x93>
  4074d5:	8d 74 26 00          	lea    esi,[esi+eiz*1+0x0]
  4074d9:	8d bc 27 00 00 00 00 	lea    edi,[edi+eiz*1+0x0]

004074e0 <_dtoa_lock_cleanup>:
  4074e0:	55                   	push   ebp
  4074e1:	89 e5                	mov    ebp,esp
  4074e3:	83 ec 18             	sub    esp,0x18
  4074e6:	c7 44 24 04 03 00 00 	mov    DWORD PTR [esp+0x4],0x3
  4074ed:	00 
  4074ee:	c7 04 24 c8 d9 40 00 	mov    DWORD PTR [esp],0x40d9c8
  4074f5:	e8 9e 0b 00 00       	call   408098 <_InterlockedExchange@8>
  4074fa:	83 ec 08             	sub    esp,0x8
  4074fd:	83 f8 02             	cmp    eax,0x2
  407500:	74 02                	je     407504 <_dtoa_lock_cleanup+0x24>
  407502:	c9                   	leave  
  407503:	c3                   	ret    
  407504:	c7 04 24 e0 d9 40 00 	mov    DWORD PTR [esp],0x40d9e0
  40750b:	e8 e0 0b 00 00       	call   4080f0 <_DeleteCriticalSection@4>
  407510:	83 ec 04             	sub    esp,0x4
  407513:	c7 04 24 f8 d9 40 00 	mov    DWORD PTR [esp],0x40d9f8
  40751a:	e8 d1 0b 00 00       	call   4080f0 <_DeleteCriticalSection@4>
  40751f:	83 ec 04             	sub    esp,0x4
  407522:	c9                   	leave  
  407523:	c3                   	ret    
  407524:	8d b6 00 00 00 00    	lea    esi,[esi+0x0]
  40752a:	8d bf 00 00 00 00    	lea    edi,[edi+0x0]

00407530 <___Balloc_D2A>:
  407530:	55                   	push   ebp
  407531:	31 c0                	xor    eax,eax
  407533:	89 e5                	mov    ebp,esp
  407535:	57                   	push   edi
  407536:	56                   	push   esi
  407537:	53                   	push   ebx
  407538:	83 ec 1c             	sub    esp,0x1c
  40753b:	8b 75 08             	mov    esi,DWORD PTR [ebp+0x8]
  40753e:	e8 cd fe ff ff       	call   407410 <_dtoa_lock>
  407543:	83 fe 09             	cmp    esi,0x9
  407546:	7f 2e                	jg     407576 <___Balloc_D2A+0x46>
  407548:	8b 1c b5 a0 d9 40 00 	mov    ebx,DWORD PTR [esi*4+0x40d9a0]
  40754f:	85 db                	test   ebx,ebx
  407551:	74 6e                	je     4075c1 <___Balloc_D2A+0x91>
  407553:	8b 03                	mov    eax,DWORD PTR [ebx]
  407555:	83 3d c8 d9 40 00 02 	cmp    DWORD PTR ds:0x40d9c8,0x2
  40755c:	89 04 b5 a0 d9 40 00 	mov    DWORD PTR [esi*4+0x40d9a0],eax
  407563:	75 44                	jne    4075a9 <___Balloc_D2A+0x79>
  407565:	c7 04 24 e0 d9 40 00 	mov    DWORD PTR [esp],0x40d9e0
  40756c:	e8 17 0b 00 00       	call   408088 <_LeaveCriticalSection@4>
  407571:	83 ec 04             	sub    esp,0x4
  407574:	eb 33                	jmp    4075a9 <___Balloc_D2A+0x79>
  407576:	bf 01 00 00 00       	mov    edi,0x1
  40757b:	89 f1                	mov    ecx,esi
  40757d:	d3 e7                	shl    edi,cl
  40757f:	8d 04 bd 1b 00 00 00 	lea    eax,[edi*4+0x1b]
  407586:	c1 e8 03             	shr    eax,0x3
  407589:	c1 e0 03             	shl    eax,0x3
  40758c:	89 04 24             	mov    DWORD PTR [esp],eax
  40758f:	e8 34 0a 00 00       	call   407fc8 <_malloc>
  407594:	85 c0                	test   eax,eax
  407596:	89 c3                	mov    ebx,eax
  407598:	74 5f                	je     4075f9 <___Balloc_D2A+0xc9>
  40759a:	83 3d c8 d9 40 00 02 	cmp    DWORD PTR ds:0x40d9c8,0x2
  4075a1:	89 73 04             	mov    DWORD PTR [ebx+0x4],esi
  4075a4:	89 7b 08             	mov    DWORD PTR [ebx+0x8],edi
  4075a7:	74 bc                	je     407565 <___Balloc_D2A+0x35>
  4075a9:	c7 43 10 00 00 00 00 	mov    DWORD PTR [ebx+0x10],0x0
  4075b0:	89 d8                	mov    eax,ebx
  4075b2:	c7 43 0c 00 00 00 00 	mov    DWORD PTR [ebx+0xc],0x0
  4075b9:	8d 65 f4             	lea    esp,[ebp-0xc]
  4075bc:	5b                   	pop    ebx
  4075bd:	5e                   	pop    esi
  4075be:	5f                   	pop    edi
  4075bf:	5d                   	pop    ebp
  4075c0:	c3                   	ret    
  4075c1:	8b 1d 20 90 40 00    	mov    ebx,DWORD PTR ds:0x409020
  4075c7:	bf 01 00 00 00       	mov    edi,0x1
  4075cc:	89 f1                	mov    ecx,esi
  4075ce:	d3 e7                	shl    edi,cl
  4075d0:	8d 04 bd 1b 00 00 00 	lea    eax,[edi*4+0x1b]
  4075d7:	c1 e8 03             	shr    eax,0x3
  4075da:	89 da                	mov    edx,ebx
  4075dc:	81 ea a0 d0 40 00    	sub    edx,0x40d0a0
  4075e2:	c1 fa 03             	sar    edx,0x3
  4075e5:	01 c2                	add    edx,eax
  4075e7:	81 fa 20 01 00 00    	cmp    edx,0x120
  4075ed:	77 9a                	ja     407589 <___Balloc_D2A+0x59>
  4075ef:	8d 04 c3             	lea    eax,[ebx+eax*8]
  4075f2:	a3 20 90 40 00       	mov    ds:0x409020,eax
  4075f7:	eb a1                	jmp    40759a <___Balloc_D2A+0x6a>
  4075f9:	31 c0                	xor    eax,eax
  4075fb:	eb bc                	jmp    4075b9 <___Balloc_D2A+0x89>
  4075fd:	8d 76 00             	lea    esi,[esi+0x0]

00407600 <___Bfree_D2A>:
  407600:	55                   	push   ebp
  407601:	89 e5                	mov    ebp,esp
  407603:	53                   	push   ebx
  407604:	83 ec 14             	sub    esp,0x14
  407607:	8b 5d 08             	mov    ebx,DWORD PTR [ebp+0x8]
  40760a:	85 db                	test   ebx,ebx
  40760c:	74 29                	je     407637 <___Bfree_D2A+0x37>
  40760e:	83 7b 04 09          	cmp    DWORD PTR [ebx+0x4],0x9
  407612:	7f 2c                	jg     407640 <___Bfree_D2A+0x40>
  407614:	31 c0                	xor    eax,eax
  407616:	e8 f5 fd ff ff       	call   407410 <_dtoa_lock>
  40761b:	8b 43 04             	mov    eax,DWORD PTR [ebx+0x4]
  40761e:	83 3d c8 d9 40 00 02 	cmp    DWORD PTR ds:0x40d9c8,0x2
  407625:	8b 14 85 a0 d9 40 00 	mov    edx,DWORD PTR [eax*4+0x40d9a0]
  40762c:	89 1c 85 a0 d9 40 00 	mov    DWORD PTR [eax*4+0x40d9a0],ebx
  407633:	89 13                	mov    DWORD PTR [ebx],edx
  407635:	74 19                	je     407650 <___Bfree_D2A+0x50>
  407637:	8b 5d fc             	mov    ebx,DWORD PTR [ebp-0x4]
  40763a:	c9                   	leave  
  40763b:	c3                   	ret    
  40763c:	8d 74 26 00          	lea    esi,[esi+eiz*1+0x0]
  407640:	8b 5d fc             	mov    ebx,DWORD PTR [ebp-0x4]
  407643:	c9                   	leave  
  407644:	e9 a7 09 00 00       	jmp    407ff0 <_free>
  407649:	8d b4 26 00 00 00 00 	lea    esi,[esi+eiz*1+0x0]
  407650:	c7 04 24 e0 d9 40 00 	mov    DWORD PTR [esp],0x40d9e0
  407657:	e8 2c 0a 00 00       	call   408088 <_LeaveCriticalSection@4>
  40765c:	8b 5d fc             	mov    ebx,DWORD PTR [ebp-0x4]
  40765f:	83 ec 04             	sub    esp,0x4
  407662:	c9                   	leave  
  407663:	c3                   	ret    
  407664:	8d b6 00 00 00 00    	lea    esi,[esi+0x0]
  40766a:	8d bf 00 00 00 00    	lea    edi,[edi+0x0]

00407670 <___multadd_D2A>:
  407670:	55                   	push   ebp
  407671:	31 c9                	xor    ecx,ecx
  407673:	57                   	push   edi
  407674:	56                   	push   esi
  407675:	53                   	push   ebx
  407676:	83 ec 2c             	sub    esp,0x2c
  407679:	8b 44 24 40          	mov    eax,DWORD PTR [esp+0x40]
  40767d:	8b 7c 24 48          	mov    edi,DWORD PTR [esp+0x48]
  407681:	8b 40 10             	mov    eax,DWORD PTR [eax+0x10]
  407684:	89 fd                	mov    ebp,edi
  407686:	c1 fd 1f             	sar    ebp,0x1f
  407689:	89 44 24 1c          	mov    DWORD PTR [esp+0x1c],eax
  40768d:	8b 44 24 40          	mov    eax,DWORD PTR [esp+0x40]
  407691:	8d 58 14             	lea    ebx,[eax+0x14]
  407694:	8b 44 24 44          	mov    eax,DWORD PTR [esp+0x44]
  407698:	89 44 24 10          	mov    DWORD PTR [esp+0x10],eax
  40769c:	c1 f8 1f             	sar    eax,0x1f
  40769f:	89 44 24 14          	mov    DWORD PTR [esp+0x14],eax
  4076a3:	8b 04 8b             	mov    eax,DWORD PTR [ebx+ecx*4]
  4076a6:	8b 74 24 14          	mov    esi,DWORD PTR [esp+0x14]
  4076aa:	0f af f0             	imul   esi,eax
  4076ad:	f7 64 24 10          	mul    DWORD PTR [esp+0x10]
  4076b1:	01 f2                	add    edx,esi
  4076b3:	01 f8                	add    eax,edi
  4076b5:	11 ea                	adc    edx,ebp
  4076b7:	89 d5                	mov    ebp,edx
  4076b9:	89 ef                	mov    edi,ebp
  4076bb:	31 ed                	xor    ebp,ebp
  4076bd:	89 04 8b             	mov    DWORD PTR [ebx+ecx*4],eax
  4076c0:	83 c1 01             	add    ecx,0x1
  4076c3:	39 4c 24 1c          	cmp    DWORD PTR [esp+0x1c],ecx
  4076c7:	7f da                	jg     4076a3 <___multadd_D2A+0x33>
  4076c9:	89 ea                	mov    edx,ebp
  4076cb:	8b 44 24 40          	mov    eax,DWORD PTR [esp+0x40]
  4076cf:	09 fa                	or     edx,edi
  4076d1:	74 1d                	je     4076f0 <___multadd_D2A+0x80>
  4076d3:	8b 54 24 1c          	mov    edx,DWORD PTR [esp+0x1c]
  4076d7:	3b 50 08             	cmp    edx,DWORD PTR [eax+0x8]
  4076da:	7d 1c                	jge    4076f8 <___multadd_D2A+0x88>
  4076dc:	8b 54 24 40          	mov    edx,DWORD PTR [esp+0x40]
  4076e0:	8b 44 24 1c          	mov    eax,DWORD PTR [esp+0x1c]
  4076e4:	89 7c 82 14          	mov    DWORD PTR [edx+eax*4+0x14],edi
  4076e8:	83 c0 01             	add    eax,0x1
  4076eb:	89 42 10             	mov    DWORD PTR [edx+0x10],eax
  4076ee:	89 d0                	mov    eax,edx
  4076f0:	83 c4 2c             	add    esp,0x2c
  4076f3:	5b                   	pop    ebx
  4076f4:	5e                   	pop    esi
  4076f5:	5f                   	pop    edi
  4076f6:	5d                   	pop    ebp
  4076f7:	c3                   	ret    
  4076f8:	8b 40 04             	mov    eax,DWORD PTR [eax+0x4]
  4076fb:	89 44 24 10          	mov    DWORD PTR [esp+0x10],eax
  4076ff:	83 c0 01             	add    eax,0x1
  407702:	89 04 24             	mov    DWORD PTR [esp],eax
  407705:	e8 26 fe ff ff       	call   407530 <___Balloc_D2A>
  40770a:	85 c0                	test   eax,eax
  40770c:	89 c3                	mov    ebx,eax
  40770e:	74 3a                	je     40774a <___multadd_D2A+0xda>
  407710:	8d 48 0c             	lea    ecx,[eax+0xc]
  407713:	8b 44 24 40          	mov    eax,DWORD PTR [esp+0x40]
  407717:	8b 40 10             	mov    eax,DWORD PTR [eax+0x10]
  40771a:	89 0c 24             	mov    DWORD PTR [esp],ecx
  40771d:	8d 14 85 08 00 00 00 	lea    edx,[eax*4+0x8]
  407724:	8b 44 24 40          	mov    eax,DWORD PTR [esp+0x40]
  407728:	89 54 24 08          	mov    DWORD PTR [esp+0x8],edx
  40772c:	83 c0 0c             	add    eax,0xc
  40772f:	89 44 24 04          	mov    DWORD PTR [esp+0x4],eax
  407733:	e8 80 08 00 00       	call   407fb8 <_memcpy>
  407738:	8b 44 24 40          	mov    eax,DWORD PTR [esp+0x40]
  40773c:	89 04 24             	mov    DWORD PTR [esp],eax
  40773f:	e8 bc fe ff ff       	call   407600 <___Bfree_D2A>
  407744:	89 5c 24 40          	mov    DWORD PTR [esp+0x40],ebx
  407748:	eb 92                	jmp    4076dc <___multadd_D2A+0x6c>
  40774a:	31 c0                	xor    eax,eax
  40774c:	eb a2                	jmp    4076f0 <___multadd_D2A+0x80>
  40774e:	66 90                	xchg   ax,ax

00407750 <___i2b_D2A>:
  407750:	83 ec 1c             	sub    esp,0x1c
  407753:	c7 04 24 01 00 00 00 	mov    DWORD PTR [esp],0x1
  40775a:	e8 d1 fd ff ff       	call   407530 <___Balloc_D2A>
  40775f:	85 c0                	test   eax,eax
  407761:	74 0e                	je     407771 <___i2b_D2A+0x21>
  407763:	8b 54 24 20          	mov    edx,DWORD PTR [esp+0x20]
  407767:	c7 40 10 01 00 00 00 	mov    DWORD PTR [eax+0x10],0x1
  40776e:	89 50 14             	mov    DWORD PTR [eax+0x14],edx
  407771:	83 c4 1c             	add    esp,0x1c
  407774:	c3                   	ret    
  407775:	8d 74 26 00          	lea    esi,[esi+eiz*1+0x0]
  407779:	8d bc 27 00 00 00 00 	lea    edi,[edi+eiz*1+0x0]

00407780 <___mult_D2A>:
  407780:	55                   	push   ebp
  407781:	57                   	push   edi
  407782:	56                   	push   esi
  407783:	53                   	push   ebx
  407784:	83 ec 3c             	sub    esp,0x3c
  407787:	8b 7c 24 50          	mov    edi,DWORD PTR [esp+0x50]
  40778b:	8b 6c 24 54          	mov    ebp,DWORD PTR [esp+0x54]
  40778f:	8b 77 10             	mov    esi,DWORD PTR [edi+0x10]
  407792:	8b 5d 10             	mov    ebx,DWORD PTR [ebp+0x10]
  407795:	39 de                	cmp    esi,ebx
  407797:	7d 0c                	jge    4077a5 <___mult_D2A+0x25>
  407799:	89 f0                	mov    eax,esi
  40779b:	89 de                	mov    esi,ebx
  40779d:	89 c3                	mov    ebx,eax
  40779f:	89 f8                	mov    eax,edi
  4077a1:	89 ef                	mov    edi,ebp
  4077a3:	89 c5                	mov    ebp,eax
  4077a5:	8d 04 1e             	lea    eax,[esi+ebx*1]
  4077a8:	3b 47 08             	cmp    eax,DWORD PTR [edi+0x8]
  4077ab:	89 44 24 20          	mov    DWORD PTR [esp+0x20],eax
  4077af:	0f 9f c0             	setg   al
  4077b2:	0f b6 c0             	movzx  eax,al
  4077b5:	03 47 04             	add    eax,DWORD PTR [edi+0x4]
  4077b8:	89 04 24             	mov    DWORD PTR [esp],eax
  4077bb:	e8 70 fd ff ff       	call   407530 <___Balloc_D2A>
  4077c0:	85 c0                	test   eax,eax
  4077c2:	89 44 24 2c          	mov    DWORD PTR [esp+0x2c],eax
  4077c6:	0f 84 08 01 00 00    	je     4078d4 <___mult_D2A+0x154>
  4077cc:	8b 4c 24 20          	mov    ecx,DWORD PTR [esp+0x20]
  4077d0:	8d 40 14             	lea    eax,[eax+0x14]
  4077d3:	89 44 24 18          	mov    DWORD PTR [esp+0x18],eax
  4077d7:	8d 0c 88             	lea    ecx,[eax+ecx*4]
  4077da:	89 ca                	mov    edx,ecx
  4077dc:	39 d0                	cmp    eax,edx
  4077de:	89 4c 24 28          	mov    DWORD PTR [esp+0x28],ecx
  4077e2:	73 11                	jae    4077f5 <___mult_D2A+0x75>
  4077e4:	8b 54 24 28          	mov    edx,DWORD PTR [esp+0x28]
  4077e8:	c7 00 00 00 00 00    	mov    DWORD PTR [eax],0x0
  4077ee:	83 c0 04             	add    eax,0x4
  4077f1:	39 c2                	cmp    edx,eax
  4077f3:	77 f3                	ja     4077e8 <___mult_D2A+0x68>
  4077f5:	8d 47 14             	lea    eax,[edi+0x14]
  4077f8:	89 44 24 24          	mov    DWORD PTR [esp+0x24],eax
  4077fc:	8d 04 b0             	lea    eax,[eax+esi*4]
  4077ff:	89 44 24 10          	mov    DWORD PTR [esp+0x10],eax
  407803:	8d 45 14             	lea    eax,[ebp+0x14]
  407806:	8d 1c 98             	lea    ebx,[eax+ebx*4]
  407809:	39 d8                	cmp    eax,ebx
  40780b:	89 44 24 14          	mov    DWORD PTR [esp+0x14],eax
  40780f:	89 5c 24 1c          	mov    DWORD PTR [esp+0x1c],ebx
  407813:	73 74                	jae    407889 <___mult_D2A+0x109>
  407815:	83 44 24 14 04       	add    DWORD PTR [esp+0x14],0x4
  40781a:	8b 44 24 14          	mov    eax,DWORD PTR [esp+0x14]
  40781e:	8b 68 fc             	mov    ebp,DWORD PTR [eax-0x4]
  407821:	85 ed                	test   ebp,ebp
  407823:	74 55                	je     40787a <___mult_D2A+0xfa>
  407825:	8b 7c 24 18          	mov    edi,DWORD PTR [esp+0x18]
  407829:	8b 74 24 24          	mov    esi,DWORD PTR [esp+0x24]
  40782d:	c7 44 24 08 00 00 00 	mov    DWORD PTR [esp+0x8],0x0
  407834:	00 
  407835:	c7 44 24 0c 00 00 00 	mov    DWORD PTR [esp+0xc],0x0
  40783c:	00 
  40783d:	eb 03                	jmp    407842 <___mult_D2A+0xc2>
  40783f:	90                   	nop
  407840:	89 c7                	mov    edi,eax
  407842:	83 c6 04             	add    esi,0x4
  407845:	8b 0f                	mov    ecx,DWORD PTR [edi]
  407847:	89 e8                	mov    eax,ebp
  407849:	f7 66 fc             	mul    DWORD PTR [esi-0x4]
  40784c:	31 db                	xor    ebx,ebx
  40784e:	01 c1                	add    ecx,eax
  407850:	11 d3                	adc    ebx,edx
  407852:	03 4c 24 08          	add    ecx,DWORD PTR [esp+0x8]
  407856:	13 5c 24 0c          	adc    ebx,DWORD PTR [esp+0xc]
  40785a:	89 0f                	mov    DWORD PTR [edi],ecx
  40785c:	89 da                	mov    edx,ebx
  40785e:	89 d0                	mov    eax,edx
  407860:	31 d2                	xor    edx,edx
  407862:	39 74 24 10          	cmp    DWORD PTR [esp+0x10],esi
  407866:	89 44 24 08          	mov    DWORD PTR [esp+0x8],eax
  40786a:	8d 47 04             	lea    eax,[edi+0x4]
  40786d:	89 54 24 0c          	mov    DWORD PTR [esp+0xc],edx
  407871:	77 cd                	ja     407840 <___mult_D2A+0xc0>
  407873:	8b 44 24 08          	mov    eax,DWORD PTR [esp+0x8]
  407877:	89 47 04             	mov    DWORD PTR [edi+0x4],eax
  40787a:	8b 44 24 14          	mov    eax,DWORD PTR [esp+0x14]
  40787e:	83 44 24 18 04       	add    DWORD PTR [esp+0x18],0x4
  407883:	39 44 24 1c          	cmp    DWORD PTR [esp+0x1c],eax
  407887:	77 8c                	ja     407815 <___mult_D2A+0x95>
  407889:	8b 7c 24 20          	mov    edi,DWORD PTR [esp+0x20]
  40788d:	85 ff                	test   edi,edi
  40788f:	7e 30                	jle    4078c1 <___mult_D2A+0x141>
  407891:	8b 5c 24 28          	mov    ebx,DWORD PTR [esp+0x28]
  407895:	8b 73 fc             	mov    esi,DWORD PTR [ebx-0x4]
  407898:	85 f6                	test   esi,esi
  40789a:	75 25                	jne    4078c1 <___mult_D2A+0x141>
  40789c:	8b 54 24 20          	mov    edx,DWORD PTR [esp+0x20]
  4078a0:	89 d0                	mov    eax,edx
  4078a2:	c1 e0 02             	shl    eax,0x2
  4078a5:	29 c3                	sub    ebx,eax
  4078a7:	89 d8                	mov    eax,ebx
  4078a9:	eb 0d                	jmp    4078b8 <___mult_D2A+0x138>
  4078ab:	90                   	nop
  4078ac:	8d 74 26 00          	lea    esi,[esi+eiz*1+0x0]
  4078b0:	8b 4c 90 fc          	mov    ecx,DWORD PTR [eax+edx*4-0x4]
  4078b4:	85 c9                	test   ecx,ecx
  4078b6:	75 05                	jne    4078bd <___mult_D2A+0x13d>
  4078b8:	83 ea 01             	sub    edx,0x1
  4078bb:	75 f3                	jne    4078b0 <___mult_D2A+0x130>
  4078bd:	89 54 24 20          	mov    DWORD PTR [esp+0x20],edx
  4078c1:	8b 44 24 2c          	mov    eax,DWORD PTR [esp+0x2c]
  4078c5:	8b 5c 24 20          	mov    ebx,DWORD PTR [esp+0x20]
  4078c9:	89 58 10             	mov    DWORD PTR [eax+0x10],ebx
  4078cc:	83 c4 3c             	add    esp,0x3c
  4078cf:	5b                   	pop    ebx
  4078d0:	5e                   	pop    esi
  4078d1:	5f                   	pop    edi
  4078d2:	5d                   	pop    ebp
  4078d3:	c3                   	ret    
  4078d4:	31 c0                	xor    eax,eax
  4078d6:	eb f4                	jmp    4078cc <___mult_D2A+0x14c>
  4078d8:	90                   	nop
  4078d9:	8d b4 26 00 00 00 00 	lea    esi,[esi+eiz*1+0x0]

004078e0 <___pow5mult_D2A>:
  4078e0:	55                   	push   ebp
  4078e1:	89 e5                	mov    ebp,esp
  4078e3:	57                   	push   edi
  4078e4:	56                   	push   esi
  4078e5:	53                   	push   ebx
  4078e6:	83 ec 1c             	sub    esp,0x1c
  4078e9:	8b 5d 0c             	mov    ebx,DWORD PTR [ebp+0xc]
  4078ec:	8b 55 08             	mov    edx,DWORD PTR [ebp+0x8]
  4078ef:	89 d8                	mov    eax,ebx
  4078f1:	83 e0 03             	and    eax,0x3
  4078f4:	0f 85 9e 00 00 00    	jne    407998 <___pow5mult_D2A+0xb8>
  4078fa:	c1 fb 02             	sar    ebx,0x2
  4078fd:	89 d0                	mov    eax,edx
  4078ff:	85 db                	test   ebx,ebx
  407901:	74 4e                	je     407951 <___pow5mult_D2A+0x71>
  407903:	8b 3d 80 d0 40 00    	mov    edi,DWORD PTR ds:0x40d080
  407909:	85 ff                	test   edi,edi
  40790b:	0f 84 d5 00 00 00    	je     4079e6 <___pow5mult_D2A+0x106>
  407911:	f6 c3 01             	test   bl,0x1
  407914:	75 13                	jne    407929 <___pow5mult_D2A+0x49>
  407916:	d1 fb                	sar    ebx,1
  407918:	74 35                	je     40794f <___pow5mult_D2A+0x6f>
  40791a:	8b 37                	mov    esi,DWORD PTR [edi]
  40791c:	85 f6                	test   esi,esi
  40791e:	66 90                	xchg   ax,ax
  407920:	74 3e                	je     407960 <___pow5mult_D2A+0x80>
  407922:	89 f7                	mov    edi,esi
  407924:	f6 c3 01             	test   bl,0x1
  407927:	74 ed                	je     407916 <___pow5mult_D2A+0x36>
  407929:	89 7c 24 04          	mov    DWORD PTR [esp+0x4],edi
  40792d:	89 14 24             	mov    DWORD PTR [esp],edx
  407930:	89 55 e4             	mov    DWORD PTR [ebp-0x1c],edx
  407933:	e8 48 fe ff ff       	call   407780 <___mult_D2A>
  407938:	85 c0                	test   eax,eax
  40793a:	89 c6                	mov    esi,eax
  40793c:	74 7f                	je     4079bd <___pow5mult_D2A+0xdd>
  40793e:	8b 55 e4             	mov    edx,DWORD PTR [ebp-0x1c]
  407941:	89 14 24             	mov    DWORD PTR [esp],edx
  407944:	e8 b7 fc ff ff       	call   407600 <___Bfree_D2A>
  407949:	d1 fb                	sar    ebx,1
  40794b:	89 f2                	mov    edx,esi
  40794d:	75 cb                	jne    40791a <___pow5mult_D2A+0x3a>
  40794f:	89 d0                	mov    eax,edx
  407951:	8d 65 f4             	lea    esp,[ebp-0xc]
  407954:	5b                   	pop    ebx
  407955:	5e                   	pop    esi
  407956:	5f                   	pop    edi
  407957:	5d                   	pop    ebp
  407958:	c3                   	ret    
  407959:	8d b4 26 00 00 00 00 	lea    esi,[esi+eiz*1+0x0]
  407960:	b8 01 00 00 00       	mov    eax,0x1
  407965:	89 55 e4             	mov    DWORD PTR [ebp-0x1c],edx
  407968:	e8 a3 fa ff ff       	call   407410 <_dtoa_lock>
  40796d:	8b 37                	mov    esi,DWORD PTR [edi]
  40796f:	8b 55 e4             	mov    edx,DWORD PTR [ebp-0x1c]
  407972:	85 f6                	test   esi,esi
  407974:	74 51                	je     4079c7 <___pow5mult_D2A+0xe7>
  407976:	83 3d c8 d9 40 00 02 	cmp    DWORD PTR ds:0x40d9c8,0x2
  40797d:	75 a3                	jne    407922 <___pow5mult_D2A+0x42>
  40797f:	c7 04 24 f8 d9 40 00 	mov    DWORD PTR [esp],0x40d9f8
  407986:	89 f7                	mov    edi,esi
  407988:	89 55 e4             	mov    DWORD PTR [ebp-0x1c],edx
  40798b:	e8 f8 06 00 00       	call   408088 <_LeaveCriticalSection@4>
  407990:	8b 55 e4             	mov    edx,DWORD PTR [ebp-0x1c]
  407993:	83 ec 04             	sub    esp,0x4
  407996:	eb 8c                	jmp    407924 <___pow5mult_D2A+0x44>
  407998:	8b 04 85 3c a3 40 00 	mov    eax,DWORD PTR [eax*4+0x40a33c]
  40799f:	89 14 24             	mov    DWORD PTR [esp],edx
  4079a2:	c7 44 24 08 00 00 00 	mov    DWORD PTR [esp+0x8],0x0
  4079a9:	00 
  4079aa:	89 44 24 04          	mov    DWORD PTR [esp+0x4],eax
  4079ae:	e8 bd fc ff ff       	call   407670 <___multadd_D2A>
  4079b3:	85 c0                	test   eax,eax
  4079b5:	89 c2                	mov    edx,eax
  4079b7:	0f 85 3d ff ff ff    	jne    4078fa <___pow5mult_D2A+0x1a>
  4079bd:	31 c0                	xor    eax,eax
  4079bf:	8d 65 f4             	lea    esp,[ebp-0xc]
  4079c2:	5b                   	pop    ebx
  4079c3:	5e                   	pop    esi
  4079c4:	5f                   	pop    edi
  4079c5:	5d                   	pop    ebp
  4079c6:	c3                   	ret    
  4079c7:	89 7c 24 04          	mov    DWORD PTR [esp+0x4],edi
  4079cb:	89 3c 24             	mov    DWORD PTR [esp],edi
  4079ce:	e8 ad fd ff ff       	call   407780 <___mult_D2A>
  4079d3:	85 c0                	test   eax,eax
  4079d5:	89 c6                	mov    esi,eax
  4079d7:	89 07                	mov    DWORD PTR [edi],eax
  4079d9:	74 e2                	je     4079bd <___pow5mult_D2A+0xdd>
  4079db:	c7 00 00 00 00 00    	mov    DWORD PTR [eax],0x0
  4079e1:	8b 55 e4             	mov    edx,DWORD PTR [ebp-0x1c]
  4079e4:	eb 90                	jmp    407976 <___pow5mult_D2A+0x96>
  4079e6:	b8 01 00 00 00       	mov    eax,0x1
  4079eb:	89 55 e4             	mov    DWORD PTR [ebp-0x1c],edx
  4079ee:	e8 1d fa ff ff       	call   407410 <_dtoa_lock>
  4079f3:	8b 3d 80 d0 40 00    	mov    edi,DWORD PTR ds:0x40d080
  4079f9:	8b 55 e4             	mov    edx,DWORD PTR [ebp-0x1c]
  4079fc:	85 ff                	test   edi,edi
  4079fe:	74 27                	je     407a27 <___pow5mult_D2A+0x147>
  407a00:	83 3d c8 d9 40 00 02 	cmp    DWORD PTR ds:0x40d9c8,0x2
  407a07:	0f 85 04 ff ff ff    	jne    407911 <___pow5mult_D2A+0x31>
  407a0d:	c7 04 24 f8 d9 40 00 	mov    DWORD PTR [esp],0x40d9f8
  407a14:	89 55 e4             	mov    DWORD PTR [ebp-0x1c],edx
  407a17:	e8 6c 06 00 00       	call   408088 <_LeaveCriticalSection@4>
  407a1c:	8b 55 e4             	mov    edx,DWORD PTR [ebp-0x1c]
  407a1f:	83 ec 04             	sub    esp,0x4
  407a22:	e9 ea fe ff ff       	jmp    407911 <___pow5mult_D2A+0x31>
  407a27:	c7 04 24 01 00 00 00 	mov    DWORD PTR [esp],0x1
  407a2e:	e8 fd fa ff ff       	call   407530 <___Balloc_D2A>
  407a33:	85 c0                	test   eax,eax
  407a35:	89 c7                	mov    edi,eax
  407a37:	74 1e                	je     407a57 <___pow5mult_D2A+0x177>
  407a39:	c7 40 14 71 02 00 00 	mov    DWORD PTR [eax+0x14],0x271
  407a40:	8b 55 e4             	mov    edx,DWORD PTR [ebp-0x1c]
  407a43:	c7 40 10 01 00 00 00 	mov    DWORD PTR [eax+0x10],0x1
  407a4a:	a3 80 d0 40 00       	mov    ds:0x40d080,eax
  407a4f:	c7 00 00 00 00 00    	mov    DWORD PTR [eax],0x0
  407a55:	eb a9                	jmp    407a00 <___pow5mult_D2A+0x120>
  407a57:	c7 05 80 d0 40 00 00 	mov    DWORD PTR ds:0x40d080,0x0
  407a5e:	00 00 00 
  407a61:	31 c0                	xor    eax,eax
  407a63:	e9 57 ff ff ff       	jmp    4079bf <___pow5mult_D2A+0xdf>
  407a68:	90                   	nop
  407a69:	8d b4 26 00 00 00 00 	lea    esi,[esi+eiz*1+0x0]

00407a70 <___lshift_D2A>:
  407a70:	55                   	push   ebp
  407a71:	57                   	push   edi
  407a72:	56                   	push   esi
  407a73:	53                   	push   ebx
  407a74:	83 ec 2c             	sub    esp,0x2c
  407a77:	8b 44 24 40          	mov    eax,DWORD PTR [esp+0x40]
  407a7b:	8b 74 24 44          	mov    esi,DWORD PTR [esp+0x44]
  407a7f:	89 c7                	mov    edi,eax
  407a81:	8b 50 04             	mov    edx,DWORD PTR [eax+0x4]
  407a84:	8b 40 10             	mov    eax,DWORD PTR [eax+0x10]
  407a87:	89 f3                	mov    ebx,esi
  407a89:	c1 fb 05             	sar    ebx,0x5
  407a8c:	01 d8                	add    eax,ebx
  407a8e:	8d 68 01             	lea    ebp,[eax+0x1]
  407a91:	89 44 24 18          	mov    DWORD PTR [esp+0x18],eax
  407a95:	8b 47 08             	mov    eax,DWORD PTR [edi+0x8]
  407a98:	39 c5                	cmp    ebp,eax
  407a9a:	7e 0d                	jle    407aa9 <___lshift_D2A+0x39>
  407a9c:	8d 74 26 00          	lea    esi,[esi+eiz*1+0x0]
  407aa0:	01 c0                	add    eax,eax
  407aa2:	83 c2 01             	add    edx,0x1
  407aa5:	39 c5                	cmp    ebp,eax
  407aa7:	7f f7                	jg     407aa0 <___lshift_D2A+0x30>
  407aa9:	89 14 24             	mov    DWORD PTR [esp],edx
  407aac:	e8 7f fa ff ff       	call   407530 <___Balloc_D2A>
  407ab1:	85 c0                	test   eax,eax
  407ab3:	89 44 24 14          	mov    DWORD PTR [esp+0x14],eax
  407ab7:	0f 84 bc 00 00 00    	je     407b79 <___lshift_D2A+0x109>
  407abd:	85 db                	test   ebx,ebx
  407abf:	8d 50 14             	lea    edx,[eax+0x14]
  407ac2:	7e 13                	jle    407ad7 <___lshift_D2A+0x67>
  407ac4:	31 c0                	xor    eax,eax
  407ac6:	c7 04 82 00 00 00 00 	mov    DWORD PTR [edx+eax*4],0x0
  407acd:	83 c0 01             	add    eax,0x1
  407ad0:	39 d8                	cmp    eax,ebx
  407ad2:	75 f2                	jne    407ac6 <___lshift_D2A+0x56>
  407ad4:	8d 14 82             	lea    edx,[edx+eax*4]
  407ad7:	8b 7c 24 40          	mov    edi,DWORD PTR [esp+0x40]
  407adb:	8b 44 24 40          	mov    eax,DWORD PTR [esp+0x40]
  407adf:	8b 4f 10             	mov    ecx,DWORD PTR [edi+0x10]
  407ae2:	83 c0 14             	add    eax,0x14
  407ae5:	83 e6 1f             	and    esi,0x1f
  407ae8:	89 74 24 0c          	mov    DWORD PTR [esp+0xc],esi
  407aec:	8d 3c 88             	lea    edi,[eax+ecx*4]
  407aef:	89 f9                	mov    ecx,edi
  407af1:	74 72                	je     407b65 <___lshift_D2A+0xf5>
  407af3:	c7 44 24 10 20 00 00 	mov    DWORD PTR [esp+0x10],0x20
  407afa:	00 
  407afb:	89 6c 24 1c          	mov    DWORD PTR [esp+0x1c],ebp
  407aff:	89 cd                	mov    ebp,ecx
  407b01:	29 74 24 10          	sub    DWORD PTR [esp+0x10],esi
  407b05:	31 f6                	xor    esi,esi
  407b07:	eb 09                	jmp    407b12 <___lshift_D2A+0xa2>
  407b09:	8d b4 26 00 00 00 00 	lea    esi,[esi+eiz*1+0x0]
  407b10:	89 fa                	mov    edx,edi
  407b12:	8b 18                	mov    ebx,DWORD PTR [eax]
  407b14:	83 c0 04             	add    eax,0x4
  407b17:	0f b6 4c 24 0c       	movzx  ecx,BYTE PTR [esp+0xc]
  407b1c:	8d 7a 04             	lea    edi,[edx+0x4]
  407b1f:	d3 e3                	shl    ebx,cl
  407b21:	0f b6 4c 24 10       	movzx  ecx,BYTE PTR [esp+0x10]
  407b26:	09 f3                	or     ebx,esi
  407b28:	89 1a                	mov    DWORD PTR [edx],ebx
  407b2a:	8b 70 fc             	mov    esi,DWORD PTR [eax-0x4]
  407b2d:	d3 ee                	shr    esi,cl
  407b2f:	39 c5                	cmp    ebp,eax
  407b31:	77 dd                	ja     407b10 <___lshift_D2A+0xa0>
  407b33:	85 f6                	test   esi,esi
  407b35:	8b 6c 24 1c          	mov    ebp,DWORD PTR [esp+0x1c]
  407b39:	89 72 04             	mov    DWORD PTR [edx+0x4],esi
  407b3c:	74 07                	je     407b45 <___lshift_D2A+0xd5>
  407b3e:	8b 6c 24 18          	mov    ebp,DWORD PTR [esp+0x18]
  407b42:	83 c5 02             	add    ebp,0x2
  407b45:	8b 7c 24 14          	mov    edi,DWORD PTR [esp+0x14]
  407b49:	8d 45 ff             	lea    eax,[ebp-0x1]
  407b4c:	89 47 10             	mov    DWORD PTR [edi+0x10],eax
  407b4f:	8b 44 24 40          	mov    eax,DWORD PTR [esp+0x40]
  407b53:	89 04 24             	mov    DWORD PTR [esp],eax
  407b56:	e8 a5 fa ff ff       	call   407600 <___Bfree_D2A>
  407b5b:	89 f8                	mov    eax,edi
  407b5d:	83 c4 2c             	add    esp,0x2c
  407b60:	5b                   	pop    ebx
  407b61:	5e                   	pop    esi
  407b62:	5f                   	pop    edi
  407b63:	5d                   	pop    ebp
  407b64:	c3                   	ret    
  407b65:	89 fb                	mov    ebx,edi
  407b67:	83 c0 04             	add    eax,0x4
  407b6a:	8b 48 fc             	mov    ecx,DWORD PTR [eax-0x4]
  407b6d:	83 c2 04             	add    edx,0x4
  407b70:	39 c3                	cmp    ebx,eax
  407b72:	89 4a fc             	mov    DWORD PTR [edx-0x4],ecx
  407b75:	77 f0                	ja     407b67 <___lshift_D2A+0xf7>
  407b77:	eb cc                	jmp    407b45 <___lshift_D2A+0xd5>
  407b79:	31 c0                	xor    eax,eax
  407b7b:	eb e0                	jmp    407b5d <___lshift_D2A+0xed>
  407b7d:	8d 76 00             	lea    esi,[esi+0x0]

00407b80 <___cmp_D2A>:
  407b80:	53                   	push   ebx
  407b81:	8b 4c 24 08          	mov    ecx,DWORD PTR [esp+0x8]
  407b85:	8b 54 24 0c          	mov    edx,DWORD PTR [esp+0xc]
  407b89:	8b 41 10             	mov    eax,DWORD PTR [ecx+0x10]
  407b8c:	8b 5a 10             	mov    ebx,DWORD PTR [edx+0x10]
  407b8f:	29 d8                	sub    eax,ebx
  407b91:	85 c0                	test   eax,eax
  407b93:	75 24                	jne    407bb9 <___cmp_D2A+0x39>
  407b95:	c1 e3 02             	shl    ebx,0x2
  407b98:	83 c1 14             	add    ecx,0x14
  407b9b:	8d 04 19             	lea    eax,[ecx+ebx*1]
  407b9e:	8d 54 1a 14          	lea    edx,[edx+ebx*1+0x14]
  407ba2:	eb 04                	jmp    407ba8 <___cmp_D2A+0x28>
  407ba4:	39 c1                	cmp    ecx,eax
  407ba6:	73 18                	jae    407bc0 <___cmp_D2A+0x40>
  407ba8:	83 ea 04             	sub    edx,0x4
  407bab:	83 e8 04             	sub    eax,0x4
  407bae:	8b 1a                	mov    ebx,DWORD PTR [edx]
  407bb0:	39 18                	cmp    DWORD PTR [eax],ebx
  407bb2:	74 f0                	je     407ba4 <___cmp_D2A+0x24>
  407bb4:	19 c0                	sbb    eax,eax
  407bb6:	83 c8 01             	or     eax,0x1
  407bb9:	5b                   	pop    ebx
  407bba:	c3                   	ret    
  407bbb:	90                   	nop
  407bbc:	8d 74 26 00          	lea    esi,[esi+eiz*1+0x0]
  407bc0:	31 c0                	xor    eax,eax
  407bc2:	5b                   	pop    ebx
  407bc3:	c3                   	ret    
  407bc4:	8d b6 00 00 00 00    	lea    esi,[esi+0x0]
  407bca:	8d bf 00 00 00 00    	lea    edi,[edi+0x0]

00407bd0 <___diff_D2A>:
  407bd0:	55                   	push   ebp
  407bd1:	57                   	push   edi
  407bd2:	56                   	push   esi
  407bd3:	53                   	push   ebx
  407bd4:	83 ec 2c             	sub    esp,0x2c
  407bd7:	8b 74 24 40          	mov    esi,DWORD PTR [esp+0x40]
  407bdb:	8b 5c 24 44          	mov    ebx,DWORD PTR [esp+0x44]
  407bdf:	89 34 24             	mov    DWORD PTR [esp],esi
  407be2:	89 5c 24 04          	mov    DWORD PTR [esp+0x4],ebx
  407be6:	e8 95 ff ff ff       	call   407b80 <___cmp_D2A>
  407beb:	85 c0                	test   eax,eax
  407bed:	0f 84 1f 01 00 00    	je     407d12 <___diff_D2A+0x142>
  407bf3:	0f 88 3f 01 00 00    	js     407d38 <___diff_D2A+0x168>
  407bf9:	31 ff                	xor    edi,edi
  407bfb:	8b 46 04             	mov    eax,DWORD PTR [esi+0x4]
  407bfe:	89 04 24             	mov    DWORD PTR [esp],eax
  407c01:	e8 2a f9 ff ff       	call   407530 <___Balloc_D2A>
  407c06:	85 c0                	test   eax,eax
  407c08:	89 c2                	mov    edx,eax
  407c0a:	89 44 24 1c          	mov    DWORD PTR [esp+0x1c],eax
  407c0e:	0f 84 34 01 00 00    	je     407d48 <___diff_D2A+0x178>
  407c14:	89 78 0c             	mov    DWORD PTR [eax+0xc],edi
  407c17:	8b 46 10             	mov    eax,DWORD PTR [esi+0x10]
  407c1a:	83 c6 14             	add    esi,0x14
  407c1d:	8d 6b 14             	lea    ebp,[ebx+0x14]
  407c20:	8d 7a 14             	lea    edi,[edx+0x14]
  407c23:	c7 44 24 08 00 00 00 	mov    DWORD PTR [esp+0x8],0x0
  407c2a:	00 
  407c2b:	89 44 24 18          	mov    DWORD PTR [esp+0x18],eax
  407c2f:	8d 04 86             	lea    eax,[esi+eax*4]
  407c32:	89 44 24 10          	mov    DWORD PTR [esp+0x10],eax
  407c36:	8b 43 10             	mov    eax,DWORD PTR [ebx+0x10]
  407c39:	c7 44 24 0c 00 00 00 	mov    DWORD PTR [esp+0xc],0x0
  407c40:	00 
  407c41:	8d 44 85 00          	lea    eax,[ebp+eax*4+0x0]
  407c45:	89 44 24 14          	mov    DWORD PTR [esp+0x14],eax
  407c49:	8d b4 26 00 00 00 00 	lea    esi,[esi+eiz*1+0x0]
  407c50:	83 c5 04             	add    ebp,0x4
  407c53:	83 c6 04             	add    esi,0x4
  407c56:	8b 4d fc             	mov    ecx,DWORD PTR [ebp-0x4]
  407c59:	8b 46 fc             	mov    eax,DWORD PTR [esi-0x4]
  407c5c:	31 d2                	xor    edx,edx
  407c5e:	31 db                	xor    ebx,ebx
  407c60:	29 c8                	sub    eax,ecx
  407c62:	19 da                	sbb    edx,ebx
  407c64:	2b 44 24 08          	sub    eax,DWORD PTR [esp+0x8]
  407c68:	1b 54 24 0c          	sbb    edx,DWORD PTR [esp+0xc]
  407c6c:	83 c7 04             	add    edi,0x4
  407c6f:	c7 44 24 0c 00 00 00 	mov    DWORD PTR [esp+0xc],0x0
  407c76:	00 
  407c77:	89 d1                	mov    ecx,edx
  407c79:	83 e1 01             	and    ecx,0x1
  407c7c:	39 6c 24 14          	cmp    DWORD PTR [esp+0x14],ebp
  407c80:	89 4c 24 08          	mov    DWORD PTR [esp+0x8],ecx
  407c84:	89 47 fc             	mov    DWORD PTR [edi-0x4],eax
  407c87:	77 c7                	ja     407c50 <___diff_D2A+0x80>
  407c89:	39 74 24 10          	cmp    DWORD PTR [esp+0x10],esi
  407c8d:	76 4b                	jbe    407cda <___diff_D2A+0x10a>
  407c8f:	8b 5c 24 0c          	mov    ebx,DWORD PTR [esp+0xc]
  407c93:	8b 4c 24 08          	mov    ecx,DWORD PTR [esp+0x8]
  407c97:	89 7c 24 14          	mov    DWORD PTR [esp+0x14],edi
  407c9b:	89 74 24 08          	mov    DWORD PTR [esp+0x8],esi
  407c9f:	90                   	nop
  407ca0:	83 c6 04             	add    esi,0x4
  407ca3:	8b 46 fc             	mov    eax,DWORD PTR [esi-0x4]
  407ca6:	31 d2                	xor    edx,edx
  407ca8:	29 c8                	sub    eax,ecx
  407caa:	19 da                	sbb    edx,ebx
  407cac:	83 c7 04             	add    edi,0x4
  407caf:	89 d5                	mov    ebp,edx
  407cb1:	31 db                	xor    ebx,ebx
  407cb3:	83 e5 01             	and    ebp,0x1
  407cb6:	39 74 24 10          	cmp    DWORD PTR [esp+0x10],esi
  407cba:	89 e9                	mov    ecx,ebp
  407cbc:	89 47 fc             	mov    DWORD PTR [edi-0x4],eax
  407cbf:	77 df                	ja     407ca0 <___diff_D2A+0xd0>
  407cc1:	8b 6c 24 08          	mov    ebp,DWORD PTR [esp+0x8]
  407cc5:	8b 7c 24 10          	mov    edi,DWORD PTR [esp+0x10]
  407cc9:	8b 5c 24 14          	mov    ebx,DWORD PTR [esp+0x14]
  407ccd:	f7 d5                	not    ebp
  407ccf:	8d 54 3d 00          	lea    edx,[ebp+edi*1+0x0]
  407cd3:	c1 ea 02             	shr    edx,0x2
  407cd6:	8d 7c 93 04          	lea    edi,[ebx+edx*4+0x4]
  407cda:	85 c0                	test   eax,eax
  407cdc:	75 21                	jne    407cff <___diff_D2A+0x12f>
  407cde:	8b 54 24 18          	mov    edx,DWORD PTR [esp+0x18]
  407ce2:	89 d0                	mov    eax,edx
  407ce4:	c1 e0 02             	shl    eax,0x2
  407ce7:	29 c7                	sub    edi,eax
  407ce9:	89 d0                	mov    eax,edx
  407ceb:	90                   	nop
  407cec:	8d 74 26 00          	lea    esi,[esi+eiz*1+0x0]
  407cf0:	83 e8 01             	sub    eax,0x1
  407cf3:	8b 6c 87 fc          	mov    ebp,DWORD PTR [edi+eax*4-0x4]
  407cf7:	85 ed                	test   ebp,ebp
  407cf9:	74 f5                	je     407cf0 <___diff_D2A+0x120>
  407cfb:	89 44 24 18          	mov    DWORD PTR [esp+0x18],eax
  407cff:	8b 44 24 1c          	mov    eax,DWORD PTR [esp+0x1c]
  407d03:	8b 54 24 18          	mov    edx,DWORD PTR [esp+0x18]
  407d07:	89 50 10             	mov    DWORD PTR [eax+0x10],edx
  407d0a:	83 c4 2c             	add    esp,0x2c
  407d0d:	5b                   	pop    ebx
  407d0e:	5e                   	pop    esi
  407d0f:	5f                   	pop    edi
  407d10:	5d                   	pop    ebp
  407d11:	c3                   	ret    
  407d12:	c7 04 24 00 00 00 00 	mov    DWORD PTR [esp],0x0
  407d19:	e8 12 f8 ff ff       	call   407530 <___Balloc_D2A>
  407d1e:	85 c0                	test   eax,eax
  407d20:	74 26                	je     407d48 <___diff_D2A+0x178>
  407d22:	c7 40 10 01 00 00 00 	mov    DWORD PTR [eax+0x10],0x1
  407d29:	c7 40 14 00 00 00 00 	mov    DWORD PTR [eax+0x14],0x0
  407d30:	83 c4 2c             	add    esp,0x2c
  407d33:	5b                   	pop    ebx
  407d34:	5e                   	pop    esi
  407d35:	5f                   	pop    edi
  407d36:	5d                   	pop    ebp
  407d37:	c3                   	ret    
  407d38:	89 f0                	mov    eax,esi
  407d3a:	bf 01 00 00 00       	mov    edi,0x1
  407d3f:	89 de                	mov    esi,ebx
  407d41:	89 c3                	mov    ebx,eax
  407d43:	e9 b3 fe ff ff       	jmp    407bfb <___diff_D2A+0x2b>
  407d48:	31 c0                	xor    eax,eax
  407d4a:	eb be                	jmp    407d0a <___diff_D2A+0x13a>
  407d4c:	8d 74 26 00          	lea    esi,[esi+eiz*1+0x0]

00407d50 <___b2d_D2A>:
  407d50:	55                   	push   ebp
  407d51:	b9 20 00 00 00       	mov    ecx,0x20
  407d56:	57                   	push   edi
  407d57:	56                   	push   esi
  407d58:	53                   	push   ebx
  407d59:	83 ec 14             	sub    esp,0x14
  407d5c:	8b 44 24 28          	mov    eax,DWORD PTR [esp+0x28]
  407d60:	8b 7c 24 2c          	mov    edi,DWORD PTR [esp+0x2c]
  407d64:	8d 58 14             	lea    ebx,[eax+0x14]
  407d67:	8b 40 10             	mov    eax,DWORD PTR [eax+0x10]
  407d6a:	8d 2c 83             	lea    ebp,[ebx+eax*4]
  407d6d:	8b 55 fc             	mov    edx,DWORD PTR [ebp-0x4]
  407d70:	8d 75 fc             	lea    esi,[ebp-0x4]
  407d73:	0f bd c2             	bsr    eax,edx
  407d76:	83 f0 1f             	xor    eax,0x1f
  407d79:	29 c1                	sub    ecx,eax
  407d7b:	83 f8 0a             	cmp    eax,0xa
  407d7e:	89 0f                	mov    DWORD PTR [edi],ecx
  407d80:	7f 3e                	jg     407dc0 <___b2d_D2A+0x70>
  407d82:	b9 0b 00 00 00       	mov    ecx,0xb
  407d87:	89 d7                	mov    edi,edx
  407d89:	29 c1                	sub    ecx,eax
  407d8b:	d3 ef                	shr    edi,cl
  407d8d:	81 cf 00 00 f0 3f    	or     edi,0x3ff00000
  407d93:	89 7c 24 04          	mov    DWORD PTR [esp+0x4],edi
  407d97:	31 ff                	xor    edi,edi
  407d99:	39 f3                	cmp    ebx,esi
  407d9b:	c7 04 24 00 00 00 00 	mov    DWORD PTR [esp],0x0
  407da2:	73 05                	jae    407da9 <___b2d_D2A+0x59>
  407da4:	8b 7d f8             	mov    edi,DWORD PTR [ebp-0x8]
  407da7:	d3 ef                	shr    edi,cl
  407da9:	8d 48 15             	lea    ecx,[eax+0x15]
  407dac:	d3 e2                	shl    edx,cl
  407dae:	09 d7                	or     edi,edx
  407db0:	89 3c 24             	mov    DWORD PTR [esp],edi
  407db3:	dd 04 24             	fld    QWORD PTR [esp]
  407db6:	83 c4 14             	add    esp,0x14
  407db9:	5b                   	pop    ebx
  407dba:	5e                   	pop    esi
  407dbb:	5f                   	pop    edi
  407dbc:	5d                   	pop    ebp
  407dbd:	c3                   	ret    
  407dbe:	66 90                	xchg   ax,ax
  407dc0:	31 ff                	xor    edi,edi
  407dc2:	39 f3                	cmp    ebx,esi
  407dc4:	73 06                	jae    407dcc <___b2d_D2A+0x7c>
  407dc6:	8b 7d f8             	mov    edi,DWORD PTR [ebp-0x8]
  407dc9:	8d 75 f8             	lea    esi,[ebp-0x8]
  407dcc:	89 c1                	mov    ecx,eax
  407dce:	83 e9 0b             	sub    ecx,0xb
  407dd1:	89 4c 24 0c          	mov    DWORD PTR [esp+0xc],ecx
  407dd5:	74 49                	je     407e20 <___b2d_D2A+0xd0>
  407dd7:	0f b6 4c 24 0c       	movzx  ecx,BYTE PTR [esp+0xc]
  407ddc:	bd 2b 00 00 00       	mov    ebp,0x2b
  407de1:	29 c5                	sub    ebp,eax
  407de3:	89 f8                	mov    eax,edi
  407de5:	c7 04 24 00 00 00 00 	mov    DWORD PTR [esp],0x0
  407dec:	d3 e2                	shl    edx,cl
  407dee:	89 e9                	mov    ecx,ebp
  407df0:	d3 e8                	shr    eax,cl
  407df2:	81 ca 00 00 f0 3f    	or     edx,0x3ff00000
  407df8:	09 c2                	or     edx,eax
  407dfa:	31 c0                	xor    eax,eax
  407dfc:	39 de                	cmp    esi,ebx
  407dfe:	89 54 24 04          	mov    DWORD PTR [esp+0x4],edx
  407e02:	76 05                	jbe    407e09 <___b2d_D2A+0xb9>
  407e04:	8b 46 fc             	mov    eax,DWORD PTR [esi-0x4]
  407e07:	d3 e8                	shr    eax,cl
  407e09:	0f b6 4c 24 0c       	movzx  ecx,BYTE PTR [esp+0xc]
  407e0e:	d3 e7                	shl    edi,cl
  407e10:	09 f8                	or     eax,edi
  407e12:	89 04 24             	mov    DWORD PTR [esp],eax
  407e15:	dd 04 24             	fld    QWORD PTR [esp]
  407e18:	83 c4 14             	add    esp,0x14
  407e1b:	5b                   	pop    ebx
  407e1c:	5e                   	pop    esi
  407e1d:	5f                   	pop    edi
  407e1e:	5d                   	pop    ebp
  407e1f:	c3                   	ret    
  407e20:	81 ca 00 00 f0 3f    	or     edx,0x3ff00000
  407e26:	89 3c 24             	mov    DWORD PTR [esp],edi
  407e29:	89 54 24 04          	mov    DWORD PTR [esp+0x4],edx
  407e2d:	dd 04 24             	fld    QWORD PTR [esp]
  407e30:	83 c4 14             	add    esp,0x14
  407e33:	5b                   	pop    ebx
  407e34:	5e                   	pop    esi
  407e35:	5f                   	pop    edi
  407e36:	5d                   	pop    ebp
  407e37:	c3                   	ret    
  407e38:	90                   	nop
  407e39:	8d b4 26 00 00 00 00 	lea    esi,[esi+eiz*1+0x0]

00407e40 <___d2b_D2A>:
  407e40:	55                   	push   ebp
  407e41:	57                   	push   edi
  407e42:	56                   	push   esi
  407e43:	53                   	push   ebx
  407e44:	83 ec 1c             	sub    esp,0x1c
  407e47:	dd 44 24 30          	fld    QWORD PTR [esp+0x30]
  407e4b:	c7 04 24 01 00 00 00 	mov    DWORD PTR [esp],0x1
  407e52:	dd 5c 24 08          	fstp   QWORD PTR [esp+0x8]
  407e56:	e8 d5 f6 ff ff       	call   407530 <___Balloc_D2A>
  407e5b:	85 c0                	test   eax,eax
  407e5d:	0f 84 c5 00 00 00    	je     407f28 <___d2b_D2A+0xe8>
  407e63:	8b 54 24 0c          	mov    edx,DWORD PTR [esp+0xc]
  407e67:	89 d3                	mov    ebx,edx
  407e69:	81 e2 ff ff ff 7f    	and    edx,0x7fffffff
  407e6f:	c1 ea 14             	shr    edx,0x14
  407e72:	81 e3 ff ff 0f 00    	and    ebx,0xfffff
  407e78:	85 d2                	test   edx,edx
  407e7a:	74 06                	je     407e82 <___d2b_D2A+0x42>
  407e7c:	81 cb 00 00 10 00    	or     ebx,0x100000
  407e82:	8b 7c 24 08          	mov    edi,DWORD PTR [esp+0x8]
  407e86:	85 ff                	test   edi,edi
  407e88:	75 3e                	jne    407ec8 <___d2b_D2A+0x88>
  407e8a:	f3 0f bc cb          	tzcnt  ecx,ebx
  407e8e:	d3 eb                	shr    ebx,cl
  407e90:	85 d2                	test   edx,edx
  407e92:	8d 71 20             	lea    esi,[ecx+0x20]
  407e95:	b9 01 00 00 00       	mov    ecx,0x1
  407e9a:	89 58 14             	mov    DWORD PTR [eax+0x14],ebx
  407e9d:	c7 40 10 01 00 00 00 	mov    DWORD PTR [eax+0x10],0x1
  407ea4:	74 56                	je     407efc <___d2b_D2A+0xbc>
  407ea6:	8b 7c 24 38          	mov    edi,DWORD PTR [esp+0x38]
  407eaa:	8d 94 16 cd fb ff ff 	lea    edx,[esi+edx*1-0x433]
  407eb1:	89 17                	mov    DWORD PTR [edi],edx
  407eb3:	ba 35 00 00 00       	mov    edx,0x35
  407eb8:	29 f2                	sub    edx,esi
  407eba:	8b 74 24 3c          	mov    esi,DWORD PTR [esp+0x3c]
  407ebe:	89 16                	mov    DWORD PTR [esi],edx
  407ec0:	83 c4 1c             	add    esp,0x1c
  407ec3:	5b                   	pop    ebx
  407ec4:	5e                   	pop    esi
  407ec5:	5f                   	pop    edi
  407ec6:	5d                   	pop    ebp
  407ec7:	c3                   	ret    
  407ec8:	f3 0f bc f7          	tzcnt  esi,edi
  407ecc:	89 f1                	mov    ecx,esi
  407ece:	d3 ef                	shr    edi,cl
  407ed0:	85 f6                	test   esi,esi
  407ed2:	74 4f                	je     407f23 <___d2b_D2A+0xe3>
  407ed4:	b9 20 00 00 00       	mov    ecx,0x20
  407ed9:	89 dd                	mov    ebp,ebx
  407edb:	29 f1                	sub    ecx,esi
  407edd:	d3 e5                	shl    ebp,cl
  407edf:	89 e9                	mov    ecx,ebp
  407ee1:	09 f9                	or     ecx,edi
  407ee3:	89 48 14             	mov    DWORD PTR [eax+0x14],ecx
  407ee6:	89 f1                	mov    ecx,esi
  407ee8:	d3 eb                	shr    ebx,cl
  407eea:	83 fb 01             	cmp    ebx,0x1
  407eed:	19 c9                	sbb    ecx,ecx
  407eef:	83 c1 02             	add    ecx,0x2
  407ef2:	85 d2                	test   edx,edx
  407ef4:	89 58 18             	mov    DWORD PTR [eax+0x18],ebx
  407ef7:	89 48 10             	mov    DWORD PTR [eax+0x10],ecx
  407efa:	75 aa                	jne    407ea6 <___d2b_D2A+0x66>
  407efc:	8b 7c 24 38          	mov    edi,DWORD PTR [esp+0x38]
  407f00:	81 ee 32 04 00 00    	sub    esi,0x432
  407f06:	0f bd 54 88 10       	bsr    edx,DWORD PTR [eax+ecx*4+0x10]
  407f0b:	c1 e1 05             	shl    ecx,0x5
  407f0e:	89 37                	mov    DWORD PTR [edi],esi
  407f10:	8b 74 24 3c          	mov    esi,DWORD PTR [esp+0x3c]
  407f14:	83 f2 1f             	xor    edx,0x1f
  407f17:	29 d1                	sub    ecx,edx
  407f19:	89 0e                	mov    DWORD PTR [esi],ecx
  407f1b:	83 c4 1c             	add    esp,0x1c
  407f1e:	5b                   	pop    ebx
  407f1f:	5e                   	pop    esi
  407f20:	5f                   	pop    edi
  407f21:	5d                   	pop    ebp
  407f22:	c3                   	ret    
  407f23:	89 78 14             	mov    DWORD PTR [eax+0x14],edi
  407f26:	eb c2                	jmp    407eea <___d2b_D2A+0xaa>
  407f28:	31 c0                	xor    eax,eax
  407f2a:	eb 94                	jmp    407ec0 <___d2b_D2A+0x80>
  407f2c:	8d 74 26 00          	lea    esi,[esi+eiz*1+0x0]

00407f30 <___strcp_D2A>:
  407f30:	8b 4c 24 08          	mov    ecx,DWORD PTR [esp+0x8]
  407f34:	8b 44 24 04          	mov    eax,DWORD PTR [esp+0x4]
  407f38:	8d 51 01             	lea    edx,[ecx+0x1]
  407f3b:	0f b6 09             	movzx  ecx,BYTE PTR [ecx]
  407f3e:	84 c9                	test   cl,cl
  407f40:	88 08                	mov    BYTE PTR [eax],cl
  407f42:	74 10                	je     407f54 <___strcp_D2A+0x24>
  407f44:	83 c2 01             	add    edx,0x1
  407f47:	0f b6 4a ff          	movzx  ecx,BYTE PTR [edx-0x1]
  407f4b:	83 c0 01             	add    eax,0x1
  407f4e:	84 c9                	test   cl,cl
  407f50:	88 08                	mov    BYTE PTR [eax],cl
  407f52:	75 f0                	jne    407f44 <___strcp_D2A+0x14>
  407f54:	f3 c3                	repz ret 
  407f56:	90                   	nop
  407f57:	90                   	nop
  407f58:	90                   	nop
  407f59:	90                   	nop
  407f5a:	90                   	nop
  407f5b:	90                   	nop
  407f5c:	90                   	nop
  407f5d:	90                   	nop
  407f5e:	90                   	nop
  407f5f:	90                   	nop

00407f60 <_wcstombs>:
  407f60:	ff 25 30 e2 40 00    	jmp    DWORD PTR ds:0x40e230
  407f66:	90                   	nop
  407f67:	90                   	nop

00407f68 <_wcslen>:
  407f68:	ff 25 2c e2 40 00    	jmp    DWORD PTR ds:0x40e22c
  407f6e:	90                   	nop
  407f6f:	90                   	nop

00407f70 <_vfprintf>:
  407f70:	ff 25 28 e2 40 00    	jmp    DWORD PTR ds:0x40e228
  407f76:	90                   	nop
  407f77:	90                   	nop

00407f78 <_tolower>:
  407f78:	ff 25 24 e2 40 00    	jmp    DWORD PTR ds:0x40e224
  407f7e:	90                   	nop
  407f7f:	90                   	nop

00407f80 <_strlen>:
  407f80:	ff 25 20 e2 40 00    	jmp    DWORD PTR ds:0x40e220
  407f86:	90                   	nop
  407f87:	90                   	nop

00407f88 <_strcoll>:
  407f88:	ff 25 1c e2 40 00    	jmp    DWORD PTR ds:0x40e21c
  407f8e:	90                   	nop
  407f8f:	90                   	nop

00407f90 <_strchr>:
  407f90:	ff 25 18 e2 40 00    	jmp    DWORD PTR ds:0x40e218
  407f96:	90                   	nop
  407f97:	90                   	nop

00407f98 <_signal>:
  407f98:	ff 25 14 e2 40 00    	jmp    DWORD PTR ds:0x40e214
  407f9e:	90                   	nop
  407f9f:	90                   	nop

00407fa0 <_setlocale>:
  407fa0:	ff 25 10 e2 40 00    	jmp    DWORD PTR ds:0x40e210
  407fa6:	90                   	nop
  407fa7:	90                   	nop

00407fa8 <_realloc>:
  407fa8:	ff 25 0c e2 40 00    	jmp    DWORD PTR ds:0x40e20c
  407fae:	90                   	nop
  407faf:	90                   	nop

00407fb0 <_printf>:
  407fb0:	ff 25 08 e2 40 00    	jmp    DWORD PTR ds:0x40e208
  407fb6:	90                   	nop
  407fb7:	90                   	nop

00407fb8 <_memcpy>:
  407fb8:	ff 25 04 e2 40 00    	jmp    DWORD PTR ds:0x40e204
  407fbe:	90                   	nop
  407fbf:	90                   	nop

00407fc0 <_mbstowcs>:
  407fc0:	ff 25 00 e2 40 00    	jmp    DWORD PTR ds:0x40e200
  407fc6:	90                   	nop
  407fc7:	90                   	nop

00407fc8 <_malloc>:
  407fc8:	ff 25 fc e1 40 00    	jmp    DWORD PTR ds:0x40e1fc
  407fce:	90                   	nop
  407fcf:	90                   	nop

00407fd0 <_localeconv>:
  407fd0:	ff 25 f8 e1 40 00    	jmp    DWORD PTR ds:0x40e1f8
  407fd6:	90                   	nop
  407fd7:	90                   	nop

00407fd8 <_isspace>:
  407fd8:	ff 25 f4 e1 40 00    	jmp    DWORD PTR ds:0x40e1f4
  407fde:	90                   	nop
  407fdf:	90                   	nop

00407fe0 <_getenv>:
  407fe0:	ff 25 f0 e1 40 00    	jmp    DWORD PTR ds:0x40e1f0
  407fe6:	90                   	nop
  407fe7:	90                   	nop

00407fe8 <_fwrite>:
  407fe8:	ff 25 ec e1 40 00    	jmp    DWORD PTR ds:0x40e1ec
  407fee:	90                   	nop
  407fef:	90                   	nop

00407ff0 <_free>:
  407ff0:	ff 25 e8 e1 40 00    	jmp    DWORD PTR ds:0x40e1e8
  407ff6:	90                   	nop
  407ff7:	90                   	nop

00407ff8 <_fputc>:
  407ff8:	ff 25 e4 e1 40 00    	jmp    DWORD PTR ds:0x40e1e4
  407ffe:	90                   	nop
  407fff:	90                   	nop

00408000 <_calloc>:
  408000:	ff 25 e0 e1 40 00    	jmp    DWORD PTR ds:0x40e1e0
  408006:	90                   	nop
  408007:	90                   	nop

00408008 <_atoi>:
  408008:	ff 25 dc e1 40 00    	jmp    DWORD PTR ds:0x40e1dc
  40800e:	90                   	nop
  40800f:	90                   	nop

00408010 <_abort>:
  408010:	ff 25 d4 e1 40 00    	jmp    DWORD PTR ds:0x40e1d4
  408016:	90                   	nop
  408017:	90                   	nop

00408018 <__setmode>:
  408018:	ff 25 d0 e1 40 00    	jmp    DWORD PTR ds:0x40e1d0
  40801e:	90                   	nop
  40801f:	90                   	nop

00408020 <__fullpath>:
  408020:	ff 25 c4 e1 40 00    	jmp    DWORD PTR ds:0x40e1c4
  408026:	90                   	nop
  408027:	90                   	nop

00408028 <__errno>:
  408028:	ff 25 c0 e1 40 00    	jmp    DWORD PTR ds:0x40e1c0
  40802e:	90                   	nop
  40802f:	90                   	nop

00408030 <__cexit>:
  408030:	ff 25 bc e1 40 00    	jmp    DWORD PTR ds:0x40e1bc
  408036:	90                   	nop
  408037:	90                   	nop

00408038 <___p__fmode>:
  408038:	ff 25 b4 e1 40 00    	jmp    DWORD PTR ds:0x40e1b4
  40803e:	90                   	nop
  40803f:	90                   	nop

00408040 <___p__environ>:
  408040:	ff 25 b0 e1 40 00    	jmp    DWORD PTR ds:0x40e1b0
  408046:	90                   	nop
  408047:	90                   	nop

00408048 <___getmainargs>:
  408048:	ff 25 a8 e1 40 00    	jmp    DWORD PTR ds:0x40e1a8
  40804e:	90                   	nop
  40804f:	90                   	nop

00408050 <_WideCharToMultiByte@32>:
  408050:	ff 25 94 e1 40 00    	jmp    DWORD PTR ds:0x40e194
  408056:	90                   	nop
  408057:	90                   	nop

00408058 <_VirtualQuery@12>:
  408058:	ff 25 90 e1 40 00    	jmp    DWORD PTR ds:0x40e190
  40805e:	90                   	nop
  40805f:	90                   	nop

00408060 <_VirtualProtect@16>:
  408060:	ff 25 8c e1 40 00    	jmp    DWORD PTR ds:0x40e18c
  408066:	90                   	nop
  408067:	90                   	nop

00408068 <_TlsGetValue@4>:
  408068:	ff 25 88 e1 40 00    	jmp    DWORD PTR ds:0x40e188
  40806e:	90                   	nop
  40806f:	90                   	nop

00408070 <_Sleep@4>:
  408070:	ff 25 84 e1 40 00    	jmp    DWORD PTR ds:0x40e184
  408076:	90                   	nop
  408077:	90                   	nop

00408078 <_SetUnhandledExceptionFilter@4>:
  408078:	ff 25 80 e1 40 00    	jmp    DWORD PTR ds:0x40e180
  40807e:	90                   	nop
  40807f:	90                   	nop

00408080 <_MultiByteToWideChar@24>:
  408080:	ff 25 7c e1 40 00    	jmp    DWORD PTR ds:0x40e17c
  408086:	90                   	nop
  408087:	90                   	nop

00408088 <_LeaveCriticalSection@4>:
  408088:	ff 25 78 e1 40 00    	jmp    DWORD PTR ds:0x40e178
  40808e:	90                   	nop
  40808f:	90                   	nop

00408090 <_IsDBCSLeadByteEx@8>:
  408090:	ff 25 74 e1 40 00    	jmp    DWORD PTR ds:0x40e174
  408096:	90                   	nop
  408097:	90                   	nop

00408098 <_InterlockedExchange@8>:
  408098:	ff 25 70 e1 40 00    	jmp    DWORD PTR ds:0x40e170
  40809e:	90                   	nop
  40809f:	90                   	nop

004080a0 <_InitializeCriticalSection@4>:
  4080a0:	ff 25 6c e1 40 00    	jmp    DWORD PTR ds:0x40e16c
  4080a6:	90                   	nop
  4080a7:	90                   	nop

004080a8 <_GetProcAddress@8>:
  4080a8:	ff 25 68 e1 40 00    	jmp    DWORD PTR ds:0x40e168
  4080ae:	90                   	nop
  4080af:	90                   	nop

004080b0 <_GetModuleHandleA@4>:
  4080b0:	ff 25 64 e1 40 00    	jmp    DWORD PTR ds:0x40e164
  4080b6:	90                   	nop
  4080b7:	90                   	nop

004080b8 <_GetLastError@0>:
  4080b8:	ff 25 60 e1 40 00    	jmp    DWORD PTR ds:0x40e160
  4080be:	90                   	nop
  4080bf:	90                   	nop

004080c0 <_GetCommandLineA@0>:
  4080c0:	ff 25 5c e1 40 00    	jmp    DWORD PTR ds:0x40e15c
  4080c6:	90                   	nop
  4080c7:	90                   	nop

004080c8 <_FindNextFileA@8>:
  4080c8:	ff 25 58 e1 40 00    	jmp    DWORD PTR ds:0x40e158
  4080ce:	90                   	nop
  4080cf:	90                   	nop

004080d0 <_FindFirstFileA@8>:
  4080d0:	ff 25 54 e1 40 00    	jmp    DWORD PTR ds:0x40e154
  4080d6:	90                   	nop
  4080d7:	90                   	nop

004080d8 <_FindClose@4>:
  4080d8:	ff 25 50 e1 40 00    	jmp    DWORD PTR ds:0x40e150
  4080de:	90                   	nop
  4080df:	90                   	nop

004080e0 <_ExitProcess@4>:
  4080e0:	ff 25 4c e1 40 00    	jmp    DWORD PTR ds:0x40e14c
  4080e6:	90                   	nop
  4080e7:	90                   	nop

004080e8 <_EnterCriticalSection@4>:
  4080e8:	ff 25 48 e1 40 00    	jmp    DWORD PTR ds:0x40e148
  4080ee:	90                   	nop
  4080ef:	90                   	nop

004080f0 <_DeleteCriticalSection@4>:
  4080f0:	ff 25 44 e1 40 00    	jmp    DWORD PTR ds:0x40e144
  4080f6:	90                   	nop
  4080f7:	90                   	nop

004080f8 <.text>:
  4080f8:	66 90                	xchg   ax,ax
  4080fa:	66 90                	xchg   ax,ax
  4080fc:	66 90                	xchg   ax,ax
  4080fe:	66 90                	xchg   ax,ax

00408100 <___udivdi3>:
  408100:	55                   	push   ebp
  408101:	57                   	push   edi
  408102:	56                   	push   esi
  408103:	53                   	push   ebx
  408104:	83 ec 14             	sub    esp,0x14
  408107:	8b 74 24 34          	mov    esi,DWORD PTR [esp+0x34]
  40810b:	8b 7c 24 28          	mov    edi,DWORD PTR [esp+0x28]
  40810f:	8b 6c 24 2c          	mov    ebp,DWORD PTR [esp+0x2c]
  408113:	8b 4c 24 30          	mov    ecx,DWORD PTR [esp+0x30]
  408117:	85 f6                	test   esi,esi
  408119:	89 3c 24             	mov    DWORD PTR [esp],edi
  40811c:	89 e8                	mov    eax,ebp
  40811e:	89 ca                	mov    edx,ecx
  408120:	75 2e                	jne    408150 <___udivdi3+0x50>
  408122:	39 e9                	cmp    ecx,ebp
  408124:	77 5c                	ja     408182 <___udivdi3+0x82>
  408126:	85 c9                	test   ecx,ecx
  408128:	89 cb                	mov    ebx,ecx
  40812a:	75 0b                	jne    408137 <___udivdi3+0x37>
  40812c:	b8 01 00 00 00       	mov    eax,0x1
  408131:	31 d2                	xor    edx,edx
  408133:	f7 f1                	div    ecx
  408135:	89 c3                	mov    ebx,eax
  408137:	89 e8                	mov    eax,ebp
  408139:	31 d2                	xor    edx,edx
  40813b:	f7 f3                	div    ebx
  40813d:	89 c5                	mov    ebp,eax
  40813f:	89 f8                	mov    eax,edi
  408141:	f7 f3                	div    ebx
  408143:	89 ea                	mov    edx,ebp
  408145:	83 c4 14             	add    esp,0x14
  408148:	5b                   	pop    ebx
  408149:	5e                   	pop    esi
  40814a:	5f                   	pop    edi
  40814b:	5d                   	pop    ebp
  40814c:	c3                   	ret    
  40814d:	8d 76 00             	lea    esi,[esi+0x0]
  408150:	39 ee                	cmp    esi,ebp
  408152:	77 22                	ja     408176 <___udivdi3+0x76>
  408154:	0f bd de             	bsr    ebx,esi
  408157:	83 f3 1f             	xor    ebx,0x1f
  40815a:	75 36                	jne    408192 <___udivdi3+0x92>
  40815c:	3b 0c 24             	cmp    ecx,DWORD PTR [esp]
  40815f:	ba 00 00 00 00       	mov    edx,0x0
  408164:	0f 86 86 00 00 00    	jbe    4081f0 <___udivdi3+0xf0>
  40816a:	39 ee                	cmp    esi,ebp
  40816c:	0f 82 7e 00 00 00    	jb     4081f0 <___udivdi3+0xf0>
  408172:	31 c0                	xor    eax,eax
  408174:	eb cf                	jmp    408145 <___udivdi3+0x45>
  408176:	31 d2                	xor    edx,edx
  408178:	31 c0                	xor    eax,eax
  40817a:	83 c4 14             	add    esp,0x14
  40817d:	5b                   	pop    ebx
  40817e:	5e                   	pop    esi
  40817f:	5f                   	pop    edi
  408180:	5d                   	pop    ebp
  408181:	c3                   	ret    
  408182:	89 f8                	mov    eax,edi
  408184:	89 ea                	mov    edx,ebp
  408186:	f7 f1                	div    ecx
  408188:	31 d2                	xor    edx,edx
  40818a:	83 c4 14             	add    esp,0x14
  40818d:	5b                   	pop    ebx
  40818e:	5e                   	pop    esi
  40818f:	5f                   	pop    edi
  408190:	5d                   	pop    ebp
  408191:	c3                   	ret    
  408192:	bf 20 00 00 00       	mov    edi,0x20
  408197:	89 d9                	mov    ecx,ebx
  408199:	29 df                	sub    edi,ebx
  40819b:	89 d5                	mov    ebp,edx
  40819d:	d3 e6                	shl    esi,cl
  40819f:	89 f9                	mov    ecx,edi
  4081a1:	d3 ed                	shr    ebp,cl
  4081a3:	89 d9                	mov    ecx,ebx
  4081a5:	d3 e2                	shl    edx,cl
  4081a7:	09 f5                	or     ebp,esi
  4081a9:	89 54 24 04          	mov    DWORD PTR [esp+0x4],edx
  4081ad:	8b 14 24             	mov    edx,DWORD PTR [esp]
  4081b0:	89 f9                	mov    ecx,edi
  4081b2:	89 c6                	mov    esi,eax
  4081b4:	d3 ee                	shr    esi,cl
  4081b6:	89 d9                	mov    ecx,ebx
  4081b8:	d3 e0                	shl    eax,cl
  4081ba:	89 f9                	mov    ecx,edi
  4081bc:	d3 ea                	shr    edx,cl
  4081be:	89 d7                	mov    edi,edx
  4081c0:	89 f2                	mov    edx,esi
  4081c2:	09 c7                	or     edi,eax
  4081c4:	89 f8                	mov    eax,edi
  4081c6:	f7 f5                	div    ebp
  4081c8:	89 d6                	mov    esi,edx
  4081ca:	89 c7                	mov    edi,eax
  4081cc:	f7 64 24 04          	mul    DWORD PTR [esp+0x4]
  4081d0:	39 d6                	cmp    esi,edx
  4081d2:	72 2c                	jb     408200 <___udivdi3+0x100>
  4081d4:	8b 2c 24             	mov    ebp,DWORD PTR [esp]
  4081d7:	89 d9                	mov    ecx,ebx
  4081d9:	d3 e5                	shl    ebp,cl
  4081db:	39 c5                	cmp    ebp,eax
  4081dd:	73 04                	jae    4081e3 <___udivdi3+0xe3>
  4081df:	39 d6                	cmp    esi,edx
  4081e1:	74 1d                	je     408200 <___udivdi3+0x100>
  4081e3:	89 f8                	mov    eax,edi
  4081e5:	31 d2                	xor    edx,edx
  4081e7:	e9 59 ff ff ff       	jmp    408145 <___udivdi3+0x45>
  4081ec:	8d 74 26 00          	lea    esi,[esi+eiz*1+0x0]
  4081f0:	b8 01 00 00 00       	mov    eax,0x1
  4081f5:	e9 4b ff ff ff       	jmp    408145 <___udivdi3+0x45>
  4081fa:	8d b6 00 00 00 00    	lea    esi,[esi+0x0]
  408200:	8d 47 ff             	lea    eax,[edi-0x1]
  408203:	31 d2                	xor    edx,edx
  408205:	83 c4 14             	add    esp,0x14
  408208:	5b                   	pop    ebx
  408209:	5e                   	pop    esi
  40820a:	5f                   	pop    edi
  40820b:	5d                   	pop    ebp
  40820c:	c3                   	ret    
  40820d:	90                   	nop
  40820e:	90                   	nop
  40820f:	90                   	nop

00408210 <___umoddi3>:
  408210:	55                   	push   ebp
  408211:	57                   	push   edi
  408212:	56                   	push   esi
  408213:	53                   	push   ebx
  408214:	83 ec 1c             	sub    esp,0x1c
  408217:	8b 44 24 3c          	mov    eax,DWORD PTR [esp+0x3c]
  40821b:	8b 4c 24 30          	mov    ecx,DWORD PTR [esp+0x30]
  40821f:	8b 6c 24 34          	mov    ebp,DWORD PTR [esp+0x34]
  408223:	8b 5c 24 38          	mov    ebx,DWORD PTR [esp+0x38]
  408227:	85 c0                	test   eax,eax
  408229:	89 c2                	mov    edx,eax
  40822b:	89 4c 24 0c          	mov    DWORD PTR [esp+0xc],ecx
  40822f:	89 ee                	mov    esi,ebp
  408231:	89 1c 24             	mov    DWORD PTR [esp],ebx
  408234:	89 4c 24 04          	mov    DWORD PTR [esp+0x4],ecx
  408238:	89 6c 24 08          	mov    DWORD PTR [esp+0x8],ebp
  40823c:	75 16                	jne    408254 <___umoddi3+0x44>
  40823e:	39 eb                	cmp    ebx,ebp
  408240:	76 4e                	jbe    408290 <___umoddi3+0x80>
  408242:	89 c8                	mov    eax,ecx
  408244:	89 ea                	mov    edx,ebp
  408246:	f7 f3                	div    ebx
  408248:	89 d0                	mov    eax,edx
  40824a:	31 d2                	xor    edx,edx
  40824c:	83 c4 1c             	add    esp,0x1c
  40824f:	5b                   	pop    ebx
  408250:	5e                   	pop    esi
  408251:	5f                   	pop    edi
  408252:	5d                   	pop    ebp
  408253:	c3                   	ret    
  408254:	39 e8                	cmp    eax,ebp
  408256:	77 58                	ja     4082b0 <___umoddi3+0xa0>
  408258:	0f bd f8             	bsr    edi,eax
  40825b:	83 f7 1f             	xor    edi,0x1f
  40825e:	75 60                	jne    4082c0 <___umoddi3+0xb0>
  408260:	8b 7c 24 04          	mov    edi,DWORD PTR [esp+0x4]
  408264:	39 3c 24             	cmp    DWORD PTR [esp],edi
  408267:	0f 87 e4 00 00 00    	ja     408351 <___umoddi3+0x141>
  40826d:	89 ef                	mov    edi,ebp
  40826f:	89 ce                	mov    esi,ecx
  408271:	29 de                	sub    esi,ebx
  408273:	19 c7                	sbb    edi,eax
  408275:	89 74 24 04          	mov    DWORD PTR [esp+0x4],esi
  408279:	89 7c 24 08          	mov    DWORD PTR [esp+0x8],edi
  40827d:	8b 44 24 04          	mov    eax,DWORD PTR [esp+0x4]
  408281:	8b 54 24 08          	mov    edx,DWORD PTR [esp+0x8]
  408285:	83 c4 1c             	add    esp,0x1c
  408288:	5b                   	pop    ebx
  408289:	5e                   	pop    esi
  40828a:	5f                   	pop    edi
  40828b:	5d                   	pop    ebp
  40828c:	c3                   	ret    
  40828d:	8d 76 00             	lea    esi,[esi+0x0]
  408290:	85 db                	test   ebx,ebx
  408292:	89 df                	mov    edi,ebx
  408294:	75 0b                	jne    4082a1 <___umoddi3+0x91>
  408296:	b8 01 00 00 00       	mov    eax,0x1
  40829b:	31 d2                	xor    edx,edx
  40829d:	f7 f3                	div    ebx
  40829f:	89 c7                	mov    edi,eax
  4082a1:	89 e8                	mov    eax,ebp
  4082a3:	31 d2                	xor    edx,edx
  4082a5:	f7 f7                	div    edi
  4082a7:	89 c8                	mov    eax,ecx
  4082a9:	f7 f7                	div    edi
  4082ab:	eb 9b                	jmp    408248 <___umoddi3+0x38>
  4082ad:	8d 76 00             	lea    esi,[esi+0x0]
  4082b0:	89 c8                	mov    eax,ecx
  4082b2:	89 ea                	mov    edx,ebp
  4082b4:	83 c4 1c             	add    esp,0x1c
  4082b7:	5b                   	pop    ebx
  4082b8:	5e                   	pop    esi
  4082b9:	5f                   	pop    edi
  4082ba:	5d                   	pop    ebp
  4082bb:	c3                   	ret    
  4082bc:	8d 74 26 00          	lea    esi,[esi+eiz*1+0x0]
  4082c0:	8b 2c 24             	mov    ebp,DWORD PTR [esp]
  4082c3:	bb 20 00 00 00       	mov    ebx,0x20
  4082c8:	89 f9                	mov    ecx,edi
  4082ca:	29 fb                	sub    ebx,edi
  4082cc:	d3 e2                	shl    edx,cl
  4082ce:	89 d9                	mov    ecx,ebx
  4082d0:	89 e8                	mov    eax,ebp
  4082d2:	d3 e8                	shr    eax,cl
  4082d4:	89 f9                	mov    ecx,edi
  4082d6:	89 04 24             	mov    DWORD PTR [esp],eax
  4082d9:	89 e8                	mov    eax,ebp
  4082db:	d3 e0                	shl    eax,cl
  4082dd:	89 d9                	mov    ecx,ebx
  4082df:	89 c5                	mov    ebp,eax
  4082e1:	89 44 24 08          	mov    DWORD PTR [esp+0x8],eax
  4082e5:	8b 44 24 0c          	mov    eax,DWORD PTR [esp+0xc]
  4082e9:	09 14 24             	or     DWORD PTR [esp],edx
  4082ec:	89 f2                	mov    edx,esi
  4082ee:	d3 ea                	shr    edx,cl
  4082f0:	89 f9                	mov    ecx,edi
  4082f2:	d3 e6                	shl    esi,cl
  4082f4:	89 d9                	mov    ecx,ebx
  4082f6:	d3 e8                	shr    eax,cl
  4082f8:	89 f9                	mov    ecx,edi
  4082fa:	09 f0                	or     eax,esi
  4082fc:	8b 74 24 0c          	mov    esi,DWORD PTR [esp+0xc]
  408300:	f7 34 24             	div    DWORD PTR [esp]
  408303:	d3 e6                	shl    esi,cl
  408305:	89 74 24 04          	mov    DWORD PTR [esp+0x4],esi
  408309:	89 d6                	mov    esi,edx
  40830b:	f7 e5                	mul    ebp
  40830d:	39 d6                	cmp    esi,edx
  40830f:	89 c1                	mov    ecx,eax
  408311:	89 d5                	mov    ebp,edx
  408313:	72 2f                	jb     408344 <___umoddi3+0x134>
  408315:	39 44 24 04          	cmp    DWORD PTR [esp+0x4],eax
  408319:	72 25                	jb     408340 <___umoddi3+0x130>
  40831b:	8b 44 24 04          	mov    eax,DWORD PTR [esp+0x4]
  40831f:	29 c8                	sub    eax,ecx
  408321:	19 ee                	sbb    esi,ebp
  408323:	89 f9                	mov    ecx,edi
  408325:	89 f2                	mov    edx,esi
  408327:	d3 e8                	shr    eax,cl
  408329:	89 d9                	mov    ecx,ebx
  40832b:	d3 e2                	shl    edx,cl
  40832d:	89 f9                	mov    ecx,edi
  40832f:	d3 ee                	shr    esi,cl
  408331:	09 d0                	or     eax,edx
  408333:	89 f2                	mov    edx,esi
  408335:	83 c4 1c             	add    esp,0x1c
  408338:	5b                   	pop    ebx
  408339:	5e                   	pop    esi
  40833a:	5f                   	pop    edi
  40833b:	5d                   	pop    ebp
  40833c:	c3                   	ret    
  40833d:	8d 76 00             	lea    esi,[esi+0x0]
  408340:	39 d6                	cmp    esi,edx
  408342:	75 d7                	jne    40831b <___umoddi3+0x10b>
  408344:	89 d5                	mov    ebp,edx
  408346:	89 c1                	mov    ecx,eax
  408348:	2b 4c 24 08          	sub    ecx,DWORD PTR [esp+0x8]
  40834c:	1b 2c 24             	sbb    ebp,DWORD PTR [esp]
  40834f:	eb ca                	jmp    40831b <___umoddi3+0x10b>
  408351:	3b 44 24 08          	cmp    eax,DWORD PTR [esp+0x8]
  408355:	0f 82 12 ff ff ff    	jb     40826d <___umoddi3+0x5d>
  40835b:	e9 1d ff ff ff       	jmp    40827d <___umoddi3+0x6d>

00408360 <_stricoll>:
  408360:	ff 25 a0 e1 40 00    	jmp    DWORD PTR ds:0x40e1a0
  408366:	90                   	nop
  408367:	90                   	nop

00408368 <_strdup>:
  408368:	ff 25 9c e1 40 00    	jmp    DWORD PTR ds:0x40e19c
  40836e:	90                   	nop
  40836f:	90                   	nop

00408370 <_register_frame_ctor>:
  408370:	55                   	push   ebp
  408371:	89 e5                	mov    ebp,esp
  408373:	83 ec 18             	sub    esp,0x18
  408376:	e8 85 8f ff ff       	call   401300 <___gcc_register_frame>
  40837b:	c7 04 24 90 13 40 00 	mov    DWORD PTR [esp],0x401390
  408382:	e8 59 8f ff ff       	call   4012e0 <_atexit>
  408387:	c9                   	leave  
  408388:	c3                   	ret    
  408389:	90                   	nop
  40838a:	90                   	nop
  40838b:	90                   	nop
  40838c:	90                   	nop
  40838d:	90                   	nop
  40838e:	90                   	nop
  40838f:	90                   	nop

00408390 <__CTOR_LIST__>:
  408390:	ff                   	(bad)  
  408391:	ff                   	(bad)  
  408392:	ff                   	(bad)  
  408393:	ff 70 83             	push   DWORD PTR [eax-0x7d]

00408394 <.ctors.65535>:
  408394:	70 83                	jo     408319 <___umoddi3+0x109>
  408396:	40                   	inc    eax
  408397:	00 00                	add    BYTE PTR [eax],al
  408399:	00 00                	add    BYTE PTR [eax],al
	...

0040839c <__DTOR_LIST__>:
  40839c:	ff                   	(bad)  
  40839d:	ff                   	(bad)  
  40839e:	ff                   	(bad)  
  40839f:	ff 00                	inc    DWORD PTR [eax]
  4083a1:	00 00                	add    BYTE PTR [eax],al
	...

Disassembly of section .data:

00409000 <__CRT_glob>:
  409000:	02 00                	add    al,BYTE PTR [eax]
	...

00409004 <__fmode>:
  409004:	00 40 00             	add    BYTE PTR [eax+0x0],al
	...

00409008 <_p.1784>:
  409008:	a0 83 40 00 40       	mov    al,ds:0x40004083

0040900c <_fpi.3794>:
  40900c:	40                   	inc    eax
  40900d:	00 00                	add    BYTE PTR [eax],al
  40900f:	00 c3                	add    bl,al
  409011:	bf ff ff c0 3f       	mov    edi,0x3fc0ffff
  409016:	00 00                	add    BYTE PTR [eax],al
  409018:	01 00                	add    DWORD PTR [eax],eax
  40901a:	00 00                	add    BYTE PTR [eax],al
  40901c:	00 00                	add    BYTE PTR [eax],al
	...

00409020 <_pmem_next>:
  409020:	a0 d0 40 00 00       	mov    al,ds:0x40d0

00409024 <___JCR_END__>:
  409024:	00 00                	add    BYTE PTR [eax],al
	...

Disassembly of section .rdata:

0040a000 <.rdata>:
  40a000:	6c                   	ins    BYTE PTR es:[edi],dx
  40a001:	69 62 67 63 63 5f 73 	imul   esp,DWORD PTR [edx+0x67],0x735f6363
  40a008:	5f                   	pop    edi
  40a009:	64 77 32             	fs ja  40a03e <.rdata+0x3e>
  40a00c:	2d 31 2e 64 6c       	sub    eax,0x6c642e31
  40a011:	6c                   	ins    BYTE PTR es:[edi],dx
  40a012:	00 5f 5f             	add    BYTE PTR [edi+0x5f],bl
  40a015:	72 65                	jb     40a07c <.rdata+0x14>
  40a017:	67 69 73 74 65 72 5f 	imul   esi,DWORD PTR [bp+di+0x74],0x665f7265
  40a01e:	66 
  40a01f:	72 61                	jb     40a082 <.rdata+0x1a>
  40a021:	6d                   	ins    DWORD PTR es:[edi],dx
  40a022:	65 5f                	gs pop edi
  40a024:	69 6e 66 6f 00 6c 69 	imul   ebp,DWORD PTR [esi+0x66],0x696c006f
  40a02b:	62 67 63             	bound  esp,QWORD PTR [edi+0x63]
  40a02e:	6a 2d                	push   0x2d
  40a030:	31 33                	xor    DWORD PTR [ebx],esi
  40a032:	2e 64 6c             	cs fs ins BYTE PTR es:[edi],dx
  40a035:	6c                   	ins    BYTE PTR es:[edi],dx
  40a036:	00 5f 4a             	add    BYTE PTR [edi+0x4a],bl
  40a039:	76 5f                	jbe    40a09a <.rdata+0x32>
  40a03b:	52                   	push   edx
  40a03c:	65 67 69 73 74 65 72 	imul   esi,DWORD PTR gs:[bp+di+0x74],0x6c437265
  40a043:	43 6c 
  40a045:	61                   	popa   
  40a046:	73 73                	jae    40a0bb <.rdata+0x53>
  40a048:	65 73 00             	gs jae 40a04b <.rdata+0x4b>
  40a04b:	5f                   	pop    edi
  40a04c:	5f                   	pop    edi
  40a04d:	64 65 72 65          	fs gs jb 40a0b6 <.rdata+0x4e>
  40a051:	67 69 73 74 65 72 5f 	imul   esi,DWORD PTR [bp+di+0x74],0x665f7265
  40a058:	66 
  40a059:	72 61                	jb     40a0bc <.rdata+0x54>
  40a05b:	6d                   	ins    DWORD PTR es:[edi],dx
  40a05c:	65 5f                	gs pop edi
  40a05e:	69 6e 66 6f 00 00 60 	imul   ebp,DWORD PTR [esi+0x66],0x6000006f

0040a064 <___dyn_tls_init_callback>:
  40a064:	60                   	pusha  
  40a065:	19 40 00             	sbb    DWORD PTR [eax+0x0],eax

0040a068 <.rdata>:
  40a068:	4d                   	dec    ebp
  40a069:	69 6e 67 77 20 72 75 	imul   ebp,DWORD PTR [esi+0x67],0x75722077
  40a070:	6e                   	outs   dx,BYTE PTR ds:[esi]
  40a071:	74 69                	je     40a0dc <.rdata+0x74>
  40a073:	6d                   	ins    DWORD PTR es:[edi],dx
  40a074:	65 20 66 61          	and    BYTE PTR gs:[esi+0x61],ah
  40a078:	69 6c 75 72 65 3a 0a 	imul   ebp,DWORD PTR [ebp+esi*2+0x72],0xa3a65
  40a07f:	00 
  40a080:	20 20                	and    BYTE PTR [eax],ah
  40a082:	56                   	push   esi
  40a083:	69 72 74 75 61 6c 51 	imul   esi,DWORD PTR [edx+0x74],0x516c6175
  40a08a:	75 65                	jne    40a0f1 <.rdata+0x89>
  40a08c:	72 79                	jb     40a107 <.rdata+0x9f>
  40a08e:	20 66 61             	and    BYTE PTR [esi+0x61],ah
  40a091:	69 6c 65 64 20 66 6f 	imul   ebp,DWORD PTR [ebp+eiz*2+0x64],0x726f6620
  40a098:	72 
  40a099:	20 25 64 20 62 79    	and    BYTE PTR ds:0x79622064,ah
  40a09f:	74 65                	je     40a106 <.rdata+0x9e>
  40a0a1:	73 20                	jae    40a0c3 <.rdata+0x5b>
  40a0a3:	61                   	popa   
  40a0a4:	74 20                	je     40a0c6 <.rdata+0x5e>
  40a0a6:	61                   	popa   
  40a0a7:	64 64 72 65          	fs fs jb 40a110 <.rdata+0xa8>
  40a0ab:	73 73                	jae    40a120 <.rdata+0xc>
  40a0ad:	20 25 70 00 00 00    	and    BYTE PTR ds:0x70,ah
  40a0b3:	00 20                	add    BYTE PTR [eax],ah
  40a0b5:	20 55 6e             	and    BYTE PTR [ebp+0x6e],dl
  40a0b8:	6b 6e 6f 77          	imul   ebp,DWORD PTR [esi+0x6f],0x77
  40a0bc:	6e                   	outs   dx,BYTE PTR ds:[esi]
  40a0bd:	20 70 73             	and    BYTE PTR [eax+0x73],dh
  40a0c0:	65 75 64             	gs jne 40a127 <.rdata+0x13>
  40a0c3:	6f                   	outs   dx,DWORD PTR ds:[esi]
  40a0c4:	20 72 65             	and    BYTE PTR [edx+0x65],dh
  40a0c7:	6c                   	ins    BYTE PTR es:[edi],dx
  40a0c8:	6f                   	outs   dx,DWORD PTR ds:[esi]
  40a0c9:	63 61 74             	arpl   WORD PTR [ecx+0x74],sp
  40a0cc:	69 6f 6e 20 70 72 6f 	imul   ebp,DWORD PTR [edi+0x6e],0x6f727020
  40a0d3:	74 6f                	je     40a144 <.rdata+0x10>
  40a0d5:	63 6f 6c             	arpl   WORD PTR [edi+0x6c],bp
  40a0d8:	20 76 65             	and    BYTE PTR [esi+0x65],dh
  40a0db:	72 73                	jb     40a150 <.rdata+0x1c>
  40a0dd:	69 6f 6e 20 25 64 2e 	imul   ebp,DWORD PTR [edi+0x6e],0x2e642520
  40a0e4:	0a 00                	or     al,BYTE PTR [eax]
  40a0e6:	00 00                	add    BYTE PTR [eax],al
  40a0e8:	20 20                	and    BYTE PTR [eax],ah
  40a0ea:	55                   	push   ebp
  40a0eb:	6e                   	outs   dx,BYTE PTR ds:[esi]
  40a0ec:	6b 6e 6f 77          	imul   ebp,DWORD PTR [esi+0x6f],0x77
  40a0f0:	6e                   	outs   dx,BYTE PTR ds:[esi]
  40a0f1:	20 70 73             	and    BYTE PTR [eax+0x73],dh
  40a0f4:	65 75 64             	gs jne 40a15b <.rdata+0x27>
  40a0f7:	6f                   	outs   dx,DWORD PTR ds:[esi]
  40a0f8:	20 72 65             	and    BYTE PTR [edx+0x65],dh
  40a0fb:	6c                   	ins    BYTE PTR es:[edi],dx
  40a0fc:	6f                   	outs   dx,DWORD PTR ds:[esi]
  40a0fd:	63 61 74             	arpl   WORD PTR [ecx+0x74],sp
  40a100:	69 6f 6e 20 62 69 74 	imul   ebp,DWORD PTR [edi+0x6e],0x74696220
  40a107:	20 73 69             	and    BYTE PTR [ebx+0x69],dh
  40a10a:	7a 65                	jp     40a171 <.rdata+0x3d>
  40a10c:	20 25 64 2e 0a 00    	and    BYTE PTR ds:0xa2e64,ah
	...

0040a114 <.rdata>:
  40a114:	2e 00 67 6c          	add    BYTE PTR cs:[edi+0x6c],ah
  40a118:	6f                   	outs   dx,DWORD PTR ds:[esi]
  40a119:	62 2d 31 2e 30 2d    	bound  ebp,QWORD PTR ds:0x2d302e31
  40a11f:	6d                   	ins    DWORD PTR es:[edi],dx
  40a120:	69 6e 67 77 33 32 00 	imul   ebp,DWORD PTR [esi+0x67],0x323377
	...

0040a128 <.rdata>:
  40a128:	00 00                	add    BYTE PTR [eax],al
  40a12a:	2e 00 00             	add    BYTE PTR cs:[eax],al
  40a12d:	00 00                	add    BYTE PTR [eax],al
	...

0040a130 <.rdata>:
  40a130:	25 73 00 00 4e       	and    eax,0x4e000073

0040a134 <.rdata>:
  40a134:	4e                   	dec    esi
  40a135:	61                   	popa   
  40a136:	4e                   	dec    esi
  40a137:	00 49 6e             	add    BYTE PTR [ecx+0x6e],cl
  40a13a:	66 00 28             	data16 add BYTE PTR [eax],ch
  40a13d:	00 6e 00             	add    BYTE PTR [esi+0x0],ch
  40a140:	75 00                	jne    40a142 <.rdata+0xe>
  40a142:	6c                   	ins    BYTE PTR es:[edi],dx
  40a143:	00 6c 00 29          	add    BYTE PTR [eax+eax*1+0x29],ch
  40a147:	00 00                	add    BYTE PTR [eax],al
  40a149:	00 28                	add    BYTE PTR [eax],ch
  40a14b:	6e                   	outs   dx,BYTE PTR ds:[esi]
  40a14c:	75 6c                	jne    40a1ba <.rdata+0x86>
  40a14e:	6c                   	ins    BYTE PTR es:[edi],dx
  40a14f:	29 00                	sub    DWORD PTR [eax],eax
  40a151:	50                   	push   eax
  40a152:	52                   	push   edx
  40a153:	49                   	dec    ecx
  40a154:	4e                   	dec    esi
  40a155:	54                   	push   esp
  40a156:	46                   	inc    esi
  40a157:	5f                   	pop    edi
  40a158:	45                   	inc    ebp
  40a159:	58                   	pop    eax
  40a15a:	50                   	push   eax
  40a15b:	4f                   	dec    edi
  40a15c:	4e                   	dec    esi
  40a15d:	45                   	inc    ebp
  40a15e:	4e                   	dec    esi
  40a15f:	54                   	push   esp
  40a160:	5f                   	pop    edi
  40a161:	44                   	inc    esp
  40a162:	49                   	dec    ecx
  40a163:	47                   	inc    edi
  40a164:	49                   	dec    ecx
  40a165:	54                   	push   esp
  40a166:	53                   	push   ebx
  40a167:	00 00                	add    BYTE PTR [eax],al
  40a169:	52                   	push   edx
  40a16a:	40                   	inc    eax
  40a16b:	00 d2                	add    dl,dl
  40a16d:	50                   	push   eax
  40a16e:	40                   	inc    eax
  40a16f:	00 d2                	add    dl,dl
  40a171:	50                   	push   eax
  40a172:	40                   	inc    eax
  40a173:	00 e0                	add    al,ah
  40a175:	51                   	push   ecx
  40a176:	40                   	inc    eax
  40a177:	00 d2                	add    dl,dl
  40a179:	50                   	push   eax
  40a17a:	40                   	inc    eax
  40a17b:	00 d0                	add    al,dl
  40a17d:	51                   	push   ecx
  40a17e:	40                   	inc    eax
  40a17f:	00 d2                	add    dl,dl
  40a181:	50                   	push   eax
  40a182:	40                   	inc    eax
  40a183:	00 d2                	add    dl,dl
  40a185:	50                   	push   eax
  40a186:	40                   	inc    eax
  40a187:	00 d2                	add    dl,dl
  40a189:	50                   	push   eax
  40a18a:	40                   	inc    eax
  40a18b:	00 d2                	add    dl,dl
  40a18d:	50                   	push   eax
  40a18e:	40                   	inc    eax
  40a18f:	00 90 51 40 00 70    	add    BYTE PTR [eax+0x70004051],dl
  40a195:	51                   	push   ecx
  40a196:	40                   	inc    eax
  40a197:	00 d2                	add    dl,dl
  40a199:	50                   	push   eax
  40a19a:	40                   	inc    eax
  40a19b:	00 50 51             	add    BYTE PTR [eax+0x51],dl
  40a19e:	40                   	inc    eax
  40a19f:	00 30                	add    BYTE PTR [eax],dh
  40a1a1:	51                   	push   ecx
  40a1a2:	40                   	inc    eax
  40a1a3:	00 d2                	add    dl,dl
  40a1a5:	50                   	push   eax
  40a1a6:	40                   	inc    eax
  40a1a7:	00 c6                	add    dh,al
  40a1a9:	50                   	push   eax
  40a1aa:	40                   	inc    eax
  40a1ab:	00 d2                	add    dl,dl
  40a1ad:	50                   	push   eax
  40a1ae:	40                   	inc    eax
  40a1af:	00 d2                	add    dl,dl
  40a1b1:	50                   	push   eax
  40a1b2:	40                   	inc    eax
  40a1b3:	00 d2                	add    dl,dl
  40a1b5:	50                   	push   eax
  40a1b6:	40                   	inc    eax
  40a1b7:	00 d2                	add    dl,dl
  40a1b9:	50                   	push   eax
  40a1ba:	40                   	inc    eax
  40a1bb:	00 d2                	add    dl,dl
  40a1bd:	50                   	push   eax
  40a1be:	40                   	inc    eax
  40a1bf:	00 d2                	add    dl,dl
  40a1c1:	50                   	push   eax
  40a1c2:	40                   	inc    eax
  40a1c3:	00 d2                	add    dl,dl
  40a1c5:	50                   	push   eax
  40a1c6:	40                   	inc    eax
  40a1c7:	00 d2                	add    dl,dl
  40a1c9:	50                   	push   eax
  40a1ca:	40                   	inc    eax
  40a1cb:	00 d2                	add    dl,dl
  40a1cd:	50                   	push   eax
  40a1ce:	40                   	inc    eax
  40a1cf:	00 d2                	add    dl,dl
  40a1d1:	50                   	push   eax
  40a1d2:	40                   	inc    eax
  40a1d3:	00 d2                	add    dl,dl
  40a1d5:	50                   	push   eax
  40a1d6:	40                   	inc    eax
  40a1d7:	00 d2                	add    dl,dl
  40a1d9:	50                   	push   eax
  40a1da:	40                   	inc    eax
  40a1db:	00 d2                	add    dl,dl
  40a1dd:	50                   	push   eax
  40a1de:	40                   	inc    eax
  40a1df:	00 d2                	add    dl,dl
  40a1e1:	50                   	push   eax
  40a1e2:	40                   	inc    eax
  40a1e3:	00 d2                	add    dl,dl
  40a1e5:	50                   	push   eax
  40a1e6:	40                   	inc    eax
  40a1e7:	00 d2                	add    dl,dl
  40a1e9:	50                   	push   eax
  40a1ea:	40                   	inc    eax
  40a1eb:	00 a1 50 40 00 d2    	add    BYTE PTR [ecx-0x2dffbfb0],ah
  40a1f1:	50                   	push   eax
  40a1f2:	40                   	inc    eax
  40a1f3:	00 75 50             	add    BYTE PTR [ebp+0x50],dh
  40a1f6:	40                   	inc    eax
  40a1f7:	00 d2                	add    dl,dl
  40a1f9:	50                   	push   eax
  40a1fa:	40                   	inc    eax
  40a1fb:	00 50 50             	add    BYTE PTR [eax+0x50],dl
  40a1fe:	40                   	inc    eax
  40a1ff:	00 25 50 40 00 00    	add    BYTE PTR ds:0x4050,ah
  40a205:	50                   	push   eax
  40a206:	40                   	inc    eax
  40a207:	00 d2                	add    dl,dl
  40a209:	50                   	push   eax
  40a20a:	40                   	inc    eax
  40a20b:	00 d0                	add    al,dl
  40a20d:	4f                   	dec    edi
  40a20e:	40                   	inc    eax
  40a20f:	00 d2                	add    dl,dl
  40a211:	50                   	push   eax
  40a212:	40                   	inc    eax
  40a213:	00 d2                	add    dl,dl
  40a215:	50                   	push   eax
  40a216:	40                   	inc    eax
  40a217:	00 e0                	add    al,ah
  40a219:	4c                   	dec    esp
  40a21a:	40                   	inc    eax
  40a21b:	00 d2                	add    dl,dl
  40a21d:	50                   	push   eax
  40a21e:	40                   	inc    eax
  40a21f:	00 d2                	add    dl,dl
  40a221:	50                   	push   eax
  40a222:	40                   	inc    eax
  40a223:	00 d2                	add    dl,dl
  40a225:	50                   	push   eax
  40a226:	40                   	inc    eax
  40a227:	00 d2                	add    dl,dl
  40a229:	50                   	push   eax
  40a22a:	40                   	inc    eax
  40a22b:	00 d2                	add    dl,dl
  40a22d:	50                   	push   eax
  40a22e:	40                   	inc    eax
  40a22f:	00 d2                	add    dl,dl
  40a231:	50                   	push   eax
  40a232:	40                   	inc    eax
  40a233:	00 20                	add    BYTE PTR [eax],ah
  40a235:	52                   	push   edx
  40a236:	40                   	inc    eax
  40a237:	00 d2                	add    dl,dl
  40a239:	50                   	push   eax
  40a23a:	40                   	inc    eax
  40a23b:	00 d2                	add    dl,dl
  40a23d:	50                   	push   eax
  40a23e:	40                   	inc    eax
  40a23f:	00 d2                	add    dl,dl
  40a241:	50                   	push   eax
  40a242:	40                   	inc    eax
  40a243:	00 d2                	add    dl,dl
  40a245:	50                   	push   eax
  40a246:	40                   	inc    eax
  40a247:	00 80 4e 40 00 d2    	add    BYTE PTR [eax-0x2dffbfb2],al
  40a24d:	50                   	push   eax
  40a24e:	40                   	inc    eax
  40a24f:	00 d2                	add    dl,dl
  40a251:	50                   	push   eax
  40a252:	40                   	inc    eax
  40a253:	00 d2                	add    dl,dl
  40a255:	50                   	push   eax
  40a256:	40                   	inc    eax
  40a257:	00 d2                	add    dl,dl
  40a259:	50                   	push   eax
  40a25a:	40                   	inc    eax
  40a25b:	00 d2                	add    dl,dl
  40a25d:	50                   	push   eax
  40a25e:	40                   	inc    eax
  40a25f:	00 d2                	add    dl,dl
  40a261:	50                   	push   eax
  40a262:	40                   	inc    eax
  40a263:	00 d2                	add    dl,dl
  40a265:	50                   	push   eax
  40a266:	40                   	inc    eax
  40a267:	00 d2                	add    dl,dl
  40a269:	50                   	push   eax
  40a26a:	40                   	inc    eax
  40a26b:	00 50 4e             	add    BYTE PTR [eax+0x4e],dl
  40a26e:	40                   	inc    eax
  40a26f:	00 d2                	add    dl,dl
  40a271:	50                   	push   eax
  40a272:	40                   	inc    eax
  40a273:	00 40 4d             	add    BYTE PTR [eax+0x4d],al
  40a276:	40                   	inc    eax
  40a277:	00 70 4f             	add    BYTE PTR [eax+0x4f],dh
  40a27a:	40                   	inc    eax
  40a27b:	00 40 4f             	add    BYTE PTR [eax+0x4f],al
  40a27e:	40                   	inc    eax
  40a27f:	00 10                	add    BYTE PTR [eax],dl
  40a281:	4f                   	dec    edi
  40a282:	40                   	inc    eax
  40a283:	00 e4                	add    ah,ah
  40a285:	4e                   	dec    esi
  40a286:	40                   	inc    eax
  40a287:	00 e0                	add    al,ah
  40a289:	4d                   	dec    ebp
  40a28a:	40                   	inc    eax
  40a28b:	00 70 4f             	add    BYTE PTR [eax+0x4f],dh
  40a28e:	40                   	inc    eax
  40a28f:	00 c0                	add    al,al
  40a291:	4d                   	dec    ebp
  40a292:	40                   	inc    eax
  40a293:	00 d2                	add    dl,dl
  40a295:	50                   	push   eax
  40a296:	40                   	inc    eax
  40a297:	00 c7                	add    bh,al
  40a299:	4c                   	dec    esp
  40a29a:	40                   	inc    eax
  40a29b:	00 d2                	add    dl,dl
  40a29d:	50                   	push   eax
  40a29e:	40                   	inc    eax
  40a29f:	00 80 4d 40 00 80    	add    BYTE PTR [eax-0x7fffbfb3],al
  40a2a5:	4e                   	dec    esi
  40a2a6:	40                   	inc    eax
  40a2a7:	00 04 4e             	add    BYTE PTR [esi+ecx*2],al
  40a2aa:	40                   	inc    eax
  40a2ab:	00 d2                	add    dl,dl
  40a2ad:	50                   	push   eax
  40a2ae:	40                   	inc    eax
  40a2af:	00 d2                	add    dl,dl
  40a2b1:	50                   	push   eax
  40a2b2:	40                   	inc    eax
  40a2b3:	00 07                	add    BYTE PTR [edi],al
  40a2b5:	4d                   	dec    ebp
  40a2b6:	40                   	inc    eax
  40a2b7:	00 70 4c             	add    BYTE PTR [eax+0x4c],dh
  40a2ba:	40                   	inc    eax
  40a2bb:	00 80 4e 40 00 d2    	add    BYTE PTR [eax-0x2dffbfb2],al
  40a2c1:	50                   	push   eax
  40a2c2:	40                   	inc    eax
  40a2c3:	00 d2                	add    dl,dl
  40a2c5:	50                   	push   eax
  40a2c6:	40                   	inc    eax
  40a2c7:	00 80 4e 40 00 d2    	add    BYTE PTR [eax-0x2dffbfb2],al
  40a2cd:	50                   	push   eax
  40a2ce:	40                   	inc    eax
  40a2cf:	00 70 4c             	add    BYTE PTR [eax+0x4c],dh
  40a2d2:	40                   	inc    eax
  40a2d3:	00 00                	add    BYTE PTR [eax],al
  40a2d5:	00 00                	add    BYTE PTR [eax],al
	...

0040a2d8 <.rdata>:
  40a2d8:	49                   	dec    ecx
  40a2d9:	6e                   	outs   dx,BYTE PTR ds:[esi]
  40a2da:	66 69 6e 69 74 79    	imul   bp,WORD PTR [esi+0x69],0x7974
  40a2e0:	00 4e 61             	add    BYTE PTR [esi+0x61],cl
  40a2e3:	4e                   	dec    esi
  40a2e4:	00 30                	add    BYTE PTR [eax],dh
  40a2e6:	00 00                	add    BYTE PTR [eax],al
  40a2e8:	58                   	pop    eax
  40a2e9:	5c                   	pop    esp
  40a2ea:	40                   	inc    eax
  40a2eb:	00 93 5b 40 00 93    	add    BYTE PTR [ebx-0x6cffbfa5],dl
  40a2f1:	5b                   	pop    ebx
  40a2f2:	40                   	inc    eax
  40a2f3:	00 c4                	add    ah,al
  40a2f5:	5c                   	pop    esp
  40a2f6:	40                   	inc    eax
  40a2f7:	00 90 5c 40 00 00    	add    BYTE PTR [eax+0x405c],dl
  40a2fd:	00 c0                	add    al,al
  40a2ff:	3f                   	aas    
  40a300:	61                   	popa   
  40a301:	43                   	inc    ebx
  40a302:	6f                   	outs   dx,DWORD PTR ds:[esi]
  40a303:	63 a7 87 d2 3f b3    	arpl   WORD PTR [edi-0x4cc02d79],sp
  40a309:	c8 60 8b 28          	enter  0x8b60,0x28
  40a30d:	8a c6                	mov    al,dh
  40a30f:	3f                   	aas    
  40a310:	fb                   	sti    
  40a311:	79 9f                	jns    40a2b2 <.rdata+0x17e>
  40a313:	50                   	push   eax
  40a314:	13 44 d3 3f          	adc    eax,DWORD PTR [ebx+edx*8+0x3f]
  40a318:	04 fa                	add    al,0xfa
  40a31a:	7d 9d                	jge    40a2b9 <.rdata+0x185>
  40a31c:	16                   	push   ss
  40a31d:	2d 94 3c 32 5a       	sub    eax,0x5a323c94
  40a322:	47                   	inc    edi
  40a323:	55                   	push   ebp
  40a324:	13 44 d3 3f          	adc    eax,DWORD PTR [ebx+edx*8+0x3f]
  40a328:	00 00                	add    BYTE PTR [eax],al
  40a32a:	80 3f 00             	cmp    BYTE PTR [edi],0x0
  40a32d:	00 20                	add    BYTE PTR [eax],ah
  40a32f:	41                   	inc    ecx
  40a330:	00 00                	add    BYTE PTR [eax],al
  40a332:	40                   	inc    eax
  40a333:	40                   	inc    eax
  40a334:	00 00                	add    BYTE PTR [eax],al
  40a336:	e0 40                	loopne 40a378 <___tens_D2A+0x18>
  40a338:	00 00                	add    BYTE PTR [eax],al
  40a33a:	a0 40 00 00 00       	mov    al,ds:0x40
  40a33f:	3f                   	aas    

0040a340 <_p05.15632>:
  40a340:	05 00 00 00 19       	add    eax,0x19000000
  40a345:	00 00                	add    BYTE PTR [eax],al
  40a347:	00 7d 00             	add    BYTE PTR [ebp+0x0],bh
	...

0040a360 <___tens_D2A>:
  40a360:	00 00                	add    BYTE PTR [eax],al
  40a362:	00 00                	add    BYTE PTR [eax],al
  40a364:	00 00                	add    BYTE PTR [eax],al
  40a366:	f0 3f                	lock aas 
  40a368:	00 00                	add    BYTE PTR [eax],al
  40a36a:	00 00                	add    BYTE PTR [eax],al
  40a36c:	00 00                	add    BYTE PTR [eax],al
  40a36e:	24 40                	and    al,0x40
  40a370:	00 00                	add    BYTE PTR [eax],al
  40a372:	00 00                	add    BYTE PTR [eax],al
  40a374:	00 00                	add    BYTE PTR [eax],al
  40a376:	59                   	pop    ecx
  40a377:	40                   	inc    eax
  40a378:	00 00                	add    BYTE PTR [eax],al
  40a37a:	00 00                	add    BYTE PTR [eax],al
  40a37c:	00 40 8f             	add    BYTE PTR [eax-0x71],al
  40a37f:	40                   	inc    eax
  40a380:	00 00                	add    BYTE PTR [eax],al
  40a382:	00 00                	add    BYTE PTR [eax],al
  40a384:	00 88 c3 40 00 00    	add    BYTE PTR [eax+0x40c3],cl
  40a38a:	00 00                	add    BYTE PTR [eax],al
  40a38c:	00 6a f8             	add    BYTE PTR [edx-0x8],ch
  40a38f:	40                   	inc    eax
  40a390:	00 00                	add    BYTE PTR [eax],al
  40a392:	00 00                	add    BYTE PTR [eax],al
  40a394:	80 84 2e 41 00 00 00 	add    BYTE PTR [esi+ebp*1+0x41],0x0
  40a39b:	00 
  40a39c:	d0 12                	rcl    BYTE PTR [edx],1
  40a39e:	63 41 00             	arpl   WORD PTR [ecx+0x0],ax
  40a3a1:	00 00                	add    BYTE PTR [eax],al
  40a3a3:	00 84 d7 97 41 00 00 	add    BYTE PTR [edi+edx*8+0x4197],al
  40a3aa:	00 00                	add    BYTE PTR [eax],al
  40a3ac:	65 cd cd             	gs int 0xcd
  40a3af:	41                   	inc    ecx
  40a3b0:	00 00                	add    BYTE PTR [eax],al
  40a3b2:	00 20                	add    BYTE PTR [eax],ah
  40a3b4:	5f                   	pop    edi
  40a3b5:	a0 02 42 00 00       	mov    al,ds:0x4202
  40a3ba:	00 e8                	add    al,ch
  40a3bc:	76 48                	jbe    40a406 <___tens_D2A+0xa6>
  40a3be:	37                   	aaa    
  40a3bf:	42                   	inc    edx
  40a3c0:	00 00                	add    BYTE PTR [eax],al
  40a3c2:	00 a2 94 1a 6d 42    	add    BYTE PTR [edx+0x426d1a94],ah
  40a3c8:	00 00                	add    BYTE PTR [eax],al
  40a3ca:	40                   	inc    eax
  40a3cb:	e5 9c                	in     eax,0x9c
  40a3cd:	30 a2 42 00 00 90    	xor    BYTE PTR [edx-0x6fffffbe],ah
  40a3d3:	1e                   	push   ds
  40a3d4:	c4 bc d6 42 00 00 34 	les    edi,FWORD PTR [esi+edx*8+0x34000042]
  40a3db:	26 f5                	es cmc 
  40a3dd:	6b 0c 43 00          	imul   ecx,DWORD PTR [ebx+eax*2],0x0
  40a3e1:	80 e0 37             	and    al,0x37
  40a3e4:	79 c3                	jns    40a3a9 <___tens_D2A+0x49>
  40a3e6:	41                   	inc    ecx
  40a3e7:	43                   	inc    ebx
  40a3e8:	00 a0 d8 85 57 34    	add    BYTE PTR [eax+0x345785d8],ah
  40a3ee:	76 43                	jbe    40a433 <___tinytens_D2A+0x13>
  40a3f0:	00 c8                	add    al,cl
  40a3f2:	4e                   	dec    esi
  40a3f3:	67 6d                	ins    DWORD PTR es:[di],dx
  40a3f5:	c1 ab 43 00 3d 91 60 	shr    DWORD PTR [ebx-0x6ec2ffbd],0x60
  40a3fc:	e4 58                	in     al,0x58
  40a3fe:	e1 43                	loope  40a443 <___tinytens_D2A+0x23>
  40a400:	40                   	inc    eax
  40a401:	8c b5 78 1d af 15    	mov    WORD PTR [ebp+0x15af1d78],?
  40a407:	44                   	inc    esp
  40a408:	50                   	push   eax
  40a409:	ef                   	out    dx,eax
  40a40a:	e2 d6                	loop   40a3e2 <___tens_D2A+0x82>
  40a40c:	e4 1a                	in     al,0x1a
  40a40e:	4b                   	dec    ebx
  40a40f:	44                   	inc    esp
  40a410:	92                   	xchg   edx,eax
  40a411:	d5 4d                	aad    0x4d
  40a413:	06                   	push   es
  40a414:	cf                   	iret   
  40a415:	f0 80 44 00 00 00    	lock add BYTE PTR [eax+eax*1+0x0],0x0
  40a41b:	00 00                	add    BYTE PTR [eax],al
  40a41d:	00 00                	add    BYTE PTR [eax],al
	...

0040a420 <___tinytens_D2A>:
  40a420:	bc 89 d8 97 b2       	mov    esp,0xb297d889
  40a425:	d2 9c 3c 33 a7 a8 d5 	rcr    BYTE PTR [esp+edi*1-0x2a5758cd],cl
  40a42c:	23 f6                	and    esi,esi
  40a42e:	49                   	dec    ecx
  40a42f:	39 3d a7 f4 44 fd    	cmp    DWORD PTR ds:0xfd44f4a7,edi
  40a435:	0f a5 32             	shld   DWORD PTR [edx],esi,cl
  40a438:	9d                   	popf   
  40a439:	97                   	xchg   edi,eax
  40a43a:	8c cf                	mov    edi,cs
  40a43c:	08 ba 5b 25 43 6f    	or     BYTE PTR [edx+0x6f43255b],bh
  40a442:	ac                   	lods   al,BYTE PTR ds:[esi]
  40a443:	64 28 06             	sub    BYTE PTR fs:[esi],al
  40a446:	c8 0a 00 00          	enter  0xa,0x0
	...

0040a460 <___bigtens_D2A>:
  40a460:	00 80 e0 37 79 c3    	add    BYTE PTR [eax-0x3c86c820],al
  40a466:	41                   	inc    ecx
  40a467:	43                   	inc    ebx
  40a468:	17                   	pop    ss
  40a469:	6e                   	outs   dx,BYTE PTR ds:[esi]
  40a46a:	05 b5 b5 b8 93       	add    eax,0x93b8b5b5
  40a46f:	46                   	inc    esi
  40a470:	f5                   	cmc    
  40a471:	f9                   	stc    
  40a472:	3f                   	aas    
  40a473:	e9 03 4f 38 4d       	jmp    4d78f37b <.debug_line+0x4d37b37b>
  40a478:	32 1d 30 f9 48 77    	xor    bl,BYTE PTR ds:0x7748f930
  40a47e:	82                   	(bad)  
  40a47f:	5a                   	pop    edx
  40a480:	3c bf                	cmp    al,0xbf
  40a482:	73 7f                	jae    40a503 <.rdata$zzz+0x13>
  40a484:	dd 4f 15             	fisttp QWORD PTR [edi+0x15]
  40a487:	75 00                	jne    40a489 <___bigtens_D2A+0x29>
	...

0040a4a0 <.rdata$zzz>:
  40a4a0:	47                   	inc    edi
  40a4a1:	43                   	inc    ebx
  40a4a2:	43                   	inc    ebx
  40a4a3:	3a 20                	cmp    ah,BYTE PTR [eax]
  40a4a5:	28 47 4e             	sub    BYTE PTR [edi+0x4e],al
  40a4a8:	55                   	push   ebp
  40a4a9:	29 20                	sub    DWORD PTR [eax],esp
  40a4ab:	34 2e                	xor    al,0x2e
  40a4ad:	38 2e                	cmp    BYTE PTR [esi],ch
  40a4af:	32 00                	xor    al,BYTE PTR [eax]
  40a4b1:	00 00                	add    BYTE PTR [eax],al
	...

0040a4b4 <.rdata$zzz>:
  40a4b4:	47                   	inc    edi
  40a4b5:	43                   	inc    ebx
  40a4b6:	43                   	inc    ebx
  40a4b7:	3a 20                	cmp    ah,BYTE PTR [eax]
  40a4b9:	28 47 4e             	sub    BYTE PTR [edi+0x4e],al
  40a4bc:	55                   	push   ebp
  40a4bd:	29 20                	sub    DWORD PTR [eax],esp
  40a4bf:	34 2e                	xor    al,0x2e
  40a4c1:	38 2e                	cmp    BYTE PTR [esi],ch
  40a4c3:	31 00                	xor    DWORD PTR [eax],eax
  40a4c5:	00 00                	add    BYTE PTR [eax],al
	...

0040a4c8 <.rdata$zzz>:
  40a4c8:	47                   	inc    edi
  40a4c9:	43                   	inc    ebx
  40a4ca:	43                   	inc    ebx
  40a4cb:	3a 20                	cmp    ah,BYTE PTR [eax]
  40a4cd:	28 47 4e             	sub    BYTE PTR [edi+0x4e],al
  40a4d0:	55                   	push   ebp
  40a4d1:	29 20                	sub    DWORD PTR [eax],esp
  40a4d3:	34 2e                	xor    al,0x2e
  40a4d5:	38 2e                	cmp    BYTE PTR [esi],ch
  40a4d7:	31 00                	xor    DWORD PTR [eax],eax
  40a4d9:	00 00                	add    BYTE PTR [eax],al
	...

0040a4dc <.rdata$zzz>:
  40a4dc:	47                   	inc    edi
  40a4dd:	43                   	inc    ebx
  40a4de:	43                   	inc    ebx
  40a4df:	3a 20                	cmp    ah,BYTE PTR [eax]
  40a4e1:	28 47 4e             	sub    BYTE PTR [edi+0x4e],al
  40a4e4:	55                   	push   ebp
  40a4e5:	29 20                	sub    DWORD PTR [eax],esp
  40a4e7:	34 2e                	xor    al,0x2e
  40a4e9:	38 2e                	cmp    BYTE PTR [esi],ch
  40a4eb:	32 00                	xor    al,BYTE PTR [eax]
  40a4ed:	00 00                	add    BYTE PTR [eax],al
	...

0040a4f0 <.rdata$zzz>:
  40a4f0:	47                   	inc    edi
  40a4f1:	43                   	inc    ebx
  40a4f2:	43                   	inc    ebx
  40a4f3:	3a 20                	cmp    ah,BYTE PTR [eax]
  40a4f5:	28 47 4e             	sub    BYTE PTR [edi+0x4e],al
  40a4f8:	55                   	push   ebp
  40a4f9:	29 20                	sub    DWORD PTR [eax],esp
  40a4fb:	34 2e                	xor    al,0x2e
  40a4fd:	38 2e                	cmp    BYTE PTR [esi],ch
  40a4ff:	32 00                	xor    al,BYTE PTR [eax]
  40a501:	00 00                	add    BYTE PTR [eax],al
	...

0040a504 <.rdata$zzz>:
  40a504:	47                   	inc    edi
  40a505:	43                   	inc    ebx
  40a506:	43                   	inc    ebx
  40a507:	3a 20                	cmp    ah,BYTE PTR [eax]
  40a509:	28 47 4e             	sub    BYTE PTR [edi+0x4e],al
  40a50c:	55                   	push   ebp
  40a50d:	29 20                	sub    DWORD PTR [eax],esp
  40a50f:	34 2e                	xor    al,0x2e
  40a511:	38 2e                	cmp    BYTE PTR [esi],ch
  40a513:	32 00                	xor    al,BYTE PTR [eax]
  40a515:	00 00                	add    BYTE PTR [eax],al
	...

0040a518 <.rdata$zzz>:
  40a518:	47                   	inc    edi
  40a519:	43                   	inc    ebx
  40a51a:	43                   	inc    ebx
  40a51b:	3a 20                	cmp    ah,BYTE PTR [eax]
  40a51d:	28 47 4e             	sub    BYTE PTR [edi+0x4e],al
  40a520:	55                   	push   ebp
  40a521:	29 20                	sub    DWORD PTR [eax],esp
  40a523:	34 2e                	xor    al,0x2e
  40a525:	38 2e                	cmp    BYTE PTR [esi],ch
  40a527:	32 00                	xor    al,BYTE PTR [eax]
  40a529:	00 00                	add    BYTE PTR [eax],al
	...

0040a52c <.rdata$zzz>:
  40a52c:	47                   	inc    edi
  40a52d:	43                   	inc    ebx
  40a52e:	43                   	inc    ebx
  40a52f:	3a 20                	cmp    ah,BYTE PTR [eax]
  40a531:	28 47 4e             	sub    BYTE PTR [edi+0x4e],al
  40a534:	55                   	push   ebp
  40a535:	29 20                	sub    DWORD PTR [eax],esp
  40a537:	34 2e                	xor    al,0x2e
  40a539:	38 2e                	cmp    BYTE PTR [esi],ch
  40a53b:	32 00                	xor    al,BYTE PTR [eax]
  40a53d:	00 00                	add    BYTE PTR [eax],al
	...

0040a540 <.rdata$zzz>:
  40a540:	47                   	inc    edi
  40a541:	43                   	inc    ebx
  40a542:	43                   	inc    ebx
  40a543:	3a 20                	cmp    ah,BYTE PTR [eax]
  40a545:	28 47 4e             	sub    BYTE PTR [edi+0x4e],al
  40a548:	55                   	push   ebp
  40a549:	29 20                	sub    DWORD PTR [eax],esp
  40a54b:	34 2e                	xor    al,0x2e
  40a54d:	38 2e                	cmp    BYTE PTR [esi],ch
  40a54f:	32 00                	xor    al,BYTE PTR [eax]
  40a551:	00 00                	add    BYTE PTR [eax],al
	...

0040a554 <.rdata$zzz>:
  40a554:	47                   	inc    edi
  40a555:	43                   	inc    ebx
  40a556:	43                   	inc    ebx
  40a557:	3a 20                	cmp    ah,BYTE PTR [eax]
  40a559:	28 47 4e             	sub    BYTE PTR [edi+0x4e],al
  40a55c:	55                   	push   ebp
  40a55d:	29 20                	sub    DWORD PTR [eax],esp
  40a55f:	34 2e                	xor    al,0x2e
  40a561:	38 2e                	cmp    BYTE PTR [esi],ch
  40a563:	32 00                	xor    al,BYTE PTR [eax]
  40a565:	00 00                	add    BYTE PTR [eax],al
	...

0040a568 <.rdata$zzz>:
  40a568:	47                   	inc    edi
  40a569:	43                   	inc    ebx
  40a56a:	43                   	inc    ebx
  40a56b:	3a 20                	cmp    ah,BYTE PTR [eax]
  40a56d:	28 47 4e             	sub    BYTE PTR [edi+0x4e],al
  40a570:	55                   	push   ebp
  40a571:	29 20                	sub    DWORD PTR [eax],esp
  40a573:	34 2e                	xor    al,0x2e
  40a575:	38 2e                	cmp    BYTE PTR [esi],ch
  40a577:	32 00                	xor    al,BYTE PTR [eax]
  40a579:	00 00                	add    BYTE PTR [eax],al
	...

0040a57c <.rdata$zzz>:
  40a57c:	47                   	inc    edi
  40a57d:	43                   	inc    ebx
  40a57e:	43                   	inc    ebx
  40a57f:	3a 20                	cmp    ah,BYTE PTR [eax]
  40a581:	28 47 4e             	sub    BYTE PTR [edi+0x4e],al
  40a584:	55                   	push   ebp
  40a585:	29 20                	sub    DWORD PTR [eax],esp
  40a587:	34 2e                	xor    al,0x2e
  40a589:	38 2e                	cmp    BYTE PTR [esi],ch
  40a58b:	32 00                	xor    al,BYTE PTR [eax]
  40a58d:	00 00                	add    BYTE PTR [eax],al
	...

0040a590 <.rdata$zzz>:
  40a590:	47                   	inc    edi
  40a591:	43                   	inc    ebx
  40a592:	43                   	inc    ebx
  40a593:	3a 20                	cmp    ah,BYTE PTR [eax]
  40a595:	28 47 4e             	sub    BYTE PTR [edi+0x4e],al
  40a598:	55                   	push   ebp
  40a599:	29 20                	sub    DWORD PTR [eax],esp
  40a59b:	34 2e                	xor    al,0x2e
  40a59d:	38 2e                	cmp    BYTE PTR [esi],ch
  40a59f:	32 00                	xor    al,BYTE PTR [eax]
  40a5a1:	00 00                	add    BYTE PTR [eax],al
	...

0040a5a4 <.rdata$zzz>:
  40a5a4:	47                   	inc    edi
  40a5a5:	43                   	inc    ebx
  40a5a6:	43                   	inc    ebx
  40a5a7:	3a 20                	cmp    ah,BYTE PTR [eax]
  40a5a9:	28 47 4e             	sub    BYTE PTR [edi+0x4e],al
  40a5ac:	55                   	push   ebp
  40a5ad:	29 20                	sub    DWORD PTR [eax],esp
  40a5af:	34 2e                	xor    al,0x2e
  40a5b1:	38 2e                	cmp    BYTE PTR [esi],ch
  40a5b3:	32 00                	xor    al,BYTE PTR [eax]
  40a5b5:	00 00                	add    BYTE PTR [eax],al
	...

0040a5b8 <.rdata$zzz>:
  40a5b8:	47                   	inc    edi
  40a5b9:	43                   	inc    ebx
  40a5ba:	43                   	inc    ebx
  40a5bb:	3a 20                	cmp    ah,BYTE PTR [eax]
  40a5bd:	28 47 4e             	sub    BYTE PTR [edi+0x4e],al
  40a5c0:	55                   	push   ebp
  40a5c1:	29 20                	sub    DWORD PTR [eax],esp
  40a5c3:	34 2e                	xor    al,0x2e
  40a5c5:	38 2e                	cmp    BYTE PTR [esi],ch
  40a5c7:	32 00                	xor    al,BYTE PTR [eax]
  40a5c9:	00 00                	add    BYTE PTR [eax],al
	...

0040a5cc <.rdata$zzz>:
  40a5cc:	47                   	inc    edi
  40a5cd:	43                   	inc    ebx
  40a5ce:	43                   	inc    ebx
  40a5cf:	3a 20                	cmp    ah,BYTE PTR [eax]
  40a5d1:	28 47 4e             	sub    BYTE PTR [edi+0x4e],al
  40a5d4:	55                   	push   ebp
  40a5d5:	29 20                	sub    DWORD PTR [eax],esp
  40a5d7:	34 2e                	xor    al,0x2e
  40a5d9:	38 2e                	cmp    BYTE PTR [esi],ch
  40a5db:	31 00                	xor    DWORD PTR [eax],eax
  40a5dd:	00 00                	add    BYTE PTR [eax],al
	...

0040a5e0 <.rdata$zzz>:
  40a5e0:	47                   	inc    edi
  40a5e1:	43                   	inc    ebx
  40a5e2:	43                   	inc    ebx
  40a5e3:	3a 20                	cmp    ah,BYTE PTR [eax]
  40a5e5:	28 47 4e             	sub    BYTE PTR [edi+0x4e],al
  40a5e8:	55                   	push   ebp
  40a5e9:	29 20                	sub    DWORD PTR [eax],esp
  40a5eb:	34 2e                	xor    al,0x2e
  40a5ed:	38 2e                	cmp    BYTE PTR [esi],ch
  40a5ef:	32 00                	xor    al,BYTE PTR [eax]
  40a5f1:	00 00                	add    BYTE PTR [eax],al
	...

0040a5f4 <.rdata$zzz>:
  40a5f4:	47                   	inc    edi
  40a5f5:	43                   	inc    ebx
  40a5f6:	43                   	inc    ebx
  40a5f7:	3a 20                	cmp    ah,BYTE PTR [eax]
  40a5f9:	28 47 4e             	sub    BYTE PTR [edi+0x4e],al
  40a5fc:	55                   	push   ebp
  40a5fd:	29 20                	sub    DWORD PTR [eax],esp
  40a5ff:	34 2e                	xor    al,0x2e
  40a601:	38 2e                	cmp    BYTE PTR [esi],ch
  40a603:	32 00                	xor    al,BYTE PTR [eax]
  40a605:	00 00                	add    BYTE PTR [eax],al
	...

0040a608 <.rdata$zzz>:
  40a608:	47                   	inc    edi
  40a609:	43                   	inc    ebx
  40a60a:	43                   	inc    ebx
  40a60b:	3a 20                	cmp    ah,BYTE PTR [eax]
  40a60d:	28 47 4e             	sub    BYTE PTR [edi+0x4e],al
  40a610:	55                   	push   ebp
  40a611:	29 20                	sub    DWORD PTR [eax],esp
  40a613:	34 2e                	xor    al,0x2e
  40a615:	38 2e                	cmp    BYTE PTR [esi],ch
  40a617:	32 00                	xor    al,BYTE PTR [eax]
  40a619:	00 00                	add    BYTE PTR [eax],al
	...

0040a61c <.rdata$zzz>:
  40a61c:	47                   	inc    edi
  40a61d:	43                   	inc    ebx
  40a61e:	43                   	inc    ebx
  40a61f:	3a 20                	cmp    ah,BYTE PTR [eax]
  40a621:	28 47 4e             	sub    BYTE PTR [edi+0x4e],al
  40a624:	55                   	push   ebp
  40a625:	29 20                	sub    DWORD PTR [eax],esp
  40a627:	34 2e                	xor    al,0x2e
  40a629:	38 2e                	cmp    BYTE PTR [esi],ch
  40a62b:	32 00                	xor    al,BYTE PTR [eax]
  40a62d:	00 00                	add    BYTE PTR [eax],al
	...

0040a630 <.rdata$zzz>:
  40a630:	47                   	inc    edi
  40a631:	43                   	inc    ebx
  40a632:	43                   	inc    ebx
  40a633:	3a 20                	cmp    ah,BYTE PTR [eax]
  40a635:	28 47 4e             	sub    BYTE PTR [edi+0x4e],al
  40a638:	55                   	push   ebp
  40a639:	29 20                	sub    DWORD PTR [eax],esp
  40a63b:	34 2e                	xor    al,0x2e
  40a63d:	38 2e                	cmp    BYTE PTR [esi],ch
  40a63f:	32 00                	xor    al,BYTE PTR [eax]
  40a641:	00 00                	add    BYTE PTR [eax],al
	...

0040a644 <.rdata$zzz>:
  40a644:	47                   	inc    edi
  40a645:	43                   	inc    ebx
  40a646:	43                   	inc    ebx
  40a647:	3a 20                	cmp    ah,BYTE PTR [eax]
  40a649:	28 47 4e             	sub    BYTE PTR [edi+0x4e],al
  40a64c:	55                   	push   ebp
  40a64d:	29 20                	sub    DWORD PTR [eax],esp
  40a64f:	34 2e                	xor    al,0x2e
  40a651:	38 2e                	cmp    BYTE PTR [esi],ch
  40a653:	32 00                	xor    al,BYTE PTR [eax]
  40a655:	00 00                	add    BYTE PTR [eax],al
	...

0040a658 <.rdata$zzz>:
  40a658:	47                   	inc    edi
  40a659:	43                   	inc    ebx
  40a65a:	43                   	inc    ebx
  40a65b:	3a 20                	cmp    ah,BYTE PTR [eax]
  40a65d:	28 47 4e             	sub    BYTE PTR [edi+0x4e],al
  40a660:	55                   	push   ebp
  40a661:	29 20                	sub    DWORD PTR [eax],esp
  40a663:	34 2e                	xor    al,0x2e
  40a665:	38 2e                	cmp    BYTE PTR [esi],ch
  40a667:	32 00                	xor    al,BYTE PTR [eax]
  40a669:	00 00                	add    BYTE PTR [eax],al
	...

0040a66c <.rdata$zzz>:
  40a66c:	47                   	inc    edi
  40a66d:	43                   	inc    ebx
  40a66e:	43                   	inc    ebx
  40a66f:	3a 20                	cmp    ah,BYTE PTR [eax]
  40a671:	28 47 4e             	sub    BYTE PTR [edi+0x4e],al
  40a674:	55                   	push   ebp
  40a675:	29 20                	sub    DWORD PTR [eax],esp
  40a677:	34 2e                	xor    al,0x2e
  40a679:	38 2e                	cmp    BYTE PTR [esi],ch
  40a67b:	32 00                	xor    al,BYTE PTR [eax]
  40a67d:	00 00                	add    BYTE PTR [eax],al
	...

0040a680 <.rdata$zzz>:
  40a680:	47                   	inc    edi
  40a681:	43                   	inc    ebx
  40a682:	43                   	inc    ebx
  40a683:	3a 20                	cmp    ah,BYTE PTR [eax]
  40a685:	28 47 4e             	sub    BYTE PTR [edi+0x4e],al
  40a688:	55                   	push   ebp
  40a689:	29 20                	sub    DWORD PTR [eax],esp
  40a68b:	34 2e                	xor    al,0x2e
  40a68d:	38 2e                	cmp    BYTE PTR [esi],ch
  40a68f:	32 00                	xor    al,BYTE PTR [eax]
  40a691:	00 00                	add    BYTE PTR [eax],al
	...

0040a694 <.rdata$zzz>:
  40a694:	47                   	inc    edi
  40a695:	43                   	inc    ebx
  40a696:	43                   	inc    ebx
  40a697:	3a 20                	cmp    ah,BYTE PTR [eax]
  40a699:	28 47 4e             	sub    BYTE PTR [edi+0x4e],al
  40a69c:	55                   	push   ebp
  40a69d:	29 20                	sub    DWORD PTR [eax],esp
  40a69f:	34 2e                	xor    al,0x2e
  40a6a1:	38 2e                	cmp    BYTE PTR [esi],ch
  40a6a3:	32 00                	xor    al,BYTE PTR [eax]
  40a6a5:	00 00                	add    BYTE PTR [eax],al
	...

0040a6a8 <.rdata$zzz>:
  40a6a8:	47                   	inc    edi
  40a6a9:	43                   	inc    ebx
  40a6aa:	43                   	inc    ebx
  40a6ab:	3a 20                	cmp    ah,BYTE PTR [eax]
  40a6ad:	28 47 4e             	sub    BYTE PTR [edi+0x4e],al
  40a6b0:	55                   	push   ebp
  40a6b1:	29 20                	sub    DWORD PTR [eax],esp
  40a6b3:	34 2e                	xor    al,0x2e
  40a6b5:	38 2e                	cmp    BYTE PTR [esi],ch
  40a6b7:	32 00                	xor    al,BYTE PTR [eax]
  40a6b9:	00 00                	add    BYTE PTR [eax],al
	...

0040a6bc <.rdata$zzz>:
  40a6bc:	47                   	inc    edi
  40a6bd:	43                   	inc    ebx
  40a6be:	43                   	inc    ebx
  40a6bf:	3a 20                	cmp    ah,BYTE PTR [eax]
  40a6c1:	28 47 4e             	sub    BYTE PTR [edi+0x4e],al
  40a6c4:	55                   	push   ebp
  40a6c5:	29 20                	sub    DWORD PTR [eax],esp
  40a6c7:	34 2e                	xor    al,0x2e
  40a6c9:	38 2e                	cmp    BYTE PTR [esi],ch
  40a6cb:	32 00                	xor    al,BYTE PTR [eax]
  40a6cd:	00 00                	add    BYTE PTR [eax],al
	...

0040a6d0 <.rdata$zzz>:
  40a6d0:	47                   	inc    edi
  40a6d1:	43                   	inc    ebx
  40a6d2:	43                   	inc    ebx
  40a6d3:	3a 20                	cmp    ah,BYTE PTR [eax]
  40a6d5:	28 47 4e             	sub    BYTE PTR [edi+0x4e],al
  40a6d8:	55                   	push   ebp
  40a6d9:	29 20                	sub    DWORD PTR [eax],esp
  40a6db:	34 2e                	xor    al,0x2e
  40a6dd:	38 2e                	cmp    BYTE PTR [esi],ch
  40a6df:	32 00                	xor    al,BYTE PTR [eax]
  40a6e1:	00 00                	add    BYTE PTR [eax],al
	...

0040a6e4 <.rdata$zzz>:
  40a6e4:	47                   	inc    edi
  40a6e5:	43                   	inc    ebx
  40a6e6:	43                   	inc    ebx
  40a6e7:	3a 20                	cmp    ah,BYTE PTR [eax]
  40a6e9:	28 47 4e             	sub    BYTE PTR [edi+0x4e],al
  40a6ec:	55                   	push   ebp
  40a6ed:	29 20                	sub    DWORD PTR [eax],esp
  40a6ef:	34 2e                	xor    al,0x2e
  40a6f1:	38 2e                	cmp    BYTE PTR [esi],ch
  40a6f3:	31 00                	xor    DWORD PTR [eax],eax
  40a6f5:	00 00                	add    BYTE PTR [eax],al
	...

0040a6f8 <.rdata$zzz>:
  40a6f8:	47                   	inc    edi
  40a6f9:	43                   	inc    ebx
  40a6fa:	43                   	inc    ebx
  40a6fb:	3a 20                	cmp    ah,BYTE PTR [eax]
  40a6fd:	28 47 4e             	sub    BYTE PTR [edi+0x4e],al
  40a700:	55                   	push   ebp
  40a701:	29 20                	sub    DWORD PTR [eax],esp
  40a703:	34 2e                	xor    al,0x2e
  40a705:	38 2e                	cmp    BYTE PTR [esi],ch
  40a707:	31 00                	xor    DWORD PTR [eax],eax
  40a709:	00 00                	add    BYTE PTR [eax],al
	...

0040a70c <.rdata$zzz>:
  40a70c:	47                   	inc    edi
  40a70d:	43                   	inc    ebx
  40a70e:	43                   	inc    ebx
  40a70f:	3a 20                	cmp    ah,BYTE PTR [eax]
  40a711:	28 47 4e             	sub    BYTE PTR [edi+0x4e],al
  40a714:	55                   	push   ebp
  40a715:	29 20                	sub    DWORD PTR [eax],esp
  40a717:	34 2e                	xor    al,0x2e
  40a719:	38 2e                	cmp    BYTE PTR [esi],ch
  40a71b:	31 00                	xor    DWORD PTR [eax],eax
  40a71d:	00 00                	add    BYTE PTR [eax],al
	...

Disassembly of section .eh_frame:

0040b000 <.eh_frame>:
  40b000:	14 00                	adc    al,0x0
  40b002:	00 00                	add    BYTE PTR [eax],al
  40b004:	00 00                	add    BYTE PTR [eax],al
  40b006:	00 00                	add    BYTE PTR [eax],al
  40b008:	01 7a 52             	add    DWORD PTR [edx+0x52],edi
  40b00b:	00 01                	add    BYTE PTR [ecx],al
  40b00d:	7c 08                	jl     40b017 <.eh_frame+0x17>
  40b00f:	01 1b                	add    DWORD PTR [ebx],ebx
  40b011:	0c 04                	or     al,0x4
  40b013:	04 88                	add    al,0x88
  40b015:	01 00                	add    DWORD PTR [eax],eax
  40b017:	00 20                	add    BYTE PTR [eax],ah
  40b019:	00 00                	add    BYTE PTR [eax],al
  40b01b:	00 1c 00             	add    BYTE PTR [eax+eax*1],bl
  40b01e:	00 00                	add    BYTE PTR [eax],al
  40b020:	e0 5f                	loopne 40b081 <.eh_frame+0x81>
  40b022:	ff                   	(bad)  
  40b023:	ff 73 01             	push   DWORD PTR [ebx+0x1]
  40b026:	00 00                	add    BYTE PTR [eax],al
  40b028:	00 41 0e             	add    BYTE PTR [ecx+0xe],al
  40b02b:	08 83 02 43 0e 20    	or     BYTE PTR [ebx+0x200e4302],al
  40b031:	02 51 0a             	add    dl,BYTE PTR [ecx+0xa]
  40b034:	0e                   	push   cs
  40b035:	08 41 c3             	or     BYTE PTR [ecx-0x3d],al
  40b038:	0e                   	push   cs
  40b039:	04 4a                	add    al,0x4a
  40b03b:	0b 18                	or     ebx,DWORD PTR [eax]
  40b03d:	00 00                	add    BYTE PTR [eax],al
  40b03f:	00 40 00             	add    BYTE PTR [eax+0x0],al
  40b042:	00 00                	add    BYTE PTR [eax],al
  40b044:	3c 61                	cmp    al,0x61
  40b046:	ff                   	(bad)  
  40b047:	ff                   	(bad)  
  40b048:	df 00                	fild   WORD PTR [eax]
  40b04a:	00 00                	add    BYTE PTR [eax],al
  40b04c:	00 41 0e             	add    BYTE PTR [ecx+0xe],al
  40b04f:	08 85 02 42 0d 05    	or     BYTE PTR [ebp+0x50d4202],al
  40b055:	44                   	inc    esp
  40b056:	83 03 14             	add    DWORD PTR [ebx],0x14
  40b059:	00 00                	add    BYTE PTR [eax],al
  40b05b:	00 5c 00 00          	add    BYTE PTR [eax+eax*1+0x0],bl
  40b05f:	00 00                	add    BYTE PTR [eax],al
  40b061:	62                   	(bad)  
  40b062:	ff                   	(bad)  
  40b063:	ff                   	(bad)  
  40b064:	3f                   	aas    
  40b065:	00 00                	add    BYTE PTR [eax],al
  40b067:	00 00                	add    BYTE PTR [eax],al
  40b069:	43                   	inc    ebx
  40b06a:	0e                   	push   cs
  40b06b:	40                   	inc    eax
  40b06c:	7b 0e                	jnp    40b07c <.eh_frame+0x7c>
  40b06e:	04 00                	add    al,0x0
  40b070:	10 00                	adc    BYTE PTR [eax],al
  40b072:	00 00                	add    BYTE PTR [eax],al
  40b074:	74 00                	je     40b076 <.eh_frame+0x76>
  40b076:	00 00                	add    BYTE PTR [eax],al
  40b078:	28 62 ff             	sub    BYTE PTR [edx-0x1],ah
  40b07b:	ff 15 00 00 00 00    	call   DWORD PTR ds:0x0
  40b081:	43                   	inc    ebx
  40b082:	0e                   	push   cs
  40b083:	20 10                	and    BYTE PTR [eax],dl
  40b085:	00 00                	add    BYTE PTR [eax],al
  40b087:	00 88 00 00 00 34    	add    BYTE PTR [eax+0x34000000],cl
  40b08d:	62                   	(bad)  
  40b08e:	ff                   	(bad)  
  40b08f:	ff 15 00 00 00 00    	call   DWORD PTR ds:0x0
  40b095:	43                   	inc    ebx
  40b096:	0e                   	push   cs
  40b097:	20 10                	and    BYTE PTR [eax],dl
  40b099:	00 00                	add    BYTE PTR [eax],al
  40b09b:	00 9c 00 00 00 40 62 	add    BYTE PTR [eax+eax*1+0x62400000],bl
  40b0a2:	ff                   	(bad)  
  40b0a3:	ff 07                	inc    DWORD PTR [edi]
  40b0a5:	00 00                	add    BYTE PTR [eax],al
  40b0a7:	00 00                	add    BYTE PTR [eax],al
  40b0a9:	00 00                	add    BYTE PTR [eax],al
  40b0ab:	00 10                	add    BYTE PTR [eax],dl
  40b0ad:	00 00                	add    BYTE PTR [eax],al
  40b0af:	00 b0 00 00 00 3c    	add    BYTE PTR [eax+0x3c000000],dh
  40b0b5:	62                   	(bad)  
  40b0b6:	ff                   	(bad)  
  40b0b7:	ff 07                	inc    DWORD PTR [edi]
  40b0b9:	00 00                	add    BYTE PTR [eax],al
  40b0bb:	00 00                	add    BYTE PTR [eax],al
  40b0bd:	00 00                	add    BYTE PTR [eax],al
	...

0040b0c0 <___EH_FRAME_BEGIN__>:
  40b0c0:	14 00                	adc    al,0x0
  40b0c2:	00 00                	add    BYTE PTR [eax],al
  40b0c4:	00 00                	add    BYTE PTR [eax],al
  40b0c6:	00 00                	add    BYTE PTR [eax],al
  40b0c8:	01 7a 52             	add    DWORD PTR [edx+0x52],edi
  40b0cb:	00 01                	add    BYTE PTR [ecx],al
  40b0cd:	7c 08                	jl     40b0d7 <___EH_FRAME_BEGIN__+0x17>
  40b0cf:	01 1b                	add    DWORD PTR [ebx],ebx
  40b0d1:	0c 04                	or     al,0x4
  40b0d3:	04 88                	add    al,0x88
  40b0d5:	01 00                	add    DWORD PTR [eax],eax
  40b0d7:	00 1c 00             	add    BYTE PTR [eax+eax*1],bl
  40b0da:	00 00                	add    BYTE PTR [eax],al
  40b0dc:	1c 00                	sbb    al,0x0
  40b0de:	00 00                	add    BYTE PTR [eax],al
  40b0e0:	20 62 ff             	and    BYTE PTR [edx-0x1],ah
  40b0e3:	ff 8d 00 00 00 00    	dec    DWORD PTR [ebp+0x0]
  40b0e9:	41                   	inc    ecx
  40b0ea:	0e                   	push   cs
  40b0eb:	08 85 02 42 0d 05    	or     BYTE PTR [ebp+0x50d4202],al
  40b0f1:	02 89 c5 0c 04 04    	add    cl,BYTE PTR [ecx+0x4040cc5]
  40b0f7:	00 1c 00             	add    BYTE PTR [eax+eax*1],bl
  40b0fa:	00 00                	add    BYTE PTR [eax],al
  40b0fc:	3c 00                	cmp    al,0x0
  40b0fe:	00 00                	add    BYTE PTR [eax],al
  40b100:	90                   	nop
  40b101:	62                   	(bad)  
  40b102:	ff                   	(bad)  
  40b103:	ff 42 00             	inc    DWORD PTR [edx+0x0]
  40b106:	00 00                	add    BYTE PTR [eax],al
  40b108:	00 41 0e             	add    BYTE PTR [ecx+0xe],al
  40b10b:	08 85 02 42 0d 05    	or     BYTE PTR [ebp+0x50d4202],al
  40b111:	7e c5                	jle    40b0d8 <___EH_FRAME_BEGIN__+0x18>
  40b113:	0c 04                	or     al,0x4
  40b115:	04 00                	add    al,0x0
	...

0040b118 <.eh_frame>:
  40b118:	14 00                	adc    al,0x0
  40b11a:	00 00                	add    BYTE PTR [eax],al
  40b11c:	00 00                	add    BYTE PTR [eax],al
  40b11e:	00 00                	add    BYTE PTR [eax],al
  40b120:	01 7a 52             	add    DWORD PTR [edx+0x52],edi
  40b123:	00 01                	add    BYTE PTR [ecx],al
  40b125:	7c 08                	jl     40b12f <.eh_frame+0x17>
  40b127:	01 1b                	add    DWORD PTR [ebx],ebx
  40b129:	0c 04                	or     al,0x4
  40b12b:	04 88                	add    al,0x88
  40b12d:	01 00                	add    DWORD PTR [eax],eax
  40b12f:	00 1c 00             	add    BYTE PTR [eax+eax*1],bl
  40b132:	00 00                	add    BYTE PTR [eax],al
  40b134:	1c 00                	sbb    al,0x0
  40b136:	00 00                	add    BYTE PTR [eax],al
  40b138:	a8 62                	test   al,0x62
  40b13a:	ff                   	(bad)  
  40b13b:	ff 8a 00 00 00 00    	dec    DWORD PTR [edx+0x0]
  40b141:	41                   	inc    ecx
  40b142:	0e                   	push   cs
  40b143:	08 85 02 42 0d 05    	or     BYTE PTR [ebp+0x50d4202],al
  40b149:	02 86 c5 0c 04 04    	add    al,BYTE PTR [esi+0x4040cc5]
	...

0040b150 <.eh_frame>:
  40b150:	14 00                	adc    al,0x0
  40b152:	00 00                	add    BYTE PTR [eax],al
  40b154:	00 00                	add    BYTE PTR [eax],al
  40b156:	00 00                	add    BYTE PTR [eax],al
  40b158:	01 7a 52             	add    DWORD PTR [edx+0x52],edi
  40b15b:	00 01                	add    BYTE PTR [ecx],al
  40b15d:	7c 08                	jl     40b167 <.eh_frame+0x17>
  40b15f:	01 1b                	add    DWORD PTR [ebx],ebx
  40b161:	0c 04                	or     al,0x4
  40b163:	04 88                	add    al,0x88
  40b165:	01 00                	add    DWORD PTR [eax],eax
  40b167:	00 3c 00             	add    BYTE PTR [eax+eax*1],bh
  40b16a:	00 00                	add    BYTE PTR [eax],al
  40b16c:	1c 00                	sbb    al,0x0
  40b16e:	00 00                	add    BYTE PTR [eax],al
  40b170:	00 63 ff             	add    BYTE PTR [ebx-0x1],ah
  40b173:	ff 0b                	dec    DWORD PTR [ebx]
  40b175:	03 00                	add    eax,DWORD PTR [eax]
  40b177:	00 00                	add    BYTE PTR [eax],al
  40b179:	41                   	inc    ecx
  40b17a:	0e                   	push   cs
  40b17b:	08 85 02 42 0d 05    	or     BYTE PTR [ebp+0x50d4202],al
  40b181:	46                   	inc    esi
  40b182:	87 03                	xchg   DWORD PTR [ebx],eax
  40b184:	86 04 83             	xchg   BYTE PTR [ebx+eax*4],al
  40b187:	05 03 59 01 0a       	add    eax,0xa015903
  40b18c:	c3                   	ret    
  40b18d:	41                   	inc    ecx
  40b18e:	c6 41 c7 41          	mov    BYTE PTR [ecx-0x39],0x41
  40b192:	c5 0c 04             	lds    ecx,FWORD PTR [esp+eax*1]
  40b195:	04 41                	add    al,0x41
  40b197:	0b 03                	or     eax,DWORD PTR [ebx]
  40b199:	73 01                	jae    40b19c <.eh_frame+0x4c>
  40b19b:	0a c3                	or     al,bl
  40b19d:	41                   	inc    ecx
  40b19e:	c6 41 c7 41          	mov    BYTE PTR [ecx-0x39],0x41
  40b1a2:	c5 0c 04             	lds    ecx,FWORD PTR [esp+eax*1]
  40b1a5:	04 41                	add    al,0x41
  40b1a7:	0b 14 00             	or     edx,DWORD PTR [eax+eax*1]

0040b1a8 <.eh_frame>:
  40b1a8:	14 00                	adc    al,0x0
  40b1aa:	00 00                	add    BYTE PTR [eax],al
  40b1ac:	00 00                	add    BYTE PTR [eax],al
  40b1ae:	00 00                	add    BYTE PTR [eax],al
  40b1b0:	01 7a 52             	add    DWORD PTR [edx+0x52],edi
  40b1b3:	00 01                	add    BYTE PTR [ecx],al
  40b1b5:	7c 08                	jl     40b1bf <.eh_frame+0x17>
  40b1b7:	01 1b                	add    DWORD PTR [ebx],ebx
  40b1b9:	0c 04                	or     al,0x4
  40b1bb:	04 88                	add    al,0x88
  40b1bd:	01 00                	add    DWORD PTR [eax],eax
  40b1bf:	00 1c 00             	add    BYTE PTR [eax+eax*1],bl
  40b1c2:	00 00                	add    BYTE PTR [eax],al
  40b1c4:	1c 00                	sbb    al,0x0
  40b1c6:	00 00                	add    BYTE PTR [eax],al
  40b1c8:	b8 65 ff ff dc       	mov    eax,0xdcffff65
  40b1cd:	00 00                	add    BYTE PTR [eax],al
  40b1cf:	00 00                	add    BYTE PTR [eax],al
  40b1d1:	5d                   	pop    ebp
  40b1d2:	0e                   	push   cs
  40b1d3:	08 83 02 02 a4 c3    	or     BYTE PTR [ebx-0x3c5bfdfe],al
  40b1d9:	0e                   	push   cs
  40b1da:	04 42                	add    al,0x42
  40b1dc:	0e                   	push   cs
  40b1dd:	08 83 02 14 00 00    	or     BYTE PTR [ebx+0x1402],al

0040b1e0 <.eh_frame>:
  40b1e0:	14 00                	adc    al,0x0
  40b1e2:	00 00                	add    BYTE PTR [eax],al
  40b1e4:	00 00                	add    BYTE PTR [eax],al
  40b1e6:	00 00                	add    BYTE PTR [eax],al
  40b1e8:	01 7a 52             	add    DWORD PTR [edx+0x52],edi
  40b1eb:	00 01                	add    BYTE PTR [ecx],al
  40b1ed:	7c 08                	jl     40b1f7 <.eh_frame+0x17>
  40b1ef:	01 1b                	add    DWORD PTR [ebx],ebx
  40b1f1:	0c 04                	or     al,0x4
  40b1f3:	04 88                	add    al,0x88
  40b1f5:	01 00                	add    DWORD PTR [eax],eax
  40b1f7:	00 10                	add    BYTE PTR [eax],dl
  40b1f9:	00 00                	add    BYTE PTR [eax],al
  40b1fb:	00 1c 00             	add    BYTE PTR [eax+eax*1],bl
  40b1fe:	00 00                	add    BYTE PTR [eax],al
  40b200:	60                   	pusha  
  40b201:	66 ff                	data16 (bad) 
  40b203:	ff 03                	inc    DWORD PTR [ebx]
  40b205:	00 00                	add    BYTE PTR [eax],al
  40b207:	00 00                	add    BYTE PTR [eax],al
  40b209:	00 00                	add    BYTE PTR [eax],al
	...

0040b20c <.eh_frame>:
  40b20c:	14 00                	adc    al,0x0
  40b20e:	00 00                	add    BYTE PTR [eax],al
  40b210:	00 00                	add    BYTE PTR [eax],al
  40b212:	00 00                	add    BYTE PTR [eax],al
  40b214:	01 7a 52             	add    DWORD PTR [edx+0x52],edi
  40b217:	00 01                	add    BYTE PTR [ecx],al
  40b219:	7c 08                	jl     40b223 <.eh_frame+0x17>
  40b21b:	01 1b                	add    DWORD PTR [ebx],ebx
  40b21d:	0c 04                	or     al,0x4
  40b21f:	04 88                	add    al,0x88
  40b221:	01 00                	add    DWORD PTR [eax],eax
  40b223:	00 14 00             	add    BYTE PTR [eax+eax*1],dl
  40b226:	00 00                	add    BYTE PTR [eax],al
  40b228:	1c 00                	sbb    al,0x0
  40b22a:	00 00                	add    BYTE PTR [eax],al
  40b22c:	44                   	inc    esp
  40b22d:	66 ff                	data16 (bad) 
  40b22f:	ff 2c 00             	jmp    FWORD PTR [eax+eax*1]
  40b232:	00 00                	add    BYTE PTR [eax],al
  40b234:	00 4e 0e             	add    BYTE PTR [esi+0xe],cl
  40b237:	10 5c 0e 04          	adc    BYTE PTR [esi+ecx*1+0x4],bl
  40b23b:	00 20                	add    BYTE PTR [eax],ah
  40b23d:	00 00                	add    BYTE PTR [eax],al
  40b23f:	00 34 00             	add    BYTE PTR [eax+eax*1],dh
  40b242:	00 00                	add    BYTE PTR [eax],al
  40b244:	5c                   	pop    esp
  40b245:	66 ff                	data16 (bad) 
  40b247:	ff 49 00             	dec    DWORD PTR [ecx+0x0]
  40b24a:	00 00                	add    BYTE PTR [eax],al
  40b24c:	00 41 0e             	add    BYTE PTR [ecx+0xe],al
  40b24f:	08 83 02 43 0e 20    	or     BYTE PTR [ebx+0x200e4302],al
  40b255:	6d                   	ins    DWORD PTR es:[edi],dx
  40b256:	0a 0e                	or     cl,BYTE PTR [esi]
  40b258:	08 41 c3             	or     BYTE PTR [ecx-0x3d],al
  40b25b:	0e                   	push   cs
  40b25c:	04 41                	add    al,0x41
  40b25e:	0b 00                	or     eax,DWORD PTR [eax]
  40b260:	10 00                	adc    BYTE PTR [eax],al
  40b262:	00 00                	add    BYTE PTR [eax],al
  40b264:	58                   	pop    eax
  40b265:	00 00                	add    BYTE PTR [eax],al
  40b267:	00 88 66 ff ff 1c    	add    BYTE PTR [eax+0x1cffff66],cl
  40b26d:	00 00                	add    BYTE PTR [eax],al
  40b26f:	00 00                	add    BYTE PTR [eax],al
  40b271:	00 00                	add    BYTE PTR [eax],al
	...

0040b274 <.eh_frame>:
  40b274:	14 00                	adc    al,0x0
  40b276:	00 00                	add    BYTE PTR [eax],al
  40b278:	00 00                	add    BYTE PTR [eax],al
  40b27a:	00 00                	add    BYTE PTR [eax],al
  40b27c:	01 7a 52             	add    DWORD PTR [edx+0x52],edi
  40b27f:	00 01                	add    BYTE PTR [ecx],al
  40b281:	7c 08                	jl     40b28b <.eh_frame+0x17>
  40b283:	01 1b                	add    DWORD PTR [ebx],ebx
  40b285:	0c 04                	or     al,0x4
  40b287:	04 88                	add    al,0x88
  40b289:	01 00                	add    DWORD PTR [eax],eax
  40b28b:	00 1c 00             	add    BYTE PTR [eax+eax*1],bl
  40b28e:	00 00                	add    BYTE PTR [eax],al
  40b290:	1c 00                	sbb    al,0x0
  40b292:	00 00                	add    BYTE PTR [eax],al
  40b294:	7c 66                	jl     40b2fc <.eh_frame>
  40b296:	ff                   	(bad)  
  40b297:	ff 43 00             	inc    DWORD PTR [ebx+0x0]
  40b29a:	00 00                	add    BYTE PTR [eax],al
  40b29c:	00 43 0e             	add    BYTE PTR [ebx+0xe],al
  40b29f:	20 55 0a             	and    BYTE PTR [ebp+0xa],dl
  40b2a2:	0e                   	push   cs
  40b2a3:	04 48                	add    al,0x48
  40b2a5:	0b 60 0e             	or     esp,DWORD PTR [eax+0xe]
  40b2a8:	04 00                	add    al,0x0
  40b2aa:	00 00                	add    BYTE PTR [eax],al
  40b2ac:	38 00                	cmp    BYTE PTR [eax],al
  40b2ae:	00 00                	add    BYTE PTR [eax],al
  40b2b0:	3c 00                	cmp    al,0x0
  40b2b2:	00 00                	add    BYTE PTR [eax],al
  40b2b4:	ac                   	lods   al,BYTE PTR ds:[esi]
  40b2b5:	66 ff                	data16 (bad) 
  40b2b7:	ff 86 00 00 00 00    	inc    DWORD PTR [esi+0x0]
  40b2bd:	41                   	inc    ecx
  40b2be:	0e                   	push   cs
  40b2bf:	08 86 02 41 0e 0c    	or     BYTE PTR [esi+0xc0e4102],al
  40b2c5:	83 03 43             	add    DWORD PTR [ebx],0x43
  40b2c8:	0e                   	push   cs
  40b2c9:	20 64 0a 0e          	and    BYTE PTR [edx+ecx*1+0xe],ah
  40b2cd:	0c 46                	or     al,0x46
  40b2cf:	c3                   	ret    
  40b2d0:	0e                   	push   cs
  40b2d1:	08 41 c6             	or     BYTE PTR [ecx-0x3a],al
  40b2d4:	0e                   	push   cs
  40b2d5:	04 43                	add    al,0x43
  40b2d7:	0b 6b 0a             	or     ebp,DWORD PTR [ebx+0xa]
  40b2da:	0e                   	push   cs
  40b2db:	0c 46                	or     al,0x46
  40b2dd:	c3                   	ret    
  40b2de:	0e                   	push   cs
  40b2df:	08 41 c6             	or     BYTE PTR [ecx-0x3a],al
  40b2e2:	0e                   	push   cs
  40b2e3:	04 43                	add    al,0x43
  40b2e5:	0b 00                	or     eax,DWORD PTR [eax]
  40b2e7:	00 10                	add    BYTE PTR [eax],dl
  40b2e9:	00 00                	add    BYTE PTR [eax],al
  40b2eb:	00 78 00             	add    BYTE PTR [eax+0x0],bh
  40b2ee:	00 00                	add    BYTE PTR [eax],al
  40b2f0:	00 67 ff             	add    BYTE PTR [edi-0x1],ah
  40b2f3:	ff 03                	inc    DWORD PTR [ebx]
  40b2f5:	00 00                	add    BYTE PTR [eax],al
  40b2f7:	00 00                	add    BYTE PTR [eax],al
  40b2f9:	00 00                	add    BYTE PTR [eax],al
	...

0040b2fc <.eh_frame>:
  40b2fc:	14 00                	adc    al,0x0
  40b2fe:	00 00                	add    BYTE PTR [eax],al
  40b300:	00 00                	add    BYTE PTR [eax],al
  40b302:	00 00                	add    BYTE PTR [eax],al
  40b304:	01 7a 52             	add    DWORD PTR [edx+0x52],edi
  40b307:	00 01                	add    BYTE PTR [ecx],al
  40b309:	7c 08                	jl     40b313 <.eh_frame+0x17>
  40b30b:	01 1b                	add    DWORD PTR [ebx],ebx
  40b30d:	0c 04                	or     al,0x4
  40b30f:	04 88                	add    al,0x88
  40b311:	01 00                	add    DWORD PTR [eax],eax
  40b313:	00 24 00             	add    BYTE PTR [eax+eax*1],ah
  40b316:	00 00                	add    BYTE PTR [eax],al
  40b318:	1c 00                	sbb    al,0x0
  40b31a:	00 00                	add    BYTE PTR [eax],al
  40b31c:	e4 66                	in     al,0x66
  40b31e:	ff                   	(bad)  
  40b31f:	ff 62 00             	jmp    DWORD PTR [edx+0x0]
  40b322:	00 00                	add    BYTE PTR [eax],al
  40b324:	00 41 0e             	add    BYTE PTR [ecx+0xe],al
  40b327:	08 85 02 42 0d 05    	or     BYTE PTR [ebp+0x50d4202],al
  40b32d:	45                   	inc    ebp
  40b32e:	86 03                	xchg   BYTE PTR [ebx],al
  40b330:	83 04 02 57          	add    DWORD PTR [edx+eax*1],0x57
  40b334:	c3                   	ret    
  40b335:	41                   	inc    ecx
  40b336:	c6 41 c5 0c          	mov    BYTE PTR [ecx-0x3b],0xc
  40b33a:	04 04                	add    al,0x4
  40b33c:	34 00                	xor    al,0x0
  40b33e:	00 00                	add    BYTE PTR [eax],al
  40b340:	44                   	inc    esp
  40b341:	00 00                	add    BYTE PTR [eax],al
  40b343:	00 2c 67             	add    BYTE PTR [edi+eiz*2],ch
  40b346:	ff                   	(bad)  
  40b347:	ff 81 00 00 00 00    	inc    DWORD PTR [ecx+0x0]
  40b34d:	41                   	inc    ecx
  40b34e:	0e                   	push   cs
  40b34f:	08 85 02 42 0d 05    	or     BYTE PTR [ebp+0x50d4202],al
  40b355:	41                   	inc    ecx
  40b356:	86 03                	xchg   BYTE PTR [ebx],al
  40b358:	46                   	inc    esi
  40b359:	83 04 4f 0a          	add    DWORD PTR [edi+ecx*2],0xa
  40b35d:	c3                   	ret    
  40b35e:	41                   	inc    ecx
  40b35f:	c6 41 c5 0c          	mov    BYTE PTR [ecx-0x3b],0xc
  40b363:	04 04                	add    al,0x4
  40b365:	45                   	inc    ebp
  40b366:	0b 02                	or     eax,DWORD PTR [edx]
  40b368:	57                   	push   edi
  40b369:	0a c3                	or     al,bl
  40b36b:	41                   	inc    ecx
  40b36c:	c6 41 c5 0c          	mov    BYTE PTR [ecx-0x3b],0xc
  40b370:	04 04                	add    al,0x4
  40b372:	41                   	inc    ecx
  40b373:	0b 2c 00             	or     ebp,DWORD PTR [eax+eax*1]
  40b376:	00 00                	add    BYTE PTR [eax],al
  40b378:	7c 00                	jl     40b37a <.eh_frame+0x7e>
  40b37a:	00 00                	add    BYTE PTR [eax],al
  40b37c:	84 67 ff             	test   BYTE PTR [edi-0x1],ah
  40b37f:	ff 91 00 00 00 00    	call   DWORD PTR [ecx+0x0]
  40b385:	41                   	inc    ecx
  40b386:	0e                   	push   cs
  40b387:	08 85 02 42 0d 05    	or     BYTE PTR [ebp+0x50d4202],al
  40b38d:	44                   	inc    esp
  40b38e:	83 03 52             	add    DWORD PTR [ebx],0x52
  40b391:	0a c5                	or     al,ch
  40b393:	c3                   	ret    
  40b394:	0c 04                	or     al,0x4
  40b396:	04 47                	add    al,0x47
  40b398:	0b 02                	or     eax,DWORD PTR [edx]
  40b39a:	45                   	inc    ebp
  40b39b:	0a c3                	or     al,bl
  40b39d:	c5 0c 04             	lds    ecx,FWORD PTR [esp+eax*1]
  40b3a0:	04 41                	add    al,0x41
  40b3a2:	0b 00                	or     eax,DWORD PTR [eax]
  40b3a4:	28 00                	sub    BYTE PTR [eax],al
  40b3a6:	00 00                	add    BYTE PTR [eax],al
  40b3a8:	ac                   	lods   al,BYTE PTR ds:[esi]
  40b3a9:	00 00                	add    BYTE PTR [eax],al
  40b3ab:	00 f4                	add    ah,dh
  40b3ad:	67 ff                	addr16 (bad) 
  40b3af:	ff 97 00 00 00 00    	call   DWORD PTR [edi+0x0]
  40b3b5:	41                   	inc    ecx
  40b3b6:	0e                   	push   cs
  40b3b7:	08 85 02 42 0d 05    	or     BYTE PTR [ebp+0x50d4202],al
  40b3bd:	61                   	popa   
  40b3be:	0a c5                	or     al,ch
  40b3c0:	0c 04                	or     al,0x4
  40b3c2:	04 41                	add    al,0x41
  40b3c4:	0b 02                	or     eax,DWORD PTR [edx]
  40b3c6:	47                   	inc    edi
  40b3c7:	0a c5                	or     al,ch
  40b3c9:	0c 04                	or     al,0x4
  40b3cb:	04 44                	add    al,0x44
  40b3cd:	0b 00                	or     eax,DWORD PTR [eax]
	...

0040b3d0 <.eh_frame>:
  40b3d0:	14 00                	adc    al,0x0
  40b3d2:	00 00                	add    BYTE PTR [eax],al
  40b3d4:	00 00                	add    BYTE PTR [eax],al
  40b3d6:	00 00                	add    BYTE PTR [eax],al
  40b3d8:	01 7a 52             	add    DWORD PTR [edx+0x52],edi
  40b3db:	00 01                	add    BYTE PTR [ecx],al
  40b3dd:	7c 08                	jl     40b3e7 <.eh_frame+0x17>
  40b3df:	01 1b                	add    DWORD PTR [ebx],ebx
  40b3e1:	0c 04                	or     al,0x4
  40b3e3:	04 88                	add    al,0x88
  40b3e5:	01 00                	add    DWORD PTR [eax],eax
  40b3e7:	00 1c 00             	add    BYTE PTR [eax+eax*1],bl
  40b3ea:	00 00                	add    BYTE PTR [eax],al
  40b3ec:	1c 00                	sbb    al,0x0
  40b3ee:	00 00                	add    BYTE PTR [eax],al
  40b3f0:	50                   	push   eax
  40b3f1:	68 ff ff 4a 00       	push   0x4affff
  40b3f6:	00 00                	add    BYTE PTR [eax],al
  40b3f8:	00 41 0e             	add    BYTE PTR [ecx+0xe],al
  40b3fb:	08 86 02 41 0e 0c    	or     BYTE PTR [esi+0xc0e4102],al
  40b401:	83 03 43             	add    DWORD PTR [ebx],0x43
  40b404:	0e                   	push   cs
  40b405:	20 00                	and    BYTE PTR [eax],al
  40b407:	00 3c 00             	add    BYTE PTR [eax+eax*1],bh
  40b40a:	00 00                	add    BYTE PTR [eax],al
  40b40c:	3c 00                	cmp    al,0x0
  40b40e:	00 00                	add    BYTE PTR [eax],al
  40b410:	80 68 ff ff          	sub    BYTE PTR [eax-0x1],0xff
  40b414:	e3 00                	jecxz  40b416 <.eh_frame+0x46>
  40b416:	00 00                	add    BYTE PTR [eax],al
  40b418:	00 41 0e             	add    BYTE PTR [ecx+0xe],al
  40b41b:	08 85 02 42 0d 05    	or     BYTE PTR [ebp+0x50d4202],al
  40b421:	41                   	inc    ecx
  40b422:	87 03                	xchg   DWORD PTR [ebx],eax
  40b424:	43                   	inc    ebx
  40b425:	86 04 43             	xchg   BYTE PTR [ebx+eax*2],al
  40b428:	83 05 02 43 0a c3 41 	add    DWORD PTR ds:0xc30a4302,0x41
  40b42f:	c6 41 c7 41          	mov    BYTE PTR [ecx-0x39],0x41
  40b433:	c5 0c 04             	lds    ecx,FWORD PTR [esp+eax*1]
  40b436:	04 41                	add    al,0x41
  40b438:	0b 02                	or     eax,DWORD PTR [edx]
  40b43a:	76 0a                	jbe    40b446 <.eh_frame+0x76>
  40b43c:	c3                   	ret    
  40b43d:	41                   	inc    ecx
  40b43e:	c6 41 c7 41          	mov    BYTE PTR [ecx-0x39],0x41
  40b442:	c5 0c 04             	lds    ecx,FWORD PTR [esp+eax*1]
  40b445:	04 41                	add    al,0x41
  40b447:	0b 34 00             	or     esi,DWORD PTR [eax+eax*1]
  40b44a:	00 00                	add    BYTE PTR [eax],al
  40b44c:	7c 00                	jl     40b44e <.eh_frame+0x7e>
  40b44e:	00 00                	add    BYTE PTR [eax],al
  40b450:	30 69 ff             	xor    BYTE PTR [ecx-0x1],ch
  40b453:	ff d1                	call   ecx
  40b455:	01 00                	add    DWORD PTR [eax],eax
  40b457:	00 00                	add    BYTE PTR [eax],al
  40b459:	6a 0e                	push   0xe
  40b45b:	08 87 02 41 0e 0c    	or     BYTE PTR [edi+0xc0e4102],al
  40b461:	86 03                	xchg   BYTE PTR [ebx],al
  40b463:	41                   	inc    ecx
  40b464:	0e                   	push   cs
  40b465:	10 83 04 43 0e 30    	adc    BYTE PTR [ebx+0x300e4304],al
  40b46b:	02 e3                	add    ah,bl
  40b46d:	0a 0e                	or     cl,BYTE PTR [esi]
  40b46f:	10 41 c3             	adc    BYTE PTR [ecx-0x3d],al
  40b472:	0e                   	push   cs
  40b473:	0c 41                	or     al,0x41
  40b475:	c6                   	(bad)  
  40b476:	0e                   	push   cs
  40b477:	08 41 c7             	or     BYTE PTR [ecx-0x39],al
  40b47a:	0e                   	push   cs
  40b47b:	04 41                	add    al,0x41
  40b47d:	0b 00                	or     eax,DWORD PTR [eax]
	...

0040b480 <.eh_frame>:
  40b480:	14 00                	adc    al,0x0
  40b482:	00 00                	add    BYTE PTR [eax],al
  40b484:	00 00                	add    BYTE PTR [eax],al
  40b486:	00 00                	add    BYTE PTR [eax],al
  40b488:	01 7a 52             	add    DWORD PTR [edx+0x52],edi
  40b48b:	00 01                	add    BYTE PTR [ecx],al
  40b48d:	7c 08                	jl     40b497 <.eh_frame+0x17>
  40b48f:	01 1b                	add    DWORD PTR [ebx],ebx
  40b491:	0c 04                	or     al,0x4
  40b493:	04 88                	add    al,0x88
  40b495:	01 00                	add    DWORD PTR [eax],eax
  40b497:	00 38                	add    BYTE PTR [eax],bh
  40b499:	00 00                	add    BYTE PTR [eax],al
  40b49b:	00 1c 00             	add    BYTE PTR [eax+eax*1],bl
  40b49e:	00 00                	add    BYTE PTR [eax],al
  40b4a0:	f0 6a ff             	lock push 0xffffffff
  40b4a3:	ff 90 00 00 00 00    	call   DWORD PTR [eax+0x0]
  40b4a9:	41                   	inc    ecx
  40b4aa:	0e                   	push   cs
  40b4ab:	08 87 02 43 0e 0c    	or     BYTE PTR [edi+0xc0e4302],al
  40b4b1:	86 03                	xchg   BYTE PTR [ebx],al
  40b4b3:	41                   	inc    ecx
  40b4b4:	0e                   	push   cs
  40b4b5:	10 83 04 02 4d 0a    	adc    BYTE PTR [ebx+0xa4d0204],al
  40b4bb:	c3                   	ret    
  40b4bc:	0e                   	push   cs
  40b4bd:	0c 41                	or     al,0x41
  40b4bf:	c6                   	(bad)  
  40b4c0:	0e                   	push   cs
  40b4c1:	08 41 c7             	or     BYTE PTR [ecx-0x39],al
  40b4c4:	0e                   	push   cs
  40b4c5:	04 41                	add    al,0x41
  40b4c7:	0b 78 c3             	or     edi,DWORD PTR [eax-0x3d]
  40b4ca:	0e                   	push   cs
  40b4cb:	0c 41                	or     al,0x41
  40b4cd:	c6                   	(bad)  
  40b4ce:	0e                   	push   cs
  40b4cf:	08 41 c7             	or     BYTE PTR [ecx-0x39],al
  40b4d2:	0e                   	push   cs
  40b4d3:	04 6c                	add    al,0x6c
  40b4d5:	00 00                	add    BYTE PTR [eax],al
  40b4d7:	00 58 00             	add    BYTE PTR [eax+0x0],bl
  40b4da:	00 00                	add    BYTE PTR [eax],al
  40b4dc:	44                   	inc    esp
  40b4dd:	6b ff ff             	imul   edi,edi,0xffffffff
  40b4e0:	0f 02 00             	lar    eax,WORD PTR [eax]
  40b4e3:	00 00                	add    BYTE PTR [eax],al
  40b4e5:	41                   	inc    ecx
  40b4e6:	0e                   	push   cs
  40b4e7:	08 85 02 41 0e 0c    	or     BYTE PTR [ebp+0xc0e4102],al
  40b4ed:	87 03                	xchg   DWORD PTR [ebx],eax
  40b4ef:	41                   	inc    ecx
  40b4f0:	0e                   	push   cs
  40b4f1:	10 86 04 41 0e 14    	adc    BYTE PTR [esi+0x140e4104],al
  40b4f7:	83 05 43 0e 18 02 dc 	add    DWORD PTR ds:0x2180e43,0xffffffdc
  40b4fe:	0a 0e                	or     cl,BYTE PTR [esi]
  40b500:	14 43                	adc    al,0x43
  40b502:	c3                   	ret    
  40b503:	0e                   	push   cs
  40b504:	10 41 c6             	adc    BYTE PTR [ecx-0x3a],al
  40b507:	0e                   	push   cs
  40b508:	0c 41                	or     al,0x41
  40b50a:	c7                   	(bad)  
  40b50b:	0e                   	push   cs
  40b50c:	08 41 c5             	or     BYTE PTR [ecx-0x3b],al
  40b50f:	0e                   	push   cs
  40b510:	04 47                	add    al,0x47
  40b512:	0b 02                	or     eax,DWORD PTR [edx]
  40b514:	86 0a                	xchg   BYTE PTR [edx],cl
  40b516:	0e                   	push   cs
  40b517:	14 41                	adc    al,0x41
  40b519:	c3                   	ret    
  40b51a:	0e                   	push   cs
  40b51b:	10 44 c6 0e          	adc    BYTE PTR [esi+eax*8+0xe],al
  40b51f:	0c 41                	or     al,0x41
  40b521:	c7                   	(bad)  
  40b522:	0e                   	push   cs
  40b523:	08 41 c5             	or     BYTE PTR [ecx-0x3b],al
  40b526:	0e                   	push   cs
  40b527:	04 43                	add    al,0x43
  40b529:	0b 02                	or     eax,DWORD PTR [edx]
  40b52b:	78 0a                	js     40b537 <.eh_frame+0xb7>
  40b52d:	0e                   	push   cs
  40b52e:	14 44                	adc    al,0x44
  40b530:	c3                   	ret    
  40b531:	0e                   	push   cs
  40b532:	10 41 c6             	adc    BYTE PTR [ecx-0x3a],al
  40b535:	0e                   	push   cs
  40b536:	0c 41                	or     al,0x41
  40b538:	c7                   	(bad)  
  40b539:	0e                   	push   cs
  40b53a:	08 41 c5             	or     BYTE PTR [ecx-0x3b],al
  40b53d:	0e                   	push   cs
  40b53e:	04 41                	add    al,0x41
  40b540:	0b 00                	or     eax,DWORD PTR [eax]
  40b542:	00 00                	add    BYTE PTR [eax],al
  40b544:	38 00                	cmp    BYTE PTR [eax],al
  40b546:	00 00                	add    BYTE PTR [eax],al
  40b548:	c8 00 00 00          	enter  0x0,0x0
  40b54c:	e4 6c                	in     al,0x6c
  40b54e:	ff                   	(bad)  
  40b54f:	ff 5e 00             	call   FWORD PTR [esi+0x0]
  40b552:	00 00                	add    BYTE PTR [eax],al
  40b554:	00 41 0e             	add    BYTE PTR [ecx+0xe],al
  40b557:	08 85 02 41 0e 0c    	or     BYTE PTR [ebp+0xc0e4102],al
  40b55d:	87 03                	xchg   DWORD PTR [ebx],eax
  40b55f:	41                   	inc    ecx
  40b560:	0e                   	push   cs
  40b561:	10 86 04 43 0e 14    	adc    BYTE PTR [esi+0x140e4304],al
  40b567:	83 05 43 0e 30 02 50 	add    DWORD PTR ds:0x2300e43,0x50
  40b56e:	0e                   	push   cs
  40b56f:	14 41                	adc    al,0x41
  40b571:	c3                   	ret    
  40b572:	0e                   	push   cs
  40b573:	10 41 c6             	adc    BYTE PTR [ecx-0x3a],al
  40b576:	0e                   	push   cs
  40b577:	0c 41                	or     al,0x41
  40b579:	c7                   	(bad)  
  40b57a:	0e                   	push   cs
  40b57b:	08 41 c5             	or     BYTE PTR [ecx-0x3b],al
  40b57e:	0e                   	push   cs
  40b57f:	04 54                	add    al,0x54
  40b581:	00 00                	add    BYTE PTR [eax],al
  40b583:	00 04 01             	add    BYTE PTR [ecx+eax*1],al
  40b586:	00 00                	add    BYTE PTR [eax],al
  40b588:	08 6d ff             	or     BYTE PTR [ebp-0x1],ch
  40b58b:	ff 30                	push   DWORD PTR [eax]
  40b58d:	02 00                	add    al,BYTE PTR [eax]
  40b58f:	00 00                	add    BYTE PTR [eax],al
  40b591:	41                   	inc    ecx
  40b592:	0e                   	push   cs
  40b593:	08 85 02 41 0e 0c    	or     BYTE PTR [ebp+0xc0e4102],al
  40b599:	87 03                	xchg   DWORD PTR [ebx],eax
  40b59b:	43                   	inc    ebx
  40b59c:	0e                   	push   cs
  40b59d:	10 86 04 41 0e 14    	adc    BYTE PTR [esi+0x140e4104],al
  40b5a3:	83 05 43 0e 40 02 aa 	add    DWORD PTR ds:0x2400e43,0xffffffaa
  40b5aa:	0a 0e                	or     cl,BYTE PTR [esi]
  40b5ac:	14 41                	adc    al,0x41
  40b5ae:	c3                   	ret    
  40b5af:	0e                   	push   cs
  40b5b0:	10 41 c6             	adc    BYTE PTR [ecx-0x3a],al
  40b5b3:	0e                   	push   cs
  40b5b4:	0c 41                	or     al,0x41
  40b5b6:	c7                   	(bad)  
  40b5b7:	0e                   	push   cs
  40b5b8:	08 41 c5             	or     BYTE PTR [ecx-0x3b],al
  40b5bb:	0e                   	push   cs
  40b5bc:	04 41                	add    al,0x41
  40b5be:	0b 02                	or     eax,DWORD PTR [edx]
  40b5c0:	43                   	inc    ebx
  40b5c1:	0a 0e                	or     cl,BYTE PTR [esi]
  40b5c3:	14 43                	adc    al,0x43
  40b5c5:	c3                   	ret    
  40b5c6:	0e                   	push   cs
  40b5c7:	10 41 c6             	adc    BYTE PTR [ecx-0x3a],al
  40b5ca:	0e                   	push   cs
  40b5cb:	0c 41                	or     al,0x41
  40b5cd:	c7                   	(bad)  
  40b5ce:	0e                   	push   cs
  40b5cf:	08 41 c5             	or     BYTE PTR [ecx-0x3b],al
  40b5d2:	0e                   	push   cs
  40b5d3:	04 41                	add    al,0x41
  40b5d5:	0b 00                	or     eax,DWORD PTR [eax]
  40b5d7:	00 30                	add    BYTE PTR [eax],dh
  40b5d9:	00 00                	add    BYTE PTR [eax],al
  40b5db:	00 5c 01 00          	add    BYTE PTR [ecx+eax*1+0x0],bl
  40b5df:	00 e0                	add    al,ah
  40b5e1:	6e                   	outs   dx,BYTE PTR ds:[esi]
  40b5e2:	ff                   	(bad)  
  40b5e3:	ff 4d 00             	dec    DWORD PTR [ebp+0x0]
  40b5e6:	00 00                	add    BYTE PTR [eax],al
  40b5e8:	00 41 0e             	add    BYTE PTR [ecx+0xe],al
  40b5eb:	08 87 02 43 0e 0c    	or     BYTE PTR [edi+0xc0e4302],al
  40b5f1:	86 03                	xchg   BYTE PTR [ebx],al
  40b5f3:	41                   	inc    ecx
  40b5f4:	0e                   	push   cs
  40b5f5:	10 83 04 43 0e 20    	adc    BYTE PTR [ebx+0x200e4304],al
  40b5fb:	7f 0e                	jg     40b60b <.eh_frame+0x18b>
  40b5fd:	10 43 c3             	adc    BYTE PTR [ebx-0x3d],al
  40b600:	0e                   	push   cs
  40b601:	0c 41                	or     al,0x41
  40b603:	c6                   	(bad)  
  40b604:	0e                   	push   cs
  40b605:	08 41 c7             	or     BYTE PTR [ecx-0x39],al
  40b608:	0e                   	push   cs
  40b609:	04 00                	add    al,0x0
  40b60b:	00 44 00 00          	add    BYTE PTR [eax+eax*1+0x0],al
  40b60f:	00 90 01 00 00 fc    	add    BYTE PTR [eax-0x3ffffff],dl
  40b615:	6e                   	outs   dx,BYTE PTR ds:[esi]
  40b616:	ff                   	(bad)  
  40b617:	ff 61 00             	jmp    DWORD PTR [ecx+0x0]
  40b61a:	00 00                	add    BYTE PTR [eax],al
  40b61c:	00 41 0e             	add    BYTE PTR [ecx+0xe],al
  40b61f:	08 87 02 41 0e 0c    	or     BYTE PTR [edi+0xc0e4102],al
  40b625:	86 03                	xchg   BYTE PTR [ebx],al
  40b627:	43                   	inc    ebx
  40b628:	0e                   	push   cs
  40b629:	10 83 04 45 0e 20    	adc    BYTE PTR [ebx+0x200e4504],al
  40b62f:	02 45 0a             	add    al,BYTE PTR [ebp+0xa]
  40b632:	0e                   	push   cs
  40b633:	10 43 c3             	adc    BYTE PTR [ebx-0x3d],al
  40b636:	0e                   	push   cs
  40b637:	0c 41                	or     al,0x41
  40b639:	c6                   	(bad)  
  40b63a:	0e                   	push   cs
  40b63b:	08 41 c7             	or     BYTE PTR [ecx-0x39],al
  40b63e:	0e                   	push   cs
  40b63f:	04 41                	add    al,0x41
  40b641:	0b 43 0e             	or     eax,DWORD PTR [ebx+0xe]
  40b644:	10 46 c3             	adc    BYTE PTR [esi-0x3d],al
  40b647:	0e                   	push   cs
  40b648:	0c 41                	or     al,0x41
  40b64a:	c6                   	(bad)  
  40b64b:	0e                   	push   cs
  40b64c:	08 41 c7             	or     BYTE PTR [ecx-0x39],al
  40b64f:	0e                   	push   cs
  40b650:	04 00                	add    al,0x0
  40b652:	00 00                	add    BYTE PTR [eax],al
  40b654:	10 00                	adc    BYTE PTR [eax],al
  40b656:	00 00                	add    BYTE PTR [eax],al
  40b658:	d8 01                	fadd   DWORD PTR [ecx]
  40b65a:	00 00                	add    BYTE PTR [eax],al
  40b65c:	24 6f                	and    al,0x6f
  40b65e:	ff                   	(bad)  
  40b65f:	ff 19                	call   FWORD PTR [ecx]
  40b661:	00 00                	add    BYTE PTR [eax],al
  40b663:	00 00                	add    BYTE PTR [eax],al
  40b665:	00 00                	add    BYTE PTR [eax],al
  40b667:	00 28                	add    BYTE PTR [eax],ch
  40b669:	00 00                	add    BYTE PTR [eax],al
  40b66b:	00 ec                	add    ah,ch
  40b66d:	01 00                	add    DWORD PTR [eax],eax
  40b66f:	00 30                	add    BYTE PTR [eax],dh
  40b671:	6f                   	outs   dx,DWORD PTR ds:[esi]
  40b672:	ff                   	(bad)  
  40b673:	ff                   	(bad)  
  40b674:	3a 00                	cmp    al,BYTE PTR [eax]
  40b676:	00 00                	add    BYTE PTR [eax],al
  40b678:	00 41 0e             	add    BYTE PTR [ecx+0xe],al
  40b67b:	08 86 02 43 0e 0c    	or     BYTE PTR [esi+0xc0e4302],al
  40b681:	83 03 45             	add    DWORD PTR [ebx],0x45
  40b684:	0e                   	push   cs
  40b685:	20 6e 0e             	and    BYTE PTR [esi+0xe],ch
  40b688:	0c 41                	or     al,0x41
  40b68a:	c3                   	ret    
  40b68b:	0e                   	push   cs
  40b68c:	08 41 c6             	or     BYTE PTR [ecx-0x3a],al
  40b68f:	0e                   	push   cs
  40b690:	04 00                	add    al,0x0
  40b692:	00 00                	add    BYTE PTR [eax],al
  40b694:	3c 00                	cmp    al,0x0
  40b696:	00 00                	add    BYTE PTR [eax],al
  40b698:	18 02                	sbb    BYTE PTR [edx],al
  40b69a:	00 00                	add    BYTE PTR [eax],al
  40b69c:	44                   	inc    esp
  40b69d:	6f                   	outs   dx,DWORD PTR ds:[esi]
  40b69e:	ff                   	(bad)  
  40b69f:	ff af 05 00 00 00    	jmp    FWORD PTR [edi+0x5]
  40b6a5:	41                   	inc    ecx
  40b6a6:	0e                   	push   cs
  40b6a7:	08 85 02 42 0d 05    	or     BYTE PTR [ebp+0x50d4202],al
  40b6ad:	43                   	inc    ebx
  40b6ae:	87 03                	xchg   DWORD PTR [ebx],eax
  40b6b0:	86 04 83             	xchg   BYTE PTR [ebx+eax*4],al
  40b6b3:	05 02 59 0a c3       	add    eax,0xc30a5902
  40b6b8:	41                   	inc    ecx
  40b6b9:	c6 41 c7 41          	mov    BYTE PTR [ecx-0x39],0x41
  40b6bd:	c5 0c 04             	lds    ecx,FWORD PTR [esp+eax*1]
  40b6c0:	04 41                	add    al,0x41
  40b6c2:	0b 03                	or     eax,DWORD PTR [ebx]
  40b6c4:	2d 03 0a c3 41       	sub    eax,0x41c30a03
  40b6c9:	c6 41 c7 41          	mov    BYTE PTR [ecx-0x39],0x41
  40b6cd:	c5 0c 04             	lds    ecx,FWORD PTR [esp+eax*1]
  40b6d0:	04 41                	add    al,0x41
  40b6d2:	0b 00                	or     eax,DWORD PTR [eax]
  40b6d4:	38 00                	cmp    BYTE PTR [eax],al
  40b6d6:	00 00                	add    BYTE PTR [eax],al
  40b6d8:	58                   	pop    eax
  40b6d9:	02 00                	add    al,BYTE PTR [eax]
  40b6db:	00 b4 74 ff ff b4 00 	add    BYTE PTR [esp+esi*2+0xb4ffff],dh
  40b6e2:	00 00                	add    BYTE PTR [eax],al
  40b6e4:	00 41 0e             	add    BYTE PTR [ecx+0xe],al
  40b6e7:	08 85 02 42 0d 05    	or     BYTE PTR [ebp+0x50d4202],al
  40b6ed:	46                   	inc    esi
  40b6ee:	87 03                	xchg   DWORD PTR [ebx],eax
  40b6f0:	86 04 83             	xchg   BYTE PTR [ebx+eax*4],al
  40b6f3:	05 78 0a c3 41       	add    eax,0x41c30a78
  40b6f8:	c6 41 c7 41          	mov    BYTE PTR [ecx-0x39],0x41
  40b6fc:	c5 0c 04             	lds    ecx,FWORD PTR [esp+eax*1]
  40b6ff:	04 41                	add    al,0x41
  40b701:	0b 02                	or     eax,DWORD PTR [edx]
  40b703:	6b c3 41             	imul   eax,ebx,0x41
  40b706:	c6 41 c7 41          	mov    BYTE PTR [ecx-0x39],0x41
  40b70a:	c5 0c 04             	lds    ecx,FWORD PTR [esp+eax*1]
  40b70d:	04 00                	add    al,0x0
  40b70f:	00 10                	add    BYTE PTR [eax],dl
  40b711:	00 00                	add    BYTE PTR [eax],al
  40b713:	00 94 02 00 00 38 75 	add    BYTE PTR [edx+eax*1+0x75380000],dl
  40b71a:	ff                   	(bad)  
  40b71b:	ff 15 00 00 00 00    	call   DWORD PTR ds:0x0
  40b721:	00 00                	add    BYTE PTR [eax],al
	...

0040b724 <.eh_frame>:
  40b724:	14 00                	adc    al,0x0
  40b726:	00 00                	add    BYTE PTR [eax],al
  40b728:	00 00                	add    BYTE PTR [eax],al
  40b72a:	00 00                	add    BYTE PTR [eax],al
  40b72c:	01 7a 52             	add    DWORD PTR [edx+0x52],edi
  40b72f:	00 01                	add    BYTE PTR [ecx],al
  40b731:	7c 08                	jl     40b73b <.eh_frame+0x17>
  40b733:	01 1b                	add    DWORD PTR [ebx],ebx
  40b735:	0c 04                	or     al,0x4
  40b737:	04 88                	add    al,0x88
  40b739:	01 00                	add    DWORD PTR [eax],eax
  40b73b:	00 3c 00             	add    BYTE PTR [eax+eax*1],bh
  40b73e:	00 00                	add    BYTE PTR [eax],al
  40b740:	1c 00                	sbb    al,0x0
  40b742:	00 00                	add    BYTE PTR [eax],al
  40b744:	2c 75                	sub    al,0x75
  40b746:	ff                   	(bad)  
  40b747:	ff                   	(bad)  
  40b748:	fd                   	std    
  40b749:	03 00                	add    eax,DWORD PTR [eax]
  40b74b:	00 00                	add    BYTE PTR [eax],al
  40b74d:	41                   	inc    ecx
  40b74e:	0e                   	push   cs
  40b74f:	08 85 02 42 0d 05    	or     BYTE PTR [ebp+0x50d4202],al
  40b755:	46                   	inc    esi
  40b756:	87 03                	xchg   DWORD PTR [ebx],eax
  40b758:	86 04 83             	xchg   BYTE PTR [ebx+eax*4],al
  40b75b:	05 02 ae 0a c3       	add    eax,0xc30aae02
  40b760:	41                   	inc    ecx
  40b761:	c6 41 c7 41          	mov    BYTE PTR [ecx-0x39],0x41
  40b765:	c5 0c 04             	lds    ecx,FWORD PTR [esp+eax*1]
  40b768:	04 46                	add    al,0x46
  40b76a:	0b 03                	or     eax,DWORD PTR [ebx]
  40b76c:	66 02 0a             	data16 add cl,BYTE PTR [edx]
  40b76f:	c3                   	ret    
  40b770:	43                   	inc    ebx
  40b771:	c6 41 c7 41          	mov    BYTE PTR [ecx-0x39],0x41
  40b775:	c5 0c 04             	lds    ecx,FWORD PTR [esp+eax*1]
  40b778:	04 45                	add    al,0x45
  40b77a:	0b 00                	or     eax,DWORD PTR [eax]

0040b77c <.eh_frame>:
  40b77c:	14 00                	adc    al,0x0
  40b77e:	00 00                	add    BYTE PTR [eax],al
  40b780:	00 00                	add    BYTE PTR [eax],al
  40b782:	00 00                	add    BYTE PTR [eax],al
  40b784:	01 7a 52             	add    DWORD PTR [edx+0x52],edi
  40b787:	00 01                	add    BYTE PTR [ecx],al
  40b789:	7c 08                	jl     40b793 <.eh_frame+0x17>
  40b78b:	01 1b                	add    DWORD PTR [ebx],ebx
  40b78d:	0c 04                	or     al,0x4
  40b78f:	04 88                	add    al,0x88
  40b791:	01 00                	add    DWORD PTR [eax],eax
  40b793:	00 40 00             	add    BYTE PTR [eax+0x0],al
  40b796:	00 00                	add    BYTE PTR [eax],al
  40b798:	1c 00                	sbb    al,0x0
  40b79a:	00 00                	add    BYTE PTR [eax],al
  40b79c:	d4 78                	aam    0x78
  40b79e:	ff                   	(bad)  
  40b79f:	ff 9c 00 00 00 00 41 	call   FWORD PTR [eax+eax*1+0x41000000]
  40b7a6:	0e                   	push   cs
  40b7a7:	08 85 02 42 0d 05    	or     BYTE PTR [ebp+0x50d4202],al
  40b7ad:	41                   	inc    ecx
  40b7ae:	86 03                	xchg   BYTE PTR [ebx],al
  40b7b0:	49                   	dec    ecx
  40b7b1:	83 04 78 0a          	add    DWORD PTR [eax+edi*2],0xa
  40b7b5:	c3                   	ret    
  40b7b6:	41                   	inc    ecx
  40b7b7:	c6 41 c5 0c          	mov    BYTE PTR [ecx-0x3b],0xc
  40b7bb:	04 04                	add    al,0x4
  40b7bd:	41                   	inc    ecx
  40b7be:	0b 02                	or     eax,DWORD PTR [edx]
  40b7c0:	43                   	inc    ebx
  40b7c1:	0a c3                	or     al,bl
  40b7c3:	41                   	inc    ecx
  40b7c4:	c6 41 c5 0c          	mov    BYTE PTR [ecx-0x3b],0xc
  40b7c8:	04 04                	add    al,0x4
  40b7ca:	43                   	inc    ebx
  40b7cb:	0b 49 c3             	or     ecx,DWORD PTR [ecx-0x3d]
  40b7ce:	41                   	inc    ecx
  40b7cf:	c6 41 c5 0c          	mov    BYTE PTR [ecx-0x3b],0xc
  40b7d3:	04 04                	add    al,0x4
  40b7d5:	00 00                	add    BYTE PTR [eax],al
  40b7d7:	00 28                	add    BYTE PTR [eax],ch
  40b7d9:	00 00                	add    BYTE PTR [eax],al
  40b7db:	00 60 00             	add    BYTE PTR [eax+0x0],ah
  40b7de:	00 00                	add    BYTE PTR [eax],al
  40b7e0:	30 79 ff             	xor    BYTE PTR [ecx-0x1],bh
  40b7e3:	ff cd                	dec    ebp
  40b7e5:	00 00                	add    BYTE PTR [eax],al
  40b7e7:	00 00                	add    BYTE PTR [eax],al
  40b7e9:	41                   	inc    ecx
  40b7ea:	0e                   	push   cs
  40b7eb:	08 85 02 42 0d 05    	or     BYTE PTR [ebp+0x50d4202],al
  40b7f1:	42                   	inc    edx
  40b7f2:	86 03                	xchg   BYTE PTR [ebx],al
  40b7f4:	83 04 02 6b          	add    DWORD PTR [edx+eax*1],0x6b
  40b7f8:	0a c3                	or     al,bl
  40b7fa:	41                   	inc    ecx
  40b7fb:	c6 41 c5 0c          	mov    BYTE PTR [ecx-0x3b],0xc
  40b7ff:	04 04                	add    al,0x4
  40b801:	41                   	inc    ecx
  40b802:	0b 00                	or     eax,DWORD PTR [eax]
  40b804:	40                   	inc    eax
  40b805:	00 00                	add    BYTE PTR [eax],al
  40b807:	00 8c 00 00 00 d4 79 	add    BYTE PTR [eax+eax*1+0x79d40000],cl
  40b80e:	ff                   	(bad)  
  40b80f:	ff 9b 01 00 00 00    	call   FWORD PTR [ebx+0x1]
  40b815:	41                   	inc    ecx
  40b816:	0e                   	push   cs
  40b817:	08 85 02 41 0e 0c    	or     BYTE PTR [ebp+0xc0e4102],al
  40b81d:	87 03                	xchg   DWORD PTR [ebx],eax
  40b81f:	41                   	inc    ecx
  40b820:	0e                   	push   cs
  40b821:	10 86 04 41 0e 14    	adc    BYTE PTR [esi+0x140e4104],al
  40b827:	83 05 46 0e c0 02 03 	add    DWORD PTR ds:0x2c00e46,0x3
  40b82e:	29 01                	sub    DWORD PTR [ecx],eax
  40b830:	0a 0e                	or     cl,BYTE PTR [esi]
  40b832:	14 41                	adc    al,0x41
  40b834:	c3                   	ret    
  40b835:	0e                   	push   cs
  40b836:	10 41 c6             	adc    BYTE PTR [ecx-0x3a],al
  40b839:	0e                   	push   cs
  40b83a:	0c 41                	or     al,0x41
  40b83c:	c7                   	(bad)  
  40b83d:	0e                   	push   cs
  40b83e:	08 41 c5             	or     BYTE PTR [ecx-0x3b],al
  40b841:	0e                   	push   cs
  40b842:	04 41                	add    al,0x41
  40b844:	0b 00                	or     eax,DWORD PTR [eax]
  40b846:	00 00                	add    BYTE PTR [eax],al
  40b848:	20 00                	and    BYTE PTR [eax],al
  40b84a:	00 00                	add    BYTE PTR [eax],al
  40b84c:	d0 00                	rol    BYTE PTR [eax],1
  40b84e:	00 00                	add    BYTE PTR [eax],al
  40b850:	30 7b ff             	xor    BYTE PTR [ebx-0x1],bh
  40b853:	ff 46 00             	inc    DWORD PTR [esi+0x0]
  40b856:	00 00                	add    BYTE PTR [eax],al
  40b858:	00 41 0e             	add    BYTE PTR [ecx+0xe],al
  40b85b:	08 83 02 43 0e 10    	or     BYTE PTR [ebx+0x100e4302],al
  40b861:	71 0a                	jno    40b86d <.eh_frame+0xf1>
  40b863:	0e                   	push   cs
  40b864:	08 41 c3             	or     BYTE PTR [ecx-0x3d],al
  40b867:	0e                   	push   cs
  40b868:	04 41                	add    al,0x41
  40b86a:	0b 00                	or     eax,DWORD PTR [eax]
  40b86c:	24 00                	and    al,0x0
  40b86e:	00 00                	add    BYTE PTR [eax],al
  40b870:	f4                   	hlt    
  40b871:	00 00                	add    BYTE PTR [eax],al
  40b873:	00 5c 7b ff          	add    BYTE PTR [ebx+edi*2-0x1],bl
  40b877:	ff 44 00 00          	inc    DWORD PTR [eax+eax*1+0x0]
  40b87b:	00 00                	add    BYTE PTR [eax],al
  40b87d:	41                   	inc    ecx
  40b87e:	0e                   	push   cs
  40b87f:	08 85 02 42 0d 05    	or     BYTE PTR [ebp+0x50d4202],al
  40b885:	44                   	inc    esp
  40b886:	83 03 6a             	add    DWORD PTR [ebx],0x6a
  40b889:	0a c5                	or     al,ch
  40b88b:	c3                   	ret    
  40b88c:	0c 04                	or     al,0x4
  40b88e:	04 41                	add    al,0x41
  40b890:	0b 00                	or     eax,DWORD PTR [eax]
  40b892:	00 00                	add    BYTE PTR [eax],al
  40b894:	28 00                	sub    BYTE PTR [eax],al
  40b896:	00 00                	add    BYTE PTR [eax],al
  40b898:	1c 01                	sbb    al,0x1
  40b89a:	00 00                	add    BYTE PTR [eax],al
  40b89c:	84 7b ff             	test   BYTE PTR [ebx-0x1],bh
  40b89f:	ff 5a 00             	call   FWORD PTR [edx+0x0]
  40b8a2:	00 00                	add    BYTE PTR [eax],al
  40b8a4:	00 41 0e             	add    BYTE PTR [ecx+0xe],al
  40b8a7:	08 85 02 42 0d 05    	or     BYTE PTR [ebp+0x50d4202],al
  40b8ad:	44                   	inc    esp
  40b8ae:	83 03 6b             	add    DWORD PTR [ebx],0x6b
  40b8b1:	0a c5                	or     al,ch
  40b8b3:	c3                   	ret    
  40b8b4:	0c 04                	or     al,0x4
  40b8b6:	04 41                	add    al,0x41
  40b8b8:	0b 66 c3             	or     esp,DWORD PTR [esi-0x3d]
  40b8bb:	c5 0c 04             	lds    ecx,FWORD PTR [esp+eax*1]
  40b8be:	04 00                	add    al,0x0
  40b8c0:	18 00                	sbb    BYTE PTR [eax],al
  40b8c2:	00 00                	add    BYTE PTR [eax],al
  40b8c4:	48                   	dec    eax
  40b8c5:	01 00                	add    DWORD PTR [eax],eax
  40b8c7:	00 b8 7b ff ff 27    	add    BYTE PTR [eax+0x27ffff7b],bh
  40b8cd:	00 00                	add    BYTE PTR [eax],al
  40b8cf:	00 00                	add    BYTE PTR [eax],al
  40b8d1:	43                   	inc    ebx
  40b8d2:	0e                   	push   cs
  40b8d3:	10 51 0a             	adc    BYTE PTR [ecx+0xa],dl
  40b8d6:	0e                   	push   cs
  40b8d7:	04 41                	add    al,0x41
  40b8d9:	0b 00                	or     eax,DWORD PTR [eax]
  40b8db:	00 34 00             	add    BYTE PTR [eax+eax*1],dh
  40b8de:	00 00                	add    BYTE PTR [eax],al
  40b8e0:	64 01 00             	add    DWORD PTR fs:[eax],eax
  40b8e3:	00 cc                	add    ah,cl
  40b8e5:	7b ff                	jnp    40b8e6 <.eh_frame+0x16a>
  40b8e7:	ff 63 00             	jmp    DWORD PTR [ebx+0x0]
  40b8ea:	00 00                	add    BYTE PTR [eax],al
  40b8ec:	00 41 0e             	add    BYTE PTR [ecx+0xe],al
  40b8ef:	08 86 02 41 0e 0c    	or     BYTE PTR [esi+0xc0e4102],al
  40b8f5:	83 03 43             	add    DWORD PTR [ebx],0x43
  40b8f8:	0e                   	push   cs
  40b8f9:	20 02                	and    BYTE PTR [edx],al
  40b8fb:	4a                   	dec    edx
  40b8fc:	0a 0e                	or     cl,BYTE PTR [esi]
  40b8fe:	0c 41                	or     al,0x41
  40b900:	c3                   	ret    
  40b901:	0e                   	push   cs
  40b902:	08 41 c6             	or     BYTE PTR [ecx-0x3a],al
  40b905:	0e                   	push   cs
  40b906:	04 41                	add    al,0x41
  40b908:	0b 4e 0e             	or     ecx,DWORD PTR [esi+0xe]
  40b90b:	0c 41                	or     al,0x41
  40b90d:	c3                   	ret    
  40b90e:	0e                   	push   cs
  40b90f:	08 41 c6             	or     BYTE PTR [ecx-0x3a],al
  40b912:	0e                   	push   cs
  40b913:	04 14                	add    al,0x14

0040b914 <.eh_frame>:
  40b914:	14 00                	adc    al,0x0
  40b916:	00 00                	add    BYTE PTR [eax],al
  40b918:	00 00                	add    BYTE PTR [eax],al
  40b91a:	00 00                	add    BYTE PTR [eax],al
  40b91c:	01 7a 52             	add    DWORD PTR [edx+0x52],edi
  40b91f:	00 01                	add    BYTE PTR [ecx],al
  40b921:	7c 08                	jl     40b92b <.eh_frame+0x17>
  40b923:	01 1b                	add    DWORD PTR [ebx],ebx
  40b925:	0c 04                	or     al,0x4
  40b927:	04 88                	add    al,0x88
  40b929:	01 00                	add    DWORD PTR [eax],eax
  40b92b:	00 14 00             	add    BYTE PTR [eax+eax*1],dl
  40b92e:	00 00                	add    BYTE PTR [eax],al
  40b930:	1c 00                	sbb    al,0x0
  40b932:	00 00                	add    BYTE PTR [eax],al
  40b934:	ec                   	in     al,dx
  40b935:	7b ff                	jnp    40b936 <.eh_frame+0x22>
  40b937:	ff 2b                	jmp    FWORD PTR [ebx]
  40b939:	00 00                	add    BYTE PTR [eax],al
  40b93b:	00 00                	add    BYTE PTR [eax],al
  40b93d:	43                   	inc    ebx
  40b93e:	0e                   	push   cs
  40b93f:	20 67 0e             	and    BYTE PTR [edi+0xe],ah
  40b942:	04 00                	add    al,0x0

0040b944 <.eh_frame>:
  40b944:	14 00                	adc    al,0x0
  40b946:	00 00                	add    BYTE PTR [eax],al
  40b948:	00 00                	add    BYTE PTR [eax],al
  40b94a:	00 00                	add    BYTE PTR [eax],al
  40b94c:	01 7a 52             	add    DWORD PTR [edx+0x52],edi
  40b94f:	00 01                	add    BYTE PTR [ecx],al
  40b951:	7c 08                	jl     40b95b <.eh_frame+0x17>
  40b953:	01 1b                	add    DWORD PTR [ebx],ebx
  40b955:	0c 04                	or     al,0x4
  40b957:	04 88                	add    al,0x88
  40b959:	01 00                	add    DWORD PTR [eax],eax
  40b95b:	00 34 00             	add    BYTE PTR [eax+eax*1],dh
  40b95e:	00 00                	add    BYTE PTR [eax],al
  40b960:	1c 00                	sbb    al,0x0
  40b962:	00 00                	add    BYTE PTR [eax],al
  40b964:	ec                   	in     al,dx
  40b965:	7b ff                	jnp    40b966 <.eh_frame+0x22>
  40b967:	ff 76 00             	push   DWORD PTR [esi+0x0]
  40b96a:	00 00                	add    BYTE PTR [eax],al
  40b96c:	00 41 0e             	add    BYTE PTR [ecx+0xe],al
  40b96f:	08 86 02 41 0e 0c    	or     BYTE PTR [esi+0xc0e4102],al
  40b975:	83 03 43             	add    DWORD PTR [ebx],0x43
  40b978:	0e                   	push   cs
  40b979:	30 02                	xor    BYTE PTR [edx],al
  40b97b:	40                   	inc    eax
  40b97c:	0a 0e                	or     cl,BYTE PTR [esi]
  40b97e:	0c 41                	or     al,0x41
  40b980:	c3                   	ret    
  40b981:	0e                   	push   cs
  40b982:	08 41 c6             	or     BYTE PTR [ecx-0x3a],al
  40b985:	0e                   	push   cs
  40b986:	04 41                	add    al,0x41
  40b988:	0b 6b 0e             	or     ebp,DWORD PTR [ebx+0xe]
  40b98b:	0c 41                	or     al,0x41
  40b98d:	c3                   	ret    
  40b98e:	0e                   	push   cs
  40b98f:	08 41 c6             	or     BYTE PTR [ecx-0x3a],al
  40b992:	0e                   	push   cs
  40b993:	04 14                	add    al,0x14

0040b994 <.eh_frame>:
  40b994:	14 00                	adc    al,0x0
  40b996:	00 00                	add    BYTE PTR [eax],al
  40b998:	00 00                	add    BYTE PTR [eax],al
  40b99a:	00 00                	add    BYTE PTR [eax],al
  40b99c:	01 7a 52             	add    DWORD PTR [edx+0x52],edi
  40b99f:	00 01                	add    BYTE PTR [ecx],al
  40b9a1:	7c 08                	jl     40b9ab <.eh_frame+0x17>
  40b9a3:	01 1b                	add    DWORD PTR [ebx],ebx
  40b9a5:	0c 04                	or     al,0x4
  40b9a7:	04 88                	add    al,0x88
  40b9a9:	01 00                	add    DWORD PTR [eax],eax
  40b9ab:	00 20                	add    BYTE PTR [eax],ah
  40b9ad:	00 00                	add    BYTE PTR [eax],al
  40b9af:	00 1c 00             	add    BYTE PTR [eax+eax*1],bl
  40b9b2:	00 00                	add    BYTE PTR [eax],al
  40b9b4:	1c 7c                	sbb    al,0x7c
  40b9b6:	ff                   	(bad)  
  40b9b7:	ff                   	(bad)  
  40b9b8:	fe 00                	inc    BYTE PTR [eax]
  40b9ba:	00 00                	add    BYTE PTR [eax],al
  40b9bc:	00 41 0e             	add    BYTE PTR [ecx+0xe],al
  40b9bf:	08 83 02 45 0e 50    	or     BYTE PTR [ebx+0x500e4502],al
  40b9c5:	02 a9 0a 0e 08 41    	add    ch,BYTE PTR [ecx+0x41080e0a]
  40b9cb:	c3                   	ret    
  40b9cc:	0e                   	push   cs
  40b9cd:	04 41                	add    al,0x41
  40b9cf:	0b 28                	or     ebp,DWORD PTR [eax]
  40b9d1:	00 00                	add    BYTE PTR [eax],al
  40b9d3:	00 40 00             	add    BYTE PTR [eax+0x0],al
  40b9d6:	00 00                	add    BYTE PTR [eax],al
  40b9d8:	f8                   	clc    
  40b9d9:	7c ff                	jl     40b9da <.eh_frame+0x46>
  40b9db:	ff 54 00 00          	call   DWORD PTR [eax+eax*1+0x0]
  40b9df:	00 00                	add    BYTE PTR [eax],al
  40b9e1:	41                   	inc    ecx
  40b9e2:	0e                   	push   cs
  40b9e3:	08 83 02 43 0e 20    	or     BYTE PTR [ebx+0x200e4302],al
  40b9e9:	69 0a 0e 08 41 c3    	imul   ecx,DWORD PTR [edx],0xc341080e
  40b9ef:	0e                   	push   cs
  40b9f0:	04 42                	add    al,0x42
  40b9f2:	0b 62 0e             	or     esp,DWORD PTR [edx+0xe]
  40b9f5:	08 41 c3             	or     BYTE PTR [ecx-0x3d],al
  40b9f8:	0e                   	push   cs
  40b9f9:	04 00                	add    al,0x0
  40b9fb:	00 3c 00             	add    BYTE PTR [eax+eax*1],bh
  40b9fe:	00 00                	add    BYTE PTR [eax],al
  40ba00:	6c                   	ins    BYTE PTR es:[edi],dx
  40ba01:	00 00                	add    BYTE PTR [eax],al
  40ba03:	00 2c 7d ff ff 08 01 	add    BYTE PTR [edi*2+0x108ffff],ch
  40ba0a:	00 00                	add    BYTE PTR [eax],al
  40ba0c:	00 41 0e             	add    BYTE PTR [ecx+0xe],al
  40ba0f:	08 85 02 41 0e 0c    	or     BYTE PTR [ebp+0xc0e4102],al
  40ba15:	87 03                	xchg   DWORD PTR [ebx],eax
  40ba17:	41                   	inc    ecx
  40ba18:	0e                   	push   cs
  40ba19:	10 86 04 43 0e 14    	adc    BYTE PTR [esi+0x140e4304],al
  40ba1f:	83 05 45 0e 60 02 c1 	add    DWORD PTR ds:0x2600e45,0xffffffc1
  40ba26:	0a 0e                	or     cl,BYTE PTR [esi]
  40ba28:	14 41                	adc    al,0x41
  40ba2a:	c3                   	ret    
  40ba2b:	0e                   	push   cs
  40ba2c:	10 41 c6             	adc    BYTE PTR [ecx-0x3a],al
  40ba2f:	0e                   	push   cs
  40ba30:	0c 41                	or     al,0x41
  40ba32:	c7                   	(bad)  
  40ba33:	0e                   	push   cs
  40ba34:	08 41 c5             	or     BYTE PTR [ecx-0x3b],al
  40ba37:	0e                   	push   cs
  40ba38:	04 41                	add    al,0x41
  40ba3a:	0b 00                	or     eax,DWORD PTR [eax]
  40ba3c:	2c 00                	sub    al,0x0
  40ba3e:	00 00                	add    BYTE PTR [eax],al
  40ba40:	ac                   	lods   al,BYTE PTR ds:[esi]
  40ba41:	00 00                	add    BYTE PTR [eax],al
  40ba43:	00 fc                	add    ah,bh
  40ba45:	7d ff                	jge    40ba46 <.eh_frame+0xb2>
  40ba47:	ff a7 00 00 00 00    	jmp    DWORD PTR [edi+0x0]
  40ba4d:	41                   	inc    ecx
  40ba4e:	0e                   	push   cs
  40ba4f:	08 87 02 46 0e 0c    	or     BYTE PTR [edi+0xc0e4602],al
  40ba55:	86 03                	xchg   BYTE PTR [ebx],al
  40ba57:	43                   	inc    ebx
  40ba58:	0e                   	push   cs
  40ba59:	10 83 04 02 81 0a    	adc    BYTE PTR [ebx+0xa810204],al
  40ba5f:	c3                   	ret    
  40ba60:	0e                   	push   cs
  40ba61:	0c 41                	or     al,0x41
  40ba63:	c6                   	(bad)  
  40ba64:	0e                   	push   cs
  40ba65:	08 41 c7             	or     BYTE PTR [ecx-0x39],al
  40ba68:	0e                   	push   cs
  40ba69:	04 43                	add    al,0x43
  40ba6b:	0b 3c 00             	or     edi,DWORD PTR [eax+eax*1]
  40ba6e:	00 00                	add    BYTE PTR [eax],al
  40ba70:	dc 00                	fadd   QWORD PTR [eax]
  40ba72:	00 00                	add    BYTE PTR [eax],al
  40ba74:	7c 7e                	jl     40baf4 <.eh_frame+0x160>
  40ba76:	ff                   	(bad)  
  40ba77:	ff 8f 00 00 00 00    	dec    DWORD PTR [edi+0x0]
  40ba7d:	41                   	inc    ecx
  40ba7e:	0e                   	push   cs
  40ba7f:	08 85 02 41 0e 0c    	or     BYTE PTR [ebp+0xc0e4102],al
  40ba85:	87 03                	xchg   DWORD PTR [ebx],eax
  40ba87:	41                   	inc    ecx
  40ba88:	0e                   	push   cs
  40ba89:	10 86 04 41 0e 14    	adc    BYTE PTR [esi+0x140e4104],al
  40ba8f:	83 05 43 0e 30 02 41 	add    DWORD PTR ds:0x2300e43,0x41
  40ba96:	0a 0e                	or     cl,BYTE PTR [esi]
  40ba98:	14 41                	adc    al,0x41
  40ba9a:	c3                   	ret    
  40ba9b:	0e                   	push   cs
  40ba9c:	10 41 c6             	adc    BYTE PTR [ecx-0x3a],al
  40ba9f:	0e                   	push   cs
  40baa0:	0c 41                	or     al,0x41
  40baa2:	c7                   	(bad)  
  40baa3:	0e                   	push   cs
  40baa4:	08 41 c5             	or     BYTE PTR [ecx-0x3b],al
  40baa7:	0e                   	push   cs
  40baa8:	04 44                	add    al,0x44
  40baaa:	0b 00                	or     eax,DWORD PTR [eax]
  40baac:	30 00                	xor    BYTE PTR [eax],al
  40baae:	00 00                	add    BYTE PTR [eax],al
  40bab0:	1c 01                	sbb    al,0x1
  40bab2:	00 00                	add    BYTE PTR [eax],al
  40bab4:	cc                   	int3   
  40bab5:	7e ff                	jle    40bab6 <.eh_frame+0x122>
  40bab7:	ff 28                	jmp    FWORD PTR [eax]
  40bab9:	02 00                	add    al,BYTE PTR [eax]
  40babb:	00 00                	add    BYTE PTR [eax],al
  40babd:	41                   	inc    ecx
  40babe:	0e                   	push   cs
  40babf:	08 85 02 42 0d 05    	or     BYTE PTR [ebp+0x50d4202],al
  40bac5:	41                   	inc    ecx
  40bac6:	87 03                	xchg   DWORD PTR [ebx],eax
  40bac8:	43                   	inc    ebx
  40bac9:	86 04 43             	xchg   BYTE PTR [ebx+eax*2],al
  40bacc:	83 05 03 93 01 0a c3 	add    DWORD PTR ds:0xa019303,0xffffffc3
  40bad3:	41                   	inc    ecx
  40bad4:	c6 41 c7 41          	mov    BYTE PTR [ecx-0x39],0x41
  40bad8:	c5 0c 04             	lds    ecx,FWORD PTR [esp+eax*1]
  40badb:	04 41                	add    al,0x41
  40badd:	0b 00                	or     eax,DWORD PTR [eax]
  40badf:	00 30                	add    BYTE PTR [eax],dh
  40bae1:	00 00                	add    BYTE PTR [eax],al
  40bae3:	00 50 01             	add    BYTE PTR [eax+0x1],dl
  40bae6:	00 00                	add    BYTE PTR [eax],al
  40bae8:	c8 80 ff ff          	enter  0xff80,0xff
  40baec:	d6                   	(bad)  
  40baed:	02 00                	add    al,BYTE PTR [eax]
  40baef:	00 00                	add    BYTE PTR [eax],al
  40baf1:	41                   	inc    ecx
  40baf2:	0e                   	push   cs
  40baf3:	08 85 02 42 0d 05    	or     BYTE PTR [ebp+0x50d4202],al
  40baf9:	41                   	inc    ecx
  40bafa:	87 03                	xchg   DWORD PTR [ebx],eax
  40bafc:	43                   	inc    ebx
  40bafd:	86 04 46             	xchg   BYTE PTR [esi+eax*2],al
  40bb00:	83 05 03 ad 01 0a c3 	add    DWORD PTR ds:0xa01ad03,0xffffffc3
  40bb07:	41                   	inc    ecx
  40bb08:	c6 41 c7 41          	mov    BYTE PTR [ecx-0x39],0x41
  40bb0c:	c5 0c 04             	lds    ecx,FWORD PTR [esp+eax*1]
  40bb0f:	04 43                	add    al,0x43
  40bb11:	0b 00                	or     eax,DWORD PTR [eax]
  40bb13:	00 30                	add    BYTE PTR [eax],dh
  40bb15:	00 00                	add    BYTE PTR [eax],al
  40bb17:	00 84 01 00 00 74 83 	add    BYTE PTR [ecx+eax*1-0x7c8c0000],al
  40bb1e:	ff                   	(bad)  
  40bb1f:	ff 2f                	jmp    FWORD PTR [edi]
  40bb21:	03 00                	add    eax,DWORD PTR [eax]
  40bb23:	00 00                	add    BYTE PTR [eax],al
  40bb25:	41                   	inc    ecx
  40bb26:	0e                   	push   cs
  40bb27:	08 85 02 42 0d 05    	or     BYTE PTR [ebp+0x50d4202],al
  40bb2d:	42                   	inc    edx
  40bb2e:	87 03                	xchg   DWORD PTR [ebx],eax
  40bb30:	86 04 43             	xchg   BYTE PTR [ebx+eax*2],al
  40bb33:	83 05 03 52 01 0a c3 	add    DWORD PTR ds:0xa015203,0xffffffc3
  40bb3a:	41                   	inc    ecx
  40bb3b:	c6 41 c7 41          	mov    BYTE PTR [ecx-0x39],0x41
  40bb3f:	c5 0c 04             	lds    ecx,FWORD PTR [esp+eax*1]
  40bb42:	04 43                	add    al,0x43
  40bb44:	0b 00                	or     eax,DWORD PTR [eax]
  40bb46:	00 00                	add    BYTE PTR [eax],al
  40bb48:	3c 00                	cmp    al,0x0
  40bb4a:	00 00                	add    BYTE PTR [eax],al
  40bb4c:	b8 01 00 00 70       	mov    eax,0x70000001
  40bb51:	86 ff                	xchg   bh,bh
  40bb53:	ff c7                	inc    edi
  40bb55:	00 00                	add    BYTE PTR [eax],al
  40bb57:	00 00                	add    BYTE PTR [eax],al
  40bb59:	41                   	inc    ecx
  40bb5a:	0e                   	push   cs
  40bb5b:	08 85 02 44 0e 0c    	or     BYTE PTR [ebp+0xc0e4402],al
  40bb61:	87 03                	xchg   DWORD PTR [ebx],eax
  40bb63:	43                   	inc    ebx
  40bb64:	0e                   	push   cs
  40bb65:	10 86 04 46 0e 14    	adc    BYTE PTR [esi+0x140e4604],al
  40bb6b:	83 05 48 0e 30 02 a3 	add    DWORD PTR ds:0x2300e48,0xffffffa3
  40bb72:	0a 0e                	or     cl,BYTE PTR [esi]
  40bb74:	14 41                	adc    al,0x41
  40bb76:	c3                   	ret    
  40bb77:	0e                   	push   cs
  40bb78:	10 41 c6             	adc    BYTE PTR [ecx-0x3a],al
  40bb7b:	0e                   	push   cs
  40bb7c:	0c 41                	or     al,0x41
  40bb7e:	c7                   	(bad)  
  40bb7f:	0e                   	push   cs
  40bb80:	08 41 c5             	or     BYTE PTR [ecx-0x3b],al
  40bb83:	0e                   	push   cs
  40bb84:	04 43                	add    al,0x43
  40bb86:	0b 00                	or     eax,DWORD PTR [eax]
  40bb88:	34 00                	xor    al,0x0
  40bb8a:	00 00                	add    BYTE PTR [eax],al
  40bb8c:	f8                   	clc    
  40bb8d:	01 00                	add    DWORD PTR [eax],eax
  40bb8f:	00 00                	add    BYTE PTR [eax],al
  40bb91:	87 ff                	xchg   edi,edi
  40bb93:	ff ab 00 00 00 00    	jmp    FWORD PTR [ebx+0x0]
  40bb99:	41                   	inc    ecx
  40bb9a:	0e                   	push   cs
  40bb9b:	08 86 02 41 0e 0c    	or     BYTE PTR [esi+0xc0e4102],al
  40bba1:	83 03 45             	add    DWORD PTR [ebx],0x45
  40bba4:	0e                   	push   cs
  40bba5:	50                   	push   eax
  40bba6:	02 76 0a             	add    dh,BYTE PTR [esi+0xa]
  40bba9:	0e                   	push   cs
  40bbaa:	0c 41                	or     al,0x41
  40bbac:	c3                   	ret    
  40bbad:	0e                   	push   cs
  40bbae:	08 41 c6             	or     BYTE PTR [ecx-0x3a],al
  40bbb1:	0e                   	push   cs
  40bbb2:	04 41                	add    al,0x41
  40bbb4:	0b 68 0e             	or     ebp,DWORD PTR [eax+0xe]
  40bbb7:	0c 41                	or     al,0x41
  40bbb9:	c3                   	ret    
  40bbba:	0e                   	push   cs
  40bbbb:	08 41 c6             	or     BYTE PTR [ecx-0x3a],al
  40bbbe:	0e                   	push   cs
  40bbbf:	04 44                	add    al,0x44
  40bbc1:	00 00                	add    BYTE PTR [eax],al
  40bbc3:	00 30                	add    BYTE PTR [eax],dh
  40bbc5:	02 00                	add    al,BYTE PTR [eax]
  40bbc7:	00 78 87             	add    BYTE PTR [eax-0x79],bh
  40bbca:	ff                   	(bad)  
  40bbcb:	ff                   	(bad)  
  40bbcc:	dd 00                	fld    QWORD PTR [eax]
  40bbce:	00 00                	add    BYTE PTR [eax],al
  40bbd0:	00 41 0e             	add    BYTE PTR [ecx+0xe],al
  40bbd3:	08 87 02 41 0e 0c    	or     BYTE PTR [edi+0xc0e4102],al
  40bbd9:	86 03                	xchg   BYTE PTR [ebx],al
  40bbdb:	41                   	inc    ecx
  40bbdc:	0e                   	push   cs
  40bbdd:	10 83 04 45 0e 50    	adc    BYTE PTR [ebx+0x500e4504],al
  40bbe3:	02 9d 0a 0e 10 41    	add    bl,BYTE PTR [ebp+0x41100e0a]
  40bbe9:	c3                   	ret    
  40bbea:	0e                   	push   cs
  40bbeb:	0c 41                	or     al,0x41
  40bbed:	c6                   	(bad)  
  40bbee:	0e                   	push   cs
  40bbef:	08 41 c7             	or     BYTE PTR [ecx-0x39],al
  40bbf2:	0e                   	push   cs
  40bbf3:	04 48                	add    al,0x48
  40bbf5:	0b 69 0e             	or     ebp,DWORD PTR [ecx+0xe]
  40bbf8:	10 41 c3             	adc    BYTE PTR [ecx-0x3d],al
  40bbfb:	0e                   	push   cs
  40bbfc:	0c 41                	or     al,0x41
  40bbfe:	c6                   	(bad)  
  40bbff:	0e                   	push   cs
  40bc00:	08 41 c7             	or     BYTE PTR [ecx-0x39],al
  40bc03:	0e                   	push   cs
  40bc04:	04 00                	add    al,0x0
  40bc06:	00 00                	add    BYTE PTR [eax],al
  40bc08:	44                   	inc    esp
  40bc09:	00 00                	add    BYTE PTR [eax],al
  40bc0b:	00 78 02             	add    BYTE PTR [eax+0x2],bh
  40bc0e:	00 00                	add    BYTE PTR [eax],al
  40bc10:	10 88 ff ff 75 01    	adc    BYTE PTR [eax+0x175ffff],cl
  40bc16:	00 00                	add    BYTE PTR [eax],al
  40bc18:	00 41 0e             	add    BYTE PTR [ecx+0xe],al
  40bc1b:	08 87 02 41 0e 0c    	or     BYTE PTR [edi+0xc0e4102],al
  40bc21:	86 03                	xchg   BYTE PTR [ebx],al
  40bc23:	41                   	inc    ecx
  40bc24:	0e                   	push   cs
  40bc25:	10 83 04 45 0e 50    	adc    BYTE PTR [ebx+0x500e4504],al
  40bc2b:	02 d4                	add    dl,ah
  40bc2d:	0a 0e                	or     cl,BYTE PTR [esi]
  40bc2f:	10 41 c3             	adc    BYTE PTR [ecx-0x3d],al
  40bc32:	0e                   	push   cs
  40bc33:	0c 41                	or     al,0x41
  40bc35:	c6                   	(bad)  
  40bc36:	0e                   	push   cs
  40bc37:	08 41 c7             	or     BYTE PTR [ecx-0x39],al
  40bc3a:	0e                   	push   cs
  40bc3b:	04 41                	add    al,0x41
  40bc3d:	0b 6f 0a             	or     ebp,DWORD PTR [edi+0xa]
  40bc40:	0e                   	push   cs
  40bc41:	10 41 c3             	adc    BYTE PTR [ecx-0x3d],al
  40bc44:	0e                   	push   cs
  40bc45:	0c 41                	or     al,0x41
  40bc47:	c6                   	(bad)  
  40bc48:	0e                   	push   cs
  40bc49:	08 41 c7             	or     BYTE PTR [ecx-0x39],al
  40bc4c:	0e                   	push   cs
  40bc4d:	04 41                	add    al,0x41
  40bc4f:	0b 30                	or     esi,DWORD PTR [eax]
  40bc51:	00 00                	add    BYTE PTR [eax],al
  40bc53:	00 c0                	add    al,al
  40bc55:	02 00                	add    al,BYTE PTR [eax]
  40bc57:	00 48 89             	add    BYTE PTR [eax-0x77],cl
  40bc5a:	ff                   	(bad)  
  40bc5b:	ff c5                	inc    ebp
  40bc5d:	05 00 00 00 41       	add    eax,0x41000000
  40bc62:	0e                   	push   cs
  40bc63:	08 85 02 42 0d 05    	or     BYTE PTR [ebp+0x50d4202],al
  40bc69:	41                   	inc    ecx
  40bc6a:	87 03                	xchg   DWORD PTR [ebx],eax
  40bc6c:	47                   	inc    edi
  40bc6d:	86 04 83             	xchg   BYTE PTR [ebx+eax*4],al
  40bc70:	05 03 7b 04 0a       	add    eax,0xa047b03
  40bc75:	c3                   	ret    
  40bc76:	41                   	inc    ecx
  40bc77:	c6 41 c7 41          	mov    BYTE PTR [ecx-0x39],0x41
  40bc7b:	c5 0c 04             	lds    ecx,FWORD PTR [esp+eax*1]
  40bc7e:	04 47                	add    al,0x47
  40bc80:	0b 00                	or     eax,DWORD PTR [eax]
  40bc82:	00 00                	add    BYTE PTR [eax],al
  40bc84:	3c 00                	cmp    al,0x0
  40bc86:	00 00                	add    BYTE PTR [eax],al
  40bc88:	f4                   	hlt    
  40bc89:	02 00                	add    al,BYTE PTR [eax]
  40bc8b:	00 e4                	add    ah,ah
  40bc8d:	8e ff                	mov    ?,edi
  40bc8f:	ff 68 09             	jmp    FWORD PTR [eax+0x9]
  40bc92:	00 00                	add    BYTE PTR [eax],al
  40bc94:	00 41 0e             	add    BYTE PTR [ecx+0xe],al
  40bc97:	08 85 02 41 0e 0c    	or     BYTE PTR [ebp+0xc0e4102],al
  40bc9d:	87 03                	xchg   DWORD PTR [ebx],eax
  40bc9f:	41                   	inc    ecx
  40bca0:	0e                   	push   cs
  40bca1:	10 86 04 41 0e 14    	adc    BYTE PTR [esi+0x140e4104],al
  40bca7:	83 05 43 0e 70 03 32 	add    DWORD PTR ds:0x3700e43,0x32
  40bcae:	01 0a                	add    DWORD PTR [edx],ecx
  40bcb0:	0e                   	push   cs
  40bcb1:	14 41                	adc    al,0x41
  40bcb3:	c3                   	ret    
  40bcb4:	0e                   	push   cs
  40bcb5:	10 41 c6             	adc    BYTE PTR [ecx-0x3a],al
  40bcb8:	0e                   	push   cs
  40bcb9:	0c 41                	or     al,0x41
  40bcbb:	c7                   	(bad)  
  40bcbc:	0e                   	push   cs
  40bcbd:	08 41 c5             	or     BYTE PTR [ecx-0x3b],al
  40bcc0:	0e                   	push   cs
  40bcc1:	04 43                	add    al,0x43
  40bcc3:	0b 14 00             	or     edx,DWORD PTR [eax+eax*1]

0040bcc4 <.eh_frame>:
  40bcc4:	14 00                	adc    al,0x0
  40bcc6:	00 00                	add    BYTE PTR [eax],al
  40bcc8:	00 00                	add    BYTE PTR [eax],al
  40bcca:	00 00                	add    BYTE PTR [eax],al
  40bccc:	01 7a 52             	add    DWORD PTR [edx+0x52],edi
  40bccf:	00 01                	add    BYTE PTR [ecx],al
  40bcd1:	7c 08                	jl     40bcdb <.eh_frame+0x17>
  40bcd3:	01 1b                	add    DWORD PTR [ebx],ebx
  40bcd5:	0c 04                	or     al,0x4
  40bcd7:	04 88                	add    al,0x88
  40bcd9:	01 00                	add    DWORD PTR [eax],eax
  40bcdb:	00 4c 00 00          	add    BYTE PTR [eax+eax*1+0x0],cl
  40bcdf:	00 1c 00             	add    BYTE PTR [eax+eax*1],bl
  40bce2:	00 00                	add    BYTE PTR [eax],al
  40bce4:	fc                   	cld    
  40bce5:	97                   	xchg   edi,eax
  40bce6:	ff                   	(bad)  
  40bce7:	ff                   	(bad)  
  40bce8:	7b 01                	jnp    40bceb <.eh_frame+0x27>
  40bcea:	00 00                	add    BYTE PTR [eax],al
  40bcec:	00 41 0e             	add    BYTE PTR [ecx+0xe],al
  40bcef:	08 85 02 42 0d 05    	or     BYTE PTR [ebp+0x50d4202],al
  40bcf5:	45                   	inc    ebp
  40bcf6:	86 03                	xchg   BYTE PTR [ebx],al
  40bcf8:	83 04 02 a1          	add    DWORD PTR [edx+eax*1],0xffffffa1
  40bcfc:	0a c3                	or     al,bl
  40bcfe:	41                   	inc    ecx
  40bcff:	c6 41 c5 0c          	mov    BYTE PTR [ecx-0x3b],0xc
  40bd03:	04 04                	add    al,0x4
  40bd05:	45                   	inc    ebp
  40bd06:	0b 59 0a             	or     ebx,DWORD PTR [ecx+0xa]
  40bd09:	c3                   	ret    
  40bd0a:	41                   	inc    ecx
  40bd0b:	c6 41 c5 0c          	mov    BYTE PTR [ecx-0x3b],0xc
  40bd0f:	04 04                	add    al,0x4
  40bd11:	45                   	inc    ebp
  40bd12:	0b 4e 0a             	or     ecx,DWORD PTR [esi+0xa]
  40bd15:	c3                   	ret    
  40bd16:	41                   	inc    ecx
  40bd17:	c6 41 c5 0c          	mov    BYTE PTR [ecx-0x3b],0xc
  40bd1b:	04 04                	add    al,0x4
  40bd1d:	41                   	inc    ecx
  40bd1e:	0b 02                	or     eax,DWORD PTR [edx]
  40bd20:	68 0a c3 41 c6       	push   0xc641c30a
  40bd25:	41                   	inc    ecx
  40bd26:	c5 0c 04             	lds    ecx,FWORD PTR [esp+eax*1]
  40bd29:	04 45                	add    al,0x45
  40bd2b:	0b 2c 00             	or     ebp,DWORD PTR [eax+eax*1]
  40bd2e:	00 00                	add    BYTE PTR [eax],al
  40bd30:	6c                   	ins    BYTE PTR es:[edi],dx
  40bd31:	00 00                	add    BYTE PTR [eax],al
  40bd33:	00 2c 99             	add    BYTE PTR [ecx+ebx*4],ch
  40bd36:	ff                   	(bad)  
  40bd37:	ff 97 00 00 00 00    	call   DWORD PTR [edi+0x0]
  40bd3d:	41                   	inc    ecx
  40bd3e:	0e                   	push   cs
  40bd3f:	08 86 02 43 0e 0c    	or     BYTE PTR [esi+0xc0e4302],al
  40bd45:	83 03 43             	add    DWORD PTR [ebx],0x43
  40bd48:	0e                   	push   cs
  40bd49:	40                   	inc    eax
  40bd4a:	02 7a 0a             	add    bh,BYTE PTR [edx+0xa]
  40bd4d:	0e                   	push   cs
  40bd4e:	0c 41                	or     al,0x41
  40bd50:	c3                   	ret    
  40bd51:	0e                   	push   cs
  40bd52:	08 41 c6             	or     BYTE PTR [ecx-0x3a],al
  40bd55:	0e                   	push   cs
  40bd56:	04 41                	add    al,0x41
  40bd58:	0b 00                	or     eax,DWORD PTR [eax]
  40bd5a:	00 00                	add    BYTE PTR [eax],al
  40bd5c:	68 00 00 00 9c       	push   0x9c000000
  40bd61:	00 00                	add    BYTE PTR [eax],al
  40bd63:	00 9c 99 ff ff 6d 01 	add    BYTE PTR [ecx+ebx*4+0x16dffff],bl
  40bd6a:	00 00                	add    BYTE PTR [eax],al
  40bd6c:	00 41 0e             	add    BYTE PTR [ecx+0xe],al
  40bd6f:	08 85 02 41 0e 0c    	or     BYTE PTR [ebp+0xc0e4102],al
  40bd75:	87 03                	xchg   DWORD PTR [ebx],eax
  40bd77:	41                   	inc    ecx
  40bd78:	0e                   	push   cs
  40bd79:	10 86 04 41 0e 14    	adc    BYTE PTR [esi+0x140e4104],al
  40bd7f:	83 05 43 0e 50 02 de 	add    DWORD PTR ds:0x2500e43,0xffffffde
  40bd86:	0a 0e                	or     cl,BYTE PTR [esi]
  40bd88:	14 43                	adc    al,0x43
  40bd8a:	c3                   	ret    
  40bd8b:	0e                   	push   cs
  40bd8c:	10 41 c6             	adc    BYTE PTR [ecx-0x3a],al
  40bd8f:	0e                   	push   cs
  40bd90:	0c 41                	or     al,0x41
  40bd92:	c7                   	(bad)  
  40bd93:	0e                   	push   cs
  40bd94:	08 41 c5             	or     BYTE PTR [ecx-0x3b],al
  40bd97:	0e                   	push   cs
  40bd98:	04 45                	add    al,0x45
  40bd9a:	0b 02                	or     eax,DWORD PTR [edx]
  40bd9c:	59                   	pop    ecx
  40bd9d:	0a 0e                	or     cl,BYTE PTR [esi]
  40bd9f:	14 43                	adc    al,0x43
  40bda1:	c3                   	ret    
  40bda2:	0e                   	push   cs
  40bda3:	10 41 c6             	adc    BYTE PTR [ecx-0x3a],al
  40bda6:	0e                   	push   cs
  40bda7:	0c 41                	or     al,0x41
  40bda9:	c7                   	(bad)  
  40bdaa:	0e                   	push   cs
  40bdab:	08 41 c5             	or     BYTE PTR [ecx-0x3b],al
  40bdae:	0e                   	push   cs
  40bdaf:	04 41                	add    al,0x41
  40bdb1:	0b 43 0a             	or     eax,DWORD PTR [ebx+0xa]
  40bdb4:	0e                   	push   cs
  40bdb5:	14 43                	adc    al,0x43
  40bdb7:	c3                   	ret    
  40bdb8:	0e                   	push   cs
  40bdb9:	10 41 c6             	adc    BYTE PTR [ecx-0x3a],al
  40bdbc:	0e                   	push   cs
  40bdbd:	0c 41                	or     al,0x41
  40bdbf:	c7                   	(bad)  
  40bdc0:	0e                   	push   cs
  40bdc1:	08 41 c5             	or     BYTE PTR [ecx-0x3b],al
  40bdc4:	0e                   	push   cs
  40bdc5:	04 47                	add    al,0x47
  40bdc7:	0b 20                	or     esp,DWORD PTR [eax]
  40bdc9:	00 00                	add    BYTE PTR [eax],al
  40bdcb:	00 08                	add    BYTE PTR [eax],cl
  40bdcd:	01 00                	add    DWORD PTR [eax],eax
  40bdcf:	00 a0 9a ff ff 87    	add    BYTE PTR [eax-0x78000066],ah
  40bdd5:	00 00                	add    BYTE PTR [eax],al
  40bdd7:	00 00                	add    BYTE PTR [eax],al
  40bdd9:	41                   	inc    ecx
  40bdda:	0e                   	push   cs
  40bddb:	08 83 02 45 0e 40    	or     BYTE PTR [ebx+0x400e4502],al
  40bde1:	02 76 0a             	add    dh,BYTE PTR [esi+0xa]
  40bde4:	0e                   	push   cs
  40bde5:	08 41 c3             	or     BYTE PTR [ecx-0x3d],al
  40bde8:	0e                   	push   cs
  40bde9:	04 43                	add    al,0x43
  40bdeb:	0b 14 00             	or     edx,DWORD PTR [eax+eax*1]

0040bdec <.eh_frame>:
  40bdec:	14 00                	adc    al,0x0
  40bdee:	00 00                	add    BYTE PTR [eax],al
  40bdf0:	00 00                	add    BYTE PTR [eax],al
  40bdf2:	00 00                	add    BYTE PTR [eax],al
  40bdf4:	01 7a 52             	add    DWORD PTR [edx+0x52],edi
  40bdf7:	00 01                	add    BYTE PTR [ecx],al
  40bdf9:	7c 08                	jl     40be03 <.eh_frame+0x17>
  40bdfb:	01 1b                	add    DWORD PTR [ebx],ebx
  40bdfd:	0c 04                	or     al,0x4
  40bdff:	04 88                	add    al,0x88
  40be01:	01 00                	add    DWORD PTR [eax],eax
  40be03:	00 24 00             	add    BYTE PTR [eax+eax*1],ah
  40be06:	00 00                	add    BYTE PTR [eax],al
  40be08:	1c 00                	sbb    al,0x0
  40be0a:	00 00                	add    BYTE PTR [eax],al
  40be0c:	f4                   	hlt    
  40be0d:	9a ff ff 89 00 00 00 	call   0x0:0x89ffff
  40be14:	00 41 0e             	add    BYTE PTR [ecx+0xe],al
  40be17:	08 85 02 42 0d 05    	or     BYTE PTR [ebp+0x50d4202],al
  40be1d:	62 0a                	bound  ecx,QWORD PTR [edx]
  40be1f:	c5 0c 04             	lds    ecx,FWORD PTR [esp+eax*1]
  40be22:	04 41                	add    al,0x41
  40be24:	0b 02                	or     eax,DWORD PTR [edx]
  40be26:	62                   	(bad)  
  40be27:	c5 0c 04             	lds    ecx,FWORD PTR [esp+eax*1]
  40be2a:	04 00                	add    al,0x0
  40be2c:	34 00                	xor    al,0x0
  40be2e:	00 00                	add    BYTE PTR [eax],al
  40be30:	44                   	inc    esp
  40be31:	00 00                	add    BYTE PTR [eax],al
  40be33:	00 5c 9b ff          	add    BYTE PTR [ebx+ebx*4-0x1],bl
  40be37:	ff 76 00             	push   DWORD PTR [esi+0x0]
  40be3a:	00 00                	add    BYTE PTR [eax],al
  40be3c:	00 41 0e             	add    BYTE PTR [ecx+0xe],al
  40be3f:	08 87 02 41 0e 0c    	or     BYTE PTR [edi+0xc0e4102],al
  40be45:	86 03                	xchg   BYTE PTR [ebx],al
  40be47:	41                   	inc    ecx
  40be48:	0e                   	push   cs
  40be49:	10 83 04 43 0e 30    	adc    BYTE PTR [ebx+0x300e4304],al
  40be4f:	02 64 0a 0e          	add    ah,BYTE PTR [edx+ecx*1+0xe]
  40be53:	10 41 c3             	adc    BYTE PTR [ecx-0x3d],al
  40be56:	0e                   	push   cs
  40be57:	0c 41                	or     al,0x41
  40be59:	c6                   	(bad)  
  40be5a:	0e                   	push   cs
  40be5b:	08 41 c7             	or     BYTE PTR [ecx-0x39],al
  40be5e:	0e                   	push   cs
  40be5f:	04 43                	add    al,0x43
  40be61:	0b 00                	or     eax,DWORD PTR [eax]
  40be63:	00 80 00 00 00 7c    	add    BYTE PTR [eax+0x7c000000],al
  40be69:	00 00                	add    BYTE PTR [eax],al
  40be6b:	00 a4 9b ff ff 4b 01 	add    BYTE PTR [ebx+ebx*4+0x14bffff],ah
  40be72:	00 00                	add    BYTE PTR [eax],al
  40be74:	00 41 0e             	add    BYTE PTR [ecx+0xe],al
  40be77:	08 85 02 41 0e 0c    	or     BYTE PTR [ebp+0xc0e4102],al
  40be7d:	87 03                	xchg   DWORD PTR [ebx],eax
  40be7f:	41                   	inc    ecx
  40be80:	0e                   	push   cs
  40be81:	10 86 04 43 0e 14    	adc    BYTE PTR [esi+0x140e4304],al
  40be87:	83 05 43 0e 50 02 a2 	add    DWORD PTR ds:0x2500e43,0xffffffa2
  40be8e:	0a 0e                	or     cl,BYTE PTR [esi]
  40be90:	14 41                	adc    al,0x41
  40be92:	c3                   	ret    
  40be93:	0e                   	push   cs
  40be94:	10 41 c6             	adc    BYTE PTR [ecx-0x3a],al
  40be97:	0e                   	push   cs
  40be98:	0c 41                	or     al,0x41
  40be9a:	c7                   	(bad)  
  40be9b:	0e                   	push   cs
  40be9c:	08 41 c5             	or     BYTE PTR [ecx-0x3b],al
  40be9f:	0e                   	push   cs
  40bea0:	04 41                	add    al,0x41
  40bea2:	0b 4b 0a             	or     ecx,DWORD PTR [ebx+0xa]
  40bea5:	0e                   	push   cs
  40bea6:	14 43                	adc    al,0x43
  40bea8:	c3                   	ret    
  40bea9:	0e                   	push   cs
  40beaa:	10 41 c6             	adc    BYTE PTR [ecx-0x3a],al
  40bead:	0e                   	push   cs
  40beae:	0c 41                	or     al,0x41
  40beb0:	c7                   	(bad)  
  40beb1:	0e                   	push   cs
  40beb2:	08 41 c5             	or     BYTE PTR [ecx-0x3b],al
  40beb5:	0e                   	push   cs
  40beb6:	04 41                	add    al,0x41
  40beb8:	0b 4d 0a             	or     ecx,DWORD PTR [ebp+0xa]
  40bebb:	0e                   	push   cs
  40bebc:	14 41                	adc    al,0x41
  40bebe:	c3                   	ret    
  40bebf:	0e                   	push   cs
  40bec0:	10 44 c6 0e          	adc    BYTE PTR [esi+eax*8+0xe],al
  40bec4:	0c 41                	or     al,0x41
  40bec6:	c7                   	(bad)  
  40bec7:	0e                   	push   cs
  40bec8:	08 41 c5             	or     BYTE PTR [ecx-0x3b],al
  40becb:	0e                   	push   cs
  40becc:	04 41                	add    al,0x41
  40bece:	0b 02                	or     eax,DWORD PTR [edx]
  40bed0:	53                   	push   ebx
  40bed1:	0a 0e                	or     cl,BYTE PTR [esi]
  40bed3:	14 43                	adc    al,0x43
  40bed5:	c3                   	ret    
  40bed6:	0e                   	push   cs
  40bed7:	10 41 c6             	adc    BYTE PTR [ecx-0x3a],al
  40beda:	0e                   	push   cs
  40bedb:	0c 41                	or     al,0x41
  40bedd:	c7                   	(bad)  
  40bede:	0e                   	push   cs
  40bedf:	08 41 c5             	or     BYTE PTR [ecx-0x3b],al
  40bee2:	0e                   	push   cs
  40bee3:	04 41                	add    al,0x41
  40bee5:	0b 00                	or     eax,DWORD PTR [eax]
	...

0040bee8 <.eh_frame>:
  40bee8:	14 00                	adc    al,0x0
  40beea:	00 00                	add    BYTE PTR [eax],al
  40beec:	00 00                	add    BYTE PTR [eax],al
  40beee:	00 00                	add    BYTE PTR [eax],al
  40bef0:	01 7a 52             	add    DWORD PTR [edx+0x52],edi
  40bef3:	00 01                	add    BYTE PTR [ecx],al
  40bef5:	7c 08                	jl     40beff <.eh_frame+0x17>
  40bef7:	01 1b                	add    DWORD PTR [ebx],ebx
  40bef9:	0c 04                	or     al,0x4
  40befb:	04 88                	add    al,0x88
  40befd:	01 00                	add    DWORD PTR [eax],eax
  40beff:	00 84 00 00 00 1c 00 	add    BYTE PTR [eax+eax*1+0x1c0000],al
  40bf06:	00 00                	add    BYTE PTR [eax],al
  40bf08:	58                   	pop    eax
  40bf09:	9c                   	pushf  
  40bf0a:	ff                   	(bad)  
  40bf0b:	ff 9f 14 00 00 00    	call   FWORD PTR [edi+0x14]
  40bf11:	41                   	inc    ecx
  40bf12:	0e                   	push   cs
  40bf13:	08 85 02 41 0e 0c    	or     BYTE PTR [ebp+0xc0e4102],al
  40bf19:	87 03                	xchg   DWORD PTR [ebx],eax
  40bf1b:	41                   	inc    ecx
  40bf1c:	0e                   	push   cs
  40bf1d:	10 86 04 41 0e 14    	adc    BYTE PTR [esi+0x140e4104],al
  40bf23:	83 05 43 0e 80 01 03 	add    DWORD PTR ds:0x1800e43,0x3
  40bf2a:	20 01                	and    BYTE PTR [ecx],al
  40bf2c:	0a 0e                	or     cl,BYTE PTR [esi]
  40bf2e:	14 41                	adc    al,0x41
  40bf30:	c3                   	ret    
  40bf31:	0e                   	push   cs
  40bf32:	10 41 c6             	adc    BYTE PTR [ecx-0x3a],al
  40bf35:	0e                   	push   cs
  40bf36:	0c 41                	or     al,0x41
  40bf38:	c7                   	(bad)  
  40bf39:	0e                   	push   cs
  40bf3a:	08 41 c5             	or     BYTE PTR [ecx-0x3b],al
  40bf3d:	0e                   	push   cs
  40bf3e:	04 45                	add    al,0x45
  40bf40:	0b 6f 0a             	or     ebp,DWORD PTR [edi+0xa]
  40bf43:	0e                   	push   cs
  40bf44:	14 41                	adc    al,0x41
  40bf46:	c3                   	ret    
  40bf47:	0e                   	push   cs
  40bf48:	10 41 c6             	adc    BYTE PTR [ecx-0x3a],al
  40bf4b:	0e                   	push   cs
  40bf4c:	0c 41                	or     al,0x41
  40bf4e:	c7                   	(bad)  
  40bf4f:	0e                   	push   cs
  40bf50:	08 41 c5             	or     BYTE PTR [ecx-0x3b],al
  40bf53:	0e                   	push   cs
  40bf54:	04 41                	add    al,0x41
  40bf56:	0b 6f 0a             	or     ebp,DWORD PTR [edi+0xa]
  40bf59:	0e                   	push   cs
  40bf5a:	14 41                	adc    al,0x41
  40bf5c:	c3                   	ret    
  40bf5d:	0e                   	push   cs
  40bf5e:	10 41 c6             	adc    BYTE PTR [ecx-0x3a],al
  40bf61:	0e                   	push   cs
  40bf62:	0c 41                	or     al,0x41
  40bf64:	c7                   	(bad)  
  40bf65:	0e                   	push   cs
  40bf66:	08 41 c5             	or     BYTE PTR [ecx-0x3b],al
  40bf69:	0e                   	push   cs
  40bf6a:	04 41                	add    al,0x41
  40bf6c:	0b 03                	or     eax,DWORD PTR [ebx]
  40bf6e:	35 07 0a 0e 14       	xor    eax,0x140e0a07
  40bf73:	41                   	inc    ecx
  40bf74:	c3                   	ret    
  40bf75:	0e                   	push   cs
  40bf76:	10 41 c6             	adc    BYTE PTR [ecx-0x3a],al
  40bf79:	0e                   	push   cs
  40bf7a:	0c 41                	or     al,0x41
  40bf7c:	c7                   	(bad)  
  40bf7d:	0e                   	push   cs
  40bf7e:	08 41 c5             	or     BYTE PTR [ecx-0x3b],al
  40bf81:	0e                   	push   cs
  40bf82:	04 41                	add    al,0x41
  40bf84:	0b 00                	or     eax,DWORD PTR [eax]
	...

0040bf88 <.eh_frame>:
  40bf88:	14 00                	adc    al,0x0
  40bf8a:	00 00                	add    BYTE PTR [eax],al
  40bf8c:	00 00                	add    BYTE PTR [eax],al
  40bf8e:	00 00                	add    BYTE PTR [eax],al
  40bf90:	01 7a 52             	add    DWORD PTR [edx+0x52],edi
  40bf93:	00 01                	add    BYTE PTR [ecx],al
  40bf95:	7c 08                	jl     40bf9f <.eh_frame+0x17>
  40bf97:	01 1b                	add    DWORD PTR [ebx],ebx
  40bf99:	0c 04                	or     al,0x4
  40bf9b:	04 88                	add    al,0x88
  40bf9d:	01 00                	add    DWORD PTR [eax],eax
  40bf9f:	00 54 00 00          	add    BYTE PTR [eax+eax*1+0x0],dl
  40bfa3:	00 1c 00             	add    BYTE PTR [eax+eax*1],bl
  40bfa6:	00 00                	add    BYTE PTR [eax],al
  40bfa8:	58                   	pop    eax
  40bfa9:	b0 ff                	mov    al,0xff
  40bfab:	ff 12                	call   DWORD PTR [edx]
  40bfad:	01 00                	add    DWORD PTR [eax],eax
  40bfaf:	00 00                	add    BYTE PTR [eax],al
  40bfb1:	41                   	inc    ecx
  40bfb2:	0e                   	push   cs
  40bfb3:	08 85 02 41 0e 0c    	or     BYTE PTR [ebp+0xc0e4102],al
  40bfb9:	87 03                	xchg   DWORD PTR [ebx],eax
  40bfbb:	41                   	inc    ecx
  40bfbc:	0e                   	push   cs
  40bfbd:	10 86 04 41 0e 14    	adc    BYTE PTR [esi+0x140e4104],al
  40bfc3:	83 05 43 0e 24 02 c2 	add    DWORD PTR ds:0x2240e43,0xffffffc2
  40bfca:	0a 0e                	or     cl,BYTE PTR [esi]
  40bfcc:	14 41                	adc    al,0x41
  40bfce:	c3                   	ret    
  40bfcf:	0e                   	push   cs
  40bfd0:	10 41 c6             	adc    BYTE PTR [ecx-0x3a],al
  40bfd3:	0e                   	push   cs
  40bfd4:	0c 41                	or     al,0x41
  40bfd6:	c7                   	(bad)  
  40bfd7:	0e                   	push   cs
  40bfd8:	08 41 c5             	or     BYTE PTR [ecx-0x3b],al
  40bfdb:	0e                   	push   cs
  40bfdc:	04 43                	add    al,0x43
  40bfde:	0b 79 0a             	or     edi,DWORD PTR [ecx+0xa]
  40bfe1:	0e                   	push   cs
  40bfe2:	14 41                	adc    al,0x41
  40bfe4:	c3                   	ret    
  40bfe5:	0e                   	push   cs
  40bfe6:	10 41 c6             	adc    BYTE PTR [ecx-0x3a],al
  40bfe9:	0e                   	push   cs
  40bfea:	0c 41                	or     al,0x41
  40bfec:	c7                   	(bad)  
  40bfed:	0e                   	push   cs
  40bfee:	08 41 c5             	or     BYTE PTR [ecx-0x3b],al
  40bff1:	0e                   	push   cs
  40bff2:	04 41                	add    al,0x41
  40bff4:	0b 00                	or     eax,DWORD PTR [eax]
  40bff6:	00 00                	add    BYTE PTR [eax],al
  40bff8:	24 00                	and    al,0x0
  40bffa:	00 00                	add    BYTE PTR [eax],al
  40bffc:	74 00                	je     40bffe <.eh_frame+0x76>
  40bffe:	00 00                	add    BYTE PTR [eax],al
  40c000:	20 b1 ff ff 3e 00    	and    BYTE PTR [ecx+0x3effff],dh
  40c006:	00 00                	add    BYTE PTR [eax],al
  40c008:	00 41 0e             	add    BYTE PTR [ecx+0xe],al
  40c00b:	08 83 02 70 0a c3    	or     BYTE PTR [ebx-0x3cf58ffe],al
  40c011:	0e                   	push   cs
  40c012:	04 41                	add    al,0x41
  40c014:	0b 47 0a             	or     eax,DWORD PTR [edi+0xa]
  40c017:	c3                   	ret    
  40c018:	0e                   	push   cs
  40c019:	04 41                	add    al,0x41
  40c01b:	0b 43 c3             	or     eax,DWORD PTR [ebx-0x3d]
  40c01e:	0e                   	push   cs
  40c01f:	04 14                	add    al,0x14

0040c020 <.eh_frame>:
  40c020:	14 00                	adc    al,0x0
  40c022:	00 00                	add    BYTE PTR [eax],al
  40c024:	00 00                	add    BYTE PTR [eax],al
  40c026:	00 00                	add    BYTE PTR [eax],al
  40c028:	01 7a 52             	add    DWORD PTR [edx+0x52],edi
  40c02b:	00 01                	add    BYTE PTR [ecx],al
  40c02d:	7c 08                	jl     40c037 <.eh_frame+0x17>
  40c02f:	01 1b                	add    DWORD PTR [ebx],ebx
  40c031:	0c 04                	or     al,0x4
  40c033:	04 88                	add    al,0x88
  40c035:	01 00                	add    DWORD PTR [eax],eax
  40c037:	00 1c 00             	add    BYTE PTR [eax+eax*1],bl
  40c03a:	00 00                	add    BYTE PTR [eax],al
  40c03c:	1c 00                	sbb    al,0x0
  40c03e:	00 00                	add    BYTE PTR [eax],al
  40c040:	20 b1 ff ff 32 00    	and    BYTE PTR [ecx+0x32ffff],dh
  40c046:	00 00                	add    BYTE PTR [eax],al
  40c048:	00 41 0e             	add    BYTE PTR [ecx+0xe],al
  40c04b:	08 83 02 45 0e 20    	or     BYTE PTR [ebx+0x200e4502],al
  40c051:	67 0e                	addr16 push cs
  40c053:	08 44 c3 0e          	or     BYTE PTR [ebx+eax*8+0xe],al
  40c057:	04 28                	add    al,0x28
  40c059:	00 00                	add    BYTE PTR [eax],al
  40c05b:	00 3c 00             	add    BYTE PTR [eax+eax*1],bh
  40c05e:	00 00                	add    BYTE PTR [eax],al
  40c060:	40                   	inc    eax
  40c061:	b1 ff                	mov    cl,0xff
  40c063:	ff 43 00             	inc    DWORD PTR [ebx+0x0]
  40c066:	00 00                	add    BYTE PTR [eax],al
  40c068:	00 41 0e             	add    BYTE PTR [ecx+0xe],al
  40c06b:	08 86 02 41 0e 0c    	or     BYTE PTR [esi+0xc0e4102],al
  40c071:	83 03 43             	add    DWORD PTR [ebx],0x43
  40c074:	0e                   	push   cs
  40c075:	20 7b 0e             	and    BYTE PTR [ebx+0xe],bh
  40c078:	0c 41                	or     al,0x41
  40c07a:	c3                   	ret    
  40c07b:	0e                   	push   cs
  40c07c:	08 41 c6             	or     BYTE PTR [ecx-0x3a],al
  40c07f:	0e                   	push   cs
  40c080:	04 00                	add    al,0x0
  40c082:	00 00                	add    BYTE PTR [eax],al
  40c084:	10 00                	adc    BYTE PTR [eax],al
  40c086:	00 00                	add    BYTE PTR [eax],al
  40c088:	68 00 00 00 64       	push   0x64000000
  40c08d:	b1 ff                	mov    cl,0xff
  40c08f:	ff 20                	jmp    DWORD PTR [eax]
  40c091:	00 00                	add    BYTE PTR [eax],al
  40c093:	00 00                	add    BYTE PTR [eax],al
  40c095:	00 00                	add    BYTE PTR [eax],al
  40c097:	00 3c 00             	add    BYTE PTR [eax+eax*1],bh
  40c09a:	00 00                	add    BYTE PTR [eax],al
  40c09c:	7c 00                	jl     40c09e <.eh_frame+0x7e>
  40c09e:	00 00                	add    BYTE PTR [eax],al
  40c0a0:	70 b1                	jo     40c053 <.eh_frame+0x33>
  40c0a2:	ff                   	(bad)  
  40c0a3:	ff                   	(bad)  
  40c0a4:	fb                   	sti    
  40c0a5:	01 00                	add    DWORD PTR [eax],eax
  40c0a7:	00 00                	add    BYTE PTR [eax],al
  40c0a9:	41                   	inc    ecx
  40c0aa:	0e                   	push   cs
  40c0ab:	08 85 02 41 0e 0c    	or     BYTE PTR [ebp+0xc0e4102],al
  40c0b1:	87 03                	xchg   DWORD PTR [ebx],eax
  40c0b3:	41                   	inc    ecx
  40c0b4:	0e                   	push   cs
  40c0b5:	10 86 04 41 0e 14    	adc    BYTE PTR [esi+0x140e4104],al
  40c0bb:	83 05 43 0e 60 03 ef 	add    DWORD PTR ds:0x3600e43,0xffffffef
  40c0c2:	01 0e                	add    DWORD PTR [esi],ecx
  40c0c4:	14 41                	adc    al,0x41
  40c0c6:	c3                   	ret    
  40c0c7:	0e                   	push   cs
  40c0c8:	10 41 c6             	adc    BYTE PTR [ecx-0x3a],al
  40c0cb:	0e                   	push   cs
  40c0cc:	0c 41                	or     al,0x41
  40c0ce:	c7                   	(bad)  
  40c0cf:	0e                   	push   cs
  40c0d0:	08 41 c5             	or     BYTE PTR [ecx-0x3b],al
  40c0d3:	0e                   	push   cs
  40c0d4:	04 00                	add    al,0x0
	...

0040c0d8 <.eh_frame>:
  40c0d8:	14 00                	adc    al,0x0
  40c0da:	00 00                	add    BYTE PTR [eax],al
  40c0dc:	00 00                	add    BYTE PTR [eax],al
  40c0de:	00 00                	add    BYTE PTR [eax],al
  40c0e0:	01 7a 52             	add    DWORD PTR [edx+0x52],edi
  40c0e3:	00 01                	add    BYTE PTR [ecx],al
  40c0e5:	7c 08                	jl     40c0ef <.eh_frame+0x17>
  40c0e7:	01 1b                	add    DWORD PTR [ebx],ebx
  40c0e9:	0c 04                	or     al,0x4
  40c0eb:	04 88                	add    al,0x88
  40c0ed:	01 00                	add    DWORD PTR [eax],eax
  40c0ef:	00 2c 00             	add    BYTE PTR [eax+eax*1],ch
  40c0f2:	00 00                	add    BYTE PTR [eax],al
  40c0f4:	1c 00                	sbb    al,0x0
  40c0f6:	00 00                	add    BYTE PTR [eax],al
  40c0f8:	18 b3 ff ff c5 00    	sbb    BYTE PTR [ebx+0xc5ffff],dh
  40c0fe:	00 00                	add    BYTE PTR [eax],al
  40c100:	00 41 0e             	add    BYTE PTR [ecx+0xe],al
  40c103:	08 85 02 42 0d 05    	or     BYTE PTR [ebp+0x50d4202],al
  40c109:	41                   	inc    ecx
  40c10a:	83 03 7f             	add    DWORD PTR [ebx],0x7f
  40c10d:	0a c5                	or     al,ch
  40c10f:	c3                   	ret    
  40c110:	0c 04                	or     al,0x4
  40c112:	04 41                	add    al,0x41
  40c114:	0b 02                	or     eax,DWORD PTR [edx]
  40c116:	68 0a c3 c5 0c       	push   0xcc5c30a
  40c11b:	04 04                	add    al,0x4
  40c11d:	44                   	inc    esp
  40c11e:	0b 00                	or     eax,DWORD PTR [eax]
  40c120:	24 00                	and    al,0x0
  40c122:	00 00                	add    BYTE PTR [eax],al
  40c124:	4c                   	dec    esp
  40c125:	00 00                	add    BYTE PTR [eax],al
  40c127:	00 b8 b3 ff ff 44    	add    BYTE PTR [eax+0x44ffffb3],bh
  40c12d:	00 00                	add    BYTE PTR [eax],al
  40c12f:	00 00                	add    BYTE PTR [eax],al
  40c131:	41                   	inc    ecx
  40c132:	0e                   	push   cs
  40c133:	08 85 02 42 0d 05    	or     BYTE PTR [ebp+0x50d4202],al
  40c139:	60                   	pusha  
  40c13a:	0a c5                	or     al,ch
  40c13c:	0c 04                	or     al,0x4
  40c13e:	04 41                	add    al,0x41
  40c140:	0b 5f c5             	or     ebx,DWORD PTR [edi-0x3b]
  40c143:	0c 04                	or     al,0x4
  40c145:	04 00                	add    al,0x0
  40c147:	00 2c 00             	add    BYTE PTR [eax+eax*1],ch
  40c14a:	00 00                	add    BYTE PTR [eax],al
  40c14c:	74 00                	je     40c14e <.eh_frame+0x76>
  40c14e:	00 00                	add    BYTE PTR [eax],al
  40c150:	e0 b3                	loopne 40c105 <.eh_frame+0x2d>
  40c152:	ff                   	(bad)  
  40c153:	ff cd                	dec    ebp
  40c155:	00 00                	add    BYTE PTR [eax],al
  40c157:	00 00                	add    BYTE PTR [eax],al
  40c159:	41                   	inc    ecx
  40c15a:	0e                   	push   cs
  40c15b:	08 85 02 44 0d 05    	or     BYTE PTR [ebp+0x50d4402],al
  40c161:	46                   	inc    esi
  40c162:	87 03                	xchg   DWORD PTR [ebx],eax
  40c164:	86 04 83             	xchg   BYTE PTR [ebx+eax*4],al
  40c167:	05 02 82 0a c3       	add    eax,0xc30a8202
  40c16c:	41                   	inc    ecx
  40c16d:	c6 41 c7 41          	mov    BYTE PTR [ecx-0x39],0x41
  40c171:	c5 0c 04             	lds    ecx,FWORD PTR [esp+eax*1]
  40c174:	04 41                	add    al,0x41
  40c176:	0b 00                	or     eax,DWORD PTR [eax]
  40c178:	30 00                	xor    BYTE PTR [eax],al
  40c17a:	00 00                	add    BYTE PTR [eax],al
  40c17c:	a4                   	movs   BYTE PTR es:[edi],BYTE PTR ds:[esi]
  40c17d:	00 00                	add    BYTE PTR [eax],al
  40c17f:	00 80 b4 ff ff 64    	add    BYTE PTR [eax+0x64ffffb4],al
  40c185:	00 00                	add    BYTE PTR [eax],al
  40c187:	00 00                	add    BYTE PTR [eax],al
  40c189:	41                   	inc    ecx
  40c18a:	0e                   	push   cs
  40c18b:	08 85 02 42 0d 05    	or     BYTE PTR [ebp+0x50d4202],al
  40c191:	44                   	inc    esp
  40c192:	83 03 74             	add    DWORD PTR [ebx],0x74
  40c195:	0a c5                	or     al,ch
  40c197:	c3                   	ret    
  40c198:	0c 04                	or     al,0x4
  40c19a:	04 45                	add    al,0x45
  40c19c:	0b 44 0a c5          	or     eax,DWORD PTR [edx+ecx*1-0x3b]
  40c1a0:	c3                   	ret    
  40c1a1:	0c 04                	or     al,0x4
  40c1a3:	04 4c                	add    al,0x4c
  40c1a5:	0b 53 c3             	or     edx,DWORD PTR [ebx-0x3d]
  40c1a8:	c5 0c 04             	lds    ecx,FWORD PTR [esp+eax*1]
  40c1ab:	04 3c                	add    al,0x3c
  40c1ad:	00 00                	add    BYTE PTR [eax],al
  40c1af:	00 d8                	add    al,bl
  40c1b1:	00 00                	add    BYTE PTR [eax],al
  40c1b3:	00 bc b4 ff ff de 00 	add    BYTE PTR [esp+esi*4+0xdeffff],bh
  40c1ba:	00 00                	add    BYTE PTR [eax],al
  40c1bc:	00 41 0e             	add    BYTE PTR [ecx+0xe],al
  40c1bf:	08 85 02 43 0e 0c    	or     BYTE PTR [ebp+0xc0e4302],al
  40c1c5:	87 03                	xchg   DWORD PTR [ebx],eax
  40c1c7:	41                   	inc    ecx
  40c1c8:	0e                   	push   cs
  40c1c9:	10 86 04 41 0e 14    	adc    BYTE PTR [esi+0x140e4104],al
  40c1cf:	83 05 43 0e 40 02 7a 	add    DWORD PTR ds:0x2400e43,0x7a
  40c1d6:	0a 0e                	or     cl,BYTE PTR [esi]
  40c1d8:	14 41                	adc    al,0x41
  40c1da:	c3                   	ret    
  40c1db:	0e                   	push   cs
  40c1dc:	10 41 c6             	adc    BYTE PTR [ecx-0x3a],al
  40c1df:	0e                   	push   cs
  40c1e0:	0c 41                	or     al,0x41
  40c1e2:	c7                   	(bad)  
  40c1e3:	0e                   	push   cs
  40c1e4:	08 41 c5             	or     BYTE PTR [ecx-0x3b],al
  40c1e7:	0e                   	push   cs
  40c1e8:	04 41                	add    al,0x41
  40c1ea:	0b 00                	or     eax,DWORD PTR [eax]
  40c1ec:	14 00                	adc    al,0x0
  40c1ee:	00 00                	add    BYTE PTR [eax],al
  40c1f0:	18 01                	sbb    BYTE PTR [ecx],al
  40c1f2:	00 00                	add    BYTE PTR [eax],al
  40c1f4:	5c                   	pop    esp
  40c1f5:	b5 ff                	mov    ch,0xff
  40c1f7:	ff 25 00 00 00 00    	jmp    DWORD PTR ds:0x0
  40c1fd:	43                   	inc    ebx
  40c1fe:	0e                   	push   cs
  40c1ff:	20 61 0e             	and    BYTE PTR [ecx+0xe],ah
  40c202:	04 00                	add    al,0x0
  40c204:	3c 00                	cmp    al,0x0
  40c206:	00 00                	add    BYTE PTR [eax],al
  40c208:	30 01                	xor    BYTE PTR [ecx],al
  40c20a:	00 00                	add    BYTE PTR [eax],al
  40c20c:	74 b5                	je     40c1c3 <.eh_frame+0xeb>
  40c20e:	ff                   	(bad)  
  40c20f:	ff 58 01             	call   FWORD PTR [eax+0x1]
  40c212:	00 00                	add    BYTE PTR [eax],al
  40c214:	00 41 0e             	add    BYTE PTR [ecx+0xe],al
  40c217:	08 85 02 41 0e 0c    	or     BYTE PTR [ebp+0xc0e4102],al
  40c21d:	87 03                	xchg   DWORD PTR [ebx],eax
  40c21f:	41                   	inc    ecx
  40c220:	0e                   	push   cs
  40c221:	10 86 04 41 0e 14    	adc    BYTE PTR [esi+0x140e4104],al
  40c227:	83 05 43 0e 50 03 48 	add    DWORD PTR ds:0x3500e43,0x48
  40c22e:	01 0a                	add    DWORD PTR [edx],ecx
  40c230:	0e                   	push   cs
  40c231:	14 41                	adc    al,0x41
  40c233:	c3                   	ret    
  40c234:	0e                   	push   cs
  40c235:	10 41 c6             	adc    BYTE PTR [ecx-0x3a],al
  40c238:	0e                   	push   cs
  40c239:	0c 41                	or     al,0x41
  40c23b:	c7                   	(bad)  
  40c23c:	0e                   	push   cs
  40c23d:	08 41 c5             	or     BYTE PTR [ecx-0x3b],al
  40c240:	0e                   	push   cs
  40c241:	04 41                	add    al,0x41
  40c243:	0b 3c 00             	or     edi,DWORD PTR [eax+eax*1]
  40c246:	00 00                	add    BYTE PTR [eax],al
  40c248:	70 01                	jo     40c24b <.eh_frame+0x173>
  40c24a:	00 00                	add    BYTE PTR [eax],al
  40c24c:	94                   	xchg   esp,eax
  40c24d:	b6 ff                	mov    dh,0xff
  40c24f:	ff 88 01 00 00 00    	dec    DWORD PTR [eax+0x1]
  40c255:	41                   	inc    ecx
  40c256:	0e                   	push   cs
  40c257:	08 85 02 42 0d 05    	or     BYTE PTR [ebp+0x50d4202],al
  40c25d:	46                   	inc    esi
  40c25e:	87 03                	xchg   DWORD PTR [ebx],eax
  40c260:	86 04 83             	xchg   BYTE PTR [ebx+eax*4],al
  40c263:	05 02 6c 0a c3       	add    eax,0xc30a6c02
  40c268:	41                   	inc    ecx
  40c269:	c6 41 c7 41          	mov    BYTE PTR [ecx-0x39],0x41
  40c26d:	c5 0c 04             	lds    ecx,FWORD PTR [esp+eax*1]
  40c270:	04 48                	add    al,0x48
  40c272:	0b 02                	or     eax,DWORD PTR [edx]
  40c274:	63 0a                	arpl   WORD PTR [edx],cx
  40c276:	c3                   	ret    
  40c277:	41                   	inc    ecx
  40c278:	c6 41 c7 41          	mov    BYTE PTR [ecx-0x39],0x41
  40c27c:	c5 0c 04             	lds    ecx,FWORD PTR [esp+eax*1]
  40c27f:	04 41                	add    al,0x41
  40c281:	0b 00                	or     eax,DWORD PTR [eax]
  40c283:	00 3c 00             	add    BYTE PTR [eax+eax*1],bh
  40c286:	00 00                	add    BYTE PTR [eax],al
  40c288:	b0 01                	mov    al,0x1
  40c28a:	00 00                	add    BYTE PTR [eax],al
  40c28c:	e4 b7                	in     al,0xb7
  40c28e:	ff                   	(bad)  
  40c28f:	ff 0d 01 00 00 00    	dec    DWORD PTR ds:0x1
  40c295:	41                   	inc    ecx
  40c296:	0e                   	push   cs
  40c297:	08 85 02 41 0e 0c    	or     BYTE PTR [ebp+0xc0e4102],al
  40c29d:	87 03                	xchg   DWORD PTR [ebx],eax
  40c29f:	41                   	inc    ecx
  40c2a0:	0e                   	push   cs
  40c2a1:	10 86 04 41 0e 14    	adc    BYTE PTR [esi+0x140e4104],al
  40c2a7:	83 05 43 0e 40 02 e9 	add    DWORD PTR ds:0x2400e43,0xffffffe9
  40c2ae:	0a 0e                	or     cl,BYTE PTR [esi]
  40c2b0:	14 41                	adc    al,0x41
  40c2b2:	c3                   	ret    
  40c2b3:	0e                   	push   cs
  40c2b4:	10 41 c6             	adc    BYTE PTR [ecx-0x3a],al
  40c2b7:	0e                   	push   cs
  40c2b8:	0c 41                	or     al,0x41
  40c2ba:	c7                   	(bad)  
  40c2bb:	0e                   	push   cs
  40c2bc:	08 41 c5             	or     BYTE PTR [ecx-0x3b],al
  40c2bf:	0e                   	push   cs
  40c2c0:	04 41                	add    al,0x41
  40c2c2:	0b 00                	or     eax,DWORD PTR [eax]
  40c2c4:	20 00                	and    BYTE PTR [eax],al
  40c2c6:	00 00                	add    BYTE PTR [eax],al
  40c2c8:	f0 01 00             	lock add DWORD PTR [eax],eax
  40c2cb:	00 b4 b8 ff ff 44 00 	add    BYTE PTR [eax+edi*4+0x44ffff],dh
  40c2d2:	00 00                	add    BYTE PTR [eax],al
  40c2d4:	00 41 0e             	add    BYTE PTR [ecx+0xe],al
  40c2d7:	08 83 02 79 0a c3    	or     BYTE PTR [ebx-0x3cf586fe],al
  40c2dd:	0e                   	push   cs
  40c2de:	04 46                	add    al,0x46
  40c2e0:	0b 43 c3             	or     eax,DWORD PTR [ebx-0x3d]
  40c2e3:	0e                   	push   cs
  40c2e4:	04 00                	add    al,0x0
  40c2e6:	00 00                	add    BYTE PTR [eax],al
  40c2e8:	54                   	push   esp
  40c2e9:	00 00                	add    BYTE PTR [eax],al
  40c2eb:	00 14 02             	add    BYTE PTR [edx+eax*1],dl
  40c2ee:	00 00                	add    BYTE PTR [eax],al
  40c2f0:	e0 b8                	loopne 40c2aa <.eh_frame+0x1d2>
  40c2f2:	ff                   	(bad)  
  40c2f3:	ff                   	(bad)  
  40c2f4:	7c 01                	jl     40c2f7 <.eh_frame+0x21f>
  40c2f6:	00 00                	add    BYTE PTR [eax],al
  40c2f8:	00 41 0e             	add    BYTE PTR [ecx+0xe],al
  40c2fb:	08 85 02 41 0e 0c    	or     BYTE PTR [ebp+0xc0e4102],al
  40c301:	87 03                	xchg   DWORD PTR [ebx],eax
  40c303:	41                   	inc    ecx
  40c304:	0e                   	push   cs
  40c305:	10 86 04 41 0e 14    	adc    BYTE PTR [esi+0x140e4104],al
  40c30b:	83 05 43 0e 40 03 36 	add    DWORD PTR ds:0x3400e43,0x36
  40c312:	01 0a                	add    DWORD PTR [edx],ecx
  40c314:	0e                   	push   cs
  40c315:	14 41                	adc    al,0x41
  40c317:	c3                   	ret    
  40c318:	0e                   	push   cs
  40c319:	10 41 c6             	adc    BYTE PTR [ecx-0x3a],al
  40c31c:	0e                   	push   cs
  40c31d:	0c 41                	or     al,0x41
  40c31f:	c7                   	(bad)  
  40c320:	0e                   	push   cs
  40c321:	08 41 c5             	or     BYTE PTR [ecx-0x3b],al
  40c324:	0e                   	push   cs
  40c325:	04 41                	add    al,0x41
  40c327:	0b 61 0a             	or     esp,DWORD PTR [ecx+0xa]
  40c32a:	0e                   	push   cs
  40c32b:	14 41                	adc    al,0x41
  40c32d:	c3                   	ret    
  40c32e:	0e                   	push   cs
  40c32f:	10 41 c6             	adc    BYTE PTR [ecx-0x3a],al
  40c332:	0e                   	push   cs
  40c333:	0c 41                	or     al,0x41
  40c335:	c7                   	(bad)  
  40c336:	0e                   	push   cs
  40c337:	08 41 c5             	or     BYTE PTR [ecx-0x3b],al
  40c33a:	0e                   	push   cs
  40c33b:	04 41                	add    al,0x41
  40c33d:	0b 00                	or     eax,DWORD PTR [eax]
  40c33f:	00 68 00             	add    BYTE PTR [eax+0x0],ch
  40c342:	00 00                	add    BYTE PTR [eax],al
  40c344:	6c                   	ins    BYTE PTR es:[edi],dx
  40c345:	02 00                	add    al,BYTE PTR [eax]
  40c347:	00 08                	add    BYTE PTR [eax],cl
  40c349:	ba ff ff e8 00       	mov    edx,0xe8ffff
  40c34e:	00 00                	add    BYTE PTR [eax],al
  40c350:	00 41 0e             	add    BYTE PTR [ecx+0xe],al
  40c353:	08 85 02 46 0e 0c    	or     BYTE PTR [ebp+0xc0e4602],al
  40c359:	87 03                	xchg   DWORD PTR [ebx],eax
  40c35b:	41                   	inc    ecx
  40c35c:	0e                   	push   cs
  40c35d:	10 86 04 41 0e 14    	adc    BYTE PTR [esi+0x140e4104],al
  40c363:	83 05 43 0e 28 02 5d 	add    DWORD PTR ds:0x2280e43,0x5d
  40c36a:	0a 0e                	or     cl,BYTE PTR [esi]
  40c36c:	14 41                	adc    al,0x41
  40c36e:	c3                   	ret    
  40c36f:	0e                   	push   cs
  40c370:	10 41 c6             	adc    BYTE PTR [ecx-0x3a],al
  40c373:	0e                   	push   cs
  40c374:	0c 41                	or     al,0x41
  40c376:	c7                   	(bad)  
  40c377:	0e                   	push   cs
  40c378:	08 41 c5             	or     BYTE PTR [ecx-0x3b],al
  40c37b:	0e                   	push   cs
  40c37c:	04 43                	add    al,0x43
  40c37e:	0b 02                	or     eax,DWORD PTR [edx]
  40c380:	5b                   	pop    ebx
  40c381:	0a 0e                	or     cl,BYTE PTR [esi]
  40c383:	14 41                	adc    al,0x41
  40c385:	c3                   	ret    
  40c386:	0e                   	push   cs
  40c387:	10 41 c6             	adc    BYTE PTR [ecx-0x3a],al
  40c38a:	0e                   	push   cs
  40c38b:	0c 41                	or     al,0x41
  40c38d:	c7                   	(bad)  
  40c38e:	0e                   	push   cs
  40c38f:	08 41 c5             	or     BYTE PTR [ecx-0x3b],al
  40c392:	0e                   	push   cs
  40c393:	04 41                	add    al,0x41
  40c395:	0b 53 0e             	or     edx,DWORD PTR [ebx+0xe]
  40c398:	14 41                	adc    al,0x41
  40c39a:	c3                   	ret    
  40c39b:	0e                   	push   cs
  40c39c:	10 41 c6             	adc    BYTE PTR [ecx-0x3a],al
  40c39f:	0e                   	push   cs
  40c3a0:	0c 41                	or     al,0x41
  40c3a2:	c7                   	(bad)  
  40c3a3:	0e                   	push   cs
  40c3a4:	08 41 c5             	or     BYTE PTR [ecx-0x3b],al
  40c3a7:	0e                   	push   cs
  40c3a8:	04 00                	add    al,0x0
  40c3aa:	00 00                	add    BYTE PTR [eax],al
  40c3ac:	54                   	push   esp
  40c3ad:	00 00                	add    BYTE PTR [eax],al
  40c3af:	00 d8                	add    al,bl
  40c3b1:	02 00                	add    al,BYTE PTR [eax]
  40c3b3:	00 8c ba ff ff ec 00 	add    BYTE PTR [edx+edi*4+0xecffff],cl
  40c3ba:	00 00                	add    BYTE PTR [eax],al
  40c3bc:	00 41 0e             	add    BYTE PTR [ecx+0xe],al
  40c3bf:	08 85 02 41 0e 0c    	or     BYTE PTR [ebp+0xc0e4102],al
  40c3c5:	87 03                	xchg   DWORD PTR [ebx],eax
  40c3c7:	41                   	inc    ecx
  40c3c8:	0e                   	push   cs
  40c3c9:	10 86 04 41 0e 14    	adc    BYTE PTR [esi+0x140e4104],al
  40c3cf:	83 05 43 0e 30 02 7c 	add    DWORD PTR ds:0x2300e43,0x7c
  40c3d6:	0a 0e                	or     cl,BYTE PTR [esi]
  40c3d8:	14 41                	adc    al,0x41
  40c3da:	c3                   	ret    
  40c3db:	0e                   	push   cs
  40c3dc:	10 41 c6             	adc    BYTE PTR [ecx-0x3a],al
  40c3df:	0e                   	push   cs
  40c3e0:	0c 41                	or     al,0x41
  40c3e2:	c7                   	(bad)  
  40c3e3:	0e                   	push   cs
  40c3e4:	08 41 c5             	or     BYTE PTR [ecx-0x3b],al
  40c3e7:	0e                   	push   cs
  40c3e8:	04 41                	add    al,0x41
  40c3ea:	0b 02                	or     eax,DWORD PTR [edx]
  40c3ec:	56                   	push   esi
  40c3ed:	0a 0e                	or     cl,BYTE PTR [esi]
  40c3ef:	14 41                	adc    al,0x41
  40c3f1:	c3                   	ret    
  40c3f2:	0e                   	push   cs
  40c3f3:	10 41 c6             	adc    BYTE PTR [ecx-0x3a],al
  40c3f6:	0e                   	push   cs
  40c3f7:	0c 41                	or     al,0x41
  40c3f9:	c7                   	(bad)  
  40c3fa:	0e                   	push   cs
  40c3fb:	08 41 c5             	or     BYTE PTR [ecx-0x3b],al
  40c3fe:	0e                   	push   cs
  40c3ff:	04 41                	add    al,0x41
  40c401:	0b 00                	or     eax,DWORD PTR [eax]
  40c403:	00 10                	add    BYTE PTR [eax],dl
  40c405:	00 00                	add    BYTE PTR [eax],al
  40c407:	00 30                	add    BYTE PTR [eax],dh
  40c409:	03 00                	add    eax,DWORD PTR [eax]
  40c40b:	00 24 bb             	add    BYTE PTR [ebx+edi*4],ah
  40c40e:	ff                   	(bad)  
  40c40f:	ff 26                	jmp    DWORD PTR [esi]
  40c411:	00 00                	add    BYTE PTR [eax],al
  40c413:	00 00                	add    BYTE PTR [eax],al
  40c415:	00 00                	add    BYTE PTR [eax],al
	...

0040c418 <.eh_frame>:
  40c418:	14 00                	adc    al,0x0
  40c41a:	00 00                	add    BYTE PTR [eax],al
  40c41c:	00 00                	add    BYTE PTR [eax],al
  40c41e:	00 00                	add    BYTE PTR [eax],al
  40c420:	01 7a 52             	add    DWORD PTR [edx+0x52],edi
  40c423:	00 01                	add    BYTE PTR [ecx],al
  40c425:	7c 08                	jl     40c42f <.eh_frame+0x17>
  40c427:	01 1b                	add    DWORD PTR [ebx],ebx
  40c429:	0c 04                	or     al,0x4
  40c42b:	04 88                	add    al,0x88
  40c42d:	01 00                	add    DWORD PTR [eax],eax
  40c42f:	00 7c 00 00          	add    BYTE PTR [eax+eax*1+0x0],bh
  40c433:	00 1c 00             	add    BYTE PTR [eax+eax*1],bl
  40c436:	00 00                	add    BYTE PTR [eax],al
  40c438:	c8 bc ff ff          	enter  0xffbc,0xff
  40c43c:	0d 01 00 00 00       	or     eax,0x1
  40c441:	41                   	inc    ecx
  40c442:	0e                   	push   cs
  40c443:	08 85 02 41 0e 0c    	or     BYTE PTR [ebp+0xc0e4102],al
  40c449:	87 03                	xchg   DWORD PTR [ebx],eax
  40c44b:	41                   	inc    ecx
  40c44c:	0e                   	push   cs
  40c44d:	10 86 04 41 0e 14    	adc    BYTE PTR [esi+0x140e4104],al
  40c453:	83 05 43 0e 28 02 41 	add    DWORD PTR ds:0x2280e43,0x41
  40c45a:	0a 0e                	or     cl,BYTE PTR [esi]
  40c45c:	14 41                	adc    al,0x41
  40c45e:	c3                   	ret    
  40c45f:	0e                   	push   cs
  40c460:	10 41 c6             	adc    BYTE PTR [ecx-0x3a],al
  40c463:	0e                   	push   cs
  40c464:	0c 41                	or     al,0x41
  40c466:	c7                   	(bad)  
  40c467:	0e                   	push   cs
  40c468:	08 41 c5             	or     BYTE PTR [ecx-0x3b],al
  40c46b:	0e                   	push   cs
  40c46c:	04 44                	add    al,0x44
  40c46e:	0b 6d 0a             	or     ebp,DWORD PTR [ebp+0xa]
  40c471:	0e                   	push   cs
  40c472:	14 41                	adc    al,0x41
  40c474:	c3                   	ret    
  40c475:	0e                   	push   cs
  40c476:	10 41 c6             	adc    BYTE PTR [ecx-0x3a],al
  40c479:	0e                   	push   cs
  40c47a:	0c 41                	or     al,0x41
  40c47c:	c7                   	(bad)  
  40c47d:	0e                   	push   cs
  40c47e:	08 41 c5             	or     BYTE PTR [ecx-0x3b],al
  40c481:	0e                   	push   cs
  40c482:	04 41                	add    al,0x41
  40c484:	0b 4b 0a             	or     ecx,DWORD PTR [ebx+0xa]
  40c487:	0e                   	push   cs
  40c488:	14 41                	adc    al,0x41
  40c48a:	c3                   	ret    
  40c48b:	0e                   	push   cs
  40c48c:	10 41 c6             	adc    BYTE PTR [ecx-0x3a],al
  40c48f:	0e                   	push   cs
  40c490:	0c 41                	or     al,0x41
  40c492:	c7                   	(bad)  
  40c493:	0e                   	push   cs
  40c494:	08 41 c5             	or     BYTE PTR [ecx-0x3b],al
  40c497:	0e                   	push   cs
  40c498:	04 41                	add    al,0x41
  40c49a:	0b 02                	or     eax,DWORD PTR [edx]
  40c49c:	76 0e                	jbe    40c4ac <.eh_frame+0x94>
  40c49e:	14 41                	adc    al,0x41
  40c4a0:	c3                   	ret    
  40c4a1:	0e                   	push   cs
  40c4a2:	10 41 c6             	adc    BYTE PTR [ecx-0x3a],al
  40c4a5:	0e                   	push   cs
  40c4a6:	0c 41                	or     al,0x41
  40c4a8:	c7                   	(bad)  
  40c4a9:	0e                   	push   cs
  40c4aa:	08 41 c5             	or     BYTE PTR [ecx-0x3b],al
  40c4ad:	0e                   	push   cs
  40c4ae:	04 00                	add    al,0x0

0040c4b0 <.eh_frame>:
  40c4b0:	14 00                	adc    al,0x0
  40c4b2:	00 00                	add    BYTE PTR [eax],al
  40c4b4:	00 00                	add    BYTE PTR [eax],al
  40c4b6:	00 00                	add    BYTE PTR [eax],al
  40c4b8:	01 7a 52             	add    DWORD PTR [edx+0x52],edi
  40c4bb:	00 01                	add    BYTE PTR [ecx],al
  40c4bd:	7c 08                	jl     40c4c7 <.eh_frame+0x17>
  40c4bf:	01 1b                	add    DWORD PTR [ebx],ebx
  40c4c1:	0c 04                	or     al,0x4
  40c4c3:	04 88                	add    al,0x88
  40c4c5:	01 00                	add    DWORD PTR [eax],eax
  40c4c7:	00 80 00 00 00 1c    	add    BYTE PTR [eax+0x1c000000],al
  40c4cd:	00 00                	add    BYTE PTR [eax],al
  40c4cf:	00 40 bd             	add    BYTE PTR [eax-0x43],al
  40c4d2:	ff                   	(bad)  
  40c4d3:	ff 50 01             	call   DWORD PTR [eax+0x1]
  40c4d6:	00 00                	add    BYTE PTR [eax],al
  40c4d8:	00 41 0e             	add    BYTE PTR [ecx+0xe],al
  40c4db:	08 85 02 41 0e 0c    	or     BYTE PTR [ebp+0xc0e4102],al
  40c4e1:	87 03                	xchg   DWORD PTR [ebx],eax
  40c4e3:	41                   	inc    ecx
  40c4e4:	0e                   	push   cs
  40c4e5:	10 86 04 41 0e 14    	adc    BYTE PTR [esi+0x140e4104],al
  40c4eb:	83 05 43 0e 30 78 0a 	add    DWORD PTR ds:0x78300e43,0xa
  40c4f2:	0e                   	push   cs
  40c4f3:	14 41                	adc    al,0x41
  40c4f5:	c3                   	ret    
  40c4f6:	0e                   	push   cs
  40c4f7:	10 41 c6             	adc    BYTE PTR [ecx-0x3a],al
  40c4fa:	0e                   	push   cs
  40c4fb:	0c 41                	or     al,0x41
  40c4fd:	c7                   	(bad)  
  40c4fe:	0e                   	push   cs
  40c4ff:	08 41 c5             	or     BYTE PTR [ecx-0x3b],al
  40c502:	0e                   	push   cs
  40c503:	04 41                	add    al,0x41
  40c505:	0b 74 0a 0e          	or     esi,DWORD PTR [edx+ecx*1+0xe]
  40c509:	14 41                	adc    al,0x41
  40c50b:	c3                   	ret    
  40c50c:	0e                   	push   cs
  40c50d:	10 41 c6             	adc    BYTE PTR [ecx-0x3a],al
  40c510:	0e                   	push   cs
  40c511:	0c 41                	or     al,0x41
  40c513:	c7                   	(bad)  
  40c514:	0e                   	push   cs
  40c515:	08 41 c5             	or     BYTE PTR [ecx-0x3b],al
  40c518:	0e                   	push   cs
  40c519:	04 44                	add    al,0x44
  40c51b:	0b 67 0a             	or     esp,DWORD PTR [edi+0xa]
  40c51e:	0e                   	push   cs
  40c51f:	14 41                	adc    al,0x41
  40c521:	c3                   	ret    
  40c522:	0e                   	push   cs
  40c523:	10 41 c6             	adc    BYTE PTR [ecx-0x3a],al
  40c526:	0e                   	push   cs
  40c527:	0c 41                	or     al,0x41
  40c529:	c7                   	(bad)  
  40c52a:	0e                   	push   cs
  40c52b:	08 41 c5             	or     BYTE PTR [ecx-0x3b],al
  40c52e:	0e                   	push   cs
  40c52f:	04 45                	add    al,0x45
  40c531:	0b 02                	or     eax,DWORD PTR [edx]
  40c533:	78 0a                	js     40c53f <.eh_frame+0x8f>
  40c535:	0e                   	push   cs
  40c536:	14 41                	adc    al,0x41
  40c538:	c3                   	ret    
  40c539:	0e                   	push   cs
  40c53a:	10 41 c6             	adc    BYTE PTR [ecx-0x3a],al
  40c53d:	0e                   	push   cs
  40c53e:	0c 41                	or     al,0x41
  40c540:	c7                   	(bad)  
  40c541:	0e                   	push   cs
  40c542:	08 41 c5             	or     BYTE PTR [ecx-0x3b],al
  40c545:	0e                   	push   cs
  40c546:	04 44                	add    al,0x44
  40c548:	0b 00                	or     eax,DWORD PTR [eax]
	...

0040c54c <___FRAME_END__>:
  40c54c:	00 00                	add    BYTE PTR [eax],al
  40c54e:	00 00                	add    BYTE PTR [eax],al
  40c550:	14 00                	adc    al,0x0
  40c552:	00 00                	add    BYTE PTR [eax],al
  40c554:	00 00                	add    BYTE PTR [eax],al
  40c556:	00 00                	add    BYTE PTR [eax],al
  40c558:	01 7a 52             	add    DWORD PTR [edx+0x52],edi
  40c55b:	00 01                	add    BYTE PTR [ecx],al
  40c55d:	7c 08                	jl     40c567 <___FRAME_END__+0x1b>
  40c55f:	01 1b                	add    DWORD PTR [ebx],ebx
  40c561:	0c 04                	or     al,0x4
  40c563:	04 88                	add    al,0x88
  40c565:	01 00                	add    DWORD PTR [eax],eax
  40c567:	00 1c 00             	add    BYTE PTR [eax+eax*1],bl
  40c56a:	00 00                	add    BYTE PTR [eax],al
  40c56c:	1c 00                	sbb    al,0x0
  40c56e:	00 00                	add    BYTE PTR [eax],al
  40c570:	00 be ff ff 19 00    	add    BYTE PTR [esi+0x19ffff],bh
  40c576:	00 00                	add    BYTE PTR [eax],al
  40c578:	00 41 0e             	add    BYTE PTR [ecx+0xe],al
  40c57b:	08 85 02 42 0d 05    	or     BYTE PTR [ebp+0x50d4202],al
  40c581:	55                   	push   ebp
  40c582:	c5 0c 04             	lds    ecx,FWORD PTR [esp+eax*1]
  40c585:	04 00                	add    al,0x0
	...

Disassembly of section .bss:

0040d000 <__argv>:
  40d000:	00 00                	add    BYTE PTR [eax],al
	...

0040d004 <__argc>:
  40d004:	00 00                	add    BYTE PTR [eax],al
	...

0040d008 <_obj>:
	...

0040d020 <__CRT_fmode>:
  40d020:	00 00                	add    BYTE PTR [eax],al
	...

0040d024 <___cpu_features>:
  40d024:	00 00                	add    BYTE PTR [eax],al
	...

0040d028 <_initialized>:
  40d028:	00 00                	add    BYTE PTR [eax],al
	...

0040d02c <_mingw_initltssuo_force>:
  40d02c:	00 00                	add    BYTE PTR [eax],al
	...

0040d030 <_mingw_initltsdyn_force>:
  40d030:	00 00                	add    BYTE PTR [eax],al
	...

0040d034 <_mingw_initltsdrot_force>:
  40d034:	00 00                	add    BYTE PTR [eax],al
	...

0040d038 <__tls_index>:
  40d038:	00 00                	add    BYTE PTR [eax],al
	...

0040d03c <_key_dtor_list>:
  40d03c:	00 00                	add    BYTE PTR [eax],al
	...

0040d040 <___mingwthr_cs_init>:
  40d040:	00 00                	add    BYTE PTR [eax],al
	...

0040d044 <___mingwthr_cs>:
	...

0040d05c <_was_init.31107>:
  40d05c:	00 00                	add    BYTE PTR [eax],al
	...

0040d060 <.bss>:
  40d060:	00 00                	add    BYTE PTR [eax],al
	...

0040d064 <__CRT_MT>:
  40d064:	00 00                	add    BYTE PTR [eax],al
	...

0040d068 <_retfail.2586>:
  40d068:	00 00                	add    BYTE PTR [eax],al
	...

0040d06c <___mingw_output_format_flag>:
  40d06c:	00 00                	add    BYTE PTR [eax],al
	...

0040d070 <_s_mbstate.15273>:
  40d070:	00 00                	add    BYTE PTR [eax],al
	...

0040d074 <_internal_mbstate.15257>:
  40d074:	00 00                	add    BYTE PTR [eax],al
	...

0040d078 <_internal_mbstate.15246>:
  40d078:	00 00                	add    BYTE PTR [eax],al
	...

0040d07c <.bss>:
  40d07c:	00 00                	add    BYTE PTR [eax],al
	...

0040d080 <_p5s>:
	...

0040d0a0 <_private_mem>:
	...

0040d9a0 <_freelist>:
	...

0040d9c8 <_dtoa_CS_init>:
	...

0040d9e0 <_dtoa_CritSec>:
	...

0040da20 <.bss>:
	...

Disassembly of section .idata:

0040e000 <__head_libkernel32_a>:
  40e000:	50                   	push   eax
  40e001:	e0 00                	loopne 40e003 <__head_libkernel32_a+0x3>
	...
  40e00b:	00 b8 e5 00 00 44    	add    BYTE PTR [eax+0x440000e5],bh
  40e011:	e1 00                	loope  40e013 <__head_libkernel32_a+0x13>
	...

0040e014 <__head_libmoldname_a>:
  40e014:	a8 e0                	test   al,0xe0
	...
  40e01e:	00 00                	add    BYTE PTR [eax],al
  40e020:	d0 e5                	shl    ch,1
  40e022:	00 00                	add    BYTE PTR [eax],al
  40e024:	9c                   	pushf  
  40e025:	e1 00                	loope  40e027 <__head_libmoldname_a+0x13>
	...

0040e028 <__head_libmsvcrt_a>:
  40e028:	b4 e0                	mov    ah,0xe0
	...
  40e032:	00 00                	add    BYTE PTR [eax],al
  40e034:	68 e6 00 00 a8       	push   0xa80000e6
  40e039:	e1 00                	loope  40e03b <__head_libmsvcrt_a+0x13>
	...

0040e050 <hname>:
  40e050:	38 e2                	cmp    dl,ah
	...

0040e054 <.idata$4>:
  40e054:	50                   	push   eax
  40e055:	e2 00                	loop   40e057 <.idata$4+0x3>
	...

0040e058 <.idata$4>:
  40e058:	68 e2 00 00 76       	push   0x760000e2

0040e05c <.idata$4>:
  40e05c:	76 e2                	jbe    40e040 <__head_libmsvcrt_a+0x18>
	...

0040e060 <.idata$4>:
  40e060:	82                   	(bad)  
  40e061:	e2 00                	loop   40e063 <.idata$4+0x3>
	...

0040e064 <.idata$4>:
  40e064:	94                   	xchg   esp,eax
  40e065:	e2 00                	loop   40e067 <.idata$4+0x3>
	...

0040e068 <.idata$4>:
  40e068:	a4                   	movs   BYTE PTR es:[edi],BYTE PTR ds:[esi]
  40e069:	e2 00                	loop   40e06b <.idata$4+0x3>
	...

0040e06c <.idata$4>:
  40e06c:	b6 e2                	mov    dh,0xe2
	...

0040e070 <.idata$4>:
  40e070:	c6                   	(bad)  
  40e071:	e2 00                	loop   40e073 <.idata$4+0x3>
	...

0040e074 <.idata$4>:
  40e074:	da e2                	(bad)  
	...

0040e078 <.idata$4>:
  40e078:	ec                   	in     al,dx
  40e079:	e2 00                	loop   40e07b <.idata$4+0x3>
	...

0040e07c <.idata$4>:
  40e07c:	08 e3                	or     bl,ah
	...

0040e080 <.idata$4>:
  40e080:	1e                   	push   ds
  40e081:	e3 00                	jecxz  40e083 <.idata$4+0x3>
	...

0040e084 <.idata$4>:
  40e084:	32 e3                	xor    ah,bl
	...

0040e088 <.idata$4>:
  40e088:	4a                   	dec    edx
  40e089:	e3 00                	jecxz  40e08b <.idata$4+0x3>
	...

0040e08c <.idata$4>:
  40e08c:	60                   	pusha  
  40e08d:	e3 00                	jecxz  40e08f <.idata$4+0x3>
	...

0040e090 <.idata$4>:
  40e090:	7e e3                	jle    40e075 <.idata$4+0x1>
	...

0040e094 <.idata$4>:
  40e094:	86 e3                	xchg   bl,ah
	...

0040e098 <.idata$4>:
  40e098:	94                   	xchg   esp,eax
  40e099:	e3 00                	jecxz  40e09b <.idata$4+0x3>
	...

0040e09c <.idata$4>:
  40e09c:	a6                   	cmps   BYTE PTR ds:[esi],BYTE PTR es:[edi]
  40e09d:	e3 00                	jecxz  40e09f <.idata$4+0x3>
	...

0040e0a0 <.idata$4>:
  40e0a0:	b6 e3                	mov    dh,0xe3
	...

0040e0a4 <.idata$4>:
  40e0a4:	00 00                	add    BYTE PTR [eax],al
	...

0040e0a8 <hname>:
  40e0a8:	cc                   	int3   
  40e0a9:	e3 00                	jecxz  40e0ab <hname+0x3>
	...

0040e0ac <.idata$4>:
  40e0ac:	d6                   	(bad)  
  40e0ad:	e3 00                	jecxz  40e0af <.idata$4+0x3>
	...

0040e0b0 <.idata$4>:
  40e0b0:	00 00                	add    BYTE PTR [eax],al
	...

0040e0b4 <hname>:
  40e0b4:	e2 e3                	loop   40e099 <.idata$4+0x1>
	...

0040e0b8 <.idata$4>:
  40e0b8:	f2 e3 00             	repnz jecxz 40e0bb <.idata$4+0x3>
	...

0040e0bc <.idata$4>:
  40e0bc:	02 e4                	add    ah,ah
	...

0040e0c0 <.idata$4>:
  40e0c0:	12 e4                	adc    ah,ah
	...

0040e0c4 <.idata$4>:
  40e0c4:	20 e4                	and    ah,ah
	...

0040e0c8 <.idata$4>:
  40e0c8:	32 e4                	xor    ah,ah
	...

0040e0cc <.idata$4>:
  40e0cc:	3c e4                	cmp    al,0xe4
	...

0040e0d0 <.idata$4>:
  40e0d0:	46                   	inc    esi
  40e0d1:	e4 00                	in     al,0x0
	...

0040e0d4 <.idata$4>:
  40e0d4:	52                   	push   edx
  40e0d5:	e4 00                	in     al,0x0
	...

0040e0d8 <.idata$4>:
  40e0d8:	5a                   	pop    edx
  40e0d9:	e4 00                	in     al,0x0
	...

0040e0dc <.idata$4>:
  40e0dc:	64 e4 00             	fs in  al,0x0
	...

0040e0e0 <.idata$4>:
  40e0e0:	70 e4                	jo     40e0c6 <.idata$4+0x2>
	...

0040e0e4 <.idata$4>:
  40e0e4:	78 e4                	js     40e0ca <.idata$4+0x2>
	...

0040e0e8 <.idata$4>:
  40e0e8:	82                   	(bad)  
  40e0e9:	e4 00                	in     al,0x0
	...

0040e0ec <.idata$4>:
  40e0ec:	8a e4                	mov    ah,ah
	...

0040e0f0 <.idata$4>:
  40e0f0:	94                   	xchg   esp,eax
  40e0f1:	e4 00                	in     al,0x0
	...

0040e0f4 <.idata$4>:
  40e0f4:	9c                   	pushf  
  40e0f5:	e4 00                	in     al,0x0
	...

0040e0f8 <.idata$4>:
  40e0f8:	a4                   	movs   BYTE PTR es:[edi],BYTE PTR ds:[esi]
  40e0f9:	e4 00                	in     al,0x0
	...

0040e0fc <.idata$4>:
  40e0fc:	ae                   	scas   al,BYTE PTR es:[edi]
  40e0fd:	e4 00                	in     al,0x0
	...

0040e100 <.idata$4>:
  40e100:	b8 e4 00 00 c2       	mov    eax,0xc20000e4

0040e104 <.idata$4>:
  40e104:	c2 e4 00             	ret    0xe4
	...

0040e108 <.idata$4>:
  40e108:	d0 e4                	shl    ah,1
	...

0040e10c <.idata$4>:
  40e10c:	da e4                	(bad)  
	...

0040e110 <.idata$4>:
  40e110:	e6 e4                	out    0xe4,al
	...

0040e114 <.idata$4>:
  40e114:	f0 e4 00             	lock in al,0x0
	...

0040e118 <.idata$4>:
  40e118:	fa                   	cli    
  40e119:	e4 00                	in     al,0x0
	...

0040e11c <.idata$4>:
  40e11c:	04 e5                	add    al,0xe5
	...

0040e120 <.idata$4>:
  40e120:	10 e5                	adc    ch,ah
	...

0040e124 <.idata$4>:
  40e124:	1a e5                	sbb    ah,ch
	...

0040e128 <.idata$4>:
  40e128:	24 e5                	and    al,0xe5
	...

0040e12c <.idata$4>:
  40e12c:	2e e5 00             	cs in  eax,0x0
	...

0040e130 <.idata$4>:
  40e130:	38 e5                	cmp    ch,ah
	...

0040e134 <.idata$4>:
  40e134:	42                   	inc    edx
  40e135:	e5 00                	in     eax,0x0
	...

0040e138 <.idata$4>:
  40e138:	4e                   	dec    esi
  40e139:	e5 00                	in     eax,0x0
	...

0040e13c <.idata$4>:
  40e13c:	58                   	pop    eax
  40e13d:	e5 00                	in     eax,0x0
	...

0040e140 <.idata$4>:
  40e140:	00 00                	add    BYTE PTR [eax],al
	...

0040e144 <__IAT_start__>:
  40e144:	38 e2                	cmp    dl,ah
	...

0040e148 <__imp__EnterCriticalSection@4>:
  40e148:	50                   	push   eax
  40e149:	e2 00                	loop   40e14b <__imp__EnterCriticalSection@4+0x3>
	...

0040e14c <__imp__ExitProcess@4>:
  40e14c:	68 e2 00 00 76       	push   0x760000e2

0040e150 <__imp__FindClose@4>:
  40e150:	76 e2                	jbe    40e134 <.idata$4>
	...

0040e154 <__imp__FindFirstFileA@8>:
  40e154:	82                   	(bad)  
  40e155:	e2 00                	loop   40e157 <__imp__FindFirstFileA@8+0x3>
	...

0040e158 <__imp__FindNextFileA@8>:
  40e158:	94                   	xchg   esp,eax
  40e159:	e2 00                	loop   40e15b <__imp__FindNextFileA@8+0x3>
	...

0040e15c <__imp__GetCommandLineA@0>:
  40e15c:	a4                   	movs   BYTE PTR es:[edi],BYTE PTR ds:[esi]
  40e15d:	e2 00                	loop   40e15f <__imp__GetCommandLineA@0+0x3>
	...

0040e160 <__imp__GetLastError@0>:
  40e160:	b6 e2                	mov    dh,0xe2
	...

0040e164 <__imp__GetModuleHandleA@4>:
  40e164:	c6                   	(bad)  
  40e165:	e2 00                	loop   40e167 <__imp__GetModuleHandleA@4+0x3>
	...

0040e168 <__imp__GetProcAddress@8>:
  40e168:	da e2                	(bad)  
	...

0040e16c <__imp__InitializeCriticalSection@4>:
  40e16c:	ec                   	in     al,dx
  40e16d:	e2 00                	loop   40e16f <__imp__InitializeCriticalSection@4+0x3>
	...

0040e170 <__imp__InterlockedExchange@8>:
  40e170:	08 e3                	or     bl,ah
	...

0040e174 <__imp__IsDBCSLeadByteEx@8>:
  40e174:	1e                   	push   ds
  40e175:	e3 00                	jecxz  40e177 <__imp__IsDBCSLeadByteEx@8+0x3>
	...

0040e178 <__imp__LeaveCriticalSection@4>:
  40e178:	32 e3                	xor    ah,bl
	...

0040e17c <__imp__MultiByteToWideChar@24>:
  40e17c:	4a                   	dec    edx
  40e17d:	e3 00                	jecxz  40e17f <__imp__MultiByteToWideChar@24+0x3>
	...

0040e180 <__imp__SetUnhandledExceptionFilter@4>:
  40e180:	60                   	pusha  
  40e181:	e3 00                	jecxz  40e183 <__imp__SetUnhandledExceptionFilter@4+0x3>
	...

0040e184 <__imp__Sleep@4>:
  40e184:	7e e3                	jle    40e169 <__imp__GetProcAddress@8+0x1>
	...

0040e188 <__imp__TlsGetValue@4>:
  40e188:	86 e3                	xchg   bl,ah
	...

0040e18c <__imp__VirtualProtect@16>:
  40e18c:	94                   	xchg   esp,eax
  40e18d:	e3 00                	jecxz  40e18f <__imp__VirtualProtect@16+0x3>
	...

0040e190 <__imp__VirtualQuery@12>:
  40e190:	a6                   	cmps   BYTE PTR ds:[esi],BYTE PTR es:[edi]
  40e191:	e3 00                	jecxz  40e193 <__imp__VirtualQuery@12+0x3>
	...

0040e194 <__imp__WideCharToMultiByte@32>:
  40e194:	b6 e3                	mov    dh,0xe3
	...

0040e198 <.idata$5>:
  40e198:	00 00                	add    BYTE PTR [eax],al
	...

0040e19c <__imp__strdup>:
  40e19c:	cc                   	int3   
  40e19d:	e3 00                	jecxz  40e19f <__imp__strdup+0x3>
	...

0040e1a0 <__imp__stricoll>:
  40e1a0:	d6                   	(bad)  
  40e1a1:	e3 00                	jecxz  40e1a3 <__imp__stricoll+0x3>
	...

0040e1a4 <.idata$5>:
  40e1a4:	00 00                	add    BYTE PTR [eax],al
	...

0040e1a8 <__imp____getmainargs>:
  40e1a8:	e2 e3                	loop   40e18d <__imp__VirtualProtect@16+0x1>
	...

0040e1ac <__imp____mb_cur_max>:
  40e1ac:	f2 e3 00             	repnz jecxz 40e1af <__imp____mb_cur_max+0x3>
	...

0040e1b0 <__imp____p__environ>:
  40e1b0:	02 e4                	add    ah,ah
	...

0040e1b4 <__imp____p__fmode>:
  40e1b4:	12 e4                	adc    ah,ah
	...

0040e1b8 <__imp____set_app_type>:
  40e1b8:	20 e4                	and    ah,ah
	...

0040e1bc <__imp___cexit>:
  40e1bc:	32 e4                	xor    ah,ah
	...

0040e1c0 <__imp___errno>:
  40e1c0:	3c e4                	cmp    al,0xe4
	...

0040e1c4 <__imp___fullpath>:
  40e1c4:	46                   	inc    esi
  40e1c5:	e4 00                	in     al,0x0
	...

0040e1c8 <__imp___iob>:
  40e1c8:	52                   	push   edx
  40e1c9:	e4 00                	in     al,0x0
	...

0040e1cc <__imp___onexit>:
  40e1cc:	5a                   	pop    edx
  40e1cd:	e4 00                	in     al,0x0
	...

0040e1d0 <__imp___setmode>:
  40e1d0:	64 e4 00             	fs in  al,0x0
	...

0040e1d4 <__imp__abort>:
  40e1d4:	70 e4                	jo     40e1ba <__imp____set_app_type+0x2>
	...

0040e1d8 <__imp__atexit>:
  40e1d8:	78 e4                	js     40e1be <__imp___cexit+0x2>
	...

0040e1dc <__imp__atoi>:
  40e1dc:	82                   	(bad)  
  40e1dd:	e4 00                	in     al,0x0
	...

0040e1e0 <__imp__calloc>:
  40e1e0:	8a e4                	mov    ah,ah
	...

0040e1e4 <__imp__fputc>:
  40e1e4:	94                   	xchg   esp,eax
  40e1e5:	e4 00                	in     al,0x0
	...

0040e1e8 <__imp__free>:
  40e1e8:	9c                   	pushf  
  40e1e9:	e4 00                	in     al,0x0
	...

0040e1ec <__imp__fwrite>:
  40e1ec:	a4                   	movs   BYTE PTR es:[edi],BYTE PTR ds:[esi]
  40e1ed:	e4 00                	in     al,0x0
	...

0040e1f0 <__imp__getenv>:
  40e1f0:	ae                   	scas   al,BYTE PTR es:[edi]
  40e1f1:	e4 00                	in     al,0x0
	...

0040e1f4 <__imp__isspace>:
  40e1f4:	b8 e4 00 00 c2       	mov    eax,0xc20000e4

0040e1f8 <__imp__localeconv>:
  40e1f8:	c2 e4 00             	ret    0xe4
	...

0040e1fc <__imp__malloc>:
  40e1fc:	d0 e4                	shl    ah,1
	...

0040e200 <__imp__mbstowcs>:
  40e200:	da e4                	(bad)  
	...

0040e204 <__imp__memcpy>:
  40e204:	e6 e4                	out    0xe4,al
	...

0040e208 <__imp__printf>:
  40e208:	f0 e4 00             	lock in al,0x0
	...

0040e20c <__imp__realloc>:
  40e20c:	fa                   	cli    
  40e20d:	e4 00                	in     al,0x0
	...

0040e210 <__imp__setlocale>:
  40e210:	04 e5                	add    al,0xe5
	...

0040e214 <__imp__signal>:
  40e214:	10 e5                	adc    ch,ah
	...

0040e218 <__imp__strchr>:
  40e218:	1a e5                	sbb    ah,ch
	...

0040e21c <__imp__strcoll>:
  40e21c:	24 e5                	and    al,0xe5
	...

0040e220 <__imp__strlen>:
  40e220:	2e e5 00             	cs in  eax,0x0
	...

0040e224 <__imp__tolower>:
  40e224:	38 e5                	cmp    ch,ah
	...

0040e228 <__imp__vfprintf>:
  40e228:	42                   	inc    edx
  40e229:	e5 00                	in     eax,0x0
	...

0040e22c <__imp__wcslen>:
  40e22c:	4e                   	dec    esi
  40e22d:	e5 00                	in     eax,0x0
	...

0040e230 <__imp__wcstombs>:
  40e230:	58                   	pop    eax
  40e231:	e5 00                	in     eax,0x0
	...

0040e234 <.idata$5>:
  40e234:	00 00                	add    BYTE PTR [eax],al
	...

0040e238 <__IAT_end__>:
  40e238:	cf                   	iret   
  40e239:	00 44 65 6c          	add    BYTE PTR [ebp+eiz*2+0x6c],al
  40e23d:	65 74 65             	gs je  40e2a5 <.idata$6+0x1>
  40e240:	43                   	inc    ebx
  40e241:	72 69                	jb     40e2ac <.idata$6+0x8>
  40e243:	74 69                	je     40e2ae <.idata$6+0xa>
  40e245:	63 61 6c             	arpl   WORD PTR [ecx+0x6c],sp
  40e248:	53                   	push   ebx
  40e249:	65 63 74 69 6f       	arpl   WORD PTR gs:[ecx+ebp*2+0x6f],si
  40e24e:	6e                   	outs   dx,BYTE PTR ds:[esi]
	...

0040e250 <.idata$6>:
  40e250:	ec                   	in     al,dx
  40e251:	00 45 6e             	add    BYTE PTR [ebp+0x6e],al
  40e254:	74 65                	je     40e2bb <.idata$6+0x5>
  40e256:	72 43                	jb     40e29b <.idata$6+0x7>
  40e258:	72 69                	jb     40e2c3 <.idata$6+0xd>
  40e25a:	74 69                	je     40e2c5 <.idata$6+0xf>
  40e25c:	63 61 6c             	arpl   WORD PTR [ecx+0x6c],sp
  40e25f:	53                   	push   ebx
  40e260:	65 63 74 69 6f       	arpl   WORD PTR gs:[ecx+ebp*2+0x6f],si
  40e265:	6e                   	outs   dx,BYTE PTR ds:[esi]
	...

0040e268 <.idata$6>:
  40e268:	17                   	pop    ss
  40e269:	01 45 78             	add    DWORD PTR [ebp+0x78],eax
  40e26c:	69 74 50 72 6f 63 65 	imul   esi,DWORD PTR [eax+edx*2+0x72],0x7365636f
  40e273:	73 
  40e274:	73 00                	jae    40e276 <.idata$6>

0040e276 <.idata$6>:
  40e276:	2c 01                	sub    al,0x1
  40e278:	46                   	inc    esi
  40e279:	69 6e 64 43 6c 6f 73 	imul   ebp,DWORD PTR [esi+0x64],0x736f6c43
  40e280:	65 00 30             	add    BYTE PTR gs:[eax],dh

0040e282 <.idata$6>:
  40e282:	30 01                	xor    BYTE PTR [ecx],al
  40e284:	46                   	inc    esi
  40e285:	69 6e 64 46 69 72 73 	imul   ebp,DWORD PTR [esi+0x64],0x73726946
  40e28c:	74 46                	je     40e2d4 <.idata$6+0xe>
  40e28e:	69 6c 65 41 00 00 41 	imul   ebp,DWORD PTR [ebp+eiz*2+0x41],0x1410000
  40e295:	01 

0040e294 <.idata$6>:
  40e294:	41                   	inc    ecx
  40e295:	01 46 69             	add    DWORD PTR [esi+0x69],eax
  40e298:	6e                   	outs   dx,BYTE PTR ds:[esi]
  40e299:	64 4e                	fs dec esi
  40e29b:	65 78 74             	gs js  40e312 <.idata$6+0xa>
  40e29e:	46                   	inc    esi
  40e29f:	69 6c 65 41 00 84 01 	imul   ebp,DWORD PTR [ebp+eiz*2+0x41],0x47018400
  40e2a6:	47 

0040e2a4 <.idata$6>:
  40e2a4:	84 01                	test   BYTE PTR [ecx],al
  40e2a6:	47                   	inc    edi
  40e2a7:	65 74 43             	gs je  40e2ed <.idata$6+0x1>
  40e2aa:	6f                   	outs   dx,DWORD PTR ds:[esi]
  40e2ab:	6d                   	ins    DWORD PTR es:[edi],dx
  40e2ac:	6d                   	ins    DWORD PTR es:[edi],dx
  40e2ad:	61                   	popa   
  40e2ae:	6e                   	outs   dx,BYTE PTR ds:[esi]
  40e2af:	64 4c                	fs dec esp
  40e2b1:	69 6e 65 41 00 fe 01 	imul   ebp,DWORD PTR [esi+0x65],0x1fe0041

0040e2b6 <.idata$6>:
  40e2b6:	fe 01                	inc    BYTE PTR [ecx]
  40e2b8:	47                   	inc    edi
  40e2b9:	65 74 4c             	gs je  40e308 <.idata$6>
  40e2bc:	61                   	popa   
  40e2bd:	73 74                	jae    40e333 <.idata$6+0x1>
  40e2bf:	45                   	inc    ebp
  40e2c0:	72 72                	jb     40e334 <.idata$6+0x2>
  40e2c2:	6f                   	outs   dx,DWORD PTR ds:[esi]
  40e2c3:	72 00                	jb     40e2c5 <.idata$6+0xf>
	...

0040e2c6 <.idata$6>:
  40e2c6:	11 02                	adc    DWORD PTR [edx],eax
  40e2c8:	47                   	inc    edi
  40e2c9:	65 74 4d             	gs je  40e319 <.idata$6+0x11>
  40e2cc:	6f                   	outs   dx,DWORD PTR ds:[esi]
  40e2cd:	64 75 6c             	fs jne 40e33c <.idata$6+0xa>
  40e2d0:	65 48                	gs dec eax
  40e2d2:	61                   	popa   
  40e2d3:	6e                   	outs   dx,BYTE PTR ds:[esi]
  40e2d4:	64 6c                	fs ins BYTE PTR es:[edi],dx
  40e2d6:	65 41                	gs inc ecx
	...

0040e2da <.idata$6>:
  40e2da:	41                   	inc    ecx
  40e2db:	02 47 65             	add    al,BYTE PTR [edi+0x65]
  40e2de:	74 50                	je     40e330 <.idata$6+0x12>
  40e2e0:	72 6f                	jb     40e351 <.idata$6+0x7>
  40e2e2:	63 41 64             	arpl   WORD PTR [ecx+0x64],ax
  40e2e5:	64 72 65             	fs jb  40e34d <.idata$6+0x3>
  40e2e8:	73 73                	jae    40e35d <.idata$6+0x13>
	...

0040e2ec <.idata$6>:
  40e2ec:	de 02                	fiadd  WORD PTR [edx]
  40e2ee:	49                   	dec    ecx
  40e2ef:	6e                   	outs   dx,BYTE PTR ds:[esi]
  40e2f0:	69 74 69 61 6c 69 7a 	imul   esi,DWORD PTR [ecx+ebp*2+0x61],0x657a696c
  40e2f7:	65 
  40e2f8:	43                   	inc    ebx
  40e2f9:	72 69                	jb     40e364 <.idata$6+0x4>
  40e2fb:	74 69                	je     40e366 <.idata$6+0x6>
  40e2fd:	63 61 6c             	arpl   WORD PTR [ecx+0x6c],sp
  40e300:	53                   	push   ebx
  40e301:	65 63 74 69 6f       	arpl   WORD PTR gs:[ecx+ebp*2+0x6f],si
  40e306:	6e                   	outs   dx,BYTE PTR ds:[esi]
	...

0040e308 <.idata$6>:
  40e308:	e8 02 49 6e 74       	call   74af2c0f <.debug_line+0x746dec0f>
  40e30d:	65 72 6c             	gs jb  40e37c <.idata$6+0x1c>
  40e310:	6f                   	outs   dx,DWORD PTR ds:[esi]
  40e311:	63 6b 65             	arpl   WORD PTR [ebx+0x65],bp
  40e314:	64 45                	fs inc ebp
  40e316:	78 63                	js     40e37b <.idata$6+0x1b>
  40e318:	68 61 6e 67 65       	push   0x65676e61
	...

0040e31e <.idata$6>:
  40e31e:	fb                   	sti    
  40e31f:	02 49 73             	add    cl,BYTE PTR [ecx+0x73]
  40e322:	44                   	inc    esp
  40e323:	42                   	inc    edx
  40e324:	43                   	inc    ebx
  40e325:	53                   	push   ebx
  40e326:	4c                   	dec    esp
  40e327:	65 61                	gs popa 
  40e329:	64 42                	fs inc edx
  40e32b:	79 74                	jns    40e3a1 <.idata$6+0xd>
  40e32d:	65 45                	gs inc ebp
  40e32f:	78 00                	js     40e331 <.idata$6+0x13>
	...

0040e332 <.idata$6>:
  40e332:	2e 03 4c 65 61       	add    ecx,DWORD PTR cs:[ebp+eiz*2+0x61]
  40e337:	76 65                	jbe    40e39e <.idata$6+0xa>
  40e339:	43                   	inc    ebx
  40e33a:	72 69                	jb     40e3a5 <.idata$6+0x11>
  40e33c:	74 69                	je     40e3a7 <.idata$6+0x1>
  40e33e:	63 61 6c             	arpl   WORD PTR [ecx+0x6c],sp
  40e341:	53                   	push   ebx
  40e342:	65 63 74 69 6f       	arpl   WORD PTR gs:[ecx+ebp*2+0x6f],si
  40e347:	6e                   	outs   dx,BYTE PTR ds:[esi]
	...

0040e34a <.idata$6>:
  40e34a:	5c                   	pop    esp
  40e34b:	03 4d 75             	add    ecx,DWORD PTR [ebp+0x75]
  40e34e:	6c                   	ins    BYTE PTR es:[edi],dx
  40e34f:	74 69                	je     40e3ba <.idata$6+0x4>
  40e351:	42                   	inc    edx
  40e352:	79 74                	jns    40e3c8 <.idata$6+0x12>
  40e354:	65 54                	gs push esp
  40e356:	6f                   	outs   dx,DWORD PTR ds:[esi]
  40e357:	57                   	push   edi
  40e358:	69 64 65 43 68 61 72 	imul   esp,DWORD PTR [ebp+eiz*2+0x43],0x726168
  40e35f:	00 

0040e360 <.idata$6>:
  40e360:	74 04                	je     40e366 <.idata$6+0x6>
  40e362:	53                   	push   ebx
  40e363:	65 74 55             	gs je  40e3bb <.idata$6+0x5>
  40e366:	6e                   	outs   dx,BYTE PTR ds:[esi]
  40e367:	68 61 6e 64 6c       	push   0x6c646e61
  40e36c:	65 64 45             	gs fs inc ebp
  40e36f:	78 63                	js     40e3d4 <.idata$6+0x8>
  40e371:	65 70 74             	gs jo  40e3e8 <.idata$6+0x6>
  40e374:	69 6f 6e 46 69 6c 74 	imul   ebp,DWORD PTR [edi+0x6e],0x746c6946
  40e37b:	65 72 00             	gs jb  40e37e <.idata$6>

0040e37e <.idata$6>:
  40e37e:	80 04 53 6c          	add    BYTE PTR [ebx+edx*2],0x6c
  40e382:	65 65 70 00          	gs gs jo 40e386 <.idata$6>

0040e386 <.idata$6>:
  40e386:	95                   	xchg   ebp,eax
  40e387:	04 54                	add    al,0x54
  40e389:	6c                   	ins    BYTE PTR es:[edi],dx
  40e38a:	73 47                	jae    40e3d3 <.idata$6+0x7>
  40e38c:	65 74 56             	gs je  40e3e5 <.idata$6+0x3>
  40e38f:	61                   	popa   
  40e390:	6c                   	ins    BYTE PTR es:[edi],dx
  40e391:	75 65                	jne    40e3f8 <.idata$6+0x6>
	...

0040e394 <.idata$6>:
  40e394:	bd 04 56 69 72       	mov    ebp,0x72695604
  40e399:	74 75                	je     40e410 <.idata$6+0xe>
  40e39b:	61                   	popa   
  40e39c:	6c                   	ins    BYTE PTR es:[edi],dx
  40e39d:	50                   	push   eax
  40e39e:	72 6f                	jb     40e40f <.idata$6+0xd>
  40e3a0:	74 65                	je     40e407 <.idata$6+0x5>
  40e3a2:	63 74 00 00          	arpl   WORD PTR [eax+eax*1+0x0],si

0040e3a6 <.idata$6>:
  40e3a6:	bf 04 56 69 72       	mov    edi,0x72695604
  40e3ab:	74 75                	je     40e422 <.idata$6+0x2>
  40e3ad:	61                   	popa   
  40e3ae:	6c                   	ins    BYTE PTR es:[edi],dx
  40e3af:	51                   	push   ecx
  40e3b0:	75 65                	jne    40e417 <.idata$6+0x5>
  40e3b2:	72 79                	jb     40e42d <.idata$6+0xd>
	...

0040e3b6 <.idata$6>:
  40e3b6:	df 04 57             	fild   WORD PTR [edi+edx*2]
  40e3b9:	69 64 65 43 68 61 72 	imul   esp,DWORD PTR [ebp+eiz*2+0x43],0x54726168
  40e3c0:	54 
  40e3c1:	6f                   	outs   dx,DWORD PTR ds:[esi]
  40e3c2:	4d                   	dec    ebp
  40e3c3:	75 6c                	jne    40e431 <.idata$6+0x11>
  40e3c5:	74 69                	je     40e430 <.idata$6+0x10>
  40e3c7:	42                   	inc    edx
  40e3c8:	79 74                	jns    40e43e <.idata$6+0x2>
  40e3ca:	65 00 50 00          	add    BYTE PTR gs:[eax+0x0],dl

0040e3cc <.idata$6>:
  40e3cc:	50                   	push   eax
  40e3cd:	00 5f 73             	add    BYTE PTR [edi+0x73],bl
  40e3d0:	74 72                	je     40e444 <.idata$6+0x8>
  40e3d2:	64 75 70             	fs jne 40e445 <.idata$6+0x9>
	...

0040e3d6 <.idata$6>:
  40e3d6:	52                   	push   edx
  40e3d7:	00 5f 73             	add    BYTE PTR [edi+0x73],bl
  40e3da:	74 72                	je     40e44e <.idata$6+0x8>
  40e3dc:	69 63 6f 6c 6c 00 37 	imul   esp,DWORD PTR [ebx+0x6f],0x37006c6c

0040e3e2 <.idata$6>:
  40e3e2:	37                   	aaa    
  40e3e3:	00 5f 5f             	add    BYTE PTR [edi+0x5f],bl
  40e3e6:	67 65 74 6d          	addr16 gs je 40e457 <.idata$6+0x5>
  40e3ea:	61                   	popa   
  40e3eb:	69 6e 61 72 67 73 00 	imul   ebp,DWORD PTR [esi+0x61],0x736772

0040e3f2 <.idata$6>:
  40e3f2:	41                   	inc    ecx
  40e3f3:	00 5f 5f             	add    BYTE PTR [edi+0x5f],bl
  40e3f6:	6d                   	ins    DWORD PTR es:[edi],dx
  40e3f7:	62 5f 63             	bound  ebx,QWORD PTR [edi+0x63]
  40e3fa:	75 72                	jne    40e46e <.idata$6+0xa>
  40e3fc:	5f                   	pop    edi
  40e3fd:	6d                   	ins    DWORD PTR es:[edi],dx
  40e3fe:	61                   	popa   
  40e3ff:	78 00                	js     40e401 <.idata$6+0xf>
	...

0040e402 <.idata$6>:
  40e402:	4d                   	dec    ebp
  40e403:	00 5f 5f             	add    BYTE PTR [edi+0x5f],bl
  40e406:	70 5f                	jo     40e467 <.idata$6+0x3>
  40e408:	5f                   	pop    edi
  40e409:	65 6e                	outs   dx,BYTE PTR gs:[esi]
  40e40b:	76 69                	jbe    40e476 <.idata$6+0x6>
  40e40d:	72 6f                	jb     40e47e <.idata$6+0x6>
  40e40f:	6e                   	outs   dx,BYTE PTR ds:[esi]
	...

0040e412 <.idata$6>:
  40e412:	4f                   	dec    edi
  40e413:	00 5f 5f             	add    BYTE PTR [edi+0x5f],bl
  40e416:	70 5f                	jo     40e477 <.idata$6+0x7>
  40e418:	5f                   	pop    edi
  40e419:	66 6d                	ins    WORD PTR es:[edi],dx
  40e41b:	6f                   	outs   dx,DWORD PTR ds:[esi]
  40e41c:	64 65 00 00          	fs add BYTE PTR gs:[eax],al

0040e420 <.idata$6>:
  40e420:	63 00                	arpl   WORD PTR [eax],ax
  40e422:	5f                   	pop    edi
  40e423:	5f                   	pop    edi
  40e424:	73 65                	jae    40e48b <.idata$6+0x1>
  40e426:	74 5f                	je     40e487 <.idata$6+0x5>
  40e428:	61                   	popa   
  40e429:	70 70                	jo     40e49b <.idata$6+0x7>
  40e42b:	5f                   	pop    edi
  40e42c:	74 79                	je     40e4a7 <.idata$6+0x3>
  40e42e:	70 65                	jo     40e495 <.idata$6+0x1>
	...

0040e432 <.idata$6>:
  40e432:	93                   	xchg   ebx,eax
  40e433:	00 5f 63             	add    BYTE PTR [edi+0x63],bl
  40e436:	65 78 69             	gs js  40e4a2 <.idata$6+0x6>
  40e439:	74 00                	je     40e43b <.idata$6+0x9>
	...

0040e43c <.idata$6>:
  40e43c:	b6 00                	mov    dh,0x0
  40e43e:	5f                   	pop    edi
  40e43f:	65 72 72             	gs jb  40e4b4 <.idata$6+0x6>
  40e442:	6e                   	outs   dx,BYTE PTR ds:[esi]
  40e443:	6f                   	outs   dx,DWORD PTR ds:[esi]
	...

0040e446 <.idata$6>:
  40e446:	e4 00                	in     al,0x0
  40e448:	5f                   	pop    edi
  40e449:	66 75 6c             	data16 jne 40e4b8 <.idata$6>
  40e44c:	6c                   	ins    BYTE PTR es:[edi],dx
  40e44d:	70 61                	jo     40e4b0 <.idata$6+0x2>
  40e44f:	74 68                	je     40e4b9 <.idata$6+0x1>
	...

0040e452 <.idata$6>:
  40e452:	0a 01                	or     al,BYTE PTR [ecx]
  40e454:	5f                   	pop    edi
  40e455:	69 6f 62 00 00 7f 01 	imul   ebp,DWORD PTR [edi+0x62],0x17f0000

0040e45a <.idata$6>:
  40e45a:	7f 01                	jg     40e45d <.idata$6+0x3>
  40e45c:	5f                   	pop    edi
  40e45d:	6f                   	outs   dx,DWORD PTR ds:[esi]
  40e45e:	6e                   	outs   dx,BYTE PTR ds:[esi]
  40e45f:	65 78 69             	gs js  40e4cb <.idata$6+0x9>
  40e462:	74 00                	je     40e464 <.idata$6>

0040e464 <.idata$6>:
  40e464:	aa                   	stos   BYTE PTR es:[edi],al
  40e465:	01 5f 73             	add    DWORD PTR [edi+0x73],ebx
  40e468:	65 74 6d             	gs je  40e4d8 <.idata$6+0x8>
  40e46b:	6f                   	outs   dx,DWORD PTR ds:[esi]
  40e46c:	64 65 00 00          	fs add BYTE PTR gs:[eax],al

0040e470 <.idata$6>:
  40e470:	47                   	inc    edi
  40e471:	02 61 62             	add    ah,BYTE PTR [ecx+0x62]
  40e474:	6f                   	outs   dx,DWORD PTR ds:[esi]
  40e475:	72 74                	jb     40e4eb <.idata$6+0x5>
	...

0040e478 <.idata$6>:
  40e478:	4e                   	dec    esi
  40e479:	02 61 74             	add    ah,BYTE PTR [ecx+0x74]
  40e47c:	65 78 69             	gs js  40e4e8 <.idata$6+0x2>
  40e47f:	74 00                	je     40e481 <.idata$6+0x9>
	...

0040e482 <.idata$6>:
  40e482:	50                   	push   eax
  40e483:	02 61 74             	add    ah,BYTE PTR [ecx+0x74]
  40e486:	6f                   	outs   dx,DWORD PTR ds:[esi]
  40e487:	69 00 00 53 02 63    	imul   eax,DWORD PTR [eax],0x63025300

0040e48a <.idata$6>:
  40e48a:	53                   	push   ebx
  40e48b:	02 63 61             	add    ah,BYTE PTR [ebx+0x61]
  40e48e:	6c                   	ins    BYTE PTR es:[edi],dx
  40e48f:	6c                   	ins    BYTE PTR es:[edi],dx
  40e490:	6f                   	outs   dx,DWORD PTR ds:[esi]
  40e491:	63 00                	arpl   WORD PTR [eax],ax
	...

0040e494 <.idata$6>:
  40e494:	6c                   	ins    BYTE PTR es:[edi],dx
  40e495:	02 66 70             	add    ah,BYTE PTR [esi+0x70]
  40e498:	75 74                	jne    40e50e <.idata$6+0xa>
  40e49a:	63 00                	arpl   WORD PTR [eax],ax

0040e49c <.idata$6>:
  40e49c:	71 02                	jno    40e4a0 <.idata$6+0x4>
  40e49e:	66 72 65             	data16 jb 40e506 <.idata$6+0x2>
  40e4a1:	65 00 00             	add    BYTE PTR gs:[eax],al

0040e4a4 <.idata$6>:
  40e4a4:	79 02                	jns    40e4a8 <.idata$6+0x4>
  40e4a6:	66 77 72             	data16 ja 40e51b <.idata$6+0x1>
  40e4a9:	69 74 65 00 00 7d 02 	imul   esi,DWORD PTR [ebp+eiz*2+0x0],0x67027d00
  40e4b0:	67 

0040e4ae <.idata$6>:
  40e4ae:	7d 02                	jge    40e4b2 <.idata$6+0x4>
  40e4b0:	67 65 74 65          	addr16 gs je 40e519 <.idata$6+0x9>
  40e4b4:	6e                   	outs   dx,BYTE PTR ds:[esi]
  40e4b5:	76 00                	jbe    40e4b7 <.idata$6+0x9>
	...

0040e4b8 <.idata$6>:
  40e4b8:	8c 02                	mov    WORD PTR [edx],es
  40e4ba:	69 73 73 70 61 63 65 	imul   esi,DWORD PTR [ebx+0x73],0x65636170
	...

0040e4c2 <.idata$6>:
  40e4c2:	9f                   	lahf   
  40e4c3:	02 6c 6f 63          	add    ch,BYTE PTR [edi+ebp*2+0x63]
  40e4c7:	61                   	popa   
  40e4c8:	6c                   	ins    BYTE PTR es:[edi],dx
  40e4c9:	65 63 6f 6e          	arpl   WORD PTR gs:[edi+0x6e],bp
  40e4cd:	76 00                	jbe    40e4cf <.idata$6+0xd>
	...

0040e4d0 <.idata$6>:
  40e4d0:	a4                   	movs   BYTE PTR es:[edi],BYTE PTR ds:[esi]
  40e4d1:	02 6d 61             	add    ch,BYTE PTR [ebp+0x61]
  40e4d4:	6c                   	ins    BYTE PTR es:[edi],dx
  40e4d5:	6c                   	ins    BYTE PTR es:[edi],dx
  40e4d6:	6f                   	outs   dx,DWORD PTR ds:[esi]
  40e4d7:	63 00                	arpl   WORD PTR [eax],ax
	...

0040e4da <.idata$6>:
  40e4da:	a6                   	cmps   BYTE PTR ds:[esi],BYTE PTR es:[edi]
  40e4db:	02 6d 62             	add    ch,BYTE PTR [ebp+0x62]
  40e4de:	73 74                	jae    40e554 <.idata$6+0x6>
  40e4e0:	6f                   	outs   dx,DWORD PTR ds:[esi]
  40e4e1:	77 63                	ja     40e546 <.idata$6+0x4>
  40e4e3:	73 00                	jae    40e4e5 <.idata$6+0xb>
	...

0040e4e6 <.idata$6>:
  40e4e6:	aa                   	stos   BYTE PTR es:[edi],al
  40e4e7:	02 6d 65             	add    ch,BYTE PTR [ebp+0x65]
  40e4ea:	6d                   	ins    DWORD PTR es:[edi],dx
  40e4eb:	63 70 79             	arpl   WORD PTR [eax+0x79],si
	...

0040e4f0 <.idata$6>:
  40e4f0:	b1 02                	mov    cl,0x2
  40e4f2:	70 72                	jo     40e566 <.idata$7+0x2>
  40e4f4:	69 6e 74 66 00 00 ba 	imul   ebp,DWORD PTR [esi+0x74],0xba000066

0040e4fa <.idata$6>:
  40e4fa:	ba 02 72 65 61       	mov    edx,0x61657202
  40e4ff:	6c                   	ins    BYTE PTR es:[edi],dx
  40e500:	6c                   	ins    BYTE PTR es:[edi],dx
  40e501:	6f                   	outs   dx,DWORD PTR ds:[esi]
  40e502:	63 00                	arpl   WORD PTR [eax],ax

0040e504 <.idata$6>:
  40e504:	c0 02 73             	rol    BYTE PTR [edx],0x73
  40e507:	65 74 6c             	gs je  40e576 <.idata$7+0x2>
  40e50a:	6f                   	outs   dx,DWORD PTR ds:[esi]
  40e50b:	63 61 6c             	arpl   WORD PTR [ecx+0x6c],sp
  40e50e:	65 00 c2             	gs add dl,al

0040e510 <.idata$6>:
  40e510:	c2 02 73             	ret    0x7302
  40e513:	69 67 6e 61 6c 00 00 	imul   esp,DWORD PTR [edi+0x6e],0x6c61

0040e51a <.idata$6>:
  40e51a:	ca 02 73             	retf   0x7302
  40e51d:	74 72                	je     40e591 <.idata$7+0x1>
  40e51f:	63 68 72             	arpl   WORD PTR [eax+0x72],bp
	...

0040e524 <.idata$6>:
  40e524:	cc                   	int3   
  40e525:	02 73 74             	add    dh,BYTE PTR [ebx+0x74]
  40e528:	72 63                	jb     40e58d <.idata$7+0x1>
  40e52a:	6f                   	outs   dx,DWORD PTR ds:[esi]
  40e52b:	6c                   	ins    BYTE PTR es:[edi],dx
  40e52c:	6c                   	ins    BYTE PTR es:[edi],dx
	...

0040e52e <.idata$6>:
  40e52e:	d1 02                	rol    DWORD PTR [edx],1
  40e530:	73 74                	jae    40e5a6 <.idata$7+0x2>
  40e532:	72 6c                	jb     40e5a0 <.idata$7>
  40e534:	65 6e                	outs   dx,BYTE PTR gs:[esi]
	...

0040e538 <.idata$6>:
  40e538:	e6 02                	out    0x2,al
  40e53a:	74 6f                	je     40e5ab <.idata$7+0x3>
  40e53c:	6c                   	ins    BYTE PTR es:[edi],dx
  40e53d:	6f                   	outs   dx,DWORD PTR ds:[esi]
  40e53e:	77 65                	ja     40e5a5 <.idata$7+0x1>
  40e540:	72 00                	jb     40e542 <.idata$6>

0040e542 <.idata$6>:
  40e542:	ec                   	in     al,dx
  40e543:	02 76 66             	add    dh,BYTE PTR [esi+0x66]
  40e546:	70 72                	jo     40e5ba <__libkernel32_a_iname+0x2>
  40e548:	69 6e 74 66 00 00 f9 	imul   ebp,DWORD PTR [esi+0x74],0xf9000066

0040e54e <.idata$6>:
  40e54e:	f9                   	stc    
  40e54f:	02 77 63             	add    dh,BYTE PTR [edi+0x63]
  40e552:	73 6c                	jae    40e5c0 <__libkernel32_a_iname+0x8>
  40e554:	65 6e                	outs   dx,BYTE PTR gs:[esi]
	...

0040e558 <.idata$6>:
  40e558:	04 03                	add    al,0x3
  40e55a:	77 63                	ja     40e5bf <__libkernel32_a_iname+0x7>
  40e55c:	73 74                	jae    40e5d2 <__libmoldname_a_iname+0x2>
  40e55e:	6f                   	outs   dx,DWORD PTR ds:[esi]
  40e55f:	6d                   	ins    DWORD PTR es:[edi],dx
  40e560:	62 73 00             	bound  esi,QWORD PTR [ebx+0x0]
	...

0040e564 <.idata$7>:
  40e564:	00 e0                	add    al,ah
	...

0040e568 <.idata$7>:
  40e568:	00 e0                	add    al,ah
	...

0040e56c <.idata$7>:
  40e56c:	00 e0                	add    al,ah
	...

0040e570 <.idata$7>:
  40e570:	00 e0                	add    al,ah
	...

0040e574 <.idata$7>:
  40e574:	00 e0                	add    al,ah
	...

0040e578 <.idata$7>:
  40e578:	00 e0                	add    al,ah
	...

0040e57c <.idata$7>:
  40e57c:	00 e0                	add    al,ah
	...

0040e580 <.idata$7>:
  40e580:	00 e0                	add    al,ah
	...

0040e584 <.idata$7>:
  40e584:	00 e0                	add    al,ah
	...

0040e588 <.idata$7>:
  40e588:	00 e0                	add    al,ah
	...

0040e58c <.idata$7>:
  40e58c:	00 e0                	add    al,ah
	...

0040e590 <.idata$7>:
  40e590:	00 e0                	add    al,ah
	...

0040e594 <.idata$7>:
  40e594:	00 e0                	add    al,ah
	...

0040e598 <.idata$7>:
  40e598:	00 e0                	add    al,ah
	...

0040e59c <.idata$7>:
  40e59c:	00 e0                	add    al,ah
	...

0040e5a0 <.idata$7>:
  40e5a0:	00 e0                	add    al,ah
	...

0040e5a4 <.idata$7>:
  40e5a4:	00 e0                	add    al,ah
	...

0040e5a8 <.idata$7>:
  40e5a8:	00 e0                	add    al,ah
	...

0040e5ac <.idata$7>:
  40e5ac:	00 e0                	add    al,ah
	...

0040e5b0 <.idata$7>:
  40e5b0:	00 e0                	add    al,ah
	...

0040e5b4 <.idata$7>:
  40e5b4:	00 e0                	add    al,ah
	...

0040e5b8 <__libkernel32_a_iname>:
  40e5b8:	4b                   	dec    ebx
  40e5b9:	45                   	inc    ebp
  40e5ba:	52                   	push   edx
  40e5bb:	4e                   	dec    esi
  40e5bc:	45                   	inc    ebp
  40e5bd:	4c                   	dec    esp
  40e5be:	33 32                	xor    esi,DWORD PTR [edx]
  40e5c0:	2e 64 6c             	cs fs ins BYTE PTR es:[edi],dx
  40e5c3:	6c                   	ins    BYTE PTR es:[edi],dx
  40e5c4:	00 00                	add    BYTE PTR [eax],al
	...

0040e5c8 <.idata$7>:
  40e5c8:	14 e0                	adc    al,0xe0
	...

0040e5cc <.idata$7>:
  40e5cc:	14 e0                	adc    al,0xe0
	...

0040e5d0 <__libmoldname_a_iname>:
  40e5d0:	6d                   	ins    DWORD PTR es:[edi],dx
  40e5d1:	73 76                	jae    40e649 <.idata$7+0x1>
  40e5d3:	63 72 74             	arpl   WORD PTR [edx+0x74],si
  40e5d6:	2e 64 6c             	cs fs ins BYTE PTR es:[edi],dx
  40e5d9:	6c                   	ins    BYTE PTR es:[edi],dx
	...

0040e5dc <.idata$7>:
  40e5dc:	28 e0                	sub    al,ah
	...

0040e5e0 <.idata$7>:
  40e5e0:	28 e0                	sub    al,ah
	...

0040e5e4 <.idata$7>:
  40e5e4:	28 e0                	sub    al,ah
	...

0040e5e8 <.idata$7>:
  40e5e8:	28 e0                	sub    al,ah
	...

0040e5ec <.idata$7>:
  40e5ec:	28 e0                	sub    al,ah
	...

0040e5f0 <.idata$7>:
  40e5f0:	28 e0                	sub    al,ah
	...

0040e5f4 <.idata$7>:
  40e5f4:	28 e0                	sub    al,ah
	...

0040e5f8 <.idata$7>:
  40e5f8:	28 e0                	sub    al,ah
	...

0040e5fc <.idata$7>:
  40e5fc:	28 e0                	sub    al,ah
	...

0040e600 <.idata$7>:
  40e600:	28 e0                	sub    al,ah
	...

0040e604 <.idata$7>:
  40e604:	28 e0                	sub    al,ah
	...

0040e608 <.idata$7>:
  40e608:	28 e0                	sub    al,ah
	...

0040e60c <.idata$7>:
  40e60c:	28 e0                	sub    al,ah
	...

0040e610 <.idata$7>:
  40e610:	28 e0                	sub    al,ah
	...

0040e614 <.idata$7>:
  40e614:	28 e0                	sub    al,ah
	...

0040e618 <.idata$7>:
  40e618:	28 e0                	sub    al,ah
	...

0040e61c <.idata$7>:
  40e61c:	28 e0                	sub    al,ah
	...

0040e620 <.idata$7>:
  40e620:	28 e0                	sub    al,ah
	...

0040e624 <.idata$7>:
  40e624:	28 e0                	sub    al,ah
	...

0040e628 <.idata$7>:
  40e628:	28 e0                	sub    al,ah
	...

0040e62c <.idata$7>:
  40e62c:	28 e0                	sub    al,ah
	...

0040e630 <.idata$7>:
  40e630:	28 e0                	sub    al,ah
	...

0040e634 <.idata$7>:
  40e634:	28 e0                	sub    al,ah
	...

0040e638 <.idata$7>:
  40e638:	28 e0                	sub    al,ah
	...

0040e63c <.idata$7>:
  40e63c:	28 e0                	sub    al,ah
	...

0040e640 <.idata$7>:
  40e640:	28 e0                	sub    al,ah
	...

0040e644 <.idata$7>:
  40e644:	28 e0                	sub    al,ah
	...

0040e648 <.idata$7>:
  40e648:	28 e0                	sub    al,ah
	...

0040e64c <.idata$7>:
  40e64c:	28 e0                	sub    al,ah
	...

0040e650 <.idata$7>:
  40e650:	28 e0                	sub    al,ah
	...

0040e654 <.idata$7>:
  40e654:	28 e0                	sub    al,ah
	...

0040e658 <.idata$7>:
  40e658:	28 e0                	sub    al,ah
	...

0040e65c <.idata$7>:
  40e65c:	28 e0                	sub    al,ah
	...

0040e660 <.idata$7>:
  40e660:	28 e0                	sub    al,ah
	...

0040e664 <.idata$7>:
  40e664:	28 e0                	sub    al,ah
	...

0040e668 <__libmsvcrt_a_iname>:
  40e668:	6d                   	ins    DWORD PTR es:[edi],dx
  40e669:	73 76                	jae    40e6e1 <__libmsvcrt_a_iname+0x79>
  40e66b:	63 72 74             	arpl   WORD PTR [edx+0x74],si
  40e66e:	2e 64 6c             	cs fs ins BYTE PTR es:[edi],dx
  40e671:	6c                   	ins    BYTE PTR es:[edi],dx
	...

Disassembly of section .CRT:

0040f000 <___crt_xc_end__>:
  40f000:	00 00                	add    BYTE PTR [eax],al
	...

0040f004 <___xl_c>:
  40f004:	60                   	pusha  
  40f005:	19 40 00             	sbb    DWORD PTR [eax+0x0],eax

0040f008 <___xl_d>:
  40f008:	10 19                	adc    BYTE PTR [ecx],bl
  40f00a:	40                   	inc    eax
	...

0040f00c <___xl_z>:
  40f00c:	00 00                	add    BYTE PTR [eax],al
	...

0040f010 <___crt_xp_end__>:
  40f010:	00 00                	add    BYTE PTR [eax],al
	...

0040f014 <___xd_z>:
  40f014:	00 00                	add    BYTE PTR [eax],al
	...

Disassembly of section .tls:

00410000 <___tls_start__>:
  410000:	00 00                	add    BYTE PTR [eax],al
	...

00410004 <__tls_used>:
  410004:	01 00                	add    DWORD PTR [eax],eax
  410006:	41                   	inc    ecx
  410007:	00 1c 00             	add    BYTE PTR [eax+eax*1],bl
  41000a:	41                   	inc    ecx
  41000b:	00 38                	add    BYTE PTR [eax],bh
  41000d:	d0 40 00             	rol    BYTE PTR [eax+0x0],1
  410010:	04 f0                	add    al,0xf0
  410012:	40                   	inc    eax
	...

0041001c <__tls_end>:
  41001c:	00 00                	add    BYTE PTR [eax],al
	...

Disassembly of section .debug_aranges:

00411000 <.debug_aranges>:
  411000:	1c 00                	sbb    al,0x0
  411002:	00 00                	add    BYTE PTR [eax],al
  411004:	02 00                	add    al,BYTE PTR [eax]
  411006:	00 00                	add    BYTE PTR [eax],al
  411008:	00 00                	add    BYTE PTR [eax],al
  41100a:	04 00                	add    al,0x0
  41100c:	00 00                	add    BYTE PTR [eax],al
  41100e:	00 00                	add    BYTE PTR [eax],al
  411010:	e0 13                	loopne 411025 <.debug_aranges+0x25>
  411012:	40                   	inc    eax
  411013:	00 8a 00 00 00 00    	add    BYTE PTR [edx+0x0],cl
  411019:	00 00                	add    BYTE PTR [eax],al
  41101b:	00 00                	add    BYTE PTR [eax],al
  41101d:	00 00                	add    BYTE PTR [eax],al
	...

Disassembly of section .debug_info:

00412000 <.debug_info>:
  412000:	06                   	push   es
  412001:	02 00                	add    al,BYTE PTR [eax]
  412003:	00 04 00             	add    BYTE PTR [eax+eax*1],al
  412006:	00 00                	add    BYTE PTR [eax],al
  412008:	00 00                	add    BYTE PTR [eax],al
  41200a:	04 01                	add    al,0x1
  41200c:	47                   	inc    edi
  41200d:	4e                   	dec    esi
  41200e:	55                   	push   ebp
  41200f:	20 43 20             	and    BYTE PTR [ebx+0x20],al
  412012:	34 2e                	xor    al,0x2e
  412014:	38 2e                	cmp    BYTE PTR [esi],ch
  412016:	31 20                	xor    DWORD PTR [eax],esp
  412018:	2d 6d 74 75 6e       	sub    eax,0x6e75746d
  41201d:	65 3d 67 65 6e 65    	gs cmp eax,0x656e6567
  412023:	72 69                	jb     41208e <.debug_info+0x8e>
  412025:	63 20                	arpl   WORD PTR [eax],sp
  412027:	2d 6d 61 72 63       	sub    eax,0x6372616d
  41202c:	68 3d 70 65 6e       	push   0x6e65703d
  412031:	74 69                	je     41209c <.debug_info+0x9c>
  412033:	75 6d                	jne    4120a2 <.debug_info+0xa2>
  412035:	70 72                	jo     4120a9 <.debug_info+0xa9>
  412037:	6f                   	outs   dx,DWORD PTR ds:[esi]
  412038:	20 2d 67 00 01 6d    	and    BYTE PTR ds:0x6d010067,ch
  41203e:	61                   	popa   
  41203f:	69 6e 2e 63 00 45 3a 	imul   ebp,DWORD PTR [esi+0x2e],0x3a450063
  412046:	5c                   	pop    esp
  412047:	53                   	push   ebx
  412048:	6f                   	outs   dx,DWORD PTR ds:[esi]
  412049:	75 72                	jne    4120bd <.debug_info+0xbd>
  41204b:	63 65 5c             	arpl   WORD PTR [ebp+0x5c],sp
  41204e:	47                   	inc    edi
  41204f:	69 74 48 75 62 5c 73 	imul   esi,DWORD PTR [eax+ecx*2+0x75],0x74735c62
  412056:	74 
  412057:	75 64                	jne    4120bd <.debug_info+0xbd>
  412059:	79 69                	jns    4120c4 <.debug_info+0xc4>
  41205b:	6e                   	outs   dx,BYTE PTR ds:[esi]
  41205c:	67 5c                	addr16 pop esp
  41205e:	32 30                	xor    dh,BYTE PTR [eax]
  412060:	31 37                	xor    DWORD PTR [edi],esi
  412062:	5f                   	pop    edi
  412063:	30 34 5c             	xor    BYTE PTR [esp+ebx*2],dh
  412066:	61                   	popa   
  412067:	73 6d                	jae    4120d6 <.debug_info+0xd6>
  412069:	5f                   	pop    edi
  41206a:	30 32                	xor    BYTE PTR [edx],dh
  41206c:	00 e0                	add    al,ah
  41206e:	13 40 00             	adc    eax,DWORD PTR [eax+0x0]
  412071:	8a 00                	mov    al,BYTE PTR [eax]
  412073:	00 00                	add    BYTE PTR [eax],al
  412075:	00 00                	add    BYTE PTR [eax],al
  412077:	00 00                	add    BYTE PTR [eax],al
  412079:	02 04 07             	add    al,BYTE PTR [edi+eax*1]
  41207c:	75 6e                	jne    4120ec <.debug_info+0xec>
  41207e:	73 69                	jae    4120e9 <.debug_info+0xe9>
  412080:	67 6e                	outs   dx,BYTE PTR ds:[si]
  412082:	65 64 20 69 6e       	gs and BYTE PTR fs:[ecx+0x6e],ch
  412087:	74 00                	je     412089 <.debug_info+0x89>
  412089:	02 02                	add    al,BYTE PTR [edx]
  41208b:	07                   	pop    es
  41208c:	73 68                	jae    4120f6 <.debug_info+0xf6>
  41208e:	6f                   	outs   dx,DWORD PTR ds:[esi]
  41208f:	72 74                	jb     412105 <.debug_info+0x105>
  412091:	20 75 6e             	and    BYTE PTR [ebp+0x6e],dh
  412094:	73 69                	jae    4120ff <.debug_info+0xff>
  412096:	67 6e                	outs   dx,BYTE PTR ds:[si]
  412098:	65 64 20 69 6e       	gs and BYTE PTR fs:[ecx+0x6e],ch
  41209d:	74 00                	je     41209f <.debug_info+0x9f>
  41209f:	02 01                	add    al,BYTE PTR [ecx]
  4120a1:	06                   	push   es
  4120a2:	63 68 61             	arpl   WORD PTR [eax+0x61],bp
  4120a5:	72 00                	jb     4120a7 <.debug_info+0xa7>
  4120a7:	03 5f 69             	add    ebx,DWORD PTR [edi+0x69]
  4120aa:	6f                   	outs   dx,DWORD PTR ds:[esi]
  4120ab:	62 75 66             	bound  esi,QWORD PTR [ebp+0x66]
  4120ae:	00 20                	add    BYTE PTR [eax],ah
  4120b0:	02 82 2e 01 00 00    	add    al,BYTE PTR [edx+0x12e]
  4120b6:	04 5f                	add    al,0x5f
  4120b8:	70 74                	jo     41212e <.debug_info+0x12e>
  4120ba:	72 00                	jb     4120bc <.debug_info+0xbc>
  4120bc:	02 84 2e 01 00 00 00 	add    al,BYTE PTR [esi+ebp*1+0x1]
  4120c3:	04 5f                	add    al,0x5f
  4120c5:	63 6e 74             	arpl   WORD PTR [esi+0x74],bp
  4120c8:	00 02                	add    BYTE PTR [edx],al
  4120ca:	85 34 01             	test   DWORD PTR [ecx+eax*1],esi
  4120cd:	00 00                	add    BYTE PTR [eax],al
  4120cf:	04 04                	add    al,0x4
  4120d1:	5f                   	pop    edi
  4120d2:	62 61 73             	bound  esp,QWORD PTR [ecx+0x73]
  4120d5:	65 00 02             	add    BYTE PTR gs:[edx],al
  4120d8:	86 2e                	xchg   BYTE PTR [esi],ch
  4120da:	01 00                	add    DWORD PTR [eax],eax
  4120dc:	00 08                	add    BYTE PTR [eax],cl
  4120de:	04 5f                	add    al,0x5f
  4120e0:	66 6c                	data16 ins BYTE PTR es:[edi],dx
  4120e2:	61                   	popa   
  4120e3:	67 00 02             	add    BYTE PTR [bp+si],al
  4120e6:	87 34 01             	xchg   DWORD PTR [ecx+eax*1],esi
  4120e9:	00 00                	add    BYTE PTR [eax],al
  4120eb:	0c 04                	or     al,0x4
  4120ed:	5f                   	pop    edi
  4120ee:	66 69 6c 65 00 02 88 	imul   bp,WORD PTR [ebp+eiz*2+0x0],0x8802
  4120f5:	34 01                	xor    al,0x1
  4120f7:	00 00                	add    BYTE PTR [eax],al
  4120f9:	10 04 5f             	adc    BYTE PTR [edi+ebx*2],al
  4120fc:	63 68 61             	arpl   WORD PTR [eax+0x61],bp
  4120ff:	72 62                	jb     412163 <.debug_info+0x163>
  412101:	75 66                	jne    412169 <.debug_info+0x169>
  412103:	00 02                	add    BYTE PTR [edx],al
  412105:	89 34 01             	mov    DWORD PTR [ecx+eax*1],esi
  412108:	00 00                	add    BYTE PTR [eax],al
  41210a:	14 04                	adc    al,0x4
  41210c:	5f                   	pop    edi
  41210d:	62 75 66             	bound  esi,QWORD PTR [ebp+0x66]
  412110:	73 69                	jae    41217b <.debug_info+0x17b>
  412112:	7a 00                	jp     412114 <.debug_info+0x114>
  412114:	02 8a 34 01 00 00    	add    cl,BYTE PTR [edx+0x134]
  41211a:	18 04 5f             	sbb    BYTE PTR [edi+ebx*2],al
  41211d:	74 6d                	je     41218c <.debug_info+0x18c>
  41211f:	70 66                	jo     412187 <.debug_info+0x187>
  412121:	6e                   	outs   dx,BYTE PTR ds:[esi]
  412122:	61                   	popa   
  412123:	6d                   	ins    DWORD PTR es:[edi],dx
  412124:	65 00 02             	add    BYTE PTR gs:[edx],al
  412127:	8b 2e                	mov    ebp,DWORD PTR [esi]
  412129:	01 00                	add    DWORD PTR [eax],eax
  41212b:	00 1c 00             	add    BYTE PTR [eax+eax*1],bl
  41212e:	05 04 9f 00 00       	add    eax,0x9f04
  412133:	00 02                	add    BYTE PTR [edx],al
  412135:	04 05                	add    al,0x5
  412137:	69 6e 74 00 06 46 49 	imul   ebp,DWORD PTR [esi+0x74],0x49460600
  41213e:	4c                   	dec    esp
  41213f:	45                   	inc    ebp
  412140:	00 02                	add    BYTE PTR [edx],al
  412142:	8c a7 00 00 00 02    	mov    WORD PTR [edi+0x2000000],fs
  412148:	08 05 6c 6f 6e 67    	or     BYTE PTR ds:0x676e6f6c,al
  41214e:	20 6c 6f 6e          	and    BYTE PTR [edi+ebp*2+0x6e],ch
  412152:	67 20 69 6e          	and    BYTE PTR [bx+di+0x6e],ch
  412156:	74 00                	je     412158 <.debug_info+0x158>
  412158:	02 04 05 6c 6f 6e 67 	add    al,BYTE PTR [eax*1+0x676e6f6c]
  41215f:	20 69 6e             	and    BYTE PTR [ecx+0x6e],ch
  412162:	74 00                	je     412164 <.debug_info+0x164>
  412164:	02 02                	add    al,BYTE PTR [edx]
  412166:	05 73 68 6f 72       	add    eax,0x726f6873
  41216b:	74 20                	je     41218d <.debug_info+0x18d>
  41216d:	69 6e 74 00 02 04 07 	imul   ebp,DWORD PTR [esi+0x74],0x7040200
  412174:	6c                   	ins    BYTE PTR es:[edi],dx
  412175:	6f                   	outs   dx,DWORD PTR ds:[esi]
  412176:	6e                   	outs   dx,BYTE PTR ds:[esi]
  412177:	67 20 75 6e          	and    BYTE PTR [di+0x6e],dh
  41217b:	73 69                	jae    4121e6 <.debug_info+0x1e6>
  41217d:	67 6e                	outs   dx,BYTE PTR ds:[si]
  41217f:	65 64 20 69 6e       	gs and BYTE PTR fs:[ecx+0x6e],ch
  412184:	74 00                	je     412186 <.debug_info+0x186>
  412186:	07                   	pop    es
  412187:	6d                   	ins    DWORD PTR es:[edi],dx
  412188:	61                   	popa   
  412189:	69 6e 00 01 04 34 01 	imul   ebp,DWORD PTR [esi+0x0],0x1340401
  412190:	00 00                	add    BYTE PTR [eax],al
  412192:	e0 13                	loopne 4121a7 <.debug_info+0x1a7>
  412194:	40                   	inc    eax
  412195:	00 8a 00 00 00 01    	add    BYTE PTR [edx+0x1000000],cl
  41219b:	9c                   	pushf  
  41219c:	d6                   	(bad)  
  41219d:	01 00                	add    DWORD PTR [eax],eax
  41219f:	00 08                	add    BYTE PTR [eax],cl
  4121a1:	73 74                	jae    412217 <.debug_info+0x217>
  4121a3:	72 5f                	jb     412204 <.debug_info+0x204>
  4121a5:	61                   	popa   
  4121a6:	00 01                	add    BYTE PTR [ecx],al
  4121a8:	05 d6 01 00 00       	add    eax,0x1d6
  4121ad:	02 74 14 08          	add    dh,BYTE PTR [esp+edx*1+0x8]
  4121b1:	70 6f                	jo     412222 <.debug_info+0x222>
  4121b3:	69 6e 74 65 72 00 01 	imul   ebp,DWORD PTR [esi+0x74],0x1007265
  4121ba:	06                   	push   es
  4121bb:	2e 01 00             	add    DWORD PTR cs:[eax],eax
  4121be:	00 02                	add    BYTE PTR [edx],al
  4121c0:	74 2c                	je     4121ee <.debug_info+0x1ee>
  4121c2:	08 70 6f             	or     BYTE PTR [eax+0x6f],dh
  4121c5:	69 6e 74 65 72 32 00 	imul   ebp,DWORD PTR [esi+0x74],0x327265
  4121cc:	01 07                	add    DWORD PTR [edi],eax
  4121ce:	2e 01 00             	add    DWORD PTR cs:[eax],eax
  4121d1:	00 02                	add    BYTE PTR [edx],al
  4121d3:	74 28                	je     4121fd <.debug_info+0x1fd>
  4121d5:	00 09                	add    BYTE PTR [ecx],cl
  4121d7:	9f                   	lahf   
  4121d8:	00 00                	add    BYTE PTR [eax],al
  4121da:	00 e6                	add    dh,ah
  4121dc:	01 00                	add    DWORD PTR [eax],eax
  4121de:	00 0a                	add    BYTE PTR [edx],cl
  4121e0:	e6 01                	out    0x1,al
  4121e2:	00 00                	add    BYTE PTR [eax],al
  4121e4:	13 00                	adc    eax,DWORD PTR [eax]
  4121e6:	02 04 07             	add    al,BYTE PTR [edi+eax*1]
  4121e9:	73 69                	jae    412254 <.debug_info+0x254>
  4121eb:	7a 65                	jp     412252 <.debug_info+0x252>
  4121ed:	74 79                	je     412268 <.debug_info+0x268>
  4121ef:	70 65                	jo     412256 <.debug_info+0x256>
  4121f1:	00 09                	add    BYTE PTR [ecx],cl
  4121f3:	3b 01                	cmp    eax,DWORD PTR [ecx]
  4121f5:	00 00                	add    BYTE PTR [eax],al
  4121f7:	fd                   	std    
  4121f8:	01 00                	add    DWORD PTR [eax],eax
  4121fa:	00 0b                	add    BYTE PTR [ebx],cl
  4121fc:	00 0c 5f             	add    BYTE PTR [edi+ebx*2],cl
  4121ff:	69 6f 62 00 02 9b f2 	imul   ebp,DWORD PTR [edi+0x62],0xf29b0200
  412206:	01 00                	add    DWORD PTR [eax],eax
	...

Disassembly of section .debug_abbrev:

00413000 <.debug_abbrev>:
  413000:	01 11                	add    DWORD PTR [ecx],edx
  413002:	01 25 08 13 0b 03    	add    DWORD PTR ds:0x30b1308,esp
  413008:	08 1b                	or     BYTE PTR [ebx],bl
  41300a:	08 11                	or     BYTE PTR [ecx],dl
  41300c:	01 12                	add    DWORD PTR [edx],edx
  41300e:	06                   	push   es
  41300f:	10 17                	adc    BYTE PTR [edi],dl
  413011:	00 00                	add    BYTE PTR [eax],al
  413013:	02 24 00             	add    ah,BYTE PTR [eax+eax*1]
  413016:	0b 0b                	or     ecx,DWORD PTR [ebx]
  413018:	3e 0b 03             	or     eax,DWORD PTR ds:[ebx]
  41301b:	08 00                	or     BYTE PTR [eax],al
  41301d:	00 03                	add    BYTE PTR [ebx],al
  41301f:	13 01                	adc    eax,DWORD PTR [ecx]
  413021:	03 08                	add    ecx,DWORD PTR [eax]
  413023:	0b 0b                	or     ecx,DWORD PTR [ebx]
  413025:	3a 0b                	cmp    cl,BYTE PTR [ebx]
  413027:	3b 0b                	cmp    ecx,DWORD PTR [ebx]
  413029:	01 13                	add    DWORD PTR [ebx],edx
  41302b:	00 00                	add    BYTE PTR [eax],al
  41302d:	04 0d                	add    al,0xd
  41302f:	00 03                	add    BYTE PTR [ebx],al
  413031:	08 3a                	or     BYTE PTR [edx],bh
  413033:	0b 3b                	or     edi,DWORD PTR [ebx]
  413035:	0b 49 13             	or     ecx,DWORD PTR [ecx+0x13]
  413038:	38 0b                	cmp    BYTE PTR [ebx],cl
  41303a:	00 00                	add    BYTE PTR [eax],al
  41303c:	05 0f 00 0b 0b       	add    eax,0xb0b000f
  413041:	49                   	dec    ecx
  413042:	13 00                	adc    eax,DWORD PTR [eax]
  413044:	00 06                	add    BYTE PTR [esi],al
  413046:	16                   	push   ss
  413047:	00 03                	add    BYTE PTR [ebx],al
  413049:	08 3a                	or     BYTE PTR [edx],bh
  41304b:	0b 3b                	or     edi,DWORD PTR [ebx]
  41304d:	0b 49 13             	or     ecx,DWORD PTR [ecx+0x13]
  413050:	00 00                	add    BYTE PTR [eax],al
  413052:	07                   	pop    es
  413053:	2e 01 3f             	add    DWORD PTR cs:[edi],edi
  413056:	19 03                	sbb    DWORD PTR [ebx],eax
  413058:	08 3a                	or     BYTE PTR [edx],bh
  41305a:	0b 3b                	or     edi,DWORD PTR [ebx]
  41305c:	0b 27                	or     esp,DWORD PTR [edi]
  41305e:	19 49 13             	sbb    DWORD PTR [ecx+0x13],ecx
  413061:	11 01                	adc    DWORD PTR [ecx],eax
  413063:	12 06                	adc    al,BYTE PTR [esi]
  413065:	40                   	inc    eax
  413066:	18 96 42 19 01 13    	sbb    BYTE PTR [esi+0x13011942],dl
  41306c:	00 00                	add    BYTE PTR [eax],al
  41306e:	08 34 00             	or     BYTE PTR [eax+eax*1],dh
  413071:	03 08                	add    ecx,DWORD PTR [eax]
  413073:	3a 0b                	cmp    cl,BYTE PTR [ebx]
  413075:	3b 0b                	cmp    ecx,DWORD PTR [ebx]
  413077:	49                   	dec    ecx
  413078:	13 02                	adc    eax,DWORD PTR [edx]
  41307a:	18 00                	sbb    BYTE PTR [eax],al
  41307c:	00 09                	add    BYTE PTR [ecx],cl
  41307e:	01 01                	add    DWORD PTR [ecx],eax
  413080:	49                   	dec    ecx
  413081:	13 01                	adc    eax,DWORD PTR [ecx]
  413083:	13 00                	adc    eax,DWORD PTR [eax]
  413085:	00 0a                	add    BYTE PTR [edx],cl
  413087:	21 00                	and    DWORD PTR [eax],eax
  413089:	49                   	dec    ecx
  41308a:	13 2f                	adc    ebp,DWORD PTR [edi]
  41308c:	0b 00                	or     eax,DWORD PTR [eax]
  41308e:	00 0b                	add    BYTE PTR [ebx],cl
  413090:	21 00                	and    DWORD PTR [eax],eax
  413092:	00 00                	add    BYTE PTR [eax],al
  413094:	0c 34                	or     al,0x34
  413096:	00 03                	add    BYTE PTR [ebx],al
  413098:	08 3a                	or     BYTE PTR [edx],bh
  41309a:	0b 3b                	or     edi,DWORD PTR [ebx]
  41309c:	0b 49 13             	or     ecx,DWORD PTR [ecx+0x13]
  41309f:	3f                   	aas    
  4130a0:	19 3c 19             	sbb    DWORD PTR [ecx+ebx*1],edi
  4130a3:	00 00                	add    BYTE PTR [eax],al
	...

Disassembly of section .debug_line:

00414000 <.debug_line>:
  414000:	59                   	pop    ecx
  414001:	00 00                	add    BYTE PTR [eax],al
  414003:	00 02                	add    BYTE PTR [edx],al
  414005:	00 39                	add    BYTE PTR [ecx],bh
  414007:	00 00                	add    BYTE PTR [eax],al
  414009:	00 01                	add    BYTE PTR [ecx],al
  41400b:	01 fb                	add    ebx,edi
  41400d:	0e                   	push   cs
  41400e:	0d 00 01 01 01       	or     eax,0x1010100
  414013:	01 00                	add    DWORD PTR [eax],eax
  414015:	00 00                	add    BYTE PTR [eax],al
  414017:	01 00                	add    DWORD PTR [eax],eax
  414019:	00 01                	add    BYTE PTR [ecx],al
  41401b:	63 3a                	arpl   WORD PTR [edx],di
  41401d:	2f                   	das    
  41401e:	6d                   	ins    DWORD PTR es:[edi],dx
  41401f:	69 6e 67 77 2f 69 6e 	imul   ebp,DWORD PTR [esi+0x67],0x6e692f77
  414026:	63 6c 75 64          	arpl   WORD PTR [ebp+esi*2+0x64],bp
  41402a:	65 00 00             	add    BYTE PTR gs:[eax],al
  41402d:	6d                   	ins    DWORD PTR es:[edi],dx
  41402e:	61                   	popa   
  41402f:	69 6e 2e 63 00 00 00 	imul   ebp,DWORD PTR [esi+0x2e],0x63
  414036:	00 73 74             	add    BYTE PTR [ebx+0x74],dh
  414039:	64 69 6f 2e 68 00 01 	imul   ebp,DWORD PTR fs:[edi+0x2e],0x10068
  414040:	00 
  414041:	00 00                	add    BYTE PTR [eax],al
  414043:	00 05 02 e0 13 40    	add    BYTE PTR ds:0x4013e002,al
  414049:	00 15 90 5d 02 22    	add    BYTE PTR ds:0x22025d90,dl
  41404f:	13 83 bc ad bb 08    	adc    eax,DWORD PTR [ebx+0x8bbadbc]
  414055:	ad                   	lods   eax,DWORD PTR ds:[esi]
  414056:	bc 59 02 02 00       	mov    esp,0x20259
  41405b:	01 01                	add    DWORD PTR [ecx],eax
