
main.exe:     file format pei-i386


Disassembly of section .text:

00401000 <__gnu_exception_handler@4>:
  401000:	53                   	push   ebx
  401001:	83 ec 18             	sub    esp,0x18
  401004:	8b 44 24 20          	mov    eax,DWORD PTR [esp+0x20]
  401008:	8b 00                	mov    eax,DWORD PTR [eax]
  40100a:	8b 00                	mov    eax,DWORD PTR [eax]
  40100c:	3d 91 00 00 c0       	cmp    eax,0xc0000091
  401011:	77 4d                	ja     401060 <__gnu_exception_handler@4+0x60>
  401013:	3d 8d 00 00 c0       	cmp    eax,0xc000008d
  401018:	73 5b                	jae    401075 <__gnu_exception_handler@4+0x75>
  40101a:	3d 05 00 00 c0       	cmp    eax,0xc0000005
  40101f:	0f 85 8e 00 00 00    	jne    4010b3 <__gnu_exception_handler@4+0xb3>
  401025:	c7 44 24 04 00 00 00 	mov    DWORD PTR [esp+0x4],0x0
  40102c:	00 
  40102d:	c7 04 24 0b 00 00 00 	mov    DWORD PTR [esp],0xb
  401034:	e8 5f 6f 00 00       	call   407f98 <_signal>
  401039:	83 f8 01             	cmp    eax,0x1
  40103c:	0f 84 c1 00 00 00    	je     401103 <__gnu_exception_handler@4+0x103>
  401042:	85 c0                	test   eax,eax
  401044:	0f 85 a6 00 00 00    	jne    4010f0 <__gnu_exception_handler@4+0xf0>
  40104a:	8d b6 00 00 00 00    	lea    esi,[esi+0x0]
  401050:	31 c0                	xor    eax,eax
  401052:	83 c4 18             	add    esp,0x18
  401055:	5b                   	pop    ebx
  401056:	c2 04 00             	ret    0x4
  401059:	8d b4 26 00 00 00 00 	lea    esi,[esi+eiz*1+0x0]
  401060:	3d 94 00 00 c0       	cmp    eax,0xc0000094
  401065:	74 19                	je     401080 <__gnu_exception_handler@4+0x80>
  401067:	3d 96 00 00 c0       	cmp    eax,0xc0000096
  40106c:	74 4c                	je     4010ba <__gnu_exception_handler@4+0xba>
  40106e:	3d 93 00 00 c0       	cmp    eax,0xc0000093
  401073:	75 db                	jne    401050 <__gnu_exception_handler@4+0x50>
  401075:	bb 01 00 00 00       	mov    ebx,0x1
  40107a:	eb 06                	jmp    401082 <__gnu_exception_handler@4+0x82>
  40107c:	8d 74 26 00          	lea    esi,[esi+eiz*1+0x0]
  401080:	31 db                	xor    ebx,ebx
  401082:	c7 44 24 04 00 00 00 	mov    DWORD PTR [esp+0x4],0x0
  401089:	00 
  40108a:	c7 04 24 08 00 00 00 	mov    DWORD PTR [esp],0x8
  401091:	e8 02 6f 00 00       	call   407f98 <_signal>
  401096:	83 f8 01             	cmp    eax,0x1
  401099:	0f 84 a1 00 00 00    	je     401140 <__gnu_exception_handler@4+0x140>
  40109f:	85 c0                	test   eax,eax
  4010a1:	74 ad                	je     401050 <__gnu_exception_handler@4+0x50>
  4010a3:	c7 04 24 08 00 00 00 	mov    DWORD PTR [esp],0x8
  4010aa:	ff d0                	call   eax
  4010ac:	b8 ff ff ff ff       	mov    eax,0xffffffff
  4010b1:	eb 9f                	jmp    401052 <__gnu_exception_handler@4+0x52>
  4010b3:	3d 1d 00 00 c0       	cmp    eax,0xc000001d
  4010b8:	75 96                	jne    401050 <__gnu_exception_handler@4+0x50>
  4010ba:	c7 44 24 04 00 00 00 	mov    DWORD PTR [esp+0x4],0x0
  4010c1:	00 
  4010c2:	c7 04 24 04 00 00 00 	mov    DWORD PTR [esp],0x4
  4010c9:	e8 ca 6e 00 00       	call   407f98 <_signal>
  4010ce:	83 f8 01             	cmp    eax,0x1
  4010d1:	74 4c                	je     40111f <__gnu_exception_handler@4+0x11f>
  4010d3:	85 c0                	test   eax,eax
  4010d5:	0f 84 75 ff ff ff    	je     401050 <__gnu_exception_handler@4+0x50>
  4010db:	c7 04 24 04 00 00 00 	mov    DWORD PTR [esp],0x4
  4010e2:	ff d0                	call   eax
  4010e4:	b8 ff ff ff ff       	mov    eax,0xffffffff
  4010e9:	e9 64 ff ff ff       	jmp    401052 <__gnu_exception_handler@4+0x52>
  4010ee:	66 90                	xchg   ax,ax
  4010f0:	c7 04 24 0b 00 00 00 	mov    DWORD PTR [esp],0xb
  4010f7:	ff d0                	call   eax
  4010f9:	b8 ff ff ff ff       	mov    eax,0xffffffff
  4010fe:	e9 4f ff ff ff       	jmp    401052 <__gnu_exception_handler@4+0x52>
  401103:	c7 44 24 04 01 00 00 	mov    DWORD PTR [esp+0x4],0x1
  40110a:	00 
  40110b:	c7 04 24 0b 00 00 00 	mov    DWORD PTR [esp],0xb
  401112:	e8 81 6e 00 00       	call   407f98 <_signal>
  401117:	83 c8 ff             	or     eax,0xffffffff
  40111a:	e9 33 ff ff ff       	jmp    401052 <__gnu_exception_handler@4+0x52>
  40111f:	c7 44 24 04 01 00 00 	mov    DWORD PTR [esp+0x4],0x1
  401126:	00 
  401127:	c7 04 24 04 00 00 00 	mov    DWORD PTR [esp],0x4
  40112e:	e8 65 6e 00 00       	call   407f98 <_signal>
  401133:	83 c8 ff             	or     eax,0xffffffff
  401136:	e9 17 ff ff ff       	jmp    401052 <__gnu_exception_handler@4+0x52>
  40113b:	90                   	nop
  40113c:	8d 74 26 00          	lea    esi,[esi+eiz*1+0x0]
  401140:	c7 44 24 04 01 00 00 	mov    DWORD PTR [esp+0x4],0x1
  401147:	00 
  401148:	c7 04 24 08 00 00 00 	mov    DWORD PTR [esp],0x8
  40114f:	e8 44 6e 00 00       	call   407f98 <_signal>
  401154:	85 db                	test   ebx,ebx
  401156:	b8 ff ff ff ff       	mov    eax,0xffffffff
  40115b:	0f 84 f1 fe ff ff    	je     401052 <__gnu_exception_handler@4+0x52>
  401161:	89 44 24 0c          	mov    DWORD PTR [esp+0xc],eax
  401165:	e8 f6 06 00 00       	call   401860 <__fpreset>
  40116a:	8b 44 24 0c          	mov    eax,DWORD PTR [esp+0xc]
  40116e:	e9 df fe ff ff       	jmp    401052 <__gnu_exception_handler@4+0x52>
  401173:	8d b6 00 00 00 00    	lea    esi,[esi+0x0]
  401179:	8d bc 27 00 00 00 00 	lea    edi,[edi+eiz*1+0x0]

00401180 <___mingw_CRTStartup>:
  401180:	55                   	push   ebp
  401181:	89 e5                	mov    ebp,esp
  401183:	53                   	push   ebx
  401184:	83 ec 14             	sub    esp,0x14
  401187:	a1 64 a0 40 00       	mov    eax,ds:0x40a064
  40118c:	85 c0                	test   eax,eax
  40118e:	74 1c                	je     4011ac <___mingw_CRTStartup+0x2c>
  401190:	c7 44 24 08 00 00 00 	mov    DWORD PTR [esp+0x8],0x0
  401197:	00 
  401198:	c7 44 24 04 02 00 00 	mov    DWORD PTR [esp+0x4],0x2
  40119f:	00 
  4011a0:	c7 04 24 00 00 00 00 	mov    DWORD PTR [esp],0x0
  4011a7:	ff d0                	call   eax
  4011a9:	83 ec 0c             	sub    esp,0xc
  4011ac:	c7 04 24 00 10 40 00 	mov    DWORD PTR [esp],0x401000
  4011b3:	e8 c0 6e 00 00       	call   408078 <_SetUnhandledExceptionFilter@4>
  4011b8:	83 ec 04             	sub    esp,0x4
  4011bb:	e8 c0 05 00 00       	call   401780 <___cpu_features_init>
  4011c0:	e8 9b 06 00 00       	call   401860 <__fpreset>
  4011c5:	e8 a6 02 00 00       	call   401470 <__setargv>
  4011ca:	a1 20 d0 40 00       	mov    eax,ds:0x40d020
  4011cf:	85 c0                	test   eax,eax
  4011d1:	74 42                	je     401215 <___mingw_CRTStartup+0x95>
  4011d3:	8b 1d c8 e1 40 00    	mov    ebx,DWORD PTR ds:0x40e1c8
  4011d9:	a3 04 90 40 00       	mov    ds:0x409004,eax
  4011de:	89 44 24 04          	mov    DWORD PTR [esp+0x4],eax
  4011e2:	8b 43 10             	mov    eax,DWORD PTR [ebx+0x10]
  4011e5:	89 04 24             	mov    DWORD PTR [esp],eax
  4011e8:	e8 2b 6e 00 00       	call   408018 <__setmode>
  4011ed:	a1 20 d0 40 00       	mov    eax,ds:0x40d020
  4011f2:	89 44 24 04          	mov    DWORD PTR [esp+0x4],eax
  4011f6:	8b 43 30             	mov    eax,DWORD PTR [ebx+0x30]
  4011f9:	89 04 24             	mov    DWORD PTR [esp],eax
  4011fc:	e8 17 6e 00 00       	call   408018 <__setmode>
  401201:	a1 20 d0 40 00       	mov    eax,ds:0x40d020
  401206:	89 44 24 04          	mov    DWORD PTR [esp+0x4],eax
  40120a:	8b 43 50             	mov    eax,DWORD PTR [ebx+0x50]
  40120d:	89 04 24             	mov    DWORD PTR [esp],eax
  401210:	e8 03 6e 00 00       	call   408018 <__setmode>
  401215:	e8 1e 6e 00 00       	call   408038 <___p__fmode>
  40121a:	8b 15 04 90 40 00    	mov    edx,DWORD PTR ds:0x409004
  401220:	89 10                	mov    DWORD PTR [eax],edx
  401222:	e8 59 0b 00 00       	call   401d80 <__pei386_runtime_relocator>
  401227:	83 e4 f0             	and    esp,0xfffffff0
  40122a:	e8 c1 06 00 00       	call   4018f0 <___main>
  40122f:	e8 0c 6e 00 00       	call   408040 <___p__environ>
  401234:	8b 00                	mov    eax,DWORD PTR [eax]
  401236:	89 44 24 08          	mov    DWORD PTR [esp+0x8],eax
  40123a:	a1 00 d0 40 00       	mov    eax,ds:0x40d000
  40123f:	89 44 24 04          	mov    DWORD PTR [esp+0x4],eax
  401243:	a1 04 d0 40 00       	mov    eax,ds:0x40d004
  401248:	89 04 24             	mov    DWORD PTR [esp],eax
  40124b:	e8 90 01 00 00       	call   4013e0 <_main>
  401250:	89 c3                	mov    ebx,eax
  401252:	e8 d9 6d 00 00       	call   408030 <__cexit>
  401257:	89 1c 24             	mov    DWORD PTR [esp],ebx
  40125a:	e8 81 6e 00 00       	call   4080e0 <_ExitProcess@4>
  40125f:	90                   	nop

00401260 <__mingw32_init_mainargs>:
  401260:	83 ec 3c             	sub    esp,0x3c
  401263:	8d 44 24 2c          	lea    eax,[esp+0x2c]
  401267:	89 44 24 10          	mov    DWORD PTR [esp+0x10],eax
  40126b:	a1 00 90 40 00       	mov    eax,ds:0x409000
  401270:	c7 44 24 04 00 d0 40 	mov    DWORD PTR [esp+0x4],0x40d000
  401277:	00 
  401278:	c7 04 24 04 d0 40 00 	mov    DWORD PTR [esp],0x40d004
  40127f:	c7 44 24 2c 00 00 00 	mov    DWORD PTR [esp+0x2c],0x0
  401286:	00 
  401287:	83 e0 01             	and    eax,0x1
  40128a:	89 44 24 0c          	mov    DWORD PTR [esp+0xc],eax
  40128e:	8d 44 24 28          	lea    eax,[esp+0x28]
  401292:	89 44 24 08          	mov    DWORD PTR [esp+0x8],eax
  401296:	e8 ad 6d 00 00       	call   408048 <___getmainargs>
  40129b:	83 c4 3c             	add    esp,0x3c
  40129e:	c3                   	ret    
  40129f:	90                   	nop

004012a0 <_mainCRTStartup>:
  4012a0:	83 ec 1c             	sub    esp,0x1c
  4012a3:	c7 04 24 01 00 00 00 	mov    DWORD PTR [esp],0x1
  4012aa:	ff 15 b8 e1 40 00    	call   DWORD PTR ds:0x40e1b8
  4012b0:	e8 cb fe ff ff       	call   401180 <___mingw_CRTStartup>
  4012b5:	8d 74 26 00          	lea    esi,[esi+eiz*1+0x0]
  4012b9:	8d bc 27 00 00 00 00 	lea    edi,[edi+eiz*1+0x0]

004012c0 <_WinMainCRTStartup>:
  4012c0:	83 ec 1c             	sub    esp,0x1c
  4012c3:	c7 04 24 02 00 00 00 	mov    DWORD PTR [esp],0x2
  4012ca:	ff 15 b8 e1 40 00    	call   DWORD PTR ds:0x40e1b8
  4012d0:	e8 ab fe ff ff       	call   401180 <___mingw_CRTStartup>
  4012d5:	8d 74 26 00          	lea    esi,[esi+eiz*1+0x0]
  4012d9:	8d bc 27 00 00 00 00 	lea    edi,[edi+eiz*1+0x0]

004012e0 <_atexit>:
  4012e0:	a1 d8 e1 40 00       	mov    eax,ds:0x40e1d8
  4012e5:	ff e0                	jmp    eax
  4012e7:	89 f6                	mov    esi,esi
  4012e9:	8d bc 27 00 00 00 00 	lea    edi,[edi+eiz*1+0x0]

004012f0 <__onexit>:
  4012f0:	a1 cc e1 40 00       	mov    eax,ds:0x40e1cc
  4012f5:	ff e0                	jmp    eax
  4012f7:	90                   	nop
  4012f8:	90                   	nop
  4012f9:	90                   	nop
  4012fa:	90                   	nop
  4012fb:	90                   	nop
  4012fc:	90                   	nop
  4012fd:	90                   	nop
  4012fe:	90                   	nop
  4012ff:	90                   	nop

00401300 <___gcc_register_frame>:
  401300:	55                   	push   ebp
  401301:	89 e5                	mov    ebp,esp
  401303:	83 ec 18             	sub    esp,0x18
  401306:	c7 04 24 00 a0 40 00 	mov    DWORD PTR [esp],0x40a000
  40130d:	e8 9e 6d 00 00       	call   4080b0 <_GetModuleHandleA@4>
  401312:	ba 00 00 00 00       	mov    edx,0x0
  401317:	83 ec 04             	sub    esp,0x4
  40131a:	85 c0                	test   eax,eax
  40131c:	74 15                	je     401333 <___gcc_register_frame+0x33>
  40131e:	c7 44 24 04 13 a0 40 	mov    DWORD PTR [esp+0x4],0x40a013
  401325:	00 
  401326:	89 04 24             	mov    DWORD PTR [esp],eax
  401329:	e8 7a 6d 00 00       	call   4080a8 <_GetProcAddress@8>
  40132e:	83 ec 08             	sub    esp,0x8
  401331:	89 c2                	mov    edx,eax
  401333:	85 d2                	test   edx,edx
  401335:	74 11                	je     401348 <___gcc_register_frame+0x48>
  401337:	c7 44 24 04 08 d0 40 	mov    DWORD PTR [esp+0x4],0x40d008
  40133e:	00 
  40133f:	c7 04 24 c0 b0 40 00 	mov    DWORD PTR [esp],0x40b0c0
  401346:	ff d2                	call   edx
  401348:	a1 24 90 40 00       	mov    eax,ds:0x409024
  40134d:	85 c0                	test   eax,eax
  40134f:	74 3a                	je     40138b <___gcc_register_frame+0x8b>
  401351:	c7 04 24 29 a0 40 00 	mov    DWORD PTR [esp],0x40a029
  401358:	e8 53 6d 00 00       	call   4080b0 <_GetModuleHandleA@4>
  40135d:	ba 00 00 00 00       	mov    edx,0x0
  401362:	83 ec 04             	sub    esp,0x4
  401365:	85 c0                	test   eax,eax
  401367:	74 15                	je     40137e <___gcc_register_frame+0x7e>
  401369:	c7 44 24 04 37 a0 40 	mov    DWORD PTR [esp+0x4],0x40a037
  401370:	00 
  401371:	89 04 24             	mov    DWORD PTR [esp],eax
  401374:	e8 2f 6d 00 00       	call   4080a8 <_GetProcAddress@8>
  401379:	83 ec 08             	sub    esp,0x8
  40137c:	89 c2                	mov    edx,eax
  40137e:	85 d2                	test   edx,edx
  401380:	74 09                	je     40138b <___gcc_register_frame+0x8b>
  401382:	c7 04 24 24 90 40 00 	mov    DWORD PTR [esp],0x409024
  401389:	ff d2                	call   edx
  40138b:	c9                   	leave  
  40138c:	c3                   	ret    
  40138d:	8d 76 00             	lea    esi,[esi+0x0]

00401390 <___gcc_deregister_frame>:
  401390:	55                   	push   ebp
  401391:	89 e5                	mov    ebp,esp
  401393:	83 ec 18             	sub    esp,0x18
  401396:	c7 04 24 00 a0 40 00 	mov    DWORD PTR [esp],0x40a000
  40139d:	e8 0e 6d 00 00       	call   4080b0 <_GetModuleHandleA@4>
  4013a2:	ba 00 00 00 00       	mov    edx,0x0
  4013a7:	83 ec 04             	sub    esp,0x4
  4013aa:	85 c0                	test   eax,eax
  4013ac:	74 15                	je     4013c3 <___gcc_deregister_frame+0x33>
  4013ae:	c7 44 24 04 4b a0 40 	mov    DWORD PTR [esp+0x4],0x40a04b
  4013b5:	00 
  4013b6:	89 04 24             	mov    DWORD PTR [esp],eax
  4013b9:	e8 ea 6c 00 00       	call   4080a8 <_GetProcAddress@8>
  4013be:	83 ec 08             	sub    esp,0x8
  4013c1:	89 c2                	mov    edx,eax
  4013c3:	85 d2                	test   edx,edx
  4013c5:	74 09                	je     4013d0 <___gcc_deregister_frame+0x40>
  4013c7:	c7 04 24 c0 b0 40 00 	mov    DWORD PTR [esp],0x40b0c0
  4013ce:	ff d2                	call   edx
  4013d0:	c9                   	leave  
  4013d1:	c3                   	ret    
  4013d2:	90                   	nop
  4013d3:	90                   	nop
  4013d4:	90                   	nop
  4013d5:	90                   	nop
  4013d6:	90                   	nop
  4013d7:	90                   	nop
  4013d8:	90                   	nop
  4013d9:	90                   	nop
  4013da:	90                   	nop
  4013db:	90                   	nop
  4013dc:	90                   	nop
  4013dd:	90                   	nop
  4013de:	90                   	nop
  4013df:	90                   	nop

004013e0 <_main>:
  4013e0:	55                   	push   ebp
  4013e1:	89 e5                	mov    ebp,esp
  4013e3:	83 e4 f0             	and    esp,0xfffffff0
  4013e6:	83 ec 30             	sub    esp,0x30
  4013e9:	e8 02 05 00 00       	call   4018f0 <___main>
  4013ee:	8d 44 24 14          	lea    eax,[esp+0x14]
  4013f2:	c7 00 48 65 6c 6c    	mov    DWORD PTR [eax],0x6c6c6548
  4013f8:	c7 40 04 6f 2c 20 57 	mov    DWORD PTR [eax+0x4],0x57202c6f
  4013ff:	c7 40 08 6f 72 6c 64 	mov    DWORD PTR [eax+0x8],0x646c726f
  401406:	66 c7 40 0c 21 0a    	mov    WORD PTR [eax+0xc],0xa21
  40140c:	c6 40 0e 00          	mov    BYTE PTR [eax+0xe],0x0
  401410:	8d 44 24 14          	lea    eax,[esp+0x14]
  401414:	89 44 24 2c          	mov    DWORD PTR [esp+0x2c],eax
  401418:	8b 44 24 2c          	mov    eax,DWORD PTR [esp+0x2c]
  40141c:	89 04 24             	mov    DWORD PTR [esp],eax
  40141f:	e8 8c 6b 00 00       	call   407fb0 <_printf>
  401424:	8b 44 24 2c          	mov    eax,DWORD PTR [esp+0x2c]
  401428:	83 c0 02             	add    eax,0x2
  40142b:	89 44 24 28          	mov    DWORD PTR [esp+0x28],eax
  40142f:	8b 44 24 28          	mov    eax,DWORD PTR [esp+0x28]
  401433:	89 04 24             	mov    DWORD PTR [esp],eax
  401436:	e8 75 6b 00 00       	call   407fb0 <_printf>
  40143b:	8b 44 24 28          	mov    eax,DWORD PTR [esp+0x28]
  40143f:	c7 00 79 20 79 6f    	mov    DWORD PTR [eax],0x6f792079
  401445:	c7 40 04 75 20 67 75 	mov    DWORD PTR [eax+0x4],0x75672075
  40144c:	c7 40 08 79 73 21 0a 	mov    DWORD PTR [eax+0x8],0xa217379
  401453:	c6 40 0c 00          	mov    BYTE PTR [eax+0xc],0x0
  401457:	8b 44 24 2c          	mov    eax,DWORD PTR [esp+0x2c]
  40145b:	89 04 24             	mov    DWORD PTR [esp],eax
  40145e:	e8 4d 6b 00 00       	call   407fb0 <_printf>
  401463:	b8 00 00 00 00       	mov    eax,0x0
  401468:	c9                   	leave  
  401469:	c3                   	ret    
  40146a:	90                   	nop
  40146b:	90                   	nop

0040146c <.text>:
  40146c:	66 90                	xchg   ax,ax
  40146e:	66 90                	xchg   ax,ax

00401470 <__setargv>:
  401470:	55                   	push   ebp
  401471:	89 e5                	mov    ebp,esp
  401473:	57                   	push   edi
  401474:	56                   	push   esi
  401475:	53                   	push   ebx
  401476:	83 ec 4c             	sub    esp,0x4c
  401479:	f6 05 00 90 40 00 02 	test   BYTE PTR ds:0x409000,0x2
  401480:	0f 84 ba 02 00 00    	je     401740 <__setargv+0x2d0>
  401486:	e8 35 6c 00 00       	call   4080c0 <_GetCommandLineA@0>
  40148b:	89 65 c0             	mov    DWORD PTR [ebp-0x40],esp
  40148e:	89 04 24             	mov    DWORD PTR [esp],eax
  401491:	89 c6                	mov    esi,eax
  401493:	e8 e8 6a 00 00       	call   407f80 <_strlen>
  401498:	8d 44 00 11          	lea    eax,[eax+eax*1+0x11]
  40149c:	83 e0 f0             	and    eax,0xfffffff0
  40149f:	e8 bc 0a 00 00       	call   401f60 <___chkstk_ms>
  4014a4:	29 c4                	sub    esp,eax
  4014a6:	8d 44 24 10          	lea    eax,[esp+0x10]
  4014aa:	89 c2                	mov    edx,eax
  4014ac:	89 45 c4             	mov    DWORD PTR [ebp-0x3c],eax
  4014af:	a1 00 90 40 00       	mov    eax,ds:0x409000
  4014b4:	c7 45 e4 00 00 00 00 	mov    DWORD PTR [ebp-0x1c],0x0
  4014bb:	c7 45 d0 00 00 00 00 	mov    DWORD PTR [ebp-0x30],0x0
  4014c2:	c7 45 cc 00 00 00 00 	mov    DWORD PTR [ebp-0x34],0x0
  4014c9:	83 e0 40             	and    eax,0x40
  4014cc:	83 f8 01             	cmp    eax,0x1
  4014cf:	19 c0                	sbb    eax,eax
  4014d1:	89 45 c8             	mov    DWORD PTR [ebp-0x38],eax
  4014d4:	31 c0                	xor    eax,eax
  4014d6:	81 65 c8 00 c0 ff ff 	and    DWORD PTR [ebp-0x38],0xffffc000
  4014dd:	81 45 c8 10 40 00 00 	add    DWORD PTR [ebp-0x38],0x4010
  4014e4:	89 55 d4             	mov    DWORD PTR [ebp-0x2c],edx
  4014e7:	83 c6 01             	add    esi,0x1
  4014ea:	0f b6 5e ff          	movzx  ebx,BYTE PTR [esi-0x1]
  4014ee:	0f be cb             	movsx  ecx,bl
  4014f1:	85 c9                	test   ecx,ecx
  4014f3:	74 7b                	je     401570 <__setargv+0x100>
  4014f5:	80 fb 3f             	cmp    bl,0x3f
  4014f8:	0f 84 13 01 00 00    	je     401611 <__setargv+0x1a1>
  4014fe:	0f 8f ec 00 00 00    	jg     4015f0 <__setargv+0x180>
  401504:	80 fb 27             	cmp    bl,0x27
  401507:	0f 84 e3 01 00 00    	je     4016f0 <__setargv+0x280>
  40150d:	80 fb 2a             	cmp    bl,0x2a
  401510:	0f 84 fb 00 00 00    	je     401611 <__setargv+0x1a1>
  401516:	80 fb 22             	cmp    bl,0x22
  401519:	0f 85 36 01 00 00    	jne    401655 <__setargv+0x1e5>
  40151f:	89 c3                	mov    ebx,eax
  401521:	d1 fb                	sar    ebx,1
  401523:	0f 84 3e 02 00 00    	je     401767 <__setargv+0x2f7>
  401529:	8b 55 d4             	mov    edx,DWORD PTR [ebp-0x2c]
  40152c:	01 d3                	add    ebx,edx
  40152e:	66 90                	xchg   ax,ax
  401530:	83 c2 01             	add    edx,0x1
  401533:	39 da                	cmp    edx,ebx
  401535:	c6 42 ff 5c          	mov    BYTE PTR [edx-0x1],0x5c
  401539:	75 f5                	jne    401530 <__setargv+0xc0>
  40153b:	a8 01                	test   al,0x1
  40153d:	0f 85 93 00 00 00    	jne    4015d6 <__setargv+0x166>
  401543:	83 7d d0 27          	cmp    DWORD PTR [ebp-0x30],0x27
  401547:	0f 84 89 00 00 00    	je     4015d6 <__setargv+0x166>
  40154d:	83 c6 01             	add    esi,0x1
  401550:	31 c0                	xor    eax,eax
  401552:	89 5d d4             	mov    DWORD PTR [ebp-0x2c],ebx
  401555:	0f b6 5e ff          	movzx  ebx,BYTE PTR [esi-0x1]
  401559:	31 4d d0             	xor    DWORD PTR [ebp-0x30],ecx
  40155c:	c7 45 cc 01 00 00 00 	mov    DWORD PTR [ebp-0x34],0x1
  401563:	0f be cb             	movsx  ecx,bl
  401566:	85 c9                	test   ecx,ecx
  401568:	75 8b                	jne    4014f5 <__setargv+0x85>
  40156a:	8d b6 00 00 00 00    	lea    esi,[esi+0x0]
  401570:	85 c0                	test   eax,eax
  401572:	8b 55 d4             	mov    edx,DWORD PTR [ebp-0x2c]
  401575:	0f 84 f4 01 00 00    	je     40176f <__setargv+0x2ff>
  40157b:	01 d0                	add    eax,edx
  40157d:	8d 76 00             	lea    esi,[esi+0x0]
  401580:	83 c2 01             	add    edx,0x1
  401583:	39 c2                	cmp    edx,eax
  401585:	c6 42 ff 5c          	mov    BYTE PTR [edx-0x1],0x5c
  401589:	75 f5                	jne    401580 <__setargv+0x110>
  40158b:	8b 55 cc             	mov    edx,DWORD PTR [ebp-0x34]
  40158e:	85 d2                	test   edx,edx
  401590:	75 05                	jne    401597 <__setargv+0x127>
  401592:	39 45 c4             	cmp    DWORD PTR [ebp-0x3c],eax
  401595:	73 24                	jae    4015bb <__setargv+0x14b>
  401597:	c6 00 00             	mov    BYTE PTR [eax],0x0
  40159a:	8d 45 d8             	lea    eax,[ebp-0x28]
  40159d:	89 44 24 0c          	mov    DWORD PTR [esp+0xc],eax
  4015a1:	c7 44 24 08 00 00 00 	mov    DWORD PTR [esp+0x8],0x0
  4015a8:	00 
  4015a9:	8b 45 c8             	mov    eax,DWORD PTR [ebp-0x38]
  4015ac:	89 44 24 04          	mov    DWORD PTR [esp+0x4],eax
  4015b0:	8b 45 c4             	mov    eax,DWORD PTR [ebp-0x3c]
  4015b3:	89 04 24             	mov    DWORD PTR [esp],eax
  4015b6:	e8 d5 15 00 00       	call   402b90 <___mingw_glob>
  4015bb:	8b 45 dc             	mov    eax,DWORD PTR [ebp-0x24]
  4015be:	a3 04 d0 40 00       	mov    ds:0x40d004,eax
  4015c3:	8b 45 e0             	mov    eax,DWORD PTR [ebp-0x20]
  4015c6:	a3 00 d0 40 00       	mov    ds:0x40d000,eax
  4015cb:	8b 65 c0             	mov    esp,DWORD PTR [ebp-0x40]
  4015ce:	8d 65 f4             	lea    esp,[ebp-0xc]
  4015d1:	5b                   	pop    ebx
  4015d2:	5e                   	pop    esi
  4015d3:	5f                   	pop    edi
  4015d4:	5d                   	pop    ebp
  4015d5:	c3                   	ret    
  4015d6:	8d 43 01             	lea    eax,[ebx+0x1]
  4015d9:	89 45 d4             	mov    DWORD PTR [ebp-0x2c],eax
  4015dc:	31 c0                	xor    eax,eax
  4015de:	c6 03 22             	mov    BYTE PTR [ebx],0x22
  4015e1:	c7 45 cc 01 00 00 00 	mov    DWORD PTR [ebp-0x34],0x1
  4015e8:	e9 fa fe ff ff       	jmp    4014e7 <__setargv+0x77>
  4015ed:	8d 76 00             	lea    esi,[esi+0x0]
  4015f0:	80 fb 5c             	cmp    bl,0x5c
  4015f3:	0f 84 3f 01 00 00    	je     401738 <__setargv+0x2c8>
  4015f9:	80 fb 7f             	cmp    bl,0x7f
  4015fc:	74 13                	je     401611 <__setargv+0x1a1>
  4015fe:	80 fb 5b             	cmp    bl,0x5b
  401601:	75 52                	jne    401655 <__setargv+0x1e5>
  401603:	f6 05 00 90 40 00 20 	test   BYTE PTR ds:0x409000,0x20
  40160a:	bf 01 00 00 00       	mov    edi,0x1
  40160f:	74 0a                	je     40161b <__setargv+0x1ab>
  401611:	8b 55 d0             	mov    edx,DWORD PTR [ebp-0x30]
  401614:	85 d2                	test   edx,edx
  401616:	0f 95 c2             	setne  dl
  401619:	89 d7                	mov    edi,edx
  40161b:	85 c0                	test   eax,eax
  40161d:	0f 84 34 01 00 00    	je     401757 <__setargv+0x2e7>
  401623:	8b 55 d4             	mov    edx,DWORD PTR [ebp-0x2c]
  401626:	01 d0                	add    eax,edx
  401628:	83 c2 01             	add    edx,0x1
  40162b:	39 c2                	cmp    edx,eax
  40162d:	c6 42 ff 5c          	mov    BYTE PTR [edx-0x1],0x5c
  401631:	75 f5                	jne    401628 <__setargv+0x1b8>
  401633:	89 fa                	mov    edx,edi
  401635:	84 d2                	test   dl,dl
  401637:	0f 85 a3 00 00 00    	jne    4016e0 <__setargv+0x270>
  40163d:	83 f9 7f             	cmp    ecx,0x7f
  401640:	0f 84 9a 00 00 00    	je     4016e0 <__setargv+0x270>
  401646:	8d 48 01             	lea    ecx,[eax+0x1]
  401649:	88 18                	mov    BYTE PTR [eax],bl
  40164b:	31 c0                	xor    eax,eax
  40164d:	89 4d d4             	mov    DWORD PTR [ebp-0x2c],ecx
  401650:	e9 92 fe ff ff       	jmp    4014e7 <__setargv+0x77>
  401655:	8b 7d d4             	mov    edi,DWORD PTR [ebp-0x2c]
  401658:	8b 55 d4             	mov    edx,DWORD PTR [ebp-0x2c]
  40165b:	01 c7                	add    edi,eax
  40165d:	85 c0                	test   eax,eax
  40165f:	0f 84 fa 00 00 00    	je     40175f <__setargv+0x2ef>
  401665:	83 c2 01             	add    edx,0x1
  401668:	39 fa                	cmp    edx,edi
  40166a:	c6 42 ff 5c          	mov    BYTE PTR [edx-0x1],0x5c
  40166e:	75 f5                	jne    401665 <__setargv+0x1f5>
  401670:	8b 45 d0             	mov    eax,DWORD PTR [ebp-0x30]
  401673:	85 c0                	test   eax,eax
  401675:	75 59                	jne    4016d0 <__setargv+0x260>
  401677:	89 0c 24             	mov    DWORD PTR [esp],ecx
  40167a:	e8 59 69 00 00       	call   407fd8 <_isspace>
  40167f:	85 c0                	test   eax,eax
  401681:	74 4d                	je     4016d0 <__setargv+0x260>
  401683:	8b 4d cc             	mov    ecx,DWORD PTR [ebp-0x34]
  401686:	85 c9                	test   ecx,ecx
  401688:	75 09                	jne    401693 <__setargv+0x223>
  40168a:	39 7d c4             	cmp    DWORD PTR [ebp-0x3c],edi
  40168d:	0f 83 ba 00 00 00    	jae    40174d <__setargv+0x2dd>
  401693:	8d 45 d8             	lea    eax,[ebp-0x28]
  401696:	c6 07 00             	mov    BYTE PTR [edi],0x0
  401699:	89 44 24 0c          	mov    DWORD PTR [esp+0xc],eax
  40169d:	c7 44 24 08 00 00 00 	mov    DWORD PTR [esp+0x8],0x0
  4016a4:	00 
  4016a5:	8b 45 c8             	mov    eax,DWORD PTR [ebp-0x38]
  4016a8:	89 44 24 04          	mov    DWORD PTR [esp+0x4],eax
  4016ac:	8b 7d c4             	mov    edi,DWORD PTR [ebp-0x3c]
  4016af:	89 3c 24             	mov    DWORD PTR [esp],edi
  4016b2:	e8 d9 14 00 00       	call   402b90 <___mingw_glob>
  4016b7:	31 c0                	xor    eax,eax
  4016b9:	83 4d c8 01          	or     DWORD PTR [ebp-0x38],0x1
  4016bd:	89 7d d4             	mov    DWORD PTR [ebp-0x2c],edi
  4016c0:	c7 45 cc 00 00 00 00 	mov    DWORD PTR [ebp-0x34],0x0
  4016c7:	e9 1b fe ff ff       	jmp    4014e7 <__setargv+0x77>
  4016cc:	8d 74 26 00          	lea    esi,[esi+eiz*1+0x0]
  4016d0:	8d 47 01             	lea    eax,[edi+0x1]
  4016d3:	89 45 d4             	mov    DWORD PTR [ebp-0x2c],eax
  4016d6:	31 c0                	xor    eax,eax
  4016d8:	88 1f                	mov    BYTE PTR [edi],bl
  4016da:	e9 08 fe ff ff       	jmp    4014e7 <__setargv+0x77>
  4016df:	90                   	nop
  4016e0:	c6 00 7f             	mov    BYTE PTR [eax],0x7f
  4016e3:	83 c0 01             	add    eax,0x1
  4016e6:	e9 5b ff ff ff       	jmp    401646 <__setargv+0x1d6>
  4016eb:	90                   	nop
  4016ec:	8d 74 26 00          	lea    esi,[esi+eiz*1+0x0]
  4016f0:	f6 05 00 90 40 00 10 	test   BYTE PTR ds:0x409000,0x10
  4016f7:	0f 84 58 ff ff ff    	je     401655 <__setargv+0x1e5>
  4016fd:	89 c3                	mov    ebx,eax
  4016ff:	d1 fb                	sar    ebx,1
  401701:	74 73                	je     401776 <__setargv+0x306>
  401703:	8b 55 d4             	mov    edx,DWORD PTR [ebp-0x2c]
  401706:	01 d3                	add    ebx,edx
  401708:	83 c2 01             	add    edx,0x1
  40170b:	39 da                	cmp    edx,ebx
  40170d:	c6 42 ff 5c          	mov    BYTE PTR [edx-0x1],0x5c
  401711:	75 f5                	jne    401708 <__setargv+0x298>
  401713:	a8 01                	test   al,0x1
  401715:	75 0a                	jne    401721 <__setargv+0x2b1>
  401717:	83 7d d0 22          	cmp    DWORD PTR [ebp-0x30],0x22
  40171b:	0f 85 2c fe ff ff    	jne    40154d <__setargv+0xdd>
  401721:	8d 43 01             	lea    eax,[ebx+0x1]
  401724:	89 45 d4             	mov    DWORD PTR [ebp-0x2c],eax
  401727:	31 c0                	xor    eax,eax
  401729:	c6 03 27             	mov    BYTE PTR [ebx],0x27
  40172c:	c7 45 cc 01 00 00 00 	mov    DWORD PTR [ebp-0x34],0x1
  401733:	e9 af fd ff ff       	jmp    4014e7 <__setargv+0x77>
  401738:	83 c0 01             	add    eax,0x1
  40173b:	e9 a7 fd ff ff       	jmp    4014e7 <__setargv+0x77>
  401740:	e8 1b fb ff ff       	call   401260 <__mingw32_init_mainargs>
  401745:	8d 65 f4             	lea    esp,[ebp-0xc]
  401748:	5b                   	pop    ebx
  401749:	5e                   	pop    esi
  40174a:	5f                   	pop    edi
  40174b:	5d                   	pop    ebp
  40174c:	c3                   	ret    
  40174d:	89 7d d4             	mov    DWORD PTR [ebp-0x2c],edi
  401750:	31 c0                	xor    eax,eax
  401752:	e9 90 fd ff ff       	jmp    4014e7 <__setargv+0x77>
  401757:	8b 45 d4             	mov    eax,DWORD PTR [ebp-0x2c]
  40175a:	e9 d4 fe ff ff       	jmp    401633 <__setargv+0x1c3>
  40175f:	8b 7d d4             	mov    edi,DWORD PTR [ebp-0x2c]
  401762:	e9 09 ff ff ff       	jmp    401670 <__setargv+0x200>
  401767:	8b 5d d4             	mov    ebx,DWORD PTR [ebp-0x2c]
  40176a:	e9 cc fd ff ff       	jmp    40153b <__setargv+0xcb>
  40176f:	89 d0                	mov    eax,edx
  401771:	e9 15 fe ff ff       	jmp    40158b <__setargv+0x11b>
  401776:	8b 5d d4             	mov    ebx,DWORD PTR [ebp-0x2c]
  401779:	eb 98                	jmp    401713 <__setargv+0x2a3>
  40177b:	90                   	nop
  40177c:	90                   	nop
  40177d:	90                   	nop
  40177e:	90                   	nop
  40177f:	90                   	nop

00401780 <___cpu_features_init>:
  401780:	9c                   	pushf  
  401781:	9c                   	pushf  
  401782:	58                   	pop    eax
  401783:	89 c2                	mov    edx,eax
  401785:	35 00 00 20 00       	xor    eax,0x200000
  40178a:	50                   	push   eax
  40178b:	9d                   	popf   
  40178c:	9c                   	pushf  
  40178d:	58                   	pop    eax
  40178e:	9d                   	popf   
  40178f:	31 d0                	xor    eax,edx
  401791:	a9 00 00 20 00       	test   eax,0x200000
  401796:	0f 84 a5 00 00 00    	je     401841 <___cpu_features_init+0xc1>
  40179c:	53                   	push   ebx
  40179d:	31 c0                	xor    eax,eax
  40179f:	0f a2                	cpuid  
  4017a1:	85 c0                	test   eax,eax
  4017a3:	0f 84 97 00 00 00    	je     401840 <___cpu_features_init+0xc0>
  4017a9:	b8 01 00 00 00       	mov    eax,0x1
  4017ae:	0f a2                	cpuid  
  4017b0:	f6 c6 01             	test   dh,0x1
  4017b3:	74 07                	je     4017bc <___cpu_features_init+0x3c>
  4017b5:	83 0d 24 d0 40 00 01 	or     DWORD PTR ds:0x40d024,0x1
  4017bc:	f6 c6 80             	test   dh,0x80
  4017bf:	74 07                	je     4017c8 <___cpu_features_init+0x48>
  4017c1:	83 0d 24 d0 40 00 02 	or     DWORD PTR ds:0x40d024,0x2
  4017c8:	f7 c2 00 00 80 00    	test   edx,0x800000
  4017ce:	74 07                	je     4017d7 <___cpu_features_init+0x57>
  4017d0:	83 0d 24 d0 40 00 04 	or     DWORD PTR ds:0x40d024,0x4
  4017d7:	f7 c2 00 00 00 01    	test   edx,0x1000000
  4017dd:	74 07                	je     4017e6 <___cpu_features_init+0x66>
  4017df:	83 0d 24 d0 40 00 08 	or     DWORD PTR ds:0x40d024,0x8
  4017e6:	f7 c2 00 00 00 02    	test   edx,0x2000000
  4017ec:	74 07                	je     4017f5 <___cpu_features_init+0x75>
  4017ee:	83 0d 24 d0 40 00 10 	or     DWORD PTR ds:0x40d024,0x10
  4017f5:	81 e2 00 00 00 04    	and    edx,0x4000000
  4017fb:	74 07                	je     401804 <___cpu_features_init+0x84>
  4017fd:	83 0d 24 d0 40 00 20 	or     DWORD PTR ds:0x40d024,0x20
  401804:	f6 c1 01             	test   cl,0x1
  401807:	74 07                	je     401810 <___cpu_features_init+0x90>
  401809:	83 0d 24 d0 40 00 40 	or     DWORD PTR ds:0x40d024,0x40
  401810:	80 e5 20             	and    ch,0x20
  401813:	75 2e                	jne    401843 <___cpu_features_init+0xc3>
  401815:	b8 00 00 00 80       	mov    eax,0x80000000
  40181a:	0f a2                	cpuid  
  40181c:	3d 00 00 00 80       	cmp    eax,0x80000000
  401821:	76 1d                	jbe    401840 <___cpu_features_init+0xc0>
  401823:	b8 01 00 00 80       	mov    eax,0x80000001
  401828:	0f a2                	cpuid  
  40182a:	85 d2                	test   edx,edx
  40182c:	78 22                	js     401850 <___cpu_features_init+0xd0>
  40182e:	81 e2 00 00 00 40    	and    edx,0x40000000
  401834:	74 0a                	je     401840 <___cpu_features_init+0xc0>
  401836:	81 0d 24 d0 40 00 00 	or     DWORD PTR ds:0x40d024,0x200
  40183d:	02 00 00 
  401840:	5b                   	pop    ebx
  401841:	f3 c3                	repz ret 
  401843:	81 0d 24 d0 40 00 80 	or     DWORD PTR ds:0x40d024,0x80
  40184a:	00 00 00 
  40184d:	eb c6                	jmp    401815 <___cpu_features_init+0x95>
  40184f:	90                   	nop
  401850:	81 0d 24 d0 40 00 00 	or     DWORD PTR ds:0x40d024,0x100
  401857:	01 00 00 
  40185a:	eb d2                	jmp    40182e <___cpu_features_init+0xae>
  40185c:	90                   	nop
  40185d:	90                   	nop
  40185e:	90                   	nop
  40185f:	90                   	nop

00401860 <__fpreset>:
  401860:	db e3                	fninit 
  401862:	c3                   	ret    
  401863:	90                   	nop
  401864:	90                   	nop
  401865:	90                   	nop
  401866:	90                   	nop
  401867:	90                   	nop
  401868:	90                   	nop
  401869:	90                   	nop
  40186a:	90                   	nop
  40186b:	90                   	nop
  40186c:	90                   	nop
  40186d:	90                   	nop
  40186e:	90                   	nop
  40186f:	90                   	nop

00401870 <___do_global_dtors>:
  401870:	a1 08 90 40 00       	mov    eax,ds:0x409008
  401875:	8b 00                	mov    eax,DWORD PTR [eax]
  401877:	85 c0                	test   eax,eax
  401879:	74 1f                	je     40189a <___do_global_dtors+0x2a>
  40187b:	83 ec 0c             	sub    esp,0xc
  40187e:	66 90                	xchg   ax,ax
  401880:	ff d0                	call   eax
  401882:	a1 08 90 40 00       	mov    eax,ds:0x409008
  401887:	8d 50 04             	lea    edx,[eax+0x4]
  40188a:	8b 40 04             	mov    eax,DWORD PTR [eax+0x4]
  40188d:	89 15 08 90 40 00    	mov    DWORD PTR ds:0x409008,edx
  401893:	85 c0                	test   eax,eax
  401895:	75 e9                	jne    401880 <___do_global_dtors+0x10>
  401897:	83 c4 0c             	add    esp,0xc
  40189a:	f3 c3                	repz ret 
  40189c:	8d 74 26 00          	lea    esi,[esi+eiz*1+0x0]

004018a0 <___do_global_ctors>:
  4018a0:	53                   	push   ebx
  4018a1:	83 ec 18             	sub    esp,0x18
  4018a4:	8b 1d 90 83 40 00    	mov    ebx,DWORD PTR ds:0x408390
  4018aa:	83 fb ff             	cmp    ebx,0xffffffff
  4018ad:	74 24                	je     4018d3 <___do_global_ctors+0x33>
  4018af:	85 db                	test   ebx,ebx
  4018b1:	74 0f                	je     4018c2 <___do_global_ctors+0x22>
  4018b3:	ff 14 9d 90 83 40 00 	call   DWORD PTR [ebx*4+0x408390]
  4018ba:	83 eb 01             	sub    ebx,0x1
  4018bd:	8d 76 00             	lea    esi,[esi+0x0]
  4018c0:	75 f1                	jne    4018b3 <___do_global_ctors+0x13>
  4018c2:	c7 04 24 70 18 40 00 	mov    DWORD PTR [esp],0x401870
  4018c9:	e8 12 fa ff ff       	call   4012e0 <_atexit>
  4018ce:	83 c4 18             	add    esp,0x18
  4018d1:	5b                   	pop    ebx
  4018d2:	c3                   	ret    
  4018d3:	31 db                	xor    ebx,ebx
  4018d5:	eb 02                	jmp    4018d9 <___do_global_ctors+0x39>
  4018d7:	89 c3                	mov    ebx,eax
  4018d9:	8d 43 01             	lea    eax,[ebx+0x1]
  4018dc:	8b 14 85 90 83 40 00 	mov    edx,DWORD PTR [eax*4+0x408390]
  4018e3:	85 d2                	test   edx,edx
  4018e5:	75 f0                	jne    4018d7 <___do_global_ctors+0x37>
  4018e7:	eb c6                	jmp    4018af <___do_global_ctors+0xf>
  4018e9:	8d b4 26 00 00 00 00 	lea    esi,[esi+eiz*1+0x0]

004018f0 <___main>:
  4018f0:	8b 0d 28 d0 40 00    	mov    ecx,DWORD PTR ds:0x40d028
  4018f6:	85 c9                	test   ecx,ecx
  4018f8:	74 06                	je     401900 <___main+0x10>
  4018fa:	f3 c3                	repz ret 
  4018fc:	8d 74 26 00          	lea    esi,[esi+eiz*1+0x0]
  401900:	c7 05 28 d0 40 00 01 	mov    DWORD PTR ds:0x40d028,0x1
  401907:	00 00 00 
  40190a:	eb 94                	jmp    4018a0 <___do_global_ctors>
  40190c:	90                   	nop
  40190d:	90                   	nop
  40190e:	90                   	nop
  40190f:	90                   	nop

00401910 <___dyn_tls_dtor@12>:
  401910:	83 ec 1c             	sub    esp,0x1c
  401913:	8b 44 24 24          	mov    eax,DWORD PTR [esp+0x24]
  401917:	85 c0                	test   eax,eax
  401919:	74 15                	je     401930 <___dyn_tls_dtor@12+0x20>
  40191b:	83 f8 03             	cmp    eax,0x3
  40191e:	74 10                	je     401930 <___dyn_tls_dtor@12+0x20>
  401920:	b8 01 00 00 00       	mov    eax,0x1
  401925:	83 c4 1c             	add    esp,0x1c
  401928:	c2 0c 00             	ret    0xc
  40192b:	90                   	nop
  40192c:	8d 74 26 00          	lea    esi,[esi+eiz*1+0x0]
  401930:	8b 54 24 28          	mov    edx,DWORD PTR [esp+0x28]
  401934:	89 44 24 04          	mov    DWORD PTR [esp+0x4],eax
  401938:	8b 44 24 20          	mov    eax,DWORD PTR [esp+0x20]
  40193c:	89 54 24 08          	mov    DWORD PTR [esp+0x8],edx
  401940:	89 04 24             	mov    DWORD PTR [esp],eax
  401943:	e8 58 02 00 00       	call   401ba0 <___mingw_TLScallback>
  401948:	b8 01 00 00 00       	mov    eax,0x1
  40194d:	83 c4 1c             	add    esp,0x1c
  401950:	c2 0c 00             	ret    0xc
  401953:	8d b6 00 00 00 00    	lea    esi,[esi+0x0]
  401959:	8d bc 27 00 00 00 00 	lea    edi,[edi+eiz*1+0x0]

00401960 <___dyn_tls_init@12>:
  401960:	56                   	push   esi
  401961:	53                   	push   ebx
  401962:	83 ec 14             	sub    esp,0x14
  401965:	83 3d 64 d0 40 00 02 	cmp    DWORD PTR ds:0x40d064,0x2
  40196c:	8b 44 24 24          	mov    eax,DWORD PTR [esp+0x24]
  401970:	74 0a                	je     40197c <___dyn_tls_init@12+0x1c>
  401972:	c7 05 64 d0 40 00 02 	mov    DWORD PTR ds:0x40d064,0x2
  401979:	00 00 00 
  40197c:	83 f8 02             	cmp    eax,0x2
  40197f:	74 12                	je     401993 <___dyn_tls_init@12+0x33>
  401981:	83 f8 01             	cmp    eax,0x1
  401984:	74 42                	je     4019c8 <___dyn_tls_init@12+0x68>
  401986:	83 c4 14             	add    esp,0x14
  401989:	b8 01 00 00 00       	mov    eax,0x1
  40198e:	5b                   	pop    ebx
  40198f:	5e                   	pop    esi
  401990:	c2 0c 00             	ret    0xc
  401993:	be 14 f0 40 00       	mov    esi,0x40f014
  401998:	81 ee 14 f0 40 00    	sub    esi,0x40f014
  40199e:	c1 fe 02             	sar    esi,0x2
  4019a1:	85 f6                	test   esi,esi
  4019a3:	7e e1                	jle    401986 <___dyn_tls_init@12+0x26>
  4019a5:	31 db                	xor    ebx,ebx
  4019a7:	8b 04 9d 14 f0 40 00 	mov    eax,DWORD PTR [ebx*4+0x40f014]
  4019ae:	85 c0                	test   eax,eax
  4019b0:	74 02                	je     4019b4 <___dyn_tls_init@12+0x54>
  4019b2:	ff d0                	call   eax
  4019b4:	83 c3 01             	add    ebx,0x1
  4019b7:	39 f3                	cmp    ebx,esi
  4019b9:	75 ec                	jne    4019a7 <___dyn_tls_init@12+0x47>
  4019bb:	83 c4 14             	add    esp,0x14
  4019be:	b8 01 00 00 00       	mov    eax,0x1
  4019c3:	5b                   	pop    ebx
  4019c4:	5e                   	pop    esi
  4019c5:	c2 0c 00             	ret    0xc
  4019c8:	8b 44 24 28          	mov    eax,DWORD PTR [esp+0x28]
  4019cc:	c7 44 24 04 01 00 00 	mov    DWORD PTR [esp+0x4],0x1
  4019d3:	00 
  4019d4:	89 44 24 08          	mov    DWORD PTR [esp+0x8],eax
  4019d8:	8b 44 24 20          	mov    eax,DWORD PTR [esp+0x20]
  4019dc:	89 04 24             	mov    DWORD PTR [esp],eax
  4019df:	e8 bc 01 00 00       	call   401ba0 <___mingw_TLScallback>
  4019e4:	eb a0                	jmp    401986 <___dyn_tls_init@12+0x26>
  4019e6:	8d 76 00             	lea    esi,[esi+0x0]
  4019e9:	8d bc 27 00 00 00 00 	lea    edi,[edi+eiz*1+0x0]

004019f0 <___tlregdtor>:
  4019f0:	31 c0                	xor    eax,eax
  4019f2:	c3                   	ret    
  4019f3:	90                   	nop
  4019f4:	90                   	nop
  4019f5:	90                   	nop
  4019f6:	90                   	nop
  4019f7:	90                   	nop
  4019f8:	90                   	nop
  4019f9:	90                   	nop
  4019fa:	90                   	nop
  4019fb:	90                   	nop
  4019fc:	90                   	nop
  4019fd:	90                   	nop
  4019fe:	90                   	nop
  4019ff:	90                   	nop

00401a00 <___mingwthr_run_key_dtors.part.0>:
  401a00:	55                   	push   ebp
  401a01:	89 e5                	mov    ebp,esp
  401a03:	56                   	push   esi
  401a04:	53                   	push   ebx
  401a05:	83 ec 10             	sub    esp,0x10
  401a08:	c7 04 24 44 d0 40 00 	mov    DWORD PTR [esp],0x40d044
  401a0f:	e8 d4 66 00 00       	call   4080e8 <_EnterCriticalSection@4>
  401a14:	8b 1d 3c d0 40 00    	mov    ebx,DWORD PTR ds:0x40d03c
  401a1a:	83 ec 04             	sub    esp,0x4
  401a1d:	85 db                	test   ebx,ebx
  401a1f:	74 2b                	je     401a4c <___mingwthr_run_key_dtors.part.0+0x4c>
  401a21:	8b 03                	mov    eax,DWORD PTR [ebx]
  401a23:	89 04 24             	mov    DWORD PTR [esp],eax
  401a26:	e8 3d 66 00 00       	call   408068 <_TlsGetValue@4>
  401a2b:	83 ec 04             	sub    esp,0x4
  401a2e:	89 c6                	mov    esi,eax
  401a30:	e8 83 66 00 00       	call   4080b8 <_GetLastError@0>
  401a35:	85 c0                	test   eax,eax
  401a37:	75 0c                	jne    401a45 <___mingwthr_run_key_dtors.part.0+0x45>
  401a39:	85 f6                	test   esi,esi
  401a3b:	74 08                	je     401a45 <___mingwthr_run_key_dtors.part.0+0x45>
  401a3d:	8b 43 04             	mov    eax,DWORD PTR [ebx+0x4]
  401a40:	89 34 24             	mov    DWORD PTR [esp],esi
  401a43:	ff d0                	call   eax
  401a45:	8b 5b 08             	mov    ebx,DWORD PTR [ebx+0x8]
  401a48:	85 db                	test   ebx,ebx
  401a4a:	75 d5                	jne    401a21 <___mingwthr_run_key_dtors.part.0+0x21>
  401a4c:	c7 04 24 44 d0 40 00 	mov    DWORD PTR [esp],0x40d044
  401a53:	e8 30 66 00 00       	call   408088 <_LeaveCriticalSection@4>
  401a58:	83 ec 04             	sub    esp,0x4
  401a5b:	8d 65 f8             	lea    esp,[ebp-0x8]
  401a5e:	5b                   	pop    ebx
  401a5f:	5e                   	pop    esi
  401a60:	5d                   	pop    ebp
  401a61:	c3                   	ret    
  401a62:	8d b4 26 00 00 00 00 	lea    esi,[esi+eiz*1+0x0]
  401a69:	8d bc 27 00 00 00 00 	lea    edi,[edi+eiz*1+0x0]

00401a70 <____w64_mingwthr_add_key_dtor>:
  401a70:	55                   	push   ebp
  401a71:	89 e5                	mov    ebp,esp
  401a73:	56                   	push   esi
  401a74:	31 f6                	xor    esi,esi
  401a76:	53                   	push   ebx
  401a77:	83 ec 10             	sub    esp,0x10
  401a7a:	a1 40 d0 40 00       	mov    eax,ds:0x40d040
  401a7f:	85 c0                	test   eax,eax
  401a81:	75 0d                	jne    401a90 <____w64_mingwthr_add_key_dtor+0x20>
  401a83:	8d 65 f8             	lea    esp,[ebp-0x8]
  401a86:	89 f0                	mov    eax,esi
  401a88:	5b                   	pop    ebx
  401a89:	5e                   	pop    esi
  401a8a:	5d                   	pop    ebp
  401a8b:	c3                   	ret    
  401a8c:	8d 74 26 00          	lea    esi,[esi+eiz*1+0x0]
  401a90:	c7 44 24 04 0c 00 00 	mov    DWORD PTR [esp+0x4],0xc
  401a97:	00 
  401a98:	c7 04 24 01 00 00 00 	mov    DWORD PTR [esp],0x1
  401a9f:	e8 5c 65 00 00       	call   408000 <_calloc>
  401aa4:	85 c0                	test   eax,eax
  401aa6:	89 c3                	mov    ebx,eax
  401aa8:	74 40                	je     401aea <____w64_mingwthr_add_key_dtor+0x7a>
  401aaa:	8b 45 08             	mov    eax,DWORD PTR [ebp+0x8]
  401aad:	c7 04 24 44 d0 40 00 	mov    DWORD PTR [esp],0x40d044
  401ab4:	89 03                	mov    DWORD PTR [ebx],eax
  401ab6:	8b 45 0c             	mov    eax,DWORD PTR [ebp+0xc]
  401ab9:	89 43 04             	mov    DWORD PTR [ebx+0x4],eax
  401abc:	e8 27 66 00 00       	call   4080e8 <_EnterCriticalSection@4>
  401ac1:	a1 3c d0 40 00       	mov    eax,ds:0x40d03c
  401ac6:	89 1d 3c d0 40 00    	mov    DWORD PTR ds:0x40d03c,ebx
  401acc:	89 43 08             	mov    DWORD PTR [ebx+0x8],eax
  401acf:	83 ec 04             	sub    esp,0x4
  401ad2:	c7 04 24 44 d0 40 00 	mov    DWORD PTR [esp],0x40d044
  401ad9:	e8 aa 65 00 00       	call   408088 <_LeaveCriticalSection@4>
  401ade:	89 f0                	mov    eax,esi
  401ae0:	83 ec 04             	sub    esp,0x4
  401ae3:	8d 65 f8             	lea    esp,[ebp-0x8]
  401ae6:	5b                   	pop    ebx
  401ae7:	5e                   	pop    esi
  401ae8:	5d                   	pop    ebp
  401ae9:	c3                   	ret    
  401aea:	be ff ff ff ff       	mov    esi,0xffffffff
  401aef:	eb 92                	jmp    401a83 <____w64_mingwthr_add_key_dtor+0x13>
  401af1:	eb 0d                	jmp    401b00 <____w64_mingwthr_remove_key_dtor>
  401af3:	90                   	nop
  401af4:	90                   	nop
  401af5:	90                   	nop
  401af6:	90                   	nop
  401af7:	90                   	nop
  401af8:	90                   	nop
  401af9:	90                   	nop
  401afa:	90                   	nop
  401afb:	90                   	nop
  401afc:	90                   	nop
  401afd:	90                   	nop
  401afe:	90                   	nop
  401aff:	90                   	nop

00401b00 <____w64_mingwthr_remove_key_dtor>:
  401b00:	55                   	push   ebp
  401b01:	89 e5                	mov    ebp,esp
  401b03:	53                   	push   ebx
  401b04:	83 ec 14             	sub    esp,0x14
  401b07:	a1 40 d0 40 00       	mov    eax,ds:0x40d040
  401b0c:	8b 5d 08             	mov    ebx,DWORD PTR [ebp+0x8]
  401b0f:	85 c0                	test   eax,eax
  401b11:	75 0d                	jne    401b20 <____w64_mingwthr_remove_key_dtor+0x20>
  401b13:	31 c0                	xor    eax,eax
  401b15:	8b 5d fc             	mov    ebx,DWORD PTR [ebp-0x4]
  401b18:	c9                   	leave  
  401b19:	c3                   	ret    
  401b1a:	8d b6 00 00 00 00    	lea    esi,[esi+0x0]
  401b20:	c7 04 24 44 d0 40 00 	mov    DWORD PTR [esp],0x40d044
  401b27:	e8 bc 65 00 00       	call   4080e8 <_EnterCriticalSection@4>
  401b2c:	8b 15 3c d0 40 00    	mov    edx,DWORD PTR ds:0x40d03c
  401b32:	83 ec 04             	sub    esp,0x4
  401b35:	85 d2                	test   edx,edx
  401b37:	74 17                	je     401b50 <____w64_mingwthr_remove_key_dtor+0x50>
  401b39:	8b 02                	mov    eax,DWORD PTR [edx]
  401b3b:	39 d8                	cmp    eax,ebx
  401b3d:	75 0a                	jne    401b49 <____w64_mingwthr_remove_key_dtor+0x49>
  401b3f:	eb 44                	jmp    401b85 <____w64_mingwthr_remove_key_dtor+0x85>
  401b41:	8b 08                	mov    ecx,DWORD PTR [eax]
  401b43:	39 d9                	cmp    ecx,ebx
  401b45:	74 1f                	je     401b66 <____w64_mingwthr_remove_key_dtor+0x66>
  401b47:	89 c2                	mov    edx,eax
  401b49:	8b 42 08             	mov    eax,DWORD PTR [edx+0x8]
  401b4c:	85 c0                	test   eax,eax
  401b4e:	75 f1                	jne    401b41 <____w64_mingwthr_remove_key_dtor+0x41>
  401b50:	c7 04 24 44 d0 40 00 	mov    DWORD PTR [esp],0x40d044
  401b57:	e8 2c 65 00 00       	call   408088 <_LeaveCriticalSection@4>
  401b5c:	83 ec 04             	sub    esp,0x4
  401b5f:	31 c0                	xor    eax,eax
  401b61:	8b 5d fc             	mov    ebx,DWORD PTR [ebp-0x4]
  401b64:	c9                   	leave  
  401b65:	c3                   	ret    
  401b66:	8b 48 08             	mov    ecx,DWORD PTR [eax+0x8]
  401b69:	89 4a 08             	mov    DWORD PTR [edx+0x8],ecx
  401b6c:	89 04 24             	mov    DWORD PTR [esp],eax
  401b6f:	e8 7c 64 00 00       	call   407ff0 <_free>
  401b74:	c7 04 24 44 d0 40 00 	mov    DWORD PTR [esp],0x40d044
  401b7b:	e8 08 65 00 00       	call   408088 <_LeaveCriticalSection@4>
  401b80:	83 ec 04             	sub    esp,0x4
  401b83:	eb da                	jmp    401b5f <____w64_mingwthr_remove_key_dtor+0x5f>
  401b85:	8b 42 08             	mov    eax,DWORD PTR [edx+0x8]
  401b88:	a3 3c d0 40 00       	mov    ds:0x40d03c,eax
  401b8d:	89 d0                	mov    eax,edx
  401b8f:	eb db                	jmp    401b6c <____w64_mingwthr_remove_key_dtor+0x6c>
  401b91:	eb 0d                	jmp    401ba0 <___mingw_TLScallback>
  401b93:	90                   	nop
  401b94:	90                   	nop
  401b95:	90                   	nop
  401b96:	90                   	nop
  401b97:	90                   	nop
  401b98:	90                   	nop
  401b99:	90                   	nop
  401b9a:	90                   	nop
  401b9b:	90                   	nop
  401b9c:	90                   	nop
  401b9d:	90                   	nop
  401b9e:	90                   	nop
  401b9f:	90                   	nop

00401ba0 <___mingw_TLScallback>:
  401ba0:	55                   	push   ebp
  401ba1:	89 e5                	mov    ebp,esp
  401ba3:	83 ec 18             	sub    esp,0x18
  401ba6:	8b 45 0c             	mov    eax,DWORD PTR [ebp+0xc]
  401ba9:	83 f8 01             	cmp    eax,0x1
  401bac:	74 45                	je     401bf3 <___mingw_TLScallback+0x53>
  401bae:	72 15                	jb     401bc5 <___mingw_TLScallback+0x25>
  401bb0:	83 f8 03             	cmp    eax,0x3
  401bb3:	75 09                	jne    401bbe <___mingw_TLScallback+0x1e>
  401bb5:	a1 40 d0 40 00       	mov    eax,ds:0x40d040
  401bba:	85 c0                	test   eax,eax
  401bbc:	75 63                	jne    401c21 <___mingw_TLScallback+0x81>
  401bbe:	b8 01 00 00 00       	mov    eax,0x1
  401bc3:	c9                   	leave  
  401bc4:	c3                   	ret    
  401bc5:	a1 40 d0 40 00       	mov    eax,ds:0x40d040
  401bca:	85 c0                	test   eax,eax
  401bcc:	75 5a                	jne    401c28 <___mingw_TLScallback+0x88>
  401bce:	a1 40 d0 40 00       	mov    eax,ds:0x40d040
  401bd3:	83 f8 01             	cmp    eax,0x1
  401bd6:	75 e6                	jne    401bbe <___mingw_TLScallback+0x1e>
  401bd8:	c7 04 24 44 d0 40 00 	mov    DWORD PTR [esp],0x40d044
  401bdf:	c7 05 40 d0 40 00 00 	mov    DWORD PTR ds:0x40d040,0x0
  401be6:	00 00 00 
  401be9:	e8 02 65 00 00       	call   4080f0 <_DeleteCriticalSection@4>
  401bee:	83 ec 04             	sub    esp,0x4
  401bf1:	eb cb                	jmp    401bbe <___mingw_TLScallback+0x1e>
  401bf3:	a1 40 d0 40 00       	mov    eax,ds:0x40d040
  401bf8:	85 c0                	test   eax,eax
  401bfa:	74 14                	je     401c10 <___mingw_TLScallback+0x70>
  401bfc:	c7 05 40 d0 40 00 01 	mov    DWORD PTR ds:0x40d040,0x1
  401c03:	00 00 00 
  401c06:	b8 01 00 00 00       	mov    eax,0x1
  401c0b:	c9                   	leave  
  401c0c:	c3                   	ret    
  401c0d:	8d 76 00             	lea    esi,[esi+0x0]
  401c10:	c7 04 24 44 d0 40 00 	mov    DWORD PTR [esp],0x40d044
  401c17:	e8 84 64 00 00       	call   4080a0 <_InitializeCriticalSection@4>
  401c1c:	83 ec 04             	sub    esp,0x4
  401c1f:	eb db                	jmp    401bfc <___mingw_TLScallback+0x5c>
  401c21:	e8 da fd ff ff       	call   401a00 <___mingwthr_run_key_dtors.part.0>
  401c26:	eb 96                	jmp    401bbe <___mingw_TLScallback+0x1e>
  401c28:	90                   	nop
  401c29:	8d b4 26 00 00 00 00 	lea    esi,[esi+eiz*1+0x0]
  401c30:	e8 cb fd ff ff       	call   401a00 <___mingwthr_run_key_dtors.part.0>
  401c35:	eb 97                	jmp    401bce <___mingw_TLScallback+0x2e>
  401c37:	90                   	nop
  401c38:	90                   	nop
  401c39:	90                   	nop
  401c3a:	90                   	nop
  401c3b:	90                   	nop
  401c3c:	90                   	nop
  401c3d:	90                   	nop
  401c3e:	90                   	nop
  401c3f:	90                   	nop

00401c40 <___report_error>:
  401c40:	56                   	push   esi
  401c41:	53                   	push   ebx
  401c42:	83 ec 14             	sub    esp,0x14
  401c45:	a1 c8 e1 40 00       	mov    eax,ds:0x40e1c8
  401c4a:	c7 44 24 08 17 00 00 	mov    DWORD PTR [esp+0x8],0x17
  401c51:	00 
  401c52:	8d 74 24 24          	lea    esi,[esp+0x24]
  401c56:	c7 44 24 04 01 00 00 	mov    DWORD PTR [esp+0x4],0x1
  401c5d:	00 
  401c5e:	c7 04 24 68 a0 40 00 	mov    DWORD PTR [esp],0x40a068
  401c65:	8d 58 40             	lea    ebx,[eax+0x40]
  401c68:	89 5c 24 0c          	mov    DWORD PTR [esp+0xc],ebx
  401c6c:	e8 77 63 00 00       	call   407fe8 <_fwrite>
  401c71:	8b 44 24 20          	mov    eax,DWORD PTR [esp+0x20]
  401c75:	89 74 24 08          	mov    DWORD PTR [esp+0x8],esi
  401c79:	89 1c 24             	mov    DWORD PTR [esp],ebx
  401c7c:	89 44 24 04          	mov    DWORD PTR [esp+0x4],eax
  401c80:	e8 eb 62 00 00       	call   407f70 <_vfprintf>
  401c85:	e8 86 63 00 00       	call   408010 <_abort>
  401c8a:	8d b6 00 00 00 00    	lea    esi,[esi+0x0]

00401c90 <___write_memory.part.0>:
  401c90:	55                   	push   ebp
  401c91:	89 e5                	mov    ebp,esp
  401c93:	57                   	push   edi
  401c94:	89 cf                	mov    edi,ecx
  401c96:	56                   	push   esi
  401c97:	89 d6                	mov    esi,edx
  401c99:	53                   	push   ebx
  401c9a:	89 c3                	mov    ebx,eax
  401c9c:	83 ec 4c             	sub    esp,0x4c
  401c9f:	8d 45 cc             	lea    eax,[ebp-0x34]
  401ca2:	c7 44 24 08 1c 00 00 	mov    DWORD PTR [esp+0x8],0x1c
  401ca9:	00 
  401caa:	89 44 24 04          	mov    DWORD PTR [esp+0x4],eax
  401cae:	89 1c 24             	mov    DWORD PTR [esp],ebx
  401cb1:	e8 a2 63 00 00       	call   408058 <_VirtualQuery@12>
  401cb6:	83 ec 0c             	sub    esp,0xc
  401cb9:	85 c0                	test   eax,eax
  401cbb:	0f 84 9a 00 00 00    	je     401d5b <___write_memory.part.0+0xcb>
  401cc1:	8b 45 e0             	mov    eax,DWORD PTR [ebp-0x20]
  401cc4:	83 f8 04             	cmp    eax,0x4
  401cc7:	75 18                	jne    401ce1 <___write_memory.part.0+0x51>
  401cc9:	89 7c 24 08          	mov    DWORD PTR [esp+0x8],edi
  401ccd:	89 74 24 04          	mov    DWORD PTR [esp+0x4],esi
  401cd1:	89 1c 24             	mov    DWORD PTR [esp],ebx
  401cd4:	e8 df 62 00 00       	call   407fb8 <_memcpy>
  401cd9:	8d 65 f4             	lea    esp,[ebp-0xc]
  401cdc:	5b                   	pop    ebx
  401cdd:	5e                   	pop    esi
  401cde:	5f                   	pop    edi
  401cdf:	5d                   	pop    ebp
  401ce0:	c3                   	ret    
  401ce1:	83 f8 40             	cmp    eax,0x40
  401ce4:	74 e3                	je     401cc9 <___write_memory.part.0+0x39>
  401ce6:	8b 45 d8             	mov    eax,DWORD PTR [ebp-0x28]
  401ce9:	8d 55 c8             	lea    edx,[ebp-0x38]
  401cec:	89 54 24 0c          	mov    DWORD PTR [esp+0xc],edx
  401cf0:	c7 44 24 08 40 00 00 	mov    DWORD PTR [esp+0x8],0x40
  401cf7:	00 
  401cf8:	89 55 c4             	mov    DWORD PTR [ebp-0x3c],edx
  401cfb:	89 44 24 04          	mov    DWORD PTR [esp+0x4],eax
  401cff:	8b 45 cc             	mov    eax,DWORD PTR [ebp-0x34]
  401d02:	89 04 24             	mov    DWORD PTR [esp],eax
  401d05:	e8 56 63 00 00       	call   408060 <_VirtualProtect@16>
  401d0a:	8b 4d e0             	mov    ecx,DWORD PTR [ebp-0x20]
  401d0d:	89 4d c0             	mov    DWORD PTR [ebp-0x40],ecx
  401d10:	83 ec 10             	sub    esp,0x10
  401d13:	89 7c 24 08          	mov    DWORD PTR [esp+0x8],edi
  401d17:	89 74 24 04          	mov    DWORD PTR [esp+0x4],esi
  401d1b:	89 1c 24             	mov    DWORD PTR [esp],ebx
  401d1e:	e8 95 62 00 00       	call   407fb8 <_memcpy>
  401d23:	8b 4d c0             	mov    ecx,DWORD PTR [ebp-0x40]
  401d26:	83 f9 04             	cmp    ecx,0x4
  401d29:	74 ae                	je     401cd9 <___write_memory.part.0+0x49>
  401d2b:	83 f9 40             	cmp    ecx,0x40
  401d2e:	74 a9                	je     401cd9 <___write_memory.part.0+0x49>
  401d30:	8b 45 c8             	mov    eax,DWORD PTR [ebp-0x38]
  401d33:	8b 55 c4             	mov    edx,DWORD PTR [ebp-0x3c]
  401d36:	89 44 24 08          	mov    DWORD PTR [esp+0x8],eax
  401d3a:	8b 45 d8             	mov    eax,DWORD PTR [ebp-0x28]
  401d3d:	89 54 24 0c          	mov    DWORD PTR [esp+0xc],edx
  401d41:	89 44 24 04          	mov    DWORD PTR [esp+0x4],eax
  401d45:	8b 45 cc             	mov    eax,DWORD PTR [ebp-0x34]
  401d48:	89 04 24             	mov    DWORD PTR [esp],eax
  401d4b:	e8 10 63 00 00       	call   408060 <_VirtualProtect@16>
  401d50:	83 ec 10             	sub    esp,0x10
  401d53:	8d 65 f4             	lea    esp,[ebp-0xc]
  401d56:	5b                   	pop    ebx
  401d57:	5e                   	pop    esi
  401d58:	5f                   	pop    edi
  401d59:	5d                   	pop    ebp
  401d5a:	c3                   	ret    
  401d5b:	89 5c 24 08          	mov    DWORD PTR [esp+0x8],ebx
  401d5f:	c7 44 24 04 1c 00 00 	mov    DWORD PTR [esp+0x4],0x1c
  401d66:	00 
  401d67:	c7 04 24 80 a0 40 00 	mov    DWORD PTR [esp],0x40a080
  401d6e:	e8 cd fe ff ff       	call   401c40 <___report_error>
  401d73:	8d b6 00 00 00 00    	lea    esi,[esi+0x0]
  401d79:	8d bc 27 00 00 00 00 	lea    edi,[edi+eiz*1+0x0]

00401d80 <__pei386_runtime_relocator>:
  401d80:	a1 5c d0 40 00       	mov    eax,ds:0x40d05c
  401d85:	85 c0                	test   eax,eax
  401d87:	74 07                	je     401d90 <__pei386_runtime_relocator+0x10>
  401d89:	c3                   	ret    
  401d8a:	8d b6 00 00 00 00    	lea    esi,[esi+0x0]
  401d90:	b8 20 a7 40 00       	mov    eax,0x40a720
  401d95:	2d 20 a7 40 00       	sub    eax,0x40a720
  401d9a:	83 f8 07             	cmp    eax,0x7
  401d9d:	c7 05 5c d0 40 00 01 	mov    DWORD PTR ds:0x40d05c,0x1
  401da4:	00 00 00 
  401da7:	7e e0                	jle    401d89 <__pei386_runtime_relocator+0x9>
  401da9:	57                   	push   edi
  401daa:	56                   	push   esi
  401dab:	53                   	push   ebx
  401dac:	83 ec 20             	sub    esp,0x20
  401daf:	83 f8 0b             	cmp    eax,0xb
  401db2:	0f 8e de 00 00 00    	jle    401e96 <__pei386_runtime_relocator+0x116>
  401db8:	8b 35 20 a7 40 00    	mov    esi,DWORD PTR ds:0x40a720
  401dbe:	85 f6                	test   esi,esi
  401dc0:	0f 85 8a 00 00 00    	jne    401e50 <__pei386_runtime_relocator+0xd0>
  401dc6:	8b 1d 24 a7 40 00    	mov    ebx,DWORD PTR ds:0x40a724
  401dcc:	85 db                	test   ebx,ebx
  401dce:	0f 85 7c 00 00 00    	jne    401e50 <__pei386_runtime_relocator+0xd0>
  401dd4:	8b 0d 28 a7 40 00    	mov    ecx,DWORD PTR ds:0x40a728
  401dda:	bb 2c a7 40 00       	mov    ebx,0x40a72c
  401ddf:	85 c9                	test   ecx,ecx
  401de1:	0f 84 b4 00 00 00    	je     401e9b <__pei386_runtime_relocator+0x11b>
  401de7:	bb 20 a7 40 00       	mov    ebx,0x40a720
  401dec:	8b 43 08             	mov    eax,DWORD PTR [ebx+0x8]
  401def:	83 f8 01             	cmp    eax,0x1
  401df2:	0f 85 49 01 00 00    	jne    401f41 <__pei386_runtime_relocator+0x1c1>
  401df8:	83 c3 0c             	add    ebx,0xc
  401dfb:	81 fb 20 a7 40 00    	cmp    ebx,0x40a720
  401e01:	0f 83 88 00 00 00    	jae    401e8f <__pei386_runtime_relocator+0x10f>
  401e07:	0f b6 53 08          	movzx  edx,BYTE PTR [ebx+0x8]
  401e0b:	8b 73 04             	mov    esi,DWORD PTR [ebx+0x4]
  401e0e:	8b 0b                	mov    ecx,DWORD PTR [ebx]
  401e10:	83 fa 10             	cmp    edx,0x10
  401e13:	8d 86 00 00 40 00    	lea    eax,[esi+0x400000]
  401e19:	8b b9 00 00 40 00    	mov    edi,DWORD PTR [ecx+0x400000]
  401e1f:	0f 84 8b 00 00 00    	je     401eb0 <__pei386_runtime_relocator+0x130>
  401e25:	83 fa 20             	cmp    edx,0x20
  401e28:	0f 84 f2 00 00 00    	je     401f20 <__pei386_runtime_relocator+0x1a0>
  401e2e:	83 fa 08             	cmp    edx,0x8
  401e31:	0f 84 af 00 00 00    	je     401ee6 <__pei386_runtime_relocator+0x166>
  401e37:	89 54 24 04          	mov    DWORD PTR [esp+0x4],edx
  401e3b:	c7 04 24 e8 a0 40 00 	mov    DWORD PTR [esp],0x40a0e8
  401e42:	c7 44 24 1c 00 00 00 	mov    DWORD PTR [esp+0x1c],0x0
  401e49:	00 
  401e4a:	e8 f1 fd ff ff       	call   401c40 <___report_error>
  401e4f:	90                   	nop
  401e50:	bb 20 a7 40 00       	mov    ebx,0x40a720
  401e55:	81 fb 20 a7 40 00    	cmp    ebx,0x40a720
  401e5b:	73 32                	jae    401e8f <__pei386_runtime_relocator+0x10f>
  401e5d:	8d 76 00             	lea    esi,[esi+0x0]
  401e60:	8b 53 04             	mov    edx,DWORD PTR [ebx+0x4]
  401e63:	b9 04 00 00 00       	mov    ecx,0x4
  401e68:	83 c3 08             	add    ebx,0x8
  401e6b:	8d 82 00 00 40 00    	lea    eax,[edx+0x400000]
  401e71:	8b 92 00 00 40 00    	mov    edx,DWORD PTR [edx+0x400000]
  401e77:	03 53 f8             	add    edx,DWORD PTR [ebx-0x8]
  401e7a:	89 54 24 1c          	mov    DWORD PTR [esp+0x1c],edx
  401e7e:	8d 54 24 1c          	lea    edx,[esp+0x1c]
  401e82:	e8 09 fe ff ff       	call   401c90 <___write_memory.part.0>
  401e87:	81 fb 20 a7 40 00    	cmp    ebx,0x40a720
  401e8d:	72 d1                	jb     401e60 <__pei386_runtime_relocator+0xe0>
  401e8f:	83 c4 20             	add    esp,0x20
  401e92:	5b                   	pop    ebx
  401e93:	5e                   	pop    esi
  401e94:	5f                   	pop    edi
  401e95:	c3                   	ret    
  401e96:	bb 20 a7 40 00       	mov    ebx,0x40a720
  401e9b:	8b 13                	mov    edx,DWORD PTR [ebx]
  401e9d:	85 d2                	test   edx,edx
  401e9f:	75 b4                	jne    401e55 <__pei386_runtime_relocator+0xd5>
  401ea1:	8b 43 04             	mov    eax,DWORD PTR [ebx+0x4]
  401ea4:	85 c0                	test   eax,eax
  401ea6:	0f 84 40 ff ff ff    	je     401dec <__pei386_runtime_relocator+0x6c>
  401eac:	eb a7                	jmp    401e55 <__pei386_runtime_relocator+0xd5>
  401eae:	66 90                	xchg   ax,ax
  401eb0:	0f b7 b6 00 00 40 00 	movzx  esi,WORD PTR [esi+0x400000]
  401eb7:	66 85 f6             	test   si,si
  401eba:	0f b7 d6             	movzx  edx,si
  401ebd:	79 06                	jns    401ec5 <__pei386_runtime_relocator+0x145>
  401ebf:	81 ca 00 00 ff ff    	or     edx,0xffff0000
  401ec5:	29 ca                	sub    edx,ecx
  401ec7:	b9 02 00 00 00       	mov    ecx,0x2
  401ecc:	81 ea 00 00 40 00    	sub    edx,0x400000
  401ed2:	01 fa                	add    edx,edi
  401ed4:	89 54 24 1c          	mov    DWORD PTR [esp+0x1c],edx
  401ed8:	8d 54 24 1c          	lea    edx,[esp+0x1c]
  401edc:	e8 af fd ff ff       	call   401c90 <___write_memory.part.0>
  401ee1:	e9 12 ff ff ff       	jmp    401df8 <__pei386_runtime_relocator+0x78>
  401ee6:	0f b6 10             	movzx  edx,BYTE PTR [eax]
  401ee9:	84 d2                	test   dl,dl
  401eeb:	0f b6 f2             	movzx  esi,dl
  401eee:	79 06                	jns    401ef6 <__pei386_runtime_relocator+0x176>
  401ef0:	81 ce 00 ff ff ff    	or     esi,0xffffff00
  401ef6:	81 ee 00 00 40 00    	sub    esi,0x400000
  401efc:	89 f2                	mov    edx,esi
  401efe:	29 ca                	sub    edx,ecx
  401f00:	b9 01 00 00 00       	mov    ecx,0x1
  401f05:	01 fa                	add    edx,edi
  401f07:	89 54 24 1c          	mov    DWORD PTR [esp+0x1c],edx
  401f0b:	8d 54 24 1c          	lea    edx,[esp+0x1c]
  401f0f:	e8 7c fd ff ff       	call   401c90 <___write_memory.part.0>
  401f14:	e9 df fe ff ff       	jmp    401df8 <__pei386_runtime_relocator+0x78>
  401f19:	8d b4 26 00 00 00 00 	lea    esi,[esi+eiz*1+0x0]
  401f20:	81 c1 00 00 40 00    	add    ecx,0x400000
  401f26:	29 cf                	sub    edi,ecx
  401f28:	b9 04 00 00 00       	mov    ecx,0x4
  401f2d:	03 38                	add    edi,DWORD PTR [eax]
  401f2f:	8d 54 24 1c          	lea    edx,[esp+0x1c]
  401f33:	89 7c 24 1c          	mov    DWORD PTR [esp+0x1c],edi
  401f37:	e8 54 fd ff ff       	call   401c90 <___write_memory.part.0>
  401f3c:	e9 b7 fe ff ff       	jmp    401df8 <__pei386_runtime_relocator+0x78>
  401f41:	89 44 24 04          	mov    DWORD PTR [esp+0x4],eax
  401f45:	c7 04 24 b4 a0 40 00 	mov    DWORD PTR [esp],0x40a0b4
  401f4c:	e8 ef fc ff ff       	call   401c40 <___report_error>
  401f51:	90                   	nop
  401f52:	90                   	nop
  401f53:	90                   	nop
  401f54:	90                   	nop
  401f55:	90                   	nop
  401f56:	90                   	nop
  401f57:	90                   	nop
  401f58:	90                   	nop
  401f59:	90                   	nop
  401f5a:	90                   	nop
  401f5b:	90                   	nop
  401f5c:	90                   	nop
  401f5d:	90                   	nop
  401f5e:	90                   	nop
  401f5f:	90                   	nop

00401f60 <___chkstk_ms>:
  401f60:	51                   	push   ecx
  401f61:	50                   	push   eax
  401f62:	3d 00 10 00 00       	cmp    eax,0x1000
  401f67:	8d 4c 24 0c          	lea    ecx,[esp+0xc]
  401f6b:	72 15                	jb     401f82 <___chkstk_ms+0x22>
  401f6d:	81 e9 00 10 00 00    	sub    ecx,0x1000
  401f73:	83 09 00             	or     DWORD PTR [ecx],0x0
  401f76:	2d 00 10 00 00       	sub    eax,0x1000
  401f7b:	3d 00 10 00 00       	cmp    eax,0x1000
  401f80:	77 eb                	ja     401f6d <___chkstk_ms+0xd>
  401f82:	29 c1                	sub    ecx,eax
  401f84:	83 09 00             	or     DWORD PTR [ecx],0x0
  401f87:	58                   	pop    eax
  401f88:	59                   	pop    ecx
  401f89:	c3                   	ret    
  401f8a:	90                   	nop
  401f8b:	90                   	nop

00401f8c <.text>:
  401f8c:	66 90                	xchg   ax,ax
  401f8e:	66 90                	xchg   ax,ax

00401f90 <_is_glob_pattern>:
  401f90:	57                   	push   edi
  401f91:	85 c0                	test   eax,eax
  401f93:	56                   	push   esi
  401f94:	53                   	push   ebx
  401f95:	89 c3                	mov    ebx,eax
  401f97:	74 44                	je     401fdd <_is_glob_pattern+0x4d>
  401f99:	0f be 0b             	movsx  ecx,BYTE PTR [ebx]
  401f9c:	89 d6                	mov    esi,edx
  401f9e:	31 c0                	xor    eax,eax
  401fa0:	83 e6 20             	and    esi,0x20
  401fa3:	8d 53 01             	lea    edx,[ebx+0x1]
  401fa6:	85 c9                	test   ecx,ecx
  401fa8:	74 33                	je     401fdd <_is_glob_pattern+0x4d>
  401faa:	8d b6 00 00 00 00    	lea    esi,[esi+0x0]
  401fb0:	85 f6                	test   esi,esi
  401fb2:	89 f7                	mov    edi,esi
  401fb4:	75 05                	jne    401fbb <_is_glob_pattern+0x2b>
  401fb6:	83 f9 7f             	cmp    ecx,0x7f
  401fb9:	74 45                	je     402000 <_is_glob_pattern+0x70>
  401fbb:	85 c0                	test   eax,eax
  401fbd:	75 26                	jne    401fe5 <_is_glob_pattern+0x55>
  401fbf:	83 f9 3f             	cmp    ecx,0x3f
  401fc2:	74 51                	je     402015 <_is_glob_pattern+0x85>
  401fc4:	83 f9 2a             	cmp    ecx,0x2a
  401fc7:	74 4c                	je     402015 <_is_glob_pattern+0x85>
  401fc9:	31 c0                	xor    eax,eax
  401fcb:	83 f9 5b             	cmp    ecx,0x5b
  401fce:	0f 94 c0             	sete   al
  401fd1:	89 d3                	mov    ebx,edx
  401fd3:	0f be 0b             	movsx  ecx,BYTE PTR [ebx]
  401fd6:	8d 53 01             	lea    edx,[ebx+0x1]
  401fd9:	85 c9                	test   ecx,ecx
  401fdb:	75 d3                	jne    401fb0 <_is_glob_pattern+0x20>
  401fdd:	31 ff                	xor    edi,edi
  401fdf:	89 f8                	mov    eax,edi
  401fe1:	5b                   	pop    ebx
  401fe2:	5e                   	pop    esi
  401fe3:	5f                   	pop    edi
  401fe4:	c3                   	ret    
  401fe5:	83 f9 5d             	cmp    ecx,0x5d
  401fe8:	74 26                	je     402010 <_is_glob_pattern+0x80>
  401fea:	83 f9 21             	cmp    ecx,0x21
  401fed:	89 d3                	mov    ebx,edx
  401fef:	0f 95 c1             	setne  cl
  401ff2:	0f b6 c9             	movzx  ecx,cl
  401ff5:	01 c8                	add    eax,ecx
  401ff7:	eb da                	jmp    401fd3 <_is_glob_pattern+0x43>
  401ff9:	8d b4 26 00 00 00 00 	lea    esi,[esi+eiz*1+0x0]
  402000:	80 7b 01 00          	cmp    BYTE PTR [ebx+0x1],0x0
  402004:	8d 53 02             	lea    edx,[ebx+0x2]
  402007:	75 b2                	jne    401fbb <_is_glob_pattern+0x2b>
  402009:	eb d4                	jmp    401fdf <_is_glob_pattern+0x4f>
  40200b:	90                   	nop
  40200c:	8d 74 26 00          	lea    esi,[esi+eiz*1+0x0]
  402010:	83 f8 01             	cmp    eax,0x1
  402013:	7e d5                	jle    401fea <_is_glob_pattern+0x5a>
  402015:	bf 01 00 00 00       	mov    edi,0x1
  40201a:	89 f8                	mov    eax,edi
  40201c:	5b                   	pop    ebx
  40201d:	5e                   	pop    esi
  40201e:	5f                   	pop    edi
  40201f:	c3                   	ret    

00402020 <_glob_in_set>:
  402020:	55                   	push   ebp
  402021:	57                   	push   edi
  402022:	56                   	push   esi
  402023:	53                   	push   ebx
  402024:	83 ec 04             	sub    esp,0x4
  402027:	0f b6 18             	movzx  ebx,BYTE PTR [eax]
  40202a:	89 0c 24             	mov    DWORD PTR [esp],ecx
  40202d:	0f be fb             	movsx  edi,bl
  402030:	83 ff 5d             	cmp    edi,0x5d
  402033:	0f 84 d7 00 00 00    	je     402110 <_glob_in_set+0xf0>
  402039:	83 ff 2d             	cmp    edi,0x2d
  40203c:	89 d9                	mov    ecx,ebx
  40203e:	75 2e                	jne    40206e <_glob_in_set+0x4e>
  402040:	e9 cb 00 00 00       	jmp    402110 <_glob_in_set+0xf0>
  402045:	85 db                	test   ebx,ebx
  402047:	0f 84 b3 00 00 00    	je     402100 <_glob_in_set+0xe0>
  40204d:	83 fb 5c             	cmp    ebx,0x5c
  402050:	0f 84 aa 00 00 00    	je     402100 <_glob_in_set+0xe0>
  402056:	83 fb 2f             	cmp    ebx,0x2f
  402059:	0f 84 a1 00 00 00    	je     402100 <_glob_in_set+0xe0>
  40205f:	89 df                	mov    edi,ebx
  402061:	0f b6 0e             	movzx  ecx,BYTE PTR [esi]
  402064:	89 f0                	mov    eax,esi
  402066:	39 d7                	cmp    edi,edx
  402068:	0f 84 ca 00 00 00    	je     402138 <_glob_in_set+0x118>
  40206e:	0f be d9             	movsx  ebx,cl
  402071:	83 fb 5d             	cmp    ebx,0x5d
  402074:	8d 70 01             	lea    esi,[eax+0x1]
  402077:	0f 84 83 00 00 00    	je     402100 <_glob_in_set+0xe0>
  40207d:	83 fb 2d             	cmp    ebx,0x2d
  402080:	75 c3                	jne    402045 <_glob_in_set+0x25>
  402082:	0f b6 58 01          	movzx  ebx,BYTE PTR [eax+0x1]
  402086:	80 fb 5d             	cmp    bl,0x5d
  402089:	0f 84 95 00 00 00    	je     402124 <_glob_in_set+0x104>
  40208f:	0f be eb             	movsx  ebp,bl
  402092:	85 ed                	test   ebp,ebp
  402094:	89 eb                	mov    ebx,ebp
  402096:	74 68                	je     402100 <_glob_in_set+0xe0>
  402098:	39 ef                	cmp    edi,ebp
  40209a:	8d 70 02             	lea    esi,[eax+0x2]
  40209d:	0f 8d 85 01 00 00    	jge    402228 <_glob_in_set+0x208>
  4020a3:	39 d7                	cmp    edi,edx
  4020a5:	8d 47 01             	lea    eax,[edi+0x1]
  4020a8:	75 14                	jne    4020be <_glob_in_set+0x9e>
  4020aa:	e9 c1 00 00 00       	jmp    402170 <_glob_in_set+0x150>
  4020af:	90                   	nop
  4020b0:	83 c0 01             	add    eax,0x1
  4020b3:	8d 78 ff             	lea    edi,[eax-0x1]
  4020b6:	39 fa                	cmp    edx,edi
  4020b8:	0f 84 b2 00 00 00    	je     402170 <_glob_in_set+0x150>
  4020be:	39 c5                	cmp    ebp,eax
  4020c0:	7f ee                	jg     4020b0 <_glob_in_set+0x90>
  4020c2:	39 c5                	cmp    ebp,eax
  4020c4:	7d 87                	jge    40204d <_glob_in_set+0x2d>
  4020c6:	39 c2                	cmp    edx,eax
  4020c8:	74 15                	je     4020df <_glob_in_set+0xbf>
  4020ca:	83 c5 01             	add    ebp,0x1
  4020cd:	8d 76 00             	lea    esi,[esi+0x0]
  4020d0:	39 e8                	cmp    eax,ebp
  4020d2:	0f 84 75 ff ff ff    	je     40204d <_glob_in_set+0x2d>
  4020d8:	83 e8 01             	sub    eax,0x1
  4020db:	39 c2                	cmp    edx,eax
  4020dd:	75 f1                	jne    4020d0 <_glob_in_set+0xb0>
  4020df:	8b 0c 24             	mov    ecx,DWORD PTR [esp]
  4020e2:	83 e1 20             	and    ecx,0x20
  4020e5:	0f b6 06             	movzx  eax,BYTE PTR [esi]
  4020e8:	3c 5d                	cmp    al,0x5d
  4020ea:	0f 84 a3 00 00 00    	je     402193 <_glob_in_set+0x173>
  4020f0:	3c 7f                	cmp    al,0x7f
  4020f2:	0f 84 bd 00 00 00    	je     4021b5 <_glob_in_set+0x195>
  4020f8:	83 c6 01             	add    esi,0x1
  4020fb:	84 c0                	test   al,al
  4020fd:	75 e6                	jne    4020e5 <_glob_in_set+0xc5>
  4020ff:	90                   	nop
  402100:	83 c4 04             	add    esp,0x4
  402103:	31 c0                	xor    eax,eax
  402105:	5b                   	pop    ebx
  402106:	5e                   	pop    esi
  402107:	5f                   	pop    edi
  402108:	5d                   	pop    ebp
  402109:	c3                   	ret    
  40210a:	8d b6 00 00 00 00    	lea    esi,[esi+0x0]
  402110:	39 d7                	cmp    edi,edx
  402112:	0f 84 b8 00 00 00    	je     4021d0 <_glob_in_set+0x1b0>
  402118:	0f b6 48 01          	movzx  ecx,BYTE PTR [eax+0x1]
  40211c:	83 c0 01             	add    eax,0x1
  40211f:	e9 4a ff ff ff       	jmp    40206e <_glob_in_set+0x4e>
  402124:	bf 2d 00 00 00       	mov    edi,0x2d
  402129:	89 f0                	mov    eax,esi
  40212b:	39 d7                	cmp    edi,edx
  40212d:	b9 5d 00 00 00       	mov    ecx,0x5d
  402132:	0f 85 36 ff ff ff    	jne    40206e <_glob_in_set+0x4e>
  402138:	8b 14 24             	mov    edx,DWORD PTR [esp]
  40213b:	83 e2 20             	and    edx,0x20
  40213e:	eb 0a                	jmp    40214a <_glob_in_set+0x12a>
  402140:	83 c0 01             	add    eax,0x1
  402143:	84 c9                	test   cl,cl
  402145:	74 b9                	je     402100 <_glob_in_set+0xe0>
  402147:	0f b6 08             	movzx  ecx,BYTE PTR [eax]
  40214a:	80 f9 5d             	cmp    cl,0x5d
  40214d:	0f 84 c2 00 00 00    	je     402215 <_glob_in_set+0x1f5>
  402153:	80 f9 7f             	cmp    cl,0x7f
  402156:	75 e8                	jne    402140 <_glob_in_set+0x120>
  402158:	85 d2                	test   edx,edx
  40215a:	0f 85 c0 00 00 00    	jne    402220 <_glob_in_set+0x200>
  402160:	0f b6 48 01          	movzx  ecx,BYTE PTR [eax+0x1]
  402164:	83 c0 01             	add    eax,0x1
  402167:	eb d7                	jmp    402140 <_glob_in_set+0x120>
  402169:	8d b4 26 00 00 00 00 	lea    esi,[esi+eiz*1+0x0]
  402170:	8b 0c 24             	mov    ecx,DWORD PTR [esp]
  402173:	83 e1 20             	and    ecx,0x20
  402176:	0f b6 06             	movzx  eax,BYTE PTR [esi]
  402179:	3c 5d                	cmp    al,0x5d
  40217b:	74 16                	je     402193 <_glob_in_set+0x173>
  40217d:	3c 7f                	cmp    al,0x7f
  40217f:	74 1f                	je     4021a0 <_glob_in_set+0x180>
  402181:	83 c6 01             	add    esi,0x1
  402184:	84 c0                	test   al,al
  402186:	0f 84 74 ff ff ff    	je     402100 <_glob_in_set+0xe0>
  40218c:	0f b6 06             	movzx  eax,BYTE PTR [esi]
  40218f:	3c 5d                	cmp    al,0x5d
  402191:	75 ea                	jne    40217d <_glob_in_set+0x15d>
  402193:	83 c4 04             	add    esp,0x4
  402196:	5b                   	pop    ebx
  402197:	8d 46 01             	lea    eax,[esi+0x1]
  40219a:	5e                   	pop    esi
  40219b:	5f                   	pop    edi
  40219c:	5d                   	pop    ebp
  40219d:	c3                   	ret    
  40219e:	66 90                	xchg   ax,ax
  4021a0:	85 c9                	test   ecx,ecx
  4021a2:	75 0c                	jne    4021b0 <_glob_in_set+0x190>
  4021a4:	0f b6 46 01          	movzx  eax,BYTE PTR [esi+0x1]
  4021a8:	83 c6 01             	add    esi,0x1
  4021ab:	eb d4                	jmp    402181 <_glob_in_set+0x161>
  4021ad:	8d 76 00             	lea    esi,[esi+0x0]
  4021b0:	83 c6 01             	add    esi,0x1
  4021b3:	eb c1                	jmp    402176 <_glob_in_set+0x156>
  4021b5:	85 c9                	test   ecx,ecx
  4021b7:	75 0c                	jne    4021c5 <_glob_in_set+0x1a5>
  4021b9:	0f b6 46 01          	movzx  eax,BYTE PTR [esi+0x1]
  4021bd:	83 c6 01             	add    esi,0x1
  4021c0:	e9 33 ff ff ff       	jmp    4020f8 <_glob_in_set+0xd8>
  4021c5:	83 c6 01             	add    esi,0x1
  4021c8:	e9 18 ff ff ff       	jmp    4020e5 <_glob_in_set+0xc5>
  4021cd:	8d 76 00             	lea    esi,[esi+0x0]
  4021d0:	8b 0c 24             	mov    ecx,DWORD PTR [esp]
  4021d3:	83 c0 01             	add    eax,0x1
  4021d6:	83 e1 20             	and    ecx,0x20
  4021d9:	8d b4 26 00 00 00 00 	lea    esi,[esi+eiz*1+0x0]
  4021e0:	0f b6 10             	movzx  edx,BYTE PTR [eax]
  4021e3:	80 fa 5d             	cmp    dl,0x5d
  4021e6:	74 2d                	je     402215 <_glob_in_set+0x1f5>
  4021e8:	80 fa 7f             	cmp    dl,0x7f
  4021eb:	74 13                	je     402200 <_glob_in_set+0x1e0>
  4021ed:	83 c0 01             	add    eax,0x1
  4021f0:	84 d2                	test   dl,dl
  4021f2:	75 ec                	jne    4021e0 <_glob_in_set+0x1c0>
  4021f4:	e9 07 ff ff ff       	jmp    402100 <_glob_in_set+0xe0>
  4021f9:	8d b4 26 00 00 00 00 	lea    esi,[esi+eiz*1+0x0]
  402200:	85 c9                	test   ecx,ecx
  402202:	75 0c                	jne    402210 <_glob_in_set+0x1f0>
  402204:	0f b6 50 01          	movzx  edx,BYTE PTR [eax+0x1]
  402208:	83 c0 01             	add    eax,0x1
  40220b:	eb e0                	jmp    4021ed <_glob_in_set+0x1cd>
  40220d:	8d 76 00             	lea    esi,[esi+0x0]
  402210:	83 c0 01             	add    eax,0x1
  402213:	eb cb                	jmp    4021e0 <_glob_in_set+0x1c0>
  402215:	83 c4 04             	add    esp,0x4
  402218:	83 c0 01             	add    eax,0x1
  40221b:	5b                   	pop    ebx
  40221c:	5e                   	pop    esi
  40221d:	5f                   	pop    edi
  40221e:	5d                   	pop    ebp
  40221f:	c3                   	ret    
  402220:	83 c0 01             	add    eax,0x1
  402223:	e9 1f ff ff ff       	jmp    402147 <_glob_in_set+0x127>
  402228:	89 f8                	mov    eax,edi
  40222a:	e9 93 fe ff ff       	jmp    4020c2 <_glob_in_set+0xa2>
  40222f:	90                   	nop

00402230 <_glob_initialise>:
  402230:	55                   	push   ebp
  402231:	57                   	push   edi
  402232:	56                   	push   esi
  402233:	89 c6                	mov    esi,eax
  402235:	53                   	push   ebx
  402236:	83 ec 1c             	sub    esp,0x1c
  402239:	85 c0                	test   eax,eax
  40223b:	74 47                	je     402284 <_glob_initialise+0x54>
  40223d:	8b 40 0c             	mov    eax,DWORD PTR [eax+0xc]
  402240:	8d 78 01             	lea    edi,[eax+0x1]
  402243:	8d 2c bd 00 00 00 00 	lea    ebp,[edi*4+0x0]
  40224a:	89 2c 24             	mov    DWORD PTR [esp],ebp
  40224d:	e8 76 5d 00 00       	call   407fc8 <_malloc>
  402252:	89 c3                	mov    ebx,eax
  402254:	85 db                	test   ebx,ebx
  402256:	89 46 08             	mov    DWORD PTR [esi+0x8],eax
  402259:	b8 03 00 00 00       	mov    eax,0x3
  40225e:	74 26                	je     402286 <_glob_initialise+0x56>
  402260:	85 ff                	test   edi,edi
  402262:	89 fa                	mov    edx,edi
  402264:	c7 46 04 00 00 00 00 	mov    DWORD PTR [esi+0x4],0x0
  40226b:	7e 17                	jle    402284 <_glob_initialise+0x54>
  40226d:	8d 4d fc             	lea    ecx,[ebp-0x4]
  402270:	eb 03                	jmp    402275 <_glob_initialise+0x45>
  402272:	8b 5e 08             	mov    ebx,DWORD PTR [esi+0x8]
  402275:	c7 04 0b 00 00 00 00 	mov    DWORD PTR [ebx+ecx*1],0x0
  40227c:	83 e9 04             	sub    ecx,0x4
  40227f:	83 ea 01             	sub    edx,0x1
  402282:	75 ee                	jne    402272 <_glob_initialise+0x42>
  402284:	31 c0                	xor    eax,eax
  402286:	83 c4 1c             	add    esp,0x1c
  402289:	5b                   	pop    ebx
  40228a:	5e                   	pop    esi
  40228b:	5f                   	pop    edi
  40228c:	5d                   	pop    ebp
  40228d:	c3                   	ret    
  40228e:	66 90                	xchg   ax,ax

00402290 <_glob_strcmp>:
  402290:	55                   	push   ebp
  402291:	57                   	push   edi
  402292:	89 c7                	mov    edi,eax
  402294:	56                   	push   esi
  402295:	53                   	push   ebx
  402296:	83 ec 2c             	sub    esp,0x2c
  402299:	80 3a 2e             	cmp    BYTE PTR [edx],0x2e
  40229c:	89 4c 24 10          	mov    DWORD PTR [esp+0x10],ecx
  4022a0:	0f 84 5a 01 00 00    	je     402400 <_glob_strcmp+0x170>
  4022a6:	0f b6 08             	movzx  ecx,BYTE PTR [eax]
  4022a9:	8b 74 24 10          	mov    esi,DWORD PTR [esp+0x10]
  4022ad:	8d 6a 01             	lea    ebp,[edx+0x1]
  4022b0:	89 f0                	mov    eax,esi
  4022b2:	83 e0 20             	and    eax,0x20
  4022b5:	89 44 24 14          	mov    DWORD PTR [esp+0x14],eax
  4022b9:	89 f0                	mov    eax,esi
  4022bb:	25 00 40 00 00       	and    eax,0x4000
  4022c0:	89 44 24 18          	mov    DWORD PTR [esp+0x18],eax
  4022c4:	0f be d1             	movsx  edx,cl
  4022c7:	85 d2                	test   edx,edx
  4022c9:	8d 75 ff             	lea    esi,[ebp-0x1]
  4022cc:	8d 47 01             	lea    eax,[edi+0x1]
  4022cf:	0f 84 70 01 00 00    	je     402445 <_glob_strcmp+0x1b5>
  4022d5:	80 f9 3f             	cmp    cl,0x3f
  4022d8:	0f 84 e4 00 00 00    	je     4023c2 <_glob_strcmp+0x132>
  4022de:	80 f9 5b             	cmp    cl,0x5b
  4022e1:	0f 84 ab 00 00 00    	je     402392 <_glob_strcmp+0x102>
  4022e7:	80 f9 2a             	cmp    cl,0x2a
  4022ea:	74 5c                	je     402348 <_glob_strcmp+0xb8>
  4022ec:	8b 4c 24 14          	mov    ecx,DWORD PTR [esp+0x14]
  4022f0:	85 c9                	test   ecx,ecx
  4022f2:	0f 84 d8 00 00 00    	je     4023d0 <_glob_strcmp+0x140>
  4022f8:	89 c7                	mov    edi,eax
  4022fa:	0f be 5d ff          	movsx  ebx,BYTE PTR [ebp-0x1]
  4022fe:	84 db                	test   bl,bl
  402300:	0f 84 92 01 00 00    	je     402498 <_glob_strcmp+0x208>
  402306:	8b 44 24 18          	mov    eax,DWORD PTR [esp+0x18]
  40230a:	85 c0                	test   eax,eax
  40230c:	0f 85 de 00 00 00    	jne    4023f0 <_glob_strcmp+0x160>
  402312:	89 14 24             	mov    DWORD PTR [esp],edx
  402315:	89 54 24 1c          	mov    DWORD PTR [esp+0x1c],edx
  402319:	e8 5a 5c 00 00       	call   407f78 <_tolower>
  40231e:	89 1c 24             	mov    DWORD PTR [esp],ebx
  402321:	89 c6                	mov    esi,eax
  402323:	e8 50 5c 00 00       	call   407f78 <_tolower>
  402328:	8b 54 24 1c          	mov    edx,DWORD PTR [esp+0x1c]
  40232c:	29 c6                	sub    esi,eax
  40232e:	85 f6                	test   esi,esi
  402330:	0f 84 81 00 00 00    	je     4023b7 <_glob_strcmp+0x127>
  402336:	89 d0                	mov    eax,edx
  402338:	29 d8                	sub    eax,ebx
  40233a:	8d b6 00 00 00 00    	lea    esi,[esi+0x0]
  402340:	83 c4 2c             	add    esp,0x2c
  402343:	5b                   	pop    ebx
  402344:	5e                   	pop    esi
  402345:	5f                   	pop    edi
  402346:	5d                   	pop    ebp
  402347:	c3                   	ret    
  402348:	0f b6 57 01          	movzx  edx,BYTE PTR [edi+0x1]
  40234c:	89 c3                	mov    ebx,eax
  40234e:	80 fa 2a             	cmp    dl,0x2a
  402351:	75 0b                	jne    40235e <_glob_strcmp+0xce>
  402353:	83 c3 01             	add    ebx,0x1
  402356:	0f b6 13             	movzx  edx,BYTE PTR [ebx]
  402359:	80 fa 2a             	cmp    dl,0x2a
  40235c:	74 f5                	je     402353 <_glob_strcmp+0xc3>
  40235e:	31 c0                	xor    eax,eax
  402360:	84 d2                	test   dl,dl
  402362:	74 dc                	je     402340 <_glob_strcmp+0xb0>
  402364:	8b 7c 24 10          	mov    edi,DWORD PTR [esp+0x10]
  402368:	81 cf 00 00 01 00    	or     edi,0x10000
  40236e:	eb 09                	jmp    402379 <_glob_strcmp+0xe9>
  402370:	83 c6 01             	add    esi,0x1
  402373:	80 7e ff 00          	cmp    BYTE PTR [esi-0x1],0x0
  402377:	74 c7                	je     402340 <_glob_strcmp+0xb0>
  402379:	89 f9                	mov    ecx,edi
  40237b:	89 f2                	mov    edx,esi
  40237d:	89 d8                	mov    eax,ebx
  40237f:	e8 0c ff ff ff       	call   402290 <_glob_strcmp>
  402384:	85 c0                	test   eax,eax
  402386:	75 e8                	jne    402370 <_glob_strcmp+0xe0>
  402388:	83 c4 2c             	add    esp,0x2c
  40238b:	31 c0                	xor    eax,eax
  40238d:	5b                   	pop    ebx
  40238e:	5e                   	pop    esi
  40238f:	5f                   	pop    edi
  402390:	5d                   	pop    ebp
  402391:	c3                   	ret    
  402392:	0f be 55 ff          	movsx  edx,BYTE PTR [ebp-0x1]
  402396:	85 d2                	test   edx,edx
  402398:	0f 84 0b 01 00 00    	je     4024a9 <_glob_strcmp+0x219>
  40239e:	80 7f 01 21          	cmp    BYTE PTR [edi+0x1],0x21
  4023a2:	74 7c                	je     402420 <_glob_strcmp+0x190>
  4023a4:	8b 4c 24 10          	mov    ecx,DWORD PTR [esp+0x10]
  4023a8:	e8 73 fc ff ff       	call   402020 <_glob_in_set>
  4023ad:	85 c0                	test   eax,eax
  4023af:	89 c7                	mov    edi,eax
  4023b1:	0f 84 d7 00 00 00    	je     40248e <_glob_strcmp+0x1fe>
  4023b7:	0f b6 0f             	movzx  ecx,BYTE PTR [edi]
  4023ba:	83 c5 01             	add    ebp,0x1
  4023bd:	e9 02 ff ff ff       	jmp    4022c4 <_glob_strcmp+0x34>
  4023c2:	80 7d ff 00          	cmp    BYTE PTR [ebp-0x1],0x0
  4023c6:	0f 84 d3 00 00 00    	je     40249f <_glob_strcmp+0x20f>
  4023cc:	89 c7                	mov    edi,eax
  4023ce:	eb e7                	jmp    4023b7 <_glob_strcmp+0x127>
  4023d0:	83 fa 7f             	cmp    edx,0x7f
  4023d3:	0f 85 1f ff ff ff    	jne    4022f8 <_glob_strcmp+0x68>
  4023d9:	0f be 57 01          	movsx  edx,BYTE PTR [edi+0x1]
  4023dd:	83 c7 02             	add    edi,0x2
  4023e0:	85 d2                	test   edx,edx
  4023e2:	0f 85 12 ff ff ff    	jne    4022fa <_glob_strcmp+0x6a>
  4023e8:	e9 0b ff ff ff       	jmp    4022f8 <_glob_strcmp+0x68>
  4023ed:	8d 76 00             	lea    esi,[esi+0x0]
  4023f0:	89 d6                	mov    esi,edx
  4023f2:	29 de                	sub    esi,ebx
  4023f4:	e9 35 ff ff ff       	jmp    40232e <_glob_strcmp+0x9e>
  4023f9:	8d b4 26 00 00 00 00 	lea    esi,[esi+eiz*1+0x0]
  402400:	0f be 00             	movsx  eax,BYTE PTR [eax]
  402403:	3c 2e                	cmp    al,0x2e
  402405:	74 32                	je     402439 <_glob_strcmp+0x1a9>
  402407:	89 c1                	mov    ecx,eax
  402409:	83 e8 2e             	sub    eax,0x2e
  40240c:	f7 44 24 10 00 00 01 	test   DWORD PTR [esp+0x10],0x10000
  402413:	00 
  402414:	0f 85 8f fe ff ff    	jne    4022a9 <_glob_strcmp+0x19>
  40241a:	e9 21 ff ff ff       	jmp    402340 <_glob_strcmp+0xb0>
  40241f:	90                   	nop
  402420:	8b 4c 24 10          	mov    ecx,DWORD PTR [esp+0x10]
  402424:	8d 5f 02             	lea    ebx,[edi+0x2]
  402427:	89 d8                	mov    eax,ebx
  402429:	e8 f2 fb ff ff       	call   402020 <_glob_in_set>
  40242e:	85 c0                	test   eax,eax
  402430:	74 1d                	je     40244f <_glob_strcmp+0x1bf>
  402432:	89 df                	mov    edi,ebx
  402434:	e9 7e ff ff ff       	jmp    4023b7 <_glob_strcmp+0x127>
  402439:	b9 2e 00 00 00       	mov    ecx,0x2e
  40243e:	66 90                	xchg   ax,ax
  402440:	e9 64 fe ff ff       	jmp    4022a9 <_glob_strcmp+0x19>
  402445:	0f be 06             	movsx  eax,BYTE PTR [esi]
  402448:	f7 d8                	neg    eax
  40244a:	e9 f1 fe ff ff       	jmp    402340 <_glob_strcmp+0xb0>
  40244f:	0f b6 47 02          	movzx  eax,BYTE PTR [edi+0x2]
  402453:	8b 54 24 14          	mov    edx,DWORD PTR [esp+0x14]
  402457:	3c 5d                	cmp    al,0x5d
  402459:	75 0f                	jne    40246a <_glob_strcmp+0x1da>
  40245b:	eb 56                	jmp    4024b3 <_glob_strcmp+0x223>
  40245d:	8d 76 00             	lea    esi,[esi+0x0]
  402460:	83 c3 01             	add    ebx,0x1
  402463:	84 c0                	test   al,al
  402465:	74 27                	je     40248e <_glob_strcmp+0x1fe>
  402467:	0f b6 03             	movzx  eax,BYTE PTR [ebx]
  40246a:	3c 5d                	cmp    al,0x5d
  40246c:	74 16                	je     402484 <_glob_strcmp+0x1f4>
  40246e:	3c 7f                	cmp    al,0x7f
  402470:	75 ee                	jne    402460 <_glob_strcmp+0x1d0>
  402472:	85 d2                	test   edx,edx
  402474:	75 09                	jne    40247f <_glob_strcmp+0x1ef>
  402476:	0f b6 43 01          	movzx  eax,BYTE PTR [ebx+0x1]
  40247a:	83 c3 01             	add    ebx,0x1
  40247d:	eb e1                	jmp    402460 <_glob_strcmp+0x1d0>
  40247f:	83 c3 01             	add    ebx,0x1
  402482:	eb e3                	jmp    402467 <_glob_strcmp+0x1d7>
  402484:	83 c3 01             	add    ebx,0x1
  402487:	89 df                	mov    edi,ebx
  402489:	e9 29 ff ff ff       	jmp    4023b7 <_glob_strcmp+0x127>
  40248e:	b8 5d 00 00 00       	mov    eax,0x5d
  402493:	e9 a8 fe ff ff       	jmp    402340 <_glob_strcmp+0xb0>
  402498:	31 db                	xor    ebx,ebx
  40249a:	e9 97 fe ff ff       	jmp    402336 <_glob_strcmp+0xa6>
  40249f:	b8 3f 00 00 00       	mov    eax,0x3f
  4024a4:	e9 97 fe ff ff       	jmp    402340 <_glob_strcmp+0xb0>
  4024a9:	b8 5b 00 00 00       	mov    eax,0x5b
  4024ae:	e9 8d fe ff ff       	jmp    402340 <_glob_strcmp+0xb0>
  4024b3:	8d 5f 03             	lea    ebx,[edi+0x3]
  4024b6:	0f b6 47 03          	movzx  eax,BYTE PTR [edi+0x3]
  4024ba:	8b 54 24 14          	mov    edx,DWORD PTR [esp+0x14]
  4024be:	eb aa                	jmp    40246a <_glob_strcmp+0x1da>

004024c0 <_glob_registry.part.1>:
  4024c0:	57                   	push   edi
  4024c1:	89 c7                	mov    edi,eax
  4024c3:	56                   	push   esi
  4024c4:	53                   	push   ebx
  4024c5:	83 ec 10             	sub    esp,0x10
  4024c8:	8b 40 04             	mov    eax,DWORD PTR [eax+0x4]
  4024cb:	8b 4f 0c             	mov    ecx,DWORD PTR [edi+0xc]
  4024ce:	85 c0                	test   eax,eax
  4024d0:	8d 70 ff             	lea    esi,[eax-0x1]
  4024d3:	8d 1c 8d 00 00 00 00 	lea    ebx,[ecx*4+0x0]
  4024da:	7e 1d                	jle    4024f9 <_glob_registry.part.1+0x39>
  4024dc:	8d 74 26 00          	lea    esi,[esi+eiz*1+0x0]
  4024e0:	8b 57 08             	mov    edx,DWORD PTR [edi+0x8]
  4024e3:	83 ee 01             	sub    esi,0x1
  4024e6:	8b 14 1a             	mov    edx,DWORD PTR [edx+ebx*1]
  4024e9:	83 c3 04             	add    ebx,0x4
  4024ec:	89 14 24             	mov    DWORD PTR [esp],edx
  4024ef:	e8 fc 5a 00 00       	call   407ff0 <_free>
  4024f4:	83 fe ff             	cmp    esi,0xffffffff
  4024f7:	75 e7                	jne    4024e0 <_glob_registry.part.1+0x20>
  4024f9:	8b 47 08             	mov    eax,DWORD PTR [edi+0x8]
  4024fc:	89 04 24             	mov    DWORD PTR [esp],eax
  4024ff:	e8 ec 5a 00 00       	call   407ff0 <_free>
  402504:	83 c4 10             	add    esp,0x10
  402507:	31 c0                	xor    eax,eax
  402509:	5b                   	pop    ebx
  40250a:	5e                   	pop    esi
  40250b:	5f                   	pop    edi
  40250c:	c3                   	ret    
  40250d:	8d 76 00             	lea    esi,[esi+0x0]

00402510 <_glob_store_entry.part.2>:
  402510:	57                   	push   edi
  402511:	56                   	push   esi
  402512:	89 c6                	mov    esi,eax
  402514:	53                   	push   ebx
  402515:	89 d3                	mov    ebx,edx
  402517:	83 ec 10             	sub    esp,0x10
  40251a:	8b 52 04             	mov    edx,DWORD PTR [edx+0x4]
  40251d:	03 53 0c             	add    edx,DWORD PTR [ebx+0xc]
  402520:	8d 04 95 08 00 00 00 	lea    eax,[edx*4+0x8]
  402527:	89 44 24 04          	mov    DWORD PTR [esp+0x4],eax
  40252b:	8b 43 08             	mov    eax,DWORD PTR [ebx+0x8]
  40252e:	89 04 24             	mov    DWORD PTR [esp],eax
  402531:	e8 72 5a 00 00       	call   407fa8 <_realloc>
  402536:	85 c0                	test   eax,eax
  402538:	89 c2                	mov    edx,eax
  40253a:	74 29                	je     402565 <_glob_store_entry.part.2+0x55>
  40253c:	8b 7b 04             	mov    edi,DWORD PTR [ebx+0x4]
  40253f:	89 43 08             	mov    DWORD PTR [ebx+0x8],eax
  402542:	8b 43 0c             	mov    eax,DWORD PTR [ebx+0xc]
  402545:	8d 4f 01             	lea    ecx,[edi+0x1]
  402548:	01 c7                	add    edi,eax
  40254a:	01 c8                	add    eax,ecx
  40254c:	89 4b 04             	mov    DWORD PTR [ebx+0x4],ecx
  40254f:	89 34 ba             	mov    DWORD PTR [edx+edi*4],esi
  402552:	8b 53 08             	mov    edx,DWORD PTR [ebx+0x8]
  402555:	c7 04 82 00 00 00 00 	mov    DWORD PTR [edx+eax*4],0x0
  40255c:	83 c4 10             	add    esp,0x10
  40255f:	31 c0                	xor    eax,eax
  402561:	5b                   	pop    ebx
  402562:	5e                   	pop    esi
  402563:	5f                   	pop    edi
  402564:	c3                   	ret    
  402565:	83 c4 10             	add    esp,0x10
  402568:	b8 01 00 00 00       	mov    eax,0x1
  40256d:	5b                   	pop    ebx
  40256e:	5e                   	pop    esi
  40256f:	5f                   	pop    edi
  402570:	c3                   	ret    
  402571:	eb 0d                	jmp    402580 <_glob_store_entry>
  402573:	90                   	nop
  402574:	90                   	nop
  402575:	90                   	nop
  402576:	90                   	nop
  402577:	90                   	nop
  402578:	90                   	nop
  402579:	90                   	nop
  40257a:	90                   	nop
  40257b:	90                   	nop
  40257c:	90                   	nop
  40257d:	90                   	nop
  40257e:	90                   	nop
  40257f:	90                   	nop

00402580 <_glob_store_entry>:
  402580:	85 c0                	test   eax,eax
  402582:	75 0c                	jne    402590 <_glob_store_entry+0x10>
  402584:	b8 01 00 00 00       	mov    eax,0x1
  402589:	c3                   	ret    
  40258a:	8d b6 00 00 00 00    	lea    esi,[esi+0x0]
  402590:	85 d2                	test   edx,edx
  402592:	74 f0                	je     402584 <_glob_store_entry+0x4>
  402594:	e9 77 ff ff ff       	jmp    402510 <_glob_store_entry.part.2>
  402599:	8d b4 26 00 00 00 00 	lea    esi,[esi+eiz*1+0x0]

004025a0 <_glob_store_collated_entries>:
  4025a0:	56                   	push   esi
  4025a1:	89 d6                	mov    esi,edx
  4025a3:	53                   	push   ebx
  4025a4:	89 c3                	mov    ebx,eax
  4025a6:	83 ec 14             	sub    esp,0x14
  4025a9:	8b 00                	mov    eax,DWORD PTR [eax]
  4025ab:	85 c0                	test   eax,eax
  4025ad:	74 05                	je     4025b4 <_glob_store_collated_entries+0x14>
  4025af:	e8 ec ff ff ff       	call   4025a0 <_glob_store_collated_entries>
  4025b4:	8b 43 08             	mov    eax,DWORD PTR [ebx+0x8]
  4025b7:	89 f2                	mov    edx,esi
  4025b9:	e8 c2 ff ff ff       	call   402580 <_glob_store_entry>
  4025be:	8b 43 04             	mov    eax,DWORD PTR [ebx+0x4]
  4025c1:	85 c0                	test   eax,eax
  4025c3:	74 07                	je     4025cc <_glob_store_collated_entries+0x2c>
  4025c5:	89 f2                	mov    edx,esi
  4025c7:	e8 d4 ff ff ff       	call   4025a0 <_glob_store_collated_entries>
  4025cc:	89 1c 24             	mov    DWORD PTR [esp],ebx
  4025cf:	e8 1c 5a 00 00       	call   407ff0 <_free>
  4025d4:	83 c4 14             	add    esp,0x14
  4025d7:	5b                   	pop    ebx
  4025d8:	5e                   	pop    esi
  4025d9:	c3                   	ret    
  4025da:	8d b6 00 00 00 00    	lea    esi,[esi+0x0]

004025e0 <_glob_match>:
  4025e0:	55                   	push   ebp
  4025e1:	89 e5                	mov    ebp,esp
  4025e3:	57                   	push   edi
  4025e4:	56                   	push   esi
  4025e5:	53                   	push   ebx
  4025e6:	89 c3                	mov    ebx,eax
  4025e8:	83 ec 6c             	sub    esp,0x6c
  4025eb:	89 55 cc             	mov    DWORD PTR [ebp-0x34],edx
  4025ee:	89 4d a4             	mov    DWORD PTR [ebp-0x5c],ecx
  4025f1:	89 04 24             	mov    DWORD PTR [esp],eax
  4025f4:	e8 87 59 00 00       	call   407f80 <_strlen>
  4025f9:	8d 50 01             	lea    edx,[eax+0x1]
  4025fc:	83 c0 10             	add    eax,0x10
  4025ff:	83 e0 f0             	and    eax,0xfffffff0
  402602:	e8 59 f9 ff ff       	call   401f60 <___chkstk_ms>
  402607:	29 c4                	sub    esp,eax
  402609:	8d 44 24 0c          	lea    eax,[esp+0xc]
  40260d:	89 54 24 08          	mov    DWORD PTR [esp+0x8],edx
  402611:	89 5c 24 04          	mov    DWORD PTR [esp+0x4],ebx
  402615:	89 04 24             	mov    DWORD PTR [esp],eax
  402618:	e8 9b 59 00 00       	call   407fb8 <_memcpy>
  40261d:	89 04 24             	mov    DWORD PTR [esp],eax
  402620:	e8 4b 06 00 00       	call   402c70 <___mingw_dirname>
  402625:	c7 45 e4 00 00 00 00 	mov    DWORD PTR [ebp-0x1c],0x0
  40262c:	89 45 b8             	mov    DWORD PTR [ebp-0x48],eax
  40262f:	8d 45 d8             	lea    eax,[ebp-0x28]
  402632:	e8 f9 fb ff ff       	call   402230 <_glob_initialise>
  402637:	85 c0                	test   eax,eax
  402639:	74 08                	je     402643 <_glob_match+0x63>
  40263b:	8d 65 f4             	lea    esp,[ebp-0xc]
  40263e:	5b                   	pop    ebx
  40263f:	5e                   	pop    esi
  402640:	5f                   	pop    edi
  402641:	5d                   	pop    ebp
  402642:	c3                   	ret    
  402643:	8b 55 cc             	mov    edx,DWORD PTR [ebp-0x34]
  402646:	8b 45 b8             	mov    eax,DWORD PTR [ebp-0x48]
  402649:	e8 42 f9 ff ff       	call   401f90 <_is_glob_pattern>
  40264e:	85 c0                	test   eax,eax
  402650:	0f 84 5a 02 00 00    	je     4028b0 <_glob_match+0x2d0>
  402656:	8b 55 cc             	mov    edx,DWORD PTR [ebp-0x34]
  402659:	8d 45 d8             	lea    eax,[ebp-0x28]
  40265c:	89 04 24             	mov    DWORD PTR [esp],eax
  40265f:	8b 4d a4             	mov    ecx,DWORD PTR [ebp-0x5c]
  402662:	8b 45 b8             	mov    eax,DWORD PTR [ebp-0x48]
  402665:	80 ce 80             	or     dh,0x80
  402668:	e8 73 ff ff ff       	call   4025e0 <_glob_match>
  40266d:	85 c0                	test   eax,eax
  40266f:	75 ca                	jne    40263b <_glob_match+0x5b>
  402671:	0f b6 43 01          	movzx  eax,BYTE PTR [ebx+0x1]
  402675:	3c 5c                	cmp    al,0x5c
  402677:	0f 84 5b 03 00 00    	je     4029d8 <_glob_match+0x3f8>
  40267d:	3c 2f                	cmp    al,0x2f
  40267f:	0f 84 53 03 00 00    	je     4029d8 <_glob_match+0x3f8>
  402685:	8b 75 b8             	mov    esi,DWORD PTR [ebp-0x48]
  402688:	bf 14 a1 40 00       	mov    edi,0x40a114
  40268d:	b9 02 00 00 00       	mov    ecx,0x2
  402692:	f3 a6                	repz cmps BYTE PTR ds:[esi],BYTE PTR es:[edi]
  402694:	0f 85 3e 03 00 00    	jne    4029d8 <_glob_match+0x3f8>
  40269a:	c6 45 a3 5c          	mov    BYTE PTR [ebp-0x5d],0x5c
  40269e:	f6 45 cc 10          	test   BYTE PTR [ebp-0x34],0x10
  4026a2:	89 5d c0             	mov    DWORD PTR [ebp-0x40],ebx
  4026a5:	c7 45 b8 00 00 00 00 	mov    DWORD PTR [ebp-0x48],0x0
  4026ac:	0f 85 33 04 00 00    	jne    402ae5 <_glob_match+0x505>
  4026b2:	8b 45 e0             	mov    eax,DWORD PTR [ebp-0x20]
  4026b5:	89 45 c8             	mov    DWORD PTR [ebp-0x38],eax
  4026b8:	8b 00                	mov    eax,DWORD PTR [eax]
  4026ba:	85 c0                	test   eax,eax
  4026bc:	0f 84 71 04 00 00    	je     402b33 <_glob_match+0x553>
  4026c2:	8b 4d cc             	mov    ecx,DWORD PTR [ebp-0x34]
  4026c5:	c7 45 c4 02 00 00 00 	mov    DWORD PTR [ebp-0x3c],0x2
  4026cc:	89 cf                	mov    edi,ecx
  4026ce:	83 e7 04             	and    edi,0x4
  4026d1:	89 7d 98             	mov    DWORD PTR [ebp-0x68],edi
  4026d4:	89 cf                	mov    edi,ecx
  4026d6:	81 e7 00 80 00 00    	and    edi,0x8000
  4026dc:	89 7d d0             	mov    DWORD PTR [ebp-0x30],edi
  4026df:	90                   	nop
  4026e0:	83 7d c4 01          	cmp    DWORD PTR [ebp-0x3c],0x1
  4026e4:	0f 84 58 02 00 00    	je     402942 <_glob_match+0x362>
  4026ea:	89 04 24             	mov    DWORD PTR [esp],eax
  4026ed:	e8 ee 0a 00 00       	call   4031e0 <___mingw_opendir>
  4026f2:	85 c0                	test   eax,eax
  4026f4:	89 45 d4             	mov    DWORD PTR [ebp-0x2c],eax
  4026f7:	0f 84 76 03 00 00    	je     402a73 <_glob_match+0x493>
  4026fd:	8b 45 b8             	mov    eax,DWORD PTR [ebp-0x48]
  402700:	85 c0                	test   eax,eax
  402702:	0f 84 bd 03 00 00    	je     402ac5 <_glob_match+0x4e5>
  402708:	8b 45 c8             	mov    eax,DWORD PTR [ebp-0x38]
  40270b:	8b 00                	mov    eax,DWORD PTR [eax]
  40270d:	89 04 24             	mov    DWORD PTR [esp],eax
  402710:	e8 6b 58 00 00       	call   407f80 <_strlen>
  402715:	89 45 b4             	mov    DWORD PTR [ebp-0x4c],eax
  402718:	8b 45 cc             	mov    eax,DWORD PTR [ebp-0x34]
  40271b:	c7 45 bc 00 00 00 00 	mov    DWORD PTR [ebp-0x44],0x0
  402722:	83 e0 40             	and    eax,0x40
  402725:	89 45 a8             	mov    DWORD PTR [ebp-0x58],eax
  402728:	8b 45 d4             	mov    eax,DWORD PTR [ebp-0x2c]
  40272b:	89 04 24             	mov    DWORD PTR [esp],eax
  40272e:	e8 4d 0c 00 00       	call   403380 <___mingw_readdir>
  402733:	85 c0                	test   eax,eax
  402735:	89 c6                	mov    esi,eax
  402737:	0f 84 e8 01 00 00    	je     402925 <_glob_match+0x345>
  40273d:	8b 45 d0             	mov    eax,DWORD PTR [ebp-0x30]
  402740:	85 c0                	test   eax,eax
  402742:	74 06                	je     40274a <_glob_match+0x16a>
  402744:	83 7e 08 10          	cmp    DWORD PTR [esi+0x8],0x10
  402748:	75 de                	jne    402728 <_glob_match+0x148>
  40274a:	8b 4d cc             	mov    ecx,DWORD PTR [ebp-0x34]
  40274d:	8d 5e 0c             	lea    ebx,[esi+0xc]
  402750:	8b 45 c0             	mov    eax,DWORD PTR [ebp-0x40]
  402753:	89 da                	mov    edx,ebx
  402755:	e8 36 fb ff ff       	call   402290 <_glob_strcmp>
  40275a:	85 c0                	test   eax,eax
  40275c:	75 ca                	jne    402728 <_glob_match+0x148>
  40275e:	0f b7 56 06          	movzx  edx,WORD PTR [esi+0x6]
  402762:	8b 4d b4             	mov    ecx,DWORD PTR [ebp-0x4c]
  402765:	89 65 b0             	mov    DWORD PTR [ebp-0x50],esp
  402768:	8d 44 11 11          	lea    eax,[ecx+edx*1+0x11]
  40276c:	83 e0 f0             	and    eax,0xfffffff0
  40276f:	e8 ec f7 ff ff       	call   401f60 <___chkstk_ms>
  402774:	29 c4                	sub    esp,eax
  402776:	31 c0                	xor    eax,eax
  402778:	8d 7c 24 0c          	lea    edi,[esp+0xc]
  40277c:	85 c9                	test   ecx,ecx
  40277e:	89 7d ac             	mov    DWORD PTR [ebp-0x54],edi
  402781:	0f 85 ed 01 00 00    	jne    402974 <_glob_match+0x394>
  402787:	83 c2 01             	add    edx,0x1
  40278a:	01 f8                	add    eax,edi
  40278c:	89 54 24 08          	mov    DWORD PTR [esp+0x8],edx
  402790:	89 5c 24 04          	mov    DWORD PTR [esp+0x4],ebx
  402794:	89 e3                	mov    ebx,esp
  402796:	89 04 24             	mov    DWORD PTR [esp],eax
  402799:	e8 1a 58 00 00       	call   407fb8 <_memcpy>
  40279e:	89 3c 24             	mov    DWORD PTR [esp],edi
  4027a1:	e8 da 57 00 00       	call   407f80 <_strlen>
  4027a6:	83 c0 10             	add    eax,0x10
  4027a9:	83 e0 f0             	and    eax,0xfffffff0
  4027ac:	e8 af f7 ff ff       	call   401f60 <___chkstk_ms>
  4027b1:	8b 75 ac             	mov    esi,DWORD PTR [ebp-0x54]
  4027b4:	29 c4                	sub    esp,eax
  4027b6:	8d 4c 24 0c          	lea    ecx,[esp+0xc]
  4027ba:	89 ca                	mov    edx,ecx
  4027bc:	eb 0f                	jmp    4027cd <_glob_match+0x1ed>
  4027be:	66 90                	xchg   ax,ax
  4027c0:	83 c2 01             	add    edx,0x1
  4027c3:	83 c6 01             	add    esi,0x1
  4027c6:	84 c0                	test   al,al
  4027c8:	88 42 ff             	mov    BYTE PTR [edx-0x1],al
  4027cb:	74 1b                	je     4027e8 <_glob_match+0x208>
  4027cd:	0f b6 06             	movzx  eax,BYTE PTR [esi]
  4027d0:	3c 7f                	cmp    al,0x7f
  4027d2:	75 ec                	jne    4027c0 <_glob_match+0x1e0>
  4027d4:	0f b6 46 01          	movzx  eax,BYTE PTR [esi+0x1]
  4027d8:	83 c6 01             	add    esi,0x1
  4027db:	83 c2 01             	add    edx,0x1
  4027de:	83 c6 01             	add    esi,0x1
  4027e1:	84 c0                	test   al,al
  4027e3:	88 42 ff             	mov    BYTE PTR [edx-0x1],al
  4027e6:	75 e5                	jne    4027cd <_glob_match+0x1ed>
  4027e8:	89 0c 24             	mov    DWORD PTR [esp],ecx
  4027eb:	e8 78 5b 00 00       	call   408368 <_strdup>
  4027f0:	89 dc                	mov    esp,ebx
  4027f2:	85 c0                	test   eax,eax
  4027f4:	89 c6                	mov    esi,eax
  4027f6:	0f 84 c6 01 00 00    	je     4029c2 <_glob_match+0x3e2>
  4027fc:	31 c0                	xor    eax,eax
  4027fe:	83 7d c4 02          	cmp    DWORD PTR [ebp-0x3c],0x2
  402802:	0f 94 c0             	sete   al
  402805:	83 e8 01             	sub    eax,0x1
  402808:	21 45 c4             	and    DWORD PTR [ebp-0x3c],eax
  40280b:	8b 45 a8             	mov    eax,DWORD PTR [ebp-0x58]
  40280e:	85 c0                	test   eax,eax
  402810:	0f 85 9d 01 00 00    	jne    4029b3 <_glob_match+0x3d3>
  402816:	8b 5d bc             	mov    ebx,DWORD PTR [ebp-0x44]
  402819:	85 db                	test   ebx,ebx
  40281b:	0f 84 bb 02 00 00    	je     402adc <_glob_match+0x4fc>
  402821:	8b 7d cc             	mov    edi,DWORD PTR [ebp-0x34]
  402824:	81 e7 00 40 00 00    	and    edi,0x4000
  40282a:	eb 18                	jmp    402844 <_glob_match+0x264>
  40282c:	8d 74 26 00          	lea    esi,[esi+eiz*1+0x0]
  402830:	e8 53 57 00 00       	call   407f88 <_strcoll>
  402835:	8b 0b                	mov    ecx,DWORD PTR [ebx]
  402837:	8b 53 04             	mov    edx,DWORD PTR [ebx+0x4]
  40283a:	85 c0                	test   eax,eax
  40283c:	7e 22                	jle    402860 <_glob_match+0x280>
  40283e:	85 d2                	test   edx,edx
  402840:	74 24                	je     402866 <_glob_match+0x286>
  402842:	89 d3                	mov    ebx,edx
  402844:	8b 43 08             	mov    eax,DWORD PTR [ebx+0x8]
  402847:	85 ff                	test   edi,edi
  402849:	89 34 24             	mov    DWORD PTR [esp],esi
  40284c:	89 44 24 04          	mov    DWORD PTR [esp+0x4],eax
  402850:	75 de                	jne    402830 <_glob_match+0x250>
  402852:	e8 09 5b 00 00       	call   408360 <_stricoll>
  402857:	8b 0b                	mov    ecx,DWORD PTR [ebx]
  402859:	8b 53 04             	mov    edx,DWORD PTR [ebx+0x4]
  40285c:	85 c0                	test   eax,eax
  40285e:	7f de                	jg     40283e <_glob_match+0x25e>
  402860:	89 ca                	mov    edx,ecx
  402862:	85 d2                	test   edx,edx
  402864:	75 dc                	jne    402842 <_glob_match+0x262>
  402866:	89 c1                	mov    ecx,eax
  402868:	89 4d ac             	mov    DWORD PTR [ebp-0x54],ecx
  40286b:	c7 04 24 0c 00 00 00 	mov    DWORD PTR [esp],0xc
  402872:	e8 51 57 00 00       	call   407fc8 <_malloc>
  402877:	85 c0                	test   eax,eax
  402879:	74 22                	je     40289d <_glob_match+0x2bd>
  40287b:	85 db                	test   ebx,ebx
  40287d:	89 70 08             	mov    DWORD PTR [eax+0x8],esi
  402880:	c7 40 04 00 00 00 00 	mov    DWORD PTR [eax+0x4],0x0
  402887:	c7 00 00 00 00 00    	mov    DWORD PTR [eax],0x0
  40288d:	74 0e                	je     40289d <_glob_match+0x2bd>
  40288f:	8b 4d ac             	mov    ecx,DWORD PTR [ebp-0x54]
  402892:	85 c9                	test   ecx,ecx
  402894:	0f 8e 16 02 00 00    	jle    402ab0 <_glob_match+0x4d0>
  40289a:	89 43 04             	mov    DWORD PTR [ebx+0x4],eax
  40289d:	8b 7d bc             	mov    edi,DWORD PTR [ebp-0x44]
  4028a0:	85 ff                	test   edi,edi
  4028a2:	0f 84 15 02 00 00    	je     402abd <_glob_match+0x4dd>
  4028a8:	8b 65 b0             	mov    esp,DWORD PTR [ebp-0x50]
  4028ab:	e9 78 fe ff ff       	jmp    402728 <_glob_match+0x148>
  4028b0:	8b 45 b8             	mov    eax,DWORD PTR [ebp-0x48]
  4028b3:	89 e6                	mov    esi,esp
  4028b5:	89 04 24             	mov    DWORD PTR [esp],eax
  4028b8:	e8 c3 56 00 00       	call   407f80 <_strlen>
  4028bd:	83 c0 10             	add    eax,0x10
  4028c0:	83 e0 f0             	and    eax,0xfffffff0
  4028c3:	e8 98 f6 ff ff       	call   401f60 <___chkstk_ms>
  4028c8:	8b 55 b8             	mov    edx,DWORD PTR [ebp-0x48]
  4028cb:	29 c4                	sub    esp,eax
  4028cd:	8d 7c 24 0c          	lea    edi,[esp+0xc]
  4028d1:	89 f9                	mov    ecx,edi
  4028d3:	eb 0d                	jmp    4028e2 <_glob_match+0x302>
  4028d5:	83 c1 01             	add    ecx,0x1
  4028d8:	83 c2 01             	add    edx,0x1
  4028db:	84 c0                	test   al,al
  4028dd:	88 41 ff             	mov    BYTE PTR [ecx-0x1],al
  4028e0:	74 1b                	je     4028fd <_glob_match+0x31d>
  4028e2:	0f b6 02             	movzx  eax,BYTE PTR [edx]
  4028e5:	3c 7f                	cmp    al,0x7f
  4028e7:	75 ec                	jne    4028d5 <_glob_match+0x2f5>
  4028e9:	0f b6 42 01          	movzx  eax,BYTE PTR [edx+0x1]
  4028ed:	83 c2 01             	add    edx,0x1
  4028f0:	83 c1 01             	add    ecx,0x1
  4028f3:	83 c2 01             	add    edx,0x1
  4028f6:	84 c0                	test   al,al
  4028f8:	88 41 ff             	mov    BYTE PTR [ecx-0x1],al
  4028fb:	75 e5                	jne    4028e2 <_glob_match+0x302>
  4028fd:	89 3c 24             	mov    DWORD PTR [esp],edi
  402900:	e8 63 5a 00 00       	call   408368 <_strdup>
  402905:	89 f4                	mov    esp,esi
  402907:	89 c1                	mov    ecx,eax
  402909:	b8 01 00 00 00       	mov    eax,0x1
  40290e:	85 c9                	test   ecx,ecx
  402910:	0f 84 25 fd ff ff    	je     40263b <_glob_match+0x5b>
  402916:	8d 55 d8             	lea    edx,[ebp-0x28]
  402919:	89 c8                	mov    eax,ecx
  40291b:	e8 f0 fb ff ff       	call   402510 <_glob_store_entry.part.2>
  402920:	e9 48 fd ff ff       	jmp    40266d <_glob_match+0x8d>
  402925:	8b 45 d4             	mov    eax,DWORD PTR [ebp-0x2c]
  402928:	89 04 24             	mov    DWORD PTR [esp],eax
  40292b:	e8 a0 0a 00 00       	call   4033d0 <___mingw_closedir>
  402930:	8b 75 bc             	mov    esi,DWORD PTR [ebp-0x44]
  402933:	85 f6                	test   esi,esi
  402935:	74 0b                	je     402942 <_glob_match+0x362>
  402937:	8b 55 08             	mov    edx,DWORD PTR [ebp+0x8]
  40293a:	8b 45 bc             	mov    eax,DWORD PTR [ebp-0x44]
  40293d:	e8 5e fc ff ff       	call   4025a0 <_glob_store_collated_entries>
  402942:	83 45 c8 04          	add    DWORD PTR [ebp-0x38],0x4
  402946:	8b 7d c8             	mov    edi,DWORD PTR [ebp-0x38]
  402949:	8b 47 fc             	mov    eax,DWORD PTR [edi-0x4]
  40294c:	89 04 24             	mov    DWORD PTR [esp],eax
  40294f:	e8 9c 56 00 00       	call   407ff0 <_free>
  402954:	8b 07                	mov    eax,DWORD PTR [edi]
  402956:	85 c0                	test   eax,eax
  402958:	0f 85 82 fd ff ff    	jne    4026e0 <_glob_match+0x100>
  40295e:	8b 45 e0             	mov    eax,DWORD PTR [ebp-0x20]
  402961:	89 04 24             	mov    DWORD PTR [esp],eax
  402964:	e8 87 56 00 00       	call   407ff0 <_free>
  402969:	8b 45 c4             	mov    eax,DWORD PTR [ebp-0x3c]
  40296c:	8d 65 f4             	lea    esp,[ebp-0xc]
  40296f:	5b                   	pop    ebx
  402970:	5e                   	pop    esi
  402971:	5f                   	pop    edi
  402972:	5d                   	pop    ebp
  402973:	c3                   	ret    
  402974:	8b 45 c8             	mov    eax,DWORD PTR [ebp-0x38]
  402977:	8b 75 b4             	mov    esi,DWORD PTR [ebp-0x4c]
  40297a:	89 55 9c             	mov    DWORD PTR [ebp-0x64],edx
  40297d:	8b 00                	mov    eax,DWORD PTR [eax]
  40297f:	89 74 24 08          	mov    DWORD PTR [esp+0x8],esi
  402983:	89 3c 24             	mov    DWORD PTR [esp],edi
  402986:	89 44 24 04          	mov    DWORD PTR [esp+0x4],eax
  40298a:	e8 29 56 00 00       	call   407fb8 <_memcpy>
  40298f:	0f b6 44 34 0b       	movzx  eax,BYTE PTR [esp+esi*1+0xb]
  402994:	8b 55 9c             	mov    edx,DWORD PTR [ebp-0x64]
  402997:	3c 5c                	cmp    al,0x5c
  402999:	74 35                	je     4029d0 <_glob_match+0x3f0>
  40299b:	3c 2f                	cmp    al,0x2f
  40299d:	74 31                	je     4029d0 <_glob_match+0x3f0>
  40299f:	8b 75 b4             	mov    esi,DWORD PTR [ebp-0x4c]
  4029a2:	0f b6 4d a3          	movzx  ecx,BYTE PTR [ebp-0x5d]
  4029a6:	89 f0                	mov    eax,esi
  4029a8:	83 c0 01             	add    eax,0x1
  4029ab:	88 0c 37             	mov    BYTE PTR [edi+esi*1],cl
  4029ae:	e9 d4 fd ff ff       	jmp    402787 <_glob_match+0x1a7>
  4029b3:	8b 55 08             	mov    edx,DWORD PTR [ebp+0x8]
  4029b6:	89 f0                	mov    eax,esi
  4029b8:	e8 c3 fb ff ff       	call   402580 <_glob_store_entry>
  4029bd:	e9 e6 fe ff ff       	jmp    4028a8 <_glob_match+0x2c8>
  4029c2:	c7 45 c4 03 00 00 00 	mov    DWORD PTR [ebp-0x3c],0x3
  4029c9:	e9 da fe ff ff       	jmp    4028a8 <_glob_match+0x2c8>
  4029ce:	66 90                	xchg   ax,ax
  4029d0:	8b 45 b4             	mov    eax,DWORD PTR [ebp-0x4c]
  4029d3:	e9 af fd ff ff       	jmp    402787 <_glob_match+0x1a7>
  4029d8:	8b 45 b8             	mov    eax,DWORD PTR [ebp-0x48]
  4029db:	89 04 24             	mov    DWORD PTR [esp],eax
  4029de:	e8 9d 55 00 00       	call   407f80 <_strlen>
  4029e3:	01 d8                	add    eax,ebx
  4029e5:	39 c3                	cmp    ebx,eax
  4029e7:	0f 83 94 01 00 00    	jae    402b81 <_glob_match+0x5a1>
  4029ed:	0f b6 10             	movzx  edx,BYTE PTR [eax]
  4029f0:	80 fa 2f             	cmp    dl,0x2f
  4029f3:	0f 84 7d 01 00 00    	je     402b76 <_glob_match+0x596>
  4029f9:	80 fa 5c             	cmp    dl,0x5c
  4029fc:	75 1d                	jne    402a1b <_glob_match+0x43b>
  4029fe:	66 90                	xchg   ax,ax
  402a00:	e9 71 01 00 00       	jmp    402b76 <_glob_match+0x596>
  402a05:	0f b6 40 ff          	movzx  eax,BYTE PTR [eax-0x1]
  402a09:	3c 5c                	cmp    al,0x5c
  402a0b:	0f 84 c0 00 00 00    	je     402ad1 <_glob_match+0x4f1>
  402a11:	3c 2f                	cmp    al,0x2f
  402a13:	0f 84 b8 00 00 00    	je     402ad1 <_glob_match+0x4f1>
  402a19:	89 d0                	mov    eax,edx
  402a1b:	8d 50 ff             	lea    edx,[eax-0x1]
  402a1e:	39 da                	cmp    edx,ebx
  402a20:	75 e3                	jne    402a05 <_glob_match+0x425>
  402a22:	0f b6 40 ff          	movzx  eax,BYTE PTR [eax-0x1]
  402a26:	89 55 c0             	mov    DWORD PTR [ebp-0x40],edx
  402a29:	88 45 a3             	mov    BYTE PTR [ebp-0x5d],al
  402a2c:	80 7d a3 5c          	cmp    BYTE PTR [ebp-0x5d],0x5c
  402a30:	0f 85 0c 01 00 00    	jne    402b42 <_glob_match+0x562>
  402a36:	8b 45 c0             	mov    eax,DWORD PTR [ebp-0x40]
  402a39:	0f b6 4d a3          	movzx  ecx,BYTE PTR [ebp-0x5d]
  402a3d:	83 c0 01             	add    eax,0x1
  402a40:	0f b6 10             	movzx  edx,BYTE PTR [eax]
  402a43:	80 fa 5c             	cmp    dl,0x5c
  402a46:	75 0d                	jne    402a55 <_glob_match+0x475>
  402a48:	83 c0 01             	add    eax,0x1
  402a4b:	89 d1                	mov    ecx,edx
  402a4d:	0f b6 10             	movzx  edx,BYTE PTR [eax]
  402a50:	80 fa 5c             	cmp    dl,0x5c
  402a53:	74 f3                	je     402a48 <_glob_match+0x468>
  402a55:	80 fa 2f             	cmp    dl,0x2f
  402a58:	74 ee                	je     402a48 <_glob_match+0x468>
  402a5a:	89 45 c0             	mov    DWORD PTR [ebp-0x40],eax
  402a5d:	88 4d a3             	mov    BYTE PTR [ebp-0x5d],cl
  402a60:	8b 45 b8             	mov    eax,DWORD PTR [ebp-0x48]
  402a63:	85 c0                	test   eax,eax
  402a65:	0f 85 47 fc ff ff    	jne    4026b2 <_glob_match+0xd2>
  402a6b:	8b 5d c0             	mov    ebx,DWORD PTR [ebp-0x40]
  402a6e:	e9 2b fc ff ff       	jmp    40269e <_glob_match+0xbe>
  402a73:	8b 5d 98             	mov    ebx,DWORD PTR [ebp-0x68]
  402a76:	85 db                	test   ebx,ebx
  402a78:	75 28                	jne    402aa2 <_glob_match+0x4c2>
  402a7a:	8b 7d a4             	mov    edi,DWORD PTR [ebp-0x5c]
  402a7d:	85 ff                	test   edi,edi
  402a7f:	0f 84 bd fe ff ff    	je     402942 <_glob_match+0x362>
  402a85:	e8 9e 55 00 00       	call   408028 <__errno>
  402a8a:	8b 00                	mov    eax,DWORD PTR [eax]
  402a8c:	89 44 24 04          	mov    DWORD PTR [esp+0x4],eax
  402a90:	8b 45 c8             	mov    eax,DWORD PTR [ebp-0x38]
  402a93:	8b 00                	mov    eax,DWORD PTR [eax]
  402a95:	89 04 24             	mov    DWORD PTR [esp],eax
  402a98:	ff d7                	call   edi
  402a9a:	85 c0                	test   eax,eax
  402a9c:	0f 84 a0 fe ff ff    	je     402942 <_glob_match+0x362>
  402aa2:	c7 45 c4 01 00 00 00 	mov    DWORD PTR [ebp-0x3c],0x1
  402aa9:	e9 94 fe ff ff       	jmp    402942 <_glob_match+0x362>
  402aae:	66 90                	xchg   ax,ax
  402ab0:	8b 7d bc             	mov    edi,DWORD PTR [ebp-0x44]
  402ab3:	89 03                	mov    DWORD PTR [ebx],eax
  402ab5:	85 ff                	test   edi,edi
  402ab7:	0f 85 eb fd ff ff    	jne    4028a8 <_glob_match+0x2c8>
  402abd:	89 45 bc             	mov    DWORD PTR [ebp-0x44],eax
  402ac0:	e9 e3 fd ff ff       	jmp    4028a8 <_glob_match+0x2c8>
  402ac5:	c7 45 b4 00 00 00 00 	mov    DWORD PTR [ebp-0x4c],0x0
  402acc:	e9 47 fc ff ff       	jmp    402718 <_glob_match+0x138>
  402ad1:	89 55 c0             	mov    DWORD PTR [ebp-0x40],edx
  402ad4:	88 45 a3             	mov    BYTE PTR [ebp-0x5d],al
  402ad7:	e9 50 ff ff ff       	jmp    402a2c <_glob_match+0x44c>
  402adc:	31 db                	xor    ebx,ebx
  402ade:	31 c9                	xor    ecx,ecx
  402ae0:	e9 83 fd ff ff       	jmp    402868 <_glob_match+0x288>
  402ae5:	8b 55 cc             	mov    edx,DWORD PTR [ebp-0x34]
  402ae8:	89 d8                	mov    eax,ebx
  402aea:	e8 a1 f4 ff ff       	call   401f90 <_is_glob_pattern>
  402aef:	85 c0                	test   eax,eax
  402af1:	0f 85 bb fb ff ff    	jne    4026b2 <_glob_match+0xd2>
  402af7:	89 1c 24             	mov    DWORD PTR [esp],ebx
  402afa:	89 e6                	mov    esi,esp
  402afc:	e8 7f 54 00 00       	call   407f80 <_strlen>
  402b01:	83 c0 10             	add    eax,0x10
  402b04:	83 e0 f0             	and    eax,0xfffffff0
  402b07:	e8 54 f4 ff ff       	call   401f60 <___chkstk_ms>
  402b0c:	29 c4                	sub    esp,eax
  402b0e:	8d 4c 24 0c          	lea    ecx,[esp+0xc]
  402b12:	89 ca                	mov    edx,ecx
  402b14:	eb 0d                	jmp    402b23 <_glob_match+0x543>
  402b16:	83 c2 01             	add    edx,0x1
  402b19:	83 c3 01             	add    ebx,0x1
  402b1c:	84 c0                	test   al,al
  402b1e:	88 42 ff             	mov    BYTE PTR [edx-0x1],al
  402b21:	74 32                	je     402b55 <_glob_match+0x575>
  402b23:	0f b6 03             	movzx  eax,BYTE PTR [ebx]
  402b26:	3c 7f                	cmp    al,0x7f
  402b28:	75 ec                	jne    402b16 <_glob_match+0x536>
  402b2a:	0f b6 43 01          	movzx  eax,BYTE PTR [ebx+0x1]
  402b2e:	83 c3 01             	add    ebx,0x1
  402b31:	eb e3                	jmp    402b16 <_glob_match+0x536>
  402b33:	8b 45 c8             	mov    eax,DWORD PTR [ebp-0x38]
  402b36:	c7 45 c4 02 00 00 00 	mov    DWORD PTR [ebp-0x3c],0x2
  402b3d:	e9 1f fe ff ff       	jmp    402961 <_glob_match+0x381>
  402b42:	80 7d a3 2f          	cmp    BYTE PTR [ebp-0x5d],0x2f
  402b46:	0f 84 ea fe ff ff    	je     402a36 <_glob_match+0x456>
  402b4c:	c6 45 a3 5c          	mov    BYTE PTR [ebp-0x5d],0x5c
  402b50:	e9 0b ff ff ff       	jmp    402a60 <_glob_match+0x480>
  402b55:	89 0c 24             	mov    DWORD PTR [esp],ecx
  402b58:	e8 0b 58 00 00       	call   408368 <_strdup>
  402b5d:	8b 55 08             	mov    edx,DWORD PTR [ebp+0x8]
  402b60:	89 f4                	mov    esp,esi
  402b62:	e8 19 fa ff ff       	call   402580 <_glob_store_entry>
  402b67:	8b 45 e0             	mov    eax,DWORD PTR [ebp-0x20]
  402b6a:	c7 45 c4 00 00 00 00 	mov    DWORD PTR [ebp-0x3c],0x0
  402b71:	e9 eb fd ff ff       	jmp    402961 <_glob_match+0x381>
  402b76:	88 55 a3             	mov    BYTE PTR [ebp-0x5d],dl
  402b79:	89 45 c0             	mov    DWORD PTR [ebp-0x40],eax
  402b7c:	e9 ab fe ff ff       	jmp    402a2c <_glob_match+0x44c>
  402b81:	0f b6 08             	movzx  ecx,BYTE PTR [eax]
  402b84:	89 45 c0             	mov    DWORD PTR [ebp-0x40],eax
  402b87:	88 4d a3             	mov    BYTE PTR [ebp-0x5d],cl
  402b8a:	e9 9d fe ff ff       	jmp    402a2c <_glob_match+0x44c>
  402b8f:	90                   	nop

00402b90 <___mingw_glob>:
  402b90:	55                   	push   ebp
  402b91:	89 e5                	mov    ebp,esp
  402b93:	57                   	push   edi
  402b94:	56                   	push   esi
  402b95:	53                   	push   ebx
  402b96:	83 ec 1c             	sub    esp,0x1c
  402b99:	8b 75 14             	mov    esi,DWORD PTR [ebp+0x14]
  402b9c:	8b 5d 08             	mov    ebx,DWORD PTR [ebp+0x8]
  402b9f:	81 3e 16 a1 40 00    	cmp    DWORD PTR [esi],0x40a116
  402ba5:	74 0d                	je     402bb4 <___mingw_glob+0x24>
  402ba7:	89 f0                	mov    eax,esi
  402ba9:	e8 82 f6 ff ff       	call   402230 <_glob_initialise>
  402bae:	c7 06 16 a1 40 00    	mov    DWORD PTR [esi],0x40a116
  402bb4:	89 34 24             	mov    DWORD PTR [esp],esi
  402bb7:	8b 4d 10             	mov    ecx,DWORD PTR [ebp+0x10]
  402bba:	89 d8                	mov    eax,ebx
  402bbc:	8b 55 0c             	mov    edx,DWORD PTR [ebp+0xc]
  402bbf:	e8 1c fa ff ff       	call   4025e0 <_glob_match>
  402bc4:	83 f8 02             	cmp    eax,0x2
  402bc7:	89 c7                	mov    edi,eax
  402bc9:	74 0a                	je     402bd5 <___mingw_glob+0x45>
  402bcb:	8d 65 f4             	lea    esp,[ebp-0xc]
  402bce:	89 f8                	mov    eax,edi
  402bd0:	5b                   	pop    ebx
  402bd1:	5e                   	pop    esi
  402bd2:	5f                   	pop    edi
  402bd3:	5d                   	pop    ebp
  402bd4:	c3                   	ret    
  402bd5:	f6 45 0c 10          	test   BYTE PTR [ebp+0xc],0x10
  402bd9:	74 f0                	je     402bcb <___mingw_glob+0x3b>
  402bdb:	89 65 e4             	mov    DWORD PTR [ebp-0x1c],esp
  402bde:	89 1c 24             	mov    DWORD PTR [esp],ebx
  402be1:	e8 9a 53 00 00       	call   407f80 <_strlen>
  402be6:	83 c0 10             	add    eax,0x10
  402be9:	83 e0 f0             	and    eax,0xfffffff0
  402bec:	e8 6f f3 ff ff       	call   401f60 <___chkstk_ms>
  402bf1:	29 c4                	sub    esp,eax
  402bf3:	8d 4c 24 04          	lea    ecx,[esp+0x4]
  402bf7:	89 ca                	mov    edx,ecx
  402bf9:	eb 12                	jmp    402c0d <___mingw_glob+0x7d>
  402bfb:	90                   	nop
  402bfc:	8d 74 26 00          	lea    esi,[esi+eiz*1+0x0]
  402c00:	83 c2 01             	add    edx,0x1
  402c03:	83 c3 01             	add    ebx,0x1
  402c06:	84 c0                	test   al,al
  402c08:	88 42 ff             	mov    BYTE PTR [edx-0x1],al
  402c0b:	74 1b                	je     402c28 <___mingw_glob+0x98>
  402c0d:	0f b6 03             	movzx  eax,BYTE PTR [ebx]
  402c10:	3c 7f                	cmp    al,0x7f
  402c12:	75 ec                	jne    402c00 <___mingw_glob+0x70>
  402c14:	0f b6 43 01          	movzx  eax,BYTE PTR [ebx+0x1]
  402c18:	83 c3 01             	add    ebx,0x1
  402c1b:	83 c2 01             	add    edx,0x1
  402c1e:	83 c3 01             	add    ebx,0x1
  402c21:	84 c0                	test   al,al
  402c23:	88 42 ff             	mov    BYTE PTR [edx-0x1],al
  402c26:	75 e5                	jne    402c0d <___mingw_glob+0x7d>
  402c28:	89 0c 24             	mov    DWORD PTR [esp],ecx
  402c2b:	e8 38 57 00 00       	call   408368 <_strdup>
  402c30:	8b 65 e4             	mov    esp,DWORD PTR [ebp-0x1c]
  402c33:	89 f2                	mov    edx,esi
  402c35:	e8 46 f9 ff ff       	call   402580 <_glob_store_entry>
  402c3a:	8d 65 f4             	lea    esp,[ebp-0xc]
  402c3d:	89 f8                	mov    eax,edi
  402c3f:	5b                   	pop    ebx
  402c40:	5e                   	pop    esi
  402c41:	5f                   	pop    edi
  402c42:	5d                   	pop    ebp
  402c43:	c3                   	ret    
  402c44:	8d b6 00 00 00 00    	lea    esi,[esi+0x0]
  402c4a:	8d bf 00 00 00 00    	lea    edi,[edi+0x0]

00402c50 <___mingw_globfree>:
  402c50:	8b 44 24 04          	mov    eax,DWORD PTR [esp+0x4]
  402c54:	81 38 16 a1 40 00    	cmp    DWORD PTR [eax],0x40a116
  402c5a:	74 04                	je     402c60 <___mingw_globfree+0x10>
  402c5c:	f3 c3                	repz ret 
  402c5e:	66 90                	xchg   ax,ax
  402c60:	e9 5b f8 ff ff       	jmp    4024c0 <_glob_registry.part.1>
  402c65:	90                   	nop
  402c66:	90                   	nop
  402c67:	90                   	nop
  402c68:	90                   	nop
  402c69:	90                   	nop
  402c6a:	90                   	nop
  402c6b:	90                   	nop
  402c6c:	90                   	nop
  402c6d:	90                   	nop
  402c6e:	90                   	nop
  402c6f:	90                   	nop

00402c70 <___mingw_dirname>:
  402c70:	55                   	push   ebp
  402c71:	89 e5                	mov    ebp,esp
  402c73:	57                   	push   edi
  402c74:	56                   	push   esi
  402c75:	53                   	push   ebx
  402c76:	83 ec 3c             	sub    esp,0x3c
  402c79:	8b 75 08             	mov    esi,DWORD PTR [ebp+0x8]
  402c7c:	c7 44 24 04 00 00 00 	mov    DWORD PTR [esp+0x4],0x0
  402c83:	00 
  402c84:	c7 04 24 02 00 00 00 	mov    DWORD PTR [esp],0x2
  402c8b:	e8 10 53 00 00       	call   407fa0 <_setlocale>
  402c90:	85 c0                	test   eax,eax
  402c92:	89 c3                	mov    ebx,eax
  402c94:	74 0a                	je     402ca0 <___mingw_dirname+0x30>
  402c96:	89 04 24             	mov    DWORD PTR [esp],eax
  402c99:	e8 ca 56 00 00       	call   408368 <_strdup>
  402c9e:	89 c3                	mov    ebx,eax
  402ca0:	c7 44 24 04 28 a1 40 	mov    DWORD PTR [esp+0x4],0x40a128
  402ca7:	00 
  402ca8:	c7 04 24 02 00 00 00 	mov    DWORD PTR [esp],0x2
  402caf:	e8 ec 52 00 00       	call   407fa0 <_setlocale>
  402cb4:	85 f6                	test   esi,esi
  402cb6:	74 05                	je     402cbd <___mingw_dirname+0x4d>
  402cb8:	80 3e 00             	cmp    BYTE PTR [esi],0x0
  402cbb:	75 73                	jne    402d30 <___mingw_dirname+0xc0>
  402cbd:	c7 44 24 08 00 00 00 	mov    DWORD PTR [esp+0x8],0x0
  402cc4:	00 
  402cc5:	c7 44 24 04 2a a1 40 	mov    DWORD PTR [esp+0x4],0x40a12a
  402ccc:	00 
  402ccd:	c7 04 24 00 00 00 00 	mov    DWORD PTR [esp],0x0
  402cd4:	e8 87 52 00 00       	call   407f60 <_wcstombs>
  402cd9:	8d 70 01             	lea    esi,[eax+0x1]
  402cdc:	89 74 24 04          	mov    DWORD PTR [esp+0x4],esi
  402ce0:	a1 68 d0 40 00       	mov    eax,ds:0x40d068
  402ce5:	89 04 24             	mov    DWORD PTR [esp],eax
  402ce8:	e8 bb 52 00 00       	call   407fa8 <_realloc>
  402ced:	a3 68 d0 40 00       	mov    ds:0x40d068,eax
  402cf2:	89 74 24 08          	mov    DWORD PTR [esp+0x8],esi
  402cf6:	c7 44 24 04 2a a1 40 	mov    DWORD PTR [esp+0x4],0x40a12a
  402cfd:	00 
  402cfe:	89 04 24             	mov    DWORD PTR [esp],eax
  402d01:	e8 5a 52 00 00       	call   407f60 <_wcstombs>
  402d06:	89 5c 24 04          	mov    DWORD PTR [esp+0x4],ebx
  402d0a:	c7 04 24 02 00 00 00 	mov    DWORD PTR [esp],0x2
  402d11:	e8 8a 52 00 00       	call   407fa0 <_setlocale>
  402d16:	89 1c 24             	mov    DWORD PTR [esp],ebx
  402d19:	e8 d2 52 00 00       	call   407ff0 <_free>
  402d1e:	a1 68 d0 40 00       	mov    eax,ds:0x40d068
  402d23:	8d 65 f4             	lea    esp,[ebp-0xc]
  402d26:	5b                   	pop    ebx
  402d27:	5e                   	pop    esi
  402d28:	5f                   	pop    edi
  402d29:	5d                   	pop    ebp
  402d2a:	c3                   	ret    
  402d2b:	90                   	nop
  402d2c:	8d 74 26 00          	lea    esi,[esi+eiz*1+0x0]
  402d30:	89 65 d4             	mov    DWORD PTR [ebp-0x2c],esp
  402d33:	c7 44 24 08 00 00 00 	mov    DWORD PTR [esp+0x8],0x0
  402d3a:	00 
  402d3b:	89 74 24 04          	mov    DWORD PTR [esp+0x4],esi
  402d3f:	c7 04 24 00 00 00 00 	mov    DWORD PTR [esp],0x0
  402d46:	e8 75 52 00 00       	call   407fc0 <_mbstowcs>
  402d4b:	89 c2                	mov    edx,eax
  402d4d:	8d 44 00 12          	lea    eax,[eax+eax*1+0x12]
  402d51:	83 e0 f0             	and    eax,0xfffffff0
  402d54:	e8 07 f2 ff ff       	call   401f60 <___chkstk_ms>
  402d59:	29 c4                	sub    esp,eax
  402d5b:	8d 44 24 0d          	lea    eax,[esp+0xd]
  402d5f:	89 45 e4             	mov    DWORD PTR [ebp-0x1c],eax
  402d62:	d1 6d e4             	shr    DWORD PTR [ebp-0x1c],1
  402d65:	8b 45 e4             	mov    eax,DWORD PTR [ebp-0x1c]
  402d68:	01 c0                	add    eax,eax
  402d6a:	89 45 e0             	mov    DWORD PTR [ebp-0x20],eax
  402d6d:	89 c7                	mov    edi,eax
  402d6f:	89 54 24 08          	mov    DWORD PTR [esp+0x8],edx
  402d73:	89 74 24 04          	mov    DWORD PTR [esp+0x4],esi
  402d77:	89 04 24             	mov    DWORD PTR [esp],eax
  402d7a:	e8 41 52 00 00       	call   407fc0 <_mbstowcs>
  402d7f:	31 c9                	xor    ecx,ecx
  402d81:	66 89 0c 47          	mov    WORD PTR [edi+eax*2],cx
  402d85:	83 f8 01             	cmp    eax,0x1
  402d88:	89 45 d0             	mov    DWORD PTR [ebp-0x30],eax
  402d8b:	8b 45 e4             	mov    eax,DWORD PTR [ebp-0x1c]
  402d8e:	0f b7 04 00          	movzx  eax,WORD PTR [eax+eax*1]
  402d92:	66 89 45 da          	mov    WORD PTR [ebp-0x26],ax
  402d96:	0f 86 f2 00 00 00    	jbe    402e8e <___mingw_dirname+0x21e>
  402d9c:	66 83 f8 5c          	cmp    ax,0x5c
  402da0:	74 0a                	je     402dac <___mingw_dirname+0x13c>
  402da2:	66 83 f8 2f          	cmp    ax,0x2f
  402da6:	0f 85 0a 01 00 00    	jne    402eb6 <___mingw_dirname+0x246>
  402dac:	8b 7d e0             	mov    edi,DWORD PTR [ebp-0x20]
  402daf:	89 7d dc             	mov    DWORD PTR [ebp-0x24],edi
  402db2:	8b 7d e4             	mov    edi,DWORD PTR [ebp-0x1c]
  402db5:	66 3b 44 3f 02       	cmp    ax,WORD PTR [edi+edi*1+0x2]
  402dba:	0f 84 4f 02 00 00    	je     40300f <___mingw_dirname+0x39f>
  402dc0:	0f b7 45 da          	movzx  eax,WORD PTR [ebp-0x26]
  402dc4:	66 85 c0             	test   ax,ax
  402dc7:	0f 84 fa 01 00 00    	je     402fc7 <___mingw_dirname+0x357>
  402dcd:	8b 55 dc             	mov    edx,DWORD PTR [ebp-0x24]
  402dd0:	89 d7                	mov    edi,edx
  402dd2:	eb 14                	jmp    402de8 <___mingw_dirname+0x178>
  402dd4:	66 83 f8 2f          	cmp    ax,0x2f
  402dd8:	74 20                	je     402dfa <___mingw_dirname+0x18a>
  402dda:	0f b7 42 02          	movzx  eax,WORD PTR [edx+0x2]
  402dde:	8d 4a 02             	lea    ecx,[edx+0x2]
  402de1:	66 85 c0             	test   ax,ax
  402de4:	74 36                	je     402e1c <___mingw_dirname+0x1ac>
  402de6:	89 ca                	mov    edx,ecx
  402de8:	66 83 f8 5c          	cmp    ax,0x5c
  402dec:	75 e6                	jne    402dd4 <___mingw_dirname+0x164>
  402dee:	0f b7 02             	movzx  eax,WORD PTR [edx]
  402df1:	66 83 f8 5c          	cmp    ax,0x5c
  402df5:	75 0c                	jne    402e03 <___mingw_dirname+0x193>
  402df7:	83 c2 02             	add    edx,0x2
  402dfa:	0f b7 02             	movzx  eax,WORD PTR [edx]
  402dfd:	66 83 f8 5c          	cmp    ax,0x5c
  402e01:	74 f4                	je     402df7 <___mingw_dirname+0x187>
  402e03:	66 83 f8 2f          	cmp    ax,0x2f
  402e07:	74 ee                	je     402df7 <___mingw_dirname+0x187>
  402e09:	66 85 c0             	test   ax,ax
  402e0c:	74 0e                	je     402e1c <___mingw_dirname+0x1ac>
  402e0e:	0f b7 42 02          	movzx  eax,WORD PTR [edx+0x2]
  402e12:	89 d7                	mov    edi,edx
  402e14:	8d 4a 02             	lea    ecx,[edx+0x2]
  402e17:	66 85 c0             	test   ax,ax
  402e1a:	75 ca                	jne    402de6 <___mingw_dirname+0x176>
  402e1c:	8b 4d dc             	mov    ecx,DWORD PTR [ebp-0x24]
  402e1f:	39 f9                	cmp    ecx,edi
  402e21:	72 7e                	jb     402ea1 <___mingw_dirname+0x231>
  402e23:	66 83 7d da 5c       	cmp    WORD PTR [ebp-0x26],0x5c
  402e28:	74 0b                	je     402e35 <___mingw_dirname+0x1c5>
  402e2a:	66 83 7d da 2f       	cmp    WORD PTR [ebp-0x26],0x2f
  402e2f:	0f 85 ba 01 00 00    	jne    402fef <___mingw_dirname+0x37f>
  402e35:	8b 45 dc             	mov    eax,DWORD PTR [ebp-0x24]
  402e38:	83 c0 02             	add    eax,0x2
  402e3b:	31 d2                	xor    edx,edx
  402e3d:	66 89 10             	mov    WORD PTR [eax],dx
  402e40:	c7 44 24 08 00 00 00 	mov    DWORD PTR [esp+0x8],0x0
  402e47:	00 
  402e48:	8b 45 e0             	mov    eax,DWORD PTR [ebp-0x20]
  402e4b:	c7 04 24 00 00 00 00 	mov    DWORD PTR [esp],0x0
  402e52:	89 44 24 04          	mov    DWORD PTR [esp+0x4],eax
  402e56:	e8 05 51 00 00       	call   407f60 <_wcstombs>
  402e5b:	8d 78 01             	lea    edi,[eax+0x1]
  402e5e:	89 7c 24 04          	mov    DWORD PTR [esp+0x4],edi
  402e62:	a1 68 d0 40 00       	mov    eax,ds:0x40d068
  402e67:	89 04 24             	mov    DWORD PTR [esp],eax
  402e6a:	e8 39 51 00 00       	call   407fa8 <_realloc>
  402e6f:	a3 68 d0 40 00       	mov    ds:0x40d068,eax
  402e74:	89 c6                	mov    esi,eax
  402e76:	89 7c 24 08          	mov    DWORD PTR [esp+0x8],edi
  402e7a:	8b 45 e0             	mov    eax,DWORD PTR [ebp-0x20]
  402e7d:	89 34 24             	mov    DWORD PTR [esp],esi
  402e80:	89 44 24 04          	mov    DWORD PTR [esp+0x4],eax
  402e84:	e8 d7 50 00 00       	call   407f60 <_wcstombs>
  402e89:	e9 e9 00 00 00       	jmp    402f77 <___mingw_dirname+0x307>
  402e8e:	8b 45 e0             	mov    eax,DWORD PTR [ebp-0x20]
  402e91:	89 45 dc             	mov    DWORD PTR [ebp-0x24],eax
  402e94:	e9 27 ff ff ff       	jmp    402dc0 <___mingw_dirname+0x150>
  402e99:	66 83 fa 2f          	cmp    dx,0x2f
  402e9d:	75 46                	jne    402ee5 <___mingw_dirname+0x275>
  402e9f:	89 c7                	mov    edi,eax
  402ea1:	8d 47 fe             	lea    eax,[edi-0x2]
  402ea4:	39 c1                	cmp    ecx,eax
  402ea6:	73 3d                	jae    402ee5 <___mingw_dirname+0x275>
  402ea8:	0f b7 57 fe          	movzx  edx,WORD PTR [edi-0x2]
  402eac:	66 83 fa 5c          	cmp    dx,0x5c
  402eb0:	75 e7                	jne    402e99 <___mingw_dirname+0x229>
  402eb2:	89 c7                	mov    edi,eax
  402eb4:	eb eb                	jmp    402ea1 <___mingw_dirname+0x231>
  402eb6:	8b 45 e0             	mov    eax,DWORD PTR [ebp-0x20]
  402eb9:	89 45 dc             	mov    DWORD PTR [ebp-0x24],eax
  402ebc:	8b 45 e4             	mov    eax,DWORD PTR [ebp-0x1c]
  402ebf:	66 83 7c 00 02 3a    	cmp    WORD PTR [eax+eax*1+0x2],0x3a
  402ec5:	0f 85 f5 fe ff ff    	jne    402dc0 <___mingw_dirname+0x150>
  402ecb:	8b 45 e0             	mov    eax,DWORD PTR [ebp-0x20]
  402ece:	83 c0 04             	add    eax,0x4
  402ed1:	89 45 dc             	mov    DWORD PTR [ebp-0x24],eax
  402ed4:	8b 45 e4             	mov    eax,DWORD PTR [ebp-0x1c]
  402ed7:	0f b7 44 00 04       	movzx  eax,WORD PTR [eax+eax*1+0x4]
  402edc:	66 89 45 da          	mov    WORD PTR [ebp-0x26],ax
  402ee0:	e9 db fe ff ff       	jmp    402dc0 <___mingw_dirname+0x150>
  402ee5:	39 45 dc             	cmp    DWORD PTR [ebp-0x24],eax
  402ee8:	0f 84 37 01 00 00    	je     403025 <___mingw_dirname+0x3b5>
  402eee:	31 d2                	xor    edx,edx
  402ef0:	66 89 50 02          	mov    WORD PTR [eax+0x2],dx
  402ef4:	8b 45 e4             	mov    eax,DWORD PTR [ebp-0x1c]
  402ef7:	0f b7 14 00          	movzx  edx,WORD PTR [eax+eax*1]
  402efb:	8b 45 e0             	mov    eax,DWORD PTR [ebp-0x20]
  402efe:	66 83 fa 5c          	cmp    dx,0x5c
  402f02:	0f 85 c7 00 00 00    	jne    402fcf <___mingw_dirname+0x35f>
  402f08:	83 c0 02             	add    eax,0x2
  402f0b:	0f b7 08             	movzx  ecx,WORD PTR [eax]
  402f0e:	66 83 f9 5c          	cmp    cx,0x5c
  402f12:	74 f4                	je     402f08 <___mingw_dirname+0x298>
  402f14:	66 83 f9 2f          	cmp    cx,0x2f
  402f18:	74 ee                	je     402f08 <___mingw_dirname+0x298>
  402f1a:	89 c1                	mov    ecx,eax
  402f1c:	2b 4d e0             	sub    ecx,DWORD PTR [ebp-0x20]
  402f1f:	83 f9 05             	cmp    ecx,0x5
  402f22:	0f 8e b1 00 00 00    	jle    402fd9 <___mingw_dirname+0x369>
  402f28:	8b 45 e0             	mov    eax,DWORD PTR [ebp-0x20]
  402f2b:	89 c1                	mov    ecx,eax
  402f2d:	66 85 d2             	test   dx,dx
  402f30:	74 21                	je     402f53 <___mingw_dirname+0x2e3>
  402f32:	83 c1 02             	add    ecx,0x2
  402f35:	66 83 fa 2f          	cmp    dx,0x2f
  402f39:	66 89 51 fe          	mov    WORD PTR [ecx-0x2],dx
  402f3d:	74 63                	je     402fa2 <___mingw_dirname+0x332>
  402f3f:	66 83 38 5c          	cmp    WORD PTR [eax],0x5c
  402f43:	8d 78 02             	lea    edi,[eax+0x2]
  402f46:	74 58                	je     402fa0 <___mingw_dirname+0x330>
  402f48:	0f b7 50 02          	movzx  edx,WORD PTR [eax+0x2]
  402f4c:	89 f8                	mov    eax,edi
  402f4e:	66 85 d2             	test   dx,dx
  402f51:	75 df                	jne    402f32 <___mingw_dirname+0x2c2>
  402f53:	8b 45 d0             	mov    eax,DWORD PTR [ebp-0x30]
  402f56:	31 ff                	xor    edi,edi
  402f58:	66 89 39             	mov    WORD PTR [ecx],di
  402f5b:	89 44 24 08          	mov    DWORD PTR [esp+0x8],eax
  402f5f:	8b 45 e0             	mov    eax,DWORD PTR [ebp-0x20]
  402f62:	89 34 24             	mov    DWORD PTR [esp],esi
  402f65:	89 44 24 04          	mov    DWORD PTR [esp+0x4],eax
  402f69:	e8 f2 4f 00 00       	call   407f60 <_wcstombs>
  402f6e:	83 f8 ff             	cmp    eax,0xffffffff
  402f71:	74 04                	je     402f77 <___mingw_dirname+0x307>
  402f73:	c6 04 06 00          	mov    BYTE PTR [esi+eax*1],0x0
  402f77:	89 5c 24 04          	mov    DWORD PTR [esp+0x4],ebx
  402f7b:	c7 04 24 02 00 00 00 	mov    DWORD PTR [esp],0x2
  402f82:	e8 19 50 00 00       	call   407fa0 <_setlocale>
  402f87:	89 1c 24             	mov    DWORD PTR [esp],ebx
  402f8a:	e8 61 50 00 00       	call   407ff0 <_free>
  402f8f:	8b 65 d4             	mov    esp,DWORD PTR [ebp-0x2c]
  402f92:	8d 65 f4             	lea    esp,[ebp-0xc]
  402f95:	5b                   	pop    ebx
  402f96:	89 f0                	mov    eax,esi
  402f98:	5e                   	pop    esi
  402f99:	5f                   	pop    edi
  402f9a:	5d                   	pop    ebp
  402f9b:	c3                   	ret    
  402f9c:	8d 74 26 00          	lea    esi,[esi+eiz*1+0x0]
  402fa0:	89 f8                	mov    eax,edi
  402fa2:	0f b7 10             	movzx  edx,WORD PTR [eax]
  402fa5:	66 83 fa 2f          	cmp    dx,0x2f
  402fa9:	75 59                	jne    403004 <___mingw_dirname+0x394>
  402fab:	90                   	nop
  402fac:	8d 74 26 00          	lea    esi,[esi+eiz*1+0x0]
  402fb0:	83 c0 02             	add    eax,0x2
  402fb3:	0f b7 10             	movzx  edx,WORD PTR [eax]
  402fb6:	66 83 fa 5c          	cmp    dx,0x5c
  402fba:	74 f4                	je     402fb0 <___mingw_dirname+0x340>
  402fbc:	66 83 fa 2f          	cmp    dx,0x2f
  402fc0:	74 ee                	je     402fb0 <___mingw_dirname+0x340>
  402fc2:	e9 66 ff ff ff       	jmp    402f2d <___mingw_dirname+0x2bd>
  402fc7:	8b 65 d4             	mov    esp,DWORD PTR [ebp-0x2c]
  402fca:	e9 ee fc ff ff       	jmp    402cbd <___mingw_dirname+0x4d>
  402fcf:	66 83 fa 2f          	cmp    dx,0x2f
  402fd3:	0f 84 2f ff ff ff    	je     402f08 <___mingw_dirname+0x298>
  402fd9:	8b 7d e4             	mov    edi,DWORD PTR [ebp-0x1c]
  402fdc:	66 39 54 3f 02       	cmp    WORD PTR [edi+edi*1+0x2],dx
  402fe1:	0f 85 41 ff ff ff    	jne    402f28 <___mingw_dirname+0x2b8>
  402fe7:	0f b7 10             	movzx  edx,WORD PTR [eax]
  402fea:	e9 3c ff ff ff       	jmp    402f2b <___mingw_dirname+0x2bb>
  402fef:	8b 7d dc             	mov    edi,DWORD PTR [ebp-0x24]
  402ff2:	b9 2e 00 00 00       	mov    ecx,0x2e
  402ff7:	89 f8                	mov    eax,edi
  402ff9:	83 c0 02             	add    eax,0x2
  402ffc:	66 89 0f             	mov    WORD PTR [edi],cx
  402fff:	e9 37 fe ff ff       	jmp    402e3b <___mingw_dirname+0x1cb>
  403004:	66 83 fa 5c          	cmp    dx,0x5c
  403008:	74 a6                	je     402fb0 <___mingw_dirname+0x340>
  40300a:	e9 1e ff ff ff       	jmp    402f2d <___mingw_dirname+0x2bd>
  40300f:	66 83 7c 3f 04 00    	cmp    WORD PTR [edi+edi*1+0x4],0x0
  403015:	0f 85 a5 fd ff ff    	jne    402dc0 <___mingw_dirname+0x150>
  40301b:	90                   	nop
  40301c:	8d 74 26 00          	lea    esi,[esi+eiz*1+0x0]
  403020:	e9 52 ff ff ff       	jmp    402f77 <___mingw_dirname+0x307>
  403025:	66 83 7d da 5c       	cmp    WORD PTR [ebp-0x26],0x5c
  40302a:	74 0e                	je     40303a <___mingw_dirname+0x3ca>
  40302c:	66 83 7d da 2f       	cmp    WORD PTR [ebp-0x26],0x2f
  403031:	8b 45 dc             	mov    eax,DWORD PTR [ebp-0x24]
  403034:	0f 85 b4 fe ff ff    	jne    402eee <___mingw_dirname+0x27e>
  40303a:	8b 45 dc             	mov    eax,DWORD PTR [ebp-0x24]
  40303d:	0f b7 4d da          	movzx  ecx,WORD PTR [ebp-0x26]
  403041:	66 39 48 02          	cmp    WORD PTR [eax+0x2],cx
  403045:	0f 85 a3 fe ff ff    	jne    402eee <___mingw_dirname+0x27e>
  40304b:	0f b7 50 04          	movzx  edx,WORD PTR [eax+0x4]
  40304f:	66 83 fa 2f          	cmp    dx,0x2f
  403053:	0f 84 95 fe ff ff    	je     402eee <___mingw_dirname+0x27e>
  403059:	66 83 fa 5c          	cmp    dx,0x5c
  40305d:	89 f8                	mov    eax,edi
  40305f:	0f 85 89 fe ff ff    	jne    402eee <___mingw_dirname+0x27e>
  403065:	8b 45 dc             	mov    eax,DWORD PTR [ebp-0x24]
  403068:	e9 81 fe ff ff       	jmp    402eee <___mingw_dirname+0x27e>
  40306d:	90                   	nop
  40306e:	90                   	nop
  40306f:	90                   	nop

00403070 <_dirent_findnext>:
  403070:	55                   	push   ebp
  403071:	89 e5                	mov    ebp,esp
  403073:	56                   	push   esi
  403074:	89 d6                	mov    esi,edx
  403076:	53                   	push   ebx
  403077:	81 ec 50 01 00 00    	sub    esp,0x150
  40307d:	8d 95 b8 fe ff ff    	lea    edx,[ebp-0x148]
  403083:	89 54 24 04          	mov    DWORD PTR [esp+0x4],edx
  403087:	89 04 24             	mov    DWORD PTR [esp],eax
  40308a:	e8 39 50 00 00       	call   4080c8 <_FindNextFileA@8>
  40308f:	83 ec 08             	sub    esp,0x8
  403092:	85 c0                	test   eax,eax
  403094:	89 c3                	mov    ebx,eax
  403096:	75 20                	jne    4030b8 <_dirent_findnext+0x48>
  403098:	e8 1b 50 00 00       	call   4080b8 <_GetLastError@0>
  40309d:	31 db                	xor    ebx,ebx
  40309f:	83 f8 12             	cmp    eax,0x12
  4030a2:	74 0b                	je     4030af <_dirent_findnext+0x3f>
  4030a4:	e8 7f 4f 00 00       	call   408028 <__errno>
  4030a9:	c7 00 02 00 00 00    	mov    DWORD PTR [eax],0x2
  4030af:	8d 65 f8             	lea    esp,[ebp-0x8]
  4030b2:	89 d8                	mov    eax,ebx
  4030b4:	5b                   	pop    ebx
  4030b5:	5e                   	pop    esi
  4030b6:	5d                   	pop    ebp
  4030b7:	c3                   	ret    
  4030b8:	8d 85 e4 fe ff ff    	lea    eax,[ebp-0x11c]
  4030be:	89 44 24 0c          	mov    DWORD PTR [esp+0xc],eax
  4030c2:	8d 46 0c             	lea    eax,[esi+0xc]
  4030c5:	c7 44 24 08 30 a1 40 	mov    DWORD PTR [esp+0x8],0x40a130
  4030cc:	00 
  4030cd:	c7 44 24 04 04 01 00 	mov    DWORD PTR [esp+0x4],0x104
  4030d4:	00 
  4030d5:	89 04 24             	mov    DWORD PTR [esp],eax
  4030d8:	e8 43 04 00 00       	call   403520 <___mingw_snprintf>
  4030dd:	66 89 46 06          	mov    WORD PTR [esi+0x6],ax
  4030e1:	8b 85 b8 fe ff ff    	mov    eax,DWORD PTR [ebp-0x148]
  4030e7:	24 58                	and    al,0x58
  4030e9:	83 f8 10             	cmp    eax,0x10
  4030ec:	76 12                	jbe    403100 <_dirent_findnext+0x90>
  4030ee:	c7 46 08 18 00 00 00 	mov    DWORD PTR [esi+0x8],0x18
  4030f5:	8d 65 f8             	lea    esp,[ebp-0x8]
  4030f8:	89 d8                	mov    eax,ebx
  4030fa:	5b                   	pop    ebx
  4030fb:	5e                   	pop    esi
  4030fc:	5d                   	pop    ebp
  4030fd:	c3                   	ret    
  4030fe:	66 90                	xchg   ax,ax
  403100:	89 46 08             	mov    DWORD PTR [esi+0x8],eax
  403103:	8d 65 f8             	lea    esp,[ebp-0x8]
  403106:	89 d8                	mov    eax,ebx
  403108:	5b                   	pop    ebx
  403109:	5e                   	pop    esi
  40310a:	5d                   	pop    ebp
  40310b:	c3                   	ret    
  40310c:	8d 74 26 00          	lea    esi,[esi+eiz*1+0x0]

00403110 <_dirent_findfirst>:
  403110:	55                   	push   ebp
  403111:	89 e5                	mov    ebp,esp
  403113:	56                   	push   esi
  403114:	53                   	push   ebx
  403115:	89 d3                	mov    ebx,edx
  403117:	81 ec 50 01 00 00    	sub    esp,0x150
  40311d:	8d 95 b8 fe ff ff    	lea    edx,[ebp-0x148]
  403123:	89 54 24 04          	mov    DWORD PTR [esp+0x4],edx
  403127:	89 04 24             	mov    DWORD PTR [esp],eax
  40312a:	e8 a1 4f 00 00       	call   4080d0 <_FindFirstFileA@8>
  40312f:	83 ec 08             	sub    esp,0x8
  403132:	83 f8 ff             	cmp    eax,0xffffffff
  403135:	89 c6                	mov    esi,eax
  403137:	74 4a                	je     403183 <_dirent_findfirst+0x73>
  403139:	8d 85 e4 fe ff ff    	lea    eax,[ebp-0x11c]
  40313f:	89 44 24 0c          	mov    DWORD PTR [esp+0xc],eax
  403143:	8d 43 0c             	lea    eax,[ebx+0xc]
  403146:	c7 44 24 08 30 a1 40 	mov    DWORD PTR [esp+0x8],0x40a130
  40314d:	00 
  40314e:	c7 44 24 04 04 01 00 	mov    DWORD PTR [esp+0x4],0x104
  403155:	00 
  403156:	89 04 24             	mov    DWORD PTR [esp],eax
  403159:	e8 c2 03 00 00       	call   403520 <___mingw_snprintf>
  40315e:	8b 8d b8 fe ff ff    	mov    ecx,DWORD PTR [ebp-0x148]
  403164:	80 e1 58             	and    cl,0x58
  403167:	83 f9 10             	cmp    ecx,0x10
  40316a:	66 89 43 06          	mov    WORD PTR [ebx+0x6],ax
  40316e:	89 4b 08             	mov    DWORD PTR [ebx+0x8],ecx
  403171:	76 07                	jbe    40317a <_dirent_findfirst+0x6a>
  403173:	c7 43 08 18 00 00 00 	mov    DWORD PTR [ebx+0x8],0x18
  40317a:	8d 65 f8             	lea    esp,[ebp-0x8]
  40317d:	89 f0                	mov    eax,esi
  40317f:	5b                   	pop    ebx
  403180:	5e                   	pop    esi
  403181:	5d                   	pop    ebp
  403182:	c3                   	ret    
  403183:	e8 a0 4e 00 00       	call   408028 <__errno>
  403188:	89 c3                	mov    ebx,eax
  40318a:	e8 29 4f 00 00       	call   4080b8 <_GetLastError@0>
  40318f:	83 f8 03             	cmp    eax,0x3
  403192:	89 03                	mov    DWORD PTR [ebx],eax
  403194:	74 2a                	je     4031c0 <_dirent_findfirst+0xb0>
  403196:	e8 8d 4e 00 00       	call   408028 <__errno>
  40319b:	81 38 0b 01 00 00    	cmp    DWORD PTR [eax],0x10b
  4031a1:	74 2d                	je     4031d0 <_dirent_findfirst+0xc0>
  4031a3:	e8 80 4e 00 00       	call   408028 <__errno>
  4031a8:	83 38 02             	cmp    DWORD PTR [eax],0x2
  4031ab:	74 cd                	je     40317a <_dirent_findfirst+0x6a>
  4031ad:	8d 76 00             	lea    esi,[esi+0x0]
  4031b0:	e8 73 4e 00 00       	call   408028 <__errno>
  4031b5:	c7 00 16 00 00 00    	mov    DWORD PTR [eax],0x16
  4031bb:	eb bd                	jmp    40317a <_dirent_findfirst+0x6a>
  4031bd:	8d 76 00             	lea    esi,[esi+0x0]
  4031c0:	e8 63 4e 00 00       	call   408028 <__errno>
  4031c5:	c7 00 02 00 00 00    	mov    DWORD PTR [eax],0x2
  4031cb:	eb ad                	jmp    40317a <_dirent_findfirst+0x6a>
  4031cd:	8d 76 00             	lea    esi,[esi+0x0]
  4031d0:	e8 53 4e 00 00       	call   408028 <__errno>
  4031d5:	c7 00 14 00 00 00    	mov    DWORD PTR [eax],0x14
  4031db:	eb 9d                	jmp    40317a <_dirent_findfirst+0x6a>
  4031dd:	8d 76 00             	lea    esi,[esi+0x0]

004031e0 <___mingw_opendir>:
  4031e0:	55                   	push   ebp
  4031e1:	57                   	push   edi
  4031e2:	56                   	push   esi
  4031e3:	53                   	push   ebx
  4031e4:	81 ec 2c 01 00 00    	sub    esp,0x12c
  4031ea:	8b 84 24 40 01 00 00 	mov    eax,DWORD PTR [esp+0x140]
  4031f1:	85 c0                	test   eax,eax
  4031f3:	0f 84 67 01 00 00    	je     403360 <___mingw_opendir+0x180>
  4031f9:	80 38 00             	cmp    BYTE PTR [eax],0x0
  4031fc:	0f 84 40 01 00 00    	je     403342 <___mingw_opendir+0x162>
  403202:	8d 7c 24 1c          	lea    edi,[esp+0x1c]
  403206:	c7 44 24 08 04 01 00 	mov    DWORD PTR [esp+0x8],0x104
  40320d:	00 
  40320e:	89 fb                	mov    ebx,edi
  403210:	89 44 24 04          	mov    DWORD PTR [esp+0x4],eax
  403214:	89 3c 24             	mov    DWORD PTR [esp],edi
  403217:	e8 04 4e 00 00       	call   408020 <__fullpath>
  40321c:	80 7c 24 1c 00       	cmp    BYTE PTR [esp+0x1c],0x0
  403221:	74 5d                	je     403280 <___mingw_opendir+0xa0>
  403223:	8b 13                	mov    edx,DWORD PTR [ebx]
  403225:	83 c3 04             	add    ebx,0x4
  403228:	8d 82 ff fe fe fe    	lea    eax,[edx-0x1010101]
  40322e:	f7 d2                	not    edx
  403230:	21 d0                	and    eax,edx
  403232:	25 80 80 80 80       	and    eax,0x80808080
  403237:	74 ea                	je     403223 <___mingw_opendir+0x43>
  403239:	a9 80 80 00 00       	test   eax,0x8080
  40323e:	0f 84 df 00 00 00    	je     403323 <___mingw_opendir+0x143>
  403244:	00 c0                	add    al,al
  403246:	83 db 03             	sbb    ebx,0x3
  403249:	29 fb                	sub    ebx,edi
  40324b:	0f b6 44 1c 1b       	movzx  eax,BYTE PTR [esp+ebx*1+0x1b]
  403250:	3c 5c                	cmp    al,0x5c
  403252:	74 50                	je     4032a4 <___mingw_opendir+0xc4>
  403254:	3c 2f                	cmp    al,0x2f
  403256:	74 4c                	je     4032a4 <___mingw_opendir+0xc4>
  403258:	b9 5c 00 00 00       	mov    ecx,0x5c
  40325d:	66 89 0c 1f          	mov    WORD PTR [edi+ebx*1],cx
  403261:	89 fb                	mov    ebx,edi
  403263:	8b 13                	mov    edx,DWORD PTR [ebx]
  403265:	83 c3 04             	add    ebx,0x4
  403268:	8d 82 ff fe fe fe    	lea    eax,[edx-0x1010101]
  40326e:	f7 d2                	not    edx
  403270:	21 d0                	and    eax,edx
  403272:	25 80 80 80 80       	and    eax,0x80808080
  403277:	74 ea                	je     403263 <___mingw_opendir+0x83>
  403279:	eb 1b                	jmp    403296 <___mingw_opendir+0xb6>
  40327b:	90                   	nop
  40327c:	8d 74 26 00          	lea    esi,[esi+eiz*1+0x0]
  403280:	8b 13                	mov    edx,DWORD PTR [ebx]
  403282:	83 c3 04             	add    ebx,0x4
  403285:	8d 82 ff fe fe fe    	lea    eax,[edx-0x1010101]
  40328b:	f7 d2                	not    edx
  40328d:	21 d0                	and    eax,edx
  40328f:	25 80 80 80 80       	and    eax,0x80808080
  403294:	74 ea                	je     403280 <___mingw_opendir+0xa0>
  403296:	a9 80 80 00 00       	test   eax,0x8080
  40329b:	74 7b                	je     403318 <___mingw_opendir+0x138>
  40329d:	00 c0                	add    al,al
  40329f:	83 db 03             	sbb    ebx,0x3
  4032a2:	29 fb                	sub    ebx,edi
  4032a4:	ba 2a 00 00 00       	mov    edx,0x2a
  4032a9:	8d 83 1d 01 00 00    	lea    eax,[ebx+0x11d]
  4032af:	66 89 14 1f          	mov    WORD PTR [edi+ebx*1],dx
  4032b3:	89 04 24             	mov    DWORD PTR [esp],eax
  4032b6:	e8 0d 4d 00 00       	call   407fc8 <_malloc>
  4032bb:	85 c0                	test   eax,eax
  4032bd:	89 c6                	mov    esi,eax
  4032bf:	0f 84 8c 00 00 00    	je     403351 <___mingw_opendir+0x171>
  4032c5:	8d a8 18 01 00 00    	lea    ebp,[eax+0x118]
  4032cb:	83 c3 02             	add    ebx,0x2
  4032ce:	89 5c 24 08          	mov    DWORD PTR [esp+0x8],ebx
  4032d2:	89 7c 24 04          	mov    DWORD PTR [esp+0x4],edi
  4032d6:	89 2c 24             	mov    DWORD PTR [esp],ebp
  4032d9:	e8 da 4c 00 00       	call   407fb8 <_memcpy>
  4032de:	89 f2                	mov    edx,esi
  4032e0:	89 e8                	mov    eax,ebp
  4032e2:	e8 29 fe ff ff       	call   403110 <_dirent_findfirst>
  4032e7:	83 f8 ff             	cmp    eax,0xffffffff
  4032ea:	89 86 10 01 00 00    	mov    DWORD PTR [esi+0x110],eax
  4032f0:	74 7d                	je     40336f <___mingw_opendir+0x18f>
  4032f2:	b8 10 01 00 00       	mov    eax,0x110
  4032f7:	66 89 46 04          	mov    WORD PTR [esi+0x4],ax
  4032fb:	89 f0                	mov    eax,esi
  4032fd:	c7 86 14 01 00 00 00 	mov    DWORD PTR [esi+0x114],0x0
  403304:	00 00 00 
  403307:	c7 06 00 00 00 00    	mov    DWORD PTR [esi],0x0
  40330d:	81 c4 2c 01 00 00    	add    esp,0x12c
  403313:	5b                   	pop    ebx
  403314:	5e                   	pop    esi
  403315:	5f                   	pop    edi
  403316:	5d                   	pop    ebp
  403317:	c3                   	ret    
  403318:	c1 e8 10             	shr    eax,0x10
  40331b:	83 c3 02             	add    ebx,0x2
  40331e:	e9 7a ff ff ff       	jmp    40329d <___mingw_opendir+0xbd>
  403323:	c1 e8 10             	shr    eax,0x10
  403326:	83 c3 02             	add    ebx,0x2
  403329:	00 c0                	add    al,al
  40332b:	83 db 03             	sbb    ebx,0x3
  40332e:	29 fb                	sub    ebx,edi
  403330:	0f b6 44 1c 1b       	movzx  eax,BYTE PTR [esp+ebx*1+0x1b]
  403335:	3c 5c                	cmp    al,0x5c
  403337:	0f 84 67 ff ff ff    	je     4032a4 <___mingw_opendir+0xc4>
  40333d:	e9 12 ff ff ff       	jmp    403254 <___mingw_opendir+0x74>
  403342:	e8 e1 4c 00 00       	call   408028 <__errno>
  403347:	c7 00 02 00 00 00    	mov    DWORD PTR [eax],0x2
  40334d:	31 c0                	xor    eax,eax
  40334f:	eb bc                	jmp    40330d <___mingw_opendir+0x12d>
  403351:	e8 d2 4c 00 00       	call   408028 <__errno>
  403356:	c7 00 0c 00 00 00    	mov    DWORD PTR [eax],0xc
  40335c:	31 c0                	xor    eax,eax
  40335e:	eb ad                	jmp    40330d <___mingw_opendir+0x12d>
  403360:	e8 c3 4c 00 00       	call   408028 <__errno>
  403365:	c7 00 16 00 00 00    	mov    DWORD PTR [eax],0x16
  40336b:	31 c0                	xor    eax,eax
  40336d:	eb 9e                	jmp    40330d <___mingw_opendir+0x12d>
  40336f:	89 34 24             	mov    DWORD PTR [esp],esi
  403372:	e8 79 4c 00 00       	call   407ff0 <_free>
  403377:	31 c0                	xor    eax,eax
  403379:	eb 92                	jmp    40330d <___mingw_opendir+0x12d>
  40337b:	90                   	nop
  40337c:	8d 74 26 00          	lea    esi,[esi+eiz*1+0x0]

00403380 <___mingw_readdir>:
  403380:	53                   	push   ebx
  403381:	83 ec 08             	sub    esp,0x8
  403384:	8b 5c 24 10          	mov    ebx,DWORD PTR [esp+0x10]
  403388:	85 db                	test   ebx,ebx
  40338a:	74 2b                	je     4033b7 <___mingw_readdir+0x37>
  40338c:	8b 83 14 01 00 00    	mov    eax,DWORD PTR [ebx+0x114]
  403392:	8d 50 01             	lea    edx,[eax+0x1]
  403395:	85 c0                	test   eax,eax
  403397:	89 93 14 01 00 00    	mov    DWORD PTR [ebx+0x114],edx
  40339d:	7e 11                	jle    4033b0 <___mingw_readdir+0x30>
  40339f:	8b 83 10 01 00 00    	mov    eax,DWORD PTR [ebx+0x110]
  4033a5:	89 da                	mov    edx,ebx
  4033a7:	e8 c4 fc ff ff       	call   403070 <_dirent_findnext>
  4033ac:	85 c0                	test   eax,eax
  4033ae:	74 02                	je     4033b2 <___mingw_readdir+0x32>
  4033b0:	89 d8                	mov    eax,ebx
  4033b2:	83 c4 08             	add    esp,0x8
  4033b5:	5b                   	pop    ebx
  4033b6:	c3                   	ret    
  4033b7:	e8 6c 4c 00 00       	call   408028 <__errno>
  4033bc:	c7 00 09 00 00 00    	mov    DWORD PTR [eax],0x9
  4033c2:	31 c0                	xor    eax,eax
  4033c4:	eb ec                	jmp    4033b2 <___mingw_readdir+0x32>
  4033c6:	8d 76 00             	lea    esi,[esi+0x0]
  4033c9:	8d bc 27 00 00 00 00 	lea    edi,[edi+eiz*1+0x0]

004033d0 <___mingw_closedir>:
  4033d0:	55                   	push   ebp
  4033d1:	89 e5                	mov    ebp,esp
  4033d3:	53                   	push   ebx
  4033d4:	83 ec 14             	sub    esp,0x14
  4033d7:	8b 5d 08             	mov    ebx,DWORD PTR [ebp+0x8]
  4033da:	85 db                	test   ebx,ebx
  4033dc:	74 24                	je     403402 <___mingw_closedir+0x32>
  4033de:	8b 83 10 01 00 00    	mov    eax,DWORD PTR [ebx+0x110]
  4033e4:	89 04 24             	mov    DWORD PTR [esp],eax
  4033e7:	e8 ec 4c 00 00       	call   4080d8 <_FindClose@4>
  4033ec:	83 ec 04             	sub    esp,0x4
  4033ef:	85 c0                	test   eax,eax
  4033f1:	74 0f                	je     403402 <___mingw_closedir+0x32>
  4033f3:	89 1c 24             	mov    DWORD PTR [esp],ebx
  4033f6:	e8 f5 4b 00 00       	call   407ff0 <_free>
  4033fb:	31 c0                	xor    eax,eax
  4033fd:	8b 5d fc             	mov    ebx,DWORD PTR [ebp-0x4]
  403400:	c9                   	leave  
  403401:	c3                   	ret    
  403402:	e8 21 4c 00 00       	call   408028 <__errno>
  403407:	c7 00 09 00 00 00    	mov    DWORD PTR [eax],0x9
  40340d:	b8 ff ff ff ff       	mov    eax,0xffffffff
  403412:	eb e9                	jmp    4033fd <___mingw_closedir+0x2d>
  403414:	8d b6 00 00 00 00    	lea    esi,[esi+0x0]
  40341a:	8d bf 00 00 00 00    	lea    edi,[edi+0x0]

00403420 <___mingw_rewinddir>:
  403420:	55                   	push   ebp
  403421:	89 e5                	mov    ebp,esp
  403423:	53                   	push   ebx
  403424:	83 ec 14             	sub    esp,0x14
  403427:	8b 5d 08             	mov    ebx,DWORD PTR [ebp+0x8]
  40342a:	85 db                	test   ebx,ebx
  40342c:	74 15                	je     403443 <___mingw_rewinddir+0x23>
  40342e:	8b 83 10 01 00 00    	mov    eax,DWORD PTR [ebx+0x110]
  403434:	89 04 24             	mov    DWORD PTR [esp],eax
  403437:	e8 9c 4c 00 00       	call   4080d8 <_FindClose@4>
  40343c:	83 ec 04             	sub    esp,0x4
  40343f:	85 c0                	test   eax,eax
  403441:	75 10                	jne    403453 <___mingw_rewinddir+0x33>
  403443:	e8 e0 4b 00 00       	call   408028 <__errno>
  403448:	c7 00 09 00 00 00    	mov    DWORD PTR [eax],0x9
  40344e:	8b 5d fc             	mov    ebx,DWORD PTR [ebp-0x4]
  403451:	c9                   	leave  
  403452:	c3                   	ret    
  403453:	8d 83 18 01 00 00    	lea    eax,[ebx+0x118]
  403459:	89 da                	mov    edx,ebx
  40345b:	e8 b0 fc ff ff       	call   403110 <_dirent_findfirst>
  403460:	83 f8 ff             	cmp    eax,0xffffffff
  403463:	89 83 10 01 00 00    	mov    DWORD PTR [ebx+0x110],eax
  403469:	74 e3                	je     40344e <___mingw_rewinddir+0x2e>
  40346b:	c7 83 14 01 00 00 00 	mov    DWORD PTR [ebx+0x114],0x0
  403472:	00 00 00 
  403475:	8b 5d fc             	mov    ebx,DWORD PTR [ebp-0x4]
  403478:	c9                   	leave  
  403479:	c3                   	ret    
  40347a:	8d b6 00 00 00 00    	lea    esi,[esi+0x0]

00403480 <___mingw_telldir>:
  403480:	83 ec 0c             	sub    esp,0xc
  403483:	8b 44 24 10          	mov    eax,DWORD PTR [esp+0x10]
  403487:	85 c0                	test   eax,eax
  403489:	74 0a                	je     403495 <___mingw_telldir+0x15>
  40348b:	8b 80 14 01 00 00    	mov    eax,DWORD PTR [eax+0x114]
  403491:	83 c4 0c             	add    esp,0xc
  403494:	c3                   	ret    
  403495:	e8 8e 4b 00 00       	call   408028 <__errno>
  40349a:	c7 00 09 00 00 00    	mov    DWORD PTR [eax],0x9
  4034a0:	b8 ff ff ff ff       	mov    eax,0xffffffff
  4034a5:	eb ea                	jmp    403491 <___mingw_telldir+0x11>
  4034a7:	89 f6                	mov    esi,esi
  4034a9:	8d bc 27 00 00 00 00 	lea    edi,[edi+eiz*1+0x0]

004034b0 <___mingw_seekdir>:
  4034b0:	56                   	push   esi
  4034b1:	53                   	push   ebx
  4034b2:	83 ec 14             	sub    esp,0x14
  4034b5:	8b 74 24 24          	mov    esi,DWORD PTR [esp+0x24]
  4034b9:	8b 5c 24 20          	mov    ebx,DWORD PTR [esp+0x20]
  4034bd:	85 f6                	test   esi,esi
  4034bf:	78 41                	js     403502 <___mingw_seekdir+0x52>
  4034c1:	89 1c 24             	mov    DWORD PTR [esp],ebx
  4034c4:	e8 57 ff ff ff       	call   403420 <___mingw_rewinddir>
  4034c9:	85 f6                	test   esi,esi
  4034cb:	74 2f                	je     4034fc <___mingw_seekdir+0x4c>
  4034cd:	83 bb 10 01 00 00 ff 	cmp    DWORD PTR [ebx+0x110],0xffffffff
  4034d4:	75 13                	jne    4034e9 <___mingw_seekdir+0x39>
  4034d6:	eb 24                	jmp    4034fc <___mingw_seekdir+0x4c>
  4034d8:	8b 83 10 01 00 00    	mov    eax,DWORD PTR [ebx+0x110]
  4034de:	89 da                	mov    edx,ebx
  4034e0:	e8 8b fb ff ff       	call   403070 <_dirent_findnext>
  4034e5:	85 c0                	test   eax,eax
  4034e7:	74 13                	je     4034fc <___mingw_seekdir+0x4c>
  4034e9:	8b 83 14 01 00 00    	mov    eax,DWORD PTR [ebx+0x114]
  4034ef:	83 c0 01             	add    eax,0x1
  4034f2:	39 c6                	cmp    esi,eax
  4034f4:	89 83 14 01 00 00    	mov    DWORD PTR [ebx+0x114],eax
  4034fa:	7f dc                	jg     4034d8 <___mingw_seekdir+0x28>
  4034fc:	83 c4 14             	add    esp,0x14
  4034ff:	5b                   	pop    ebx
  403500:	5e                   	pop    esi
  403501:	c3                   	ret    
  403502:	e8 21 4b 00 00       	call   408028 <__errno>
  403507:	c7 00 16 00 00 00    	mov    DWORD PTR [eax],0x16
  40350d:	83 c4 14             	add    esp,0x14
  403510:	5b                   	pop    ebx
  403511:	5e                   	pop    esi
  403512:	c3                   	ret    
  403513:	90                   	nop
  403514:	90                   	nop
  403515:	90                   	nop
  403516:	90                   	nop
  403517:	90                   	nop
  403518:	90                   	nop
  403519:	90                   	nop
  40351a:	90                   	nop
  40351b:	90                   	nop
  40351c:	90                   	nop
  40351d:	90                   	nop
  40351e:	90                   	nop
  40351f:	90                   	nop

00403520 <___mingw_snprintf>:
  403520:	83 ec 1c             	sub    esp,0x1c
  403523:	8d 44 24 2c          	lea    eax,[esp+0x2c]
  403527:	89 44 24 0c          	mov    DWORD PTR [esp+0xc],eax
  40352b:	8b 44 24 28          	mov    eax,DWORD PTR [esp+0x28]
  40352f:	89 44 24 08          	mov    DWORD PTR [esp+0x8],eax
  403533:	8b 44 24 24          	mov    eax,DWORD PTR [esp+0x24]
  403537:	89 44 24 04          	mov    DWORD PTR [esp+0x4],eax
  40353b:	8b 44 24 20          	mov    eax,DWORD PTR [esp+0x20]
  40353f:	89 04 24             	mov    DWORD PTR [esp],eax
  403542:	e8 09 00 00 00       	call   403550 <___mingw_vsnprintf>
  403547:	83 c4 1c             	add    esp,0x1c
  40354a:	c3                   	ret    
  40354b:	90                   	nop
  40354c:	90                   	nop
  40354d:	90                   	nop
  40354e:	90                   	nop
  40354f:	90                   	nop

00403550 <___mingw_vsnprintf>:
  403550:	56                   	push   esi
  403551:	53                   	push   ebx
  403552:	83 ec 24             	sub    esp,0x24
  403555:	8b 44 24 34          	mov    eax,DWORD PTR [esp+0x34]
  403559:	8b 5c 24 30          	mov    ebx,DWORD PTR [esp+0x30]
  40355d:	8b 54 24 38          	mov    edx,DWORD PTR [esp+0x38]
  403561:	8b 4c 24 3c          	mov    ecx,DWORD PTR [esp+0x3c]
  403565:	85 c0                	test   eax,eax
  403567:	74 37                	je     4035a0 <___mingw_vsnprintf+0x50>
  403569:	8d 70 ff             	lea    esi,[eax-0x1]
  40356c:	89 54 24 0c          	mov    DWORD PTR [esp+0xc],edx
  403570:	89 4c 24 10          	mov    DWORD PTR [esp+0x10],ecx
  403574:	89 74 24 08          	mov    DWORD PTR [esp+0x8],esi
  403578:	89 5c 24 04          	mov    DWORD PTR [esp+0x4],ebx
  40357c:	c7 04 24 00 00 00 00 	mov    DWORD PTR [esp],0x0
  403583:	e8 e8 15 00 00       	call   404b70 <___mingw_pformat>
  403588:	39 f0                	cmp    eax,esi
  40358a:	89 c2                	mov    edx,eax
  40358c:	77 0a                	ja     403598 <___mingw_vsnprintf+0x48>
  40358e:	c6 04 13 00          	mov    BYTE PTR [ebx+edx*1],0x0
  403592:	83 c4 24             	add    esp,0x24
  403595:	5b                   	pop    ebx
  403596:	5e                   	pop    esi
  403597:	c3                   	ret    
  403598:	89 f2                	mov    edx,esi
  40359a:	eb f2                	jmp    40358e <___mingw_vsnprintf+0x3e>
  40359c:	8d 74 26 00          	lea    esi,[esi+eiz*1+0x0]
  4035a0:	89 5c 24 04          	mov    DWORD PTR [esp+0x4],ebx
  4035a4:	89 4c 24 10          	mov    DWORD PTR [esp+0x10],ecx
  4035a8:	89 54 24 0c          	mov    DWORD PTR [esp+0xc],edx
  4035ac:	c7 44 24 08 00 00 00 	mov    DWORD PTR [esp+0x8],0x0
  4035b3:	00 
  4035b4:	c7 04 24 00 00 00 00 	mov    DWORD PTR [esp],0x0
  4035bb:	e8 b0 15 00 00       	call   404b70 <___mingw_pformat>
  4035c0:	83 c4 24             	add    esp,0x24
  4035c3:	5b                   	pop    ebx
  4035c4:	5e                   	pop    esi
  4035c5:	c3                   	ret    
  4035c6:	90                   	nop
  4035c7:	90                   	nop
  4035c8:	90                   	nop
  4035c9:	90                   	nop
  4035ca:	90                   	nop
  4035cb:	90                   	nop
  4035cc:	90                   	nop
  4035cd:	90                   	nop
  4035ce:	90                   	nop
  4035cf:	90                   	nop

004035d0 <___pformat_cvt>:
  4035d0:	53                   	push   ebx
  4035d1:	89 c1                	mov    ecx,eax
  4035d3:	83 ec 48             	sub    esp,0x48
  4035d6:	8b 44 24 50          	mov    eax,DWORD PTR [esp+0x50]
  4035da:	89 44 24 20          	mov    DWORD PTR [esp+0x20],eax
  4035de:	8b 44 24 54          	mov    eax,DWORD PTR [esp+0x54]
  4035e2:	89 44 24 24          	mov    DWORD PTR [esp+0x24],eax
  4035e6:	8b 44 24 58          	mov    eax,DWORD PTR [esp+0x58]
  4035ea:	89 44 24 28          	mov    DWORD PTR [esp+0x28],eax
  4035ee:	8b 44 24 5c          	mov    eax,DWORD PTR [esp+0x5c]
  4035f2:	db 6c 24 20          	fld    TBYTE PTR [esp+0x20]
  4035f6:	89 44 24 2c          	mov    DWORD PTR [esp+0x2c],eax
  4035fa:	d9 e5                	fxam   
  4035fc:	9b df e0             	fstsw  ax
  4035ff:	dd d8                	fstp   st(0)
  403601:	f6 c4 01             	test   ah,0x1
  403604:	74 1a                	je     403620 <___pformat_cvt+0x50>
  403606:	f6 c4 04             	test   ah,0x4
  403609:	0f 84 91 00 00 00    	je     4036a0 <___pformat_cvt+0xd0>
  40360f:	c7 44 24 38 03 00 00 	mov    DWORD PTR [esp+0x38],0x3
  403616:	00 
  403617:	0f b7 54 24 28       	movzx  edx,WORD PTR [esp+0x28]
  40361c:	31 c0                	xor    eax,eax
  40361e:	eb 14                	jmp    403634 <___pformat_cvt+0x64>
  403620:	f6 c4 04             	test   ah,0x4
  403623:	75 5c                	jne    403681 <___pformat_cvt+0xb1>
  403625:	0f b7 54 24 28       	movzx  edx,WORD PTR [esp+0x28]
  40362a:	31 c0                	xor    eax,eax
  40362c:	c7 44 24 38 00 00 00 	mov    DWORD PTR [esp+0x38],0x0
  403633:	00 
  403634:	81 e2 00 80 00 00    	and    edx,0x8000
  40363a:	8b 5c 24 68          	mov    ebx,DWORD PTR [esp+0x68]
  40363e:	89 13                	mov    DWORD PTR [ebx],edx
  403640:	8d 54 24 3c          	lea    edx,[esp+0x3c]
  403644:	89 54 24 1c          	mov    DWORD PTR [esp+0x1c],edx
  403648:	8b 54 24 64          	mov    edx,DWORD PTR [esp+0x64]
  40364c:	89 4c 24 10          	mov    DWORD PTR [esp+0x10],ecx
  403650:	89 44 24 04          	mov    DWORD PTR [esp+0x4],eax
  403654:	c7 04 24 0c 90 40 00 	mov    DWORD PTR [esp],0x40900c
  40365b:	89 54 24 18          	mov    DWORD PTR [esp+0x18],edx
  40365f:	8b 54 24 60          	mov    edx,DWORD PTR [esp+0x60]
  403663:	89 54 24 14          	mov    DWORD PTR [esp+0x14],edx
  403667:	8d 54 24 38          	lea    edx,[esp+0x38]
  40366b:	89 54 24 0c          	mov    DWORD PTR [esp+0xc],edx
  40366f:	8d 54 24 20          	lea    edx,[esp+0x20]
  403673:	89 54 24 08          	mov    DWORD PTR [esp+0x8],edx
  403677:	e8 e4 24 00 00       	call   405b60 <___gdtoa>
  40367c:	83 c4 48             	add    esp,0x48
  40367f:	5b                   	pop    ebx
  403680:	c3                   	ret    
  403681:	f6 c4 40             	test   ah,0x40
  403684:	74 2a                	je     4036b0 <___pformat_cvt+0xe0>
  403686:	c7 44 24 38 02 00 00 	mov    DWORD PTR [esp+0x38],0x2
  40368d:	00 
  40368e:	0f b7 54 24 28       	movzx  edx,WORD PTR [esp+0x28]
  403693:	b8 c3 bf ff ff       	mov    eax,0xffffbfc3
  403698:	eb 9a                	jmp    403634 <___pformat_cvt+0x64>
  40369a:	8d b6 00 00 00 00    	lea    esi,[esi+0x0]
  4036a0:	c7 44 24 38 04 00 00 	mov    DWORD PTR [esp+0x38],0x4
  4036a7:	00 
  4036a8:	31 c0                	xor    eax,eax
  4036aa:	31 d2                	xor    edx,edx
  4036ac:	eb 8c                	jmp    40363a <___pformat_cvt+0x6a>
  4036ae:	66 90                	xchg   ax,ax
  4036b0:	0f b7 54 24 28       	movzx  edx,WORD PTR [esp+0x28]
  4036b5:	c7 44 24 38 01 00 00 	mov    DWORD PTR [esp+0x38],0x1
  4036bc:	00 
  4036bd:	89 d0                	mov    eax,edx
  4036bf:	25 ff 7f 00 00       	and    eax,0x7fff
  4036c4:	2d 3e 40 00 00       	sub    eax,0x403e
  4036c9:	e9 66 ff ff ff       	jmp    403634 <___pformat_cvt+0x64>
  4036ce:	66 90                	xchg   ax,ax

004036d0 <___pformat_putc>:
  4036d0:	53                   	push   ebx
  4036d1:	83 ec 18             	sub    esp,0x18
  4036d4:	8b 4a 04             	mov    ecx,DWORD PTR [edx+0x4]
  4036d7:	f6 c5 20             	test   ch,0x20
  4036da:	75 08                	jne    4036e4 <___pformat_putc+0x14>
  4036dc:	8b 5a 18             	mov    ebx,DWORD PTR [edx+0x18]
  4036df:	39 5a 1c             	cmp    DWORD PTR [edx+0x1c],ebx
  4036e2:	7e 10                	jle    4036f4 <___pformat_putc+0x24>
  4036e4:	80 e5 10             	and    ch,0x10
  4036e7:	75 17                	jne    403700 <___pformat_putc+0x30>
  4036e9:	8b 1a                	mov    ebx,DWORD PTR [edx]
  4036eb:	8b 4a 18             	mov    ecx,DWORD PTR [edx+0x18]
  4036ee:	88 04 0b             	mov    BYTE PTR [ebx+ecx*1],al
  4036f1:	8b 5a 18             	mov    ebx,DWORD PTR [edx+0x18]
  4036f4:	83 c3 01             	add    ebx,0x1
  4036f7:	89 5a 18             	mov    DWORD PTR [edx+0x18],ebx
  4036fa:	83 c4 18             	add    esp,0x18
  4036fd:	5b                   	pop    ebx
  4036fe:	c3                   	ret    
  4036ff:	90                   	nop
  403700:	8b 0a                	mov    ecx,DWORD PTR [edx]
  403702:	89 04 24             	mov    DWORD PTR [esp],eax
  403705:	89 54 24 0c          	mov    DWORD PTR [esp+0xc],edx
  403709:	89 4c 24 04          	mov    DWORD PTR [esp+0x4],ecx
  40370d:	e8 e6 48 00 00       	call   407ff8 <_fputc>
  403712:	8b 54 24 0c          	mov    edx,DWORD PTR [esp+0xc]
  403716:	8b 5a 18             	mov    ebx,DWORD PTR [edx+0x18]
  403719:	83 c3 01             	add    ebx,0x1
  40371c:	89 5a 18             	mov    DWORD PTR [edx+0x18],ebx
  40371f:	83 c4 18             	add    esp,0x18
  403722:	5b                   	pop    ebx
  403723:	c3                   	ret    
  403724:	8d b6 00 00 00 00    	lea    esi,[esi+0x0]
  40372a:	8d bf 00 00 00 00    	lea    edi,[edi+0x0]

00403730 <___pformat_wputchars>:
  403730:	55                   	push   ebp
  403731:	57                   	push   edi
  403732:	56                   	push   esi
  403733:	89 d6                	mov    esi,edx
  403735:	53                   	push   ebx
  403736:	89 cb                	mov    ebx,ecx
  403738:	83 ec 4c             	sub    esp,0x4c
  40373b:	89 44 24 18          	mov    DWORD PTR [esp+0x18],eax
  40373f:	8d 6c 24 30          	lea    ebp,[esp+0x30]
  403743:	8d 44 24 2c          	lea    eax,[esp+0x2c]
  403747:	89 44 24 08          	mov    DWORD PTR [esp+0x8],eax
  40374b:	c7 44 24 04 00 00 00 	mov    DWORD PTR [esp+0x4],0x0
  403752:	00 
  403753:	89 2c 24             	mov    DWORD PTR [esp],ebp
  403756:	e8 35 22 00 00       	call   405990 <_wcrtomb>
  40375b:	8b 43 0c             	mov    eax,DWORD PTR [ebx+0xc]
  40375e:	85 c0                	test   eax,eax
  403760:	78 08                	js     40376a <___pformat_wputchars+0x3a>
  403762:	39 c6                	cmp    esi,eax
  403764:	0f 8f c7 00 00 00    	jg     403831 <___pformat_wputchars+0x101>
  40376a:	8b 43 08             	mov    eax,DWORD PTR [ebx+0x8]
  40376d:	39 c6                	cmp    esi,eax
  40376f:	0f 8d 8c 00 00 00    	jge    403801 <___pformat_wputchars+0xd1>
  403775:	29 f0                	sub    eax,esi
  403777:	85 c0                	test   eax,eax
  403779:	89 43 08             	mov    DWORD PTR [ebx+0x8],eax
  40377c:	7e 0a                	jle    403788 <___pformat_wputchars+0x58>
  40377e:	f6 43 05 04          	test   BYTE PTR [ebx+0x5],0x4
  403782:	0f 84 85 00 00 00    	je     40380d <___pformat_wputchars+0xdd>
  403788:	89 74 24 1c          	mov    DWORD PTR [esp+0x1c],esi
  40378c:	8d 74 26 00          	lea    esi,[esi+eiz*1+0x0]
  403790:	8b 44 24 1c          	mov    eax,DWORD PTR [esp+0x1c]
  403794:	85 c0                	test   eax,eax
  403796:	7e 54                	jle    4037ec <___pformat_wputchars+0xbc>
  403798:	83 44 24 18 02       	add    DWORD PTR [esp+0x18],0x2
  40379d:	8d 44 24 2c          	lea    eax,[esp+0x2c]
  4037a1:	89 44 24 08          	mov    DWORD PTR [esp+0x8],eax
  4037a5:	8b 44 24 18          	mov    eax,DWORD PTR [esp+0x18]
  4037a9:	0f b7 40 fe          	movzx  eax,WORD PTR [eax-0x2]
  4037ad:	89 2c 24             	mov    DWORD PTR [esp],ebp
  4037b0:	89 44 24 04          	mov    DWORD PTR [esp+0x4],eax
  4037b4:	e8 d7 21 00 00       	call   405990 <_wcrtomb>
  4037b9:	85 c0                	test   eax,eax
  4037bb:	7e 2f                	jle    4037ec <___pformat_wputchars+0xbc>
  4037bd:	8d 74 05 00          	lea    esi,[ebp+eax*1+0x0]
  4037c1:	89 ef                	mov    edi,ebp
  4037c3:	83 c7 01             	add    edi,0x1
  4037c6:	0f be 47 ff          	movsx  eax,BYTE PTR [edi-0x1]
  4037ca:	89 da                	mov    edx,ebx
  4037cc:	e8 ff fe ff ff       	call   4036d0 <___pformat_putc>
  4037d1:	39 f7                	cmp    edi,esi
  4037d3:	75 ee                	jne    4037c3 <___pformat_wputchars+0x93>
  4037d5:	83 6c 24 1c 01       	sub    DWORD PTR [esp+0x1c],0x1
  4037da:	eb b4                	jmp    403790 <___pformat_wputchars+0x60>
  4037dc:	8d 74 26 00          	lea    esi,[esi+eiz*1+0x0]
  4037e0:	89 da                	mov    edx,ebx
  4037e2:	b8 20 00 00 00       	mov    eax,0x20
  4037e7:	e8 e4 fe ff ff       	call   4036d0 <___pformat_putc>
  4037ec:	8b 43 08             	mov    eax,DWORD PTR [ebx+0x8]
  4037ef:	8d 50 ff             	lea    edx,[eax-0x1]
  4037f2:	85 c0                	test   eax,eax
  4037f4:	89 53 08             	mov    DWORD PTR [ebx+0x8],edx
  4037f7:	7f e7                	jg     4037e0 <___pformat_wputchars+0xb0>
  4037f9:	83 c4 4c             	add    esp,0x4c
  4037fc:	5b                   	pop    ebx
  4037fd:	5e                   	pop    esi
  4037fe:	5f                   	pop    edi
  4037ff:	5d                   	pop    ebp
  403800:	c3                   	ret    
  403801:	c7 43 08 ff ff ff ff 	mov    DWORD PTR [ebx+0x8],0xffffffff
  403808:	e9 7b ff ff ff       	jmp    403788 <___pformat_wputchars+0x58>
  40380d:	83 e8 01             	sub    eax,0x1
  403810:	89 43 08             	mov    DWORD PTR [ebx+0x8],eax
  403813:	89 da                	mov    edx,ebx
  403815:	b8 20 00 00 00       	mov    eax,0x20
  40381a:	e8 b1 fe ff ff       	call   4036d0 <___pformat_putc>
  40381f:	8b 43 08             	mov    eax,DWORD PTR [ebx+0x8]
  403822:	8d 50 ff             	lea    edx,[eax-0x1]
  403825:	85 c0                	test   eax,eax
  403827:	89 53 08             	mov    DWORD PTR [ebx+0x8],edx
  40382a:	75 e7                	jne    403813 <___pformat_wputchars+0xe3>
  40382c:	e9 57 ff ff ff       	jmp    403788 <___pformat_wputchars+0x58>
  403831:	89 c6                	mov    esi,eax
  403833:	e9 32 ff ff ff       	jmp    40376a <___pformat_wputchars+0x3a>
  403838:	90                   	nop
  403839:	8d b4 26 00 00 00 00 	lea    esi,[esi+eiz*1+0x0]

00403840 <___pformat_putchars>:
  403840:	57                   	push   edi
  403841:	89 c7                	mov    edi,eax
  403843:	8b 41 0c             	mov    eax,DWORD PTR [ecx+0xc]
  403846:	56                   	push   esi
  403847:	89 d6                	mov    esi,edx
  403849:	53                   	push   ebx
  40384a:	89 cb                	mov    ebx,ecx
  40384c:	85 c0                	test   eax,eax
  40384e:	78 08                	js     403858 <___pformat_putchars+0x18>
  403850:	39 c2                	cmp    edx,eax
  403852:	0f 8f 88 00 00 00    	jg     4038e0 <___pformat_putchars+0xa0>
  403858:	8b 43 08             	mov    eax,DWORD PTR [ebx+0x8]
  40385b:	39 c6                	cmp    esi,eax
  40385d:	7d 71                	jge    4038d0 <___pformat_putchars+0x90>
  40385f:	29 f0                	sub    eax,esi
  403861:	85 c0                	test   eax,eax
  403863:	89 43 08             	mov    DWORD PTR [ebx+0x8],eax
  403866:	7e 25                	jle    40388d <___pformat_putchars+0x4d>
  403868:	f6 43 05 04          	test   BYTE PTR [ebx+0x5],0x4
  40386c:	75 1f                	jne    40388d <___pformat_putchars+0x4d>
  40386e:	83 e8 01             	sub    eax,0x1
  403871:	89 43 08             	mov    DWORD PTR [ebx+0x8],eax
  403874:	89 da                	mov    edx,ebx
  403876:	b8 20 00 00 00       	mov    eax,0x20
  40387b:	e8 50 fe ff ff       	call   4036d0 <___pformat_putc>
  403880:	8b 43 08             	mov    eax,DWORD PTR [ebx+0x8]
  403883:	8d 50 ff             	lea    edx,[eax-0x1]
  403886:	85 c0                	test   eax,eax
  403888:	89 53 08             	mov    DWORD PTR [ebx+0x8],edx
  40388b:	75 e7                	jne    403874 <___pformat_putchars+0x34>
  40388d:	85 f6                	test   esi,esi
  40388f:	74 2c                	je     4038bd <___pformat_putchars+0x7d>
  403891:	83 c7 01             	add    edi,0x1
  403894:	0f be 47 ff          	movsx  eax,BYTE PTR [edi-0x1]
  403898:	89 da                	mov    edx,ebx
  40389a:	e8 31 fe ff ff       	call   4036d0 <___pformat_putc>
  40389f:	83 ee 01             	sub    esi,0x1
  4038a2:	75 ed                	jne    403891 <___pformat_putchars+0x51>
  4038a4:	8b 43 08             	mov    eax,DWORD PTR [ebx+0x8]
  4038a7:	8d 50 ff             	lea    edx,[eax-0x1]
  4038aa:	85 c0                	test   eax,eax
  4038ac:	89 53 08             	mov    DWORD PTR [ebx+0x8],edx
  4038af:	7e 19                	jle    4038ca <___pformat_putchars+0x8a>
  4038b1:	89 da                	mov    edx,ebx
  4038b3:	b8 20 00 00 00       	mov    eax,0x20
  4038b8:	e8 13 fe ff ff       	call   4036d0 <___pformat_putc>
  4038bd:	8b 43 08             	mov    eax,DWORD PTR [ebx+0x8]
  4038c0:	8d 50 ff             	lea    edx,[eax-0x1]
  4038c3:	85 c0                	test   eax,eax
  4038c5:	89 53 08             	mov    DWORD PTR [ebx+0x8],edx
  4038c8:	7f e7                	jg     4038b1 <___pformat_putchars+0x71>
  4038ca:	5b                   	pop    ebx
  4038cb:	5e                   	pop    esi
  4038cc:	5f                   	pop    edi
  4038cd:	c3                   	ret    
  4038ce:	66 90                	xchg   ax,ax
  4038d0:	c7 43 08 ff ff ff ff 	mov    DWORD PTR [ebx+0x8],0xffffffff
  4038d7:	eb b4                	jmp    40388d <___pformat_putchars+0x4d>
  4038d9:	8d b4 26 00 00 00 00 	lea    esi,[esi+eiz*1+0x0]
  4038e0:	89 c6                	mov    esi,eax
  4038e2:	e9 71 ff ff ff       	jmp    403858 <___pformat_putchars+0x18>
  4038e7:	89 f6                	mov    esi,esi
  4038e9:	8d bc 27 00 00 00 00 	lea    edi,[edi+eiz*1+0x0]

004038f0 <___pformat_emit_inf_or_nan>:
  4038f0:	55                   	push   ebp
  4038f1:	57                   	push   edi
  4038f2:	56                   	push   esi
  4038f3:	53                   	push   ebx
  4038f4:	83 ec 1c             	sub    esp,0x1c
  4038f7:	85 c0                	test   eax,eax
  4038f9:	c7 41 0c ff ff ff ff 	mov    DWORD PTR [ecx+0xc],0xffffffff
  403900:	74 3e                	je     403940 <___pformat_emit_inf_or_nan+0x50>
  403902:	8b 69 04             	mov    ebp,DWORD PTR [ecx+0x4]
  403905:	8d 7c 24 0d          	lea    edi,[esp+0xd]
  403909:	c6 44 24 0c 2d       	mov    BYTE PTR [esp+0xc],0x2d
  40390e:	8d 44 24 0c          	lea    eax,[esp+0xc]
  403912:	83 e5 20             	and    ebp,0x20
  403915:	31 f6                	xor    esi,esi
  403917:	0f b6 1c 32          	movzx  ebx,BYTE PTR [edx+esi*1]
  40391b:	83 e3 df             	and    ebx,0xffffffdf
  40391e:	09 eb                	or     ebx,ebp
  403920:	88 1c 37             	mov    BYTE PTR [edi+esi*1],bl
  403923:	83 c6 01             	add    esi,0x1
  403926:	83 fe 03             	cmp    esi,0x3
  403929:	75 ec                	jne    403917 <___pformat_emit_inf_or_nan+0x27>
  40392b:	8d 57 03             	lea    edx,[edi+0x3]
  40392e:	29 c2                	sub    edx,eax
  403930:	e8 0b ff ff ff       	call   403840 <___pformat_putchars>
  403935:	83 c4 1c             	add    esp,0x1c
  403938:	5b                   	pop    ebx
  403939:	5e                   	pop    esi
  40393a:	5f                   	pop    edi
  40393b:	5d                   	pop    ebp
  40393c:	c3                   	ret    
  40393d:	8d 76 00             	lea    esi,[esi+0x0]
  403940:	8b 69 04             	mov    ebp,DWORD PTR [ecx+0x4]
  403943:	f7 c5 00 01 00 00    	test   ebp,0x100
  403949:	74 15                	je     403960 <___pformat_emit_inf_or_nan+0x70>
  40394b:	c6 44 24 0c 2b       	mov    BYTE PTR [esp+0xc],0x2b
  403950:	8d 7c 24 0d          	lea    edi,[esp+0xd]
  403954:	8d 44 24 0c          	lea    eax,[esp+0xc]
  403958:	eb b8                	jmp    403912 <___pformat_emit_inf_or_nan+0x22>
  40395a:	8d b6 00 00 00 00    	lea    esi,[esi+0x0]
  403960:	f7 c5 40 00 00 00    	test   ebp,0x40
  403966:	74 0f                	je     403977 <___pformat_emit_inf_or_nan+0x87>
  403968:	c6 44 24 0c 20       	mov    BYTE PTR [esp+0xc],0x20
  40396d:	8d 7c 24 0d          	lea    edi,[esp+0xd]
  403971:	8d 44 24 0c          	lea    eax,[esp+0xc]
  403975:	eb 9b                	jmp    403912 <___pformat_emit_inf_or_nan+0x22>
  403977:	8d 44 24 0c          	lea    eax,[esp+0xc]
  40397b:	89 c7                	mov    edi,eax
  40397d:	eb 93                	jmp    403912 <___pformat_emit_inf_or_nan+0x22>
  40397f:	90                   	nop

00403980 <___pformat_int>:
  403980:	55                   	push   ebp
  403981:	89 e5                	mov    ebp,esp
  403983:	57                   	push   edi
  403984:	89 d7                	mov    edi,edx
  403986:	56                   	push   esi
  403987:	89 c6                	mov    esi,eax
  403989:	53                   	push   ebx
  40398a:	89 cb                	mov    ebx,ecx
  40398c:	83 ec 2c             	sub    esp,0x2c
  40398f:	89 55 dc             	mov    DWORD PTR [ebp-0x24],edx
  403992:	8b 51 0c             	mov    edx,DWORD PTR [ecx+0xc]
  403995:	89 45 d8             	mov    DWORD PTR [ebp-0x28],eax
  403998:	8b 49 08             	mov    ecx,DWORD PTR [ecx+0x8]
  40399b:	89 d0                	mov    eax,edx
  40399d:	c1 f8 1f             	sar    eax,0x1f
  4039a0:	f7 d0                	not    eax
  4039a2:	21 d0                	and    eax,edx
  4039a4:	83 c0 17             	add    eax,0x17
  4039a7:	39 c8                	cmp    eax,ecx
  4039a9:	7d 02                	jge    4039ad <___pformat_int+0x2d>
  4039ab:	89 c8                	mov    eax,ecx
  4039ad:	83 c0 0f             	add    eax,0xf
  4039b0:	83 e0 f0             	and    eax,0xfffffff0
  4039b3:	e8 a8 e5 ff ff       	call   401f60 <___chkstk_ms>
  4039b8:	29 c4                	sub    esp,eax
  4039ba:	8d 44 24 10          	lea    eax,[esp+0x10]
  4039be:	89 45 e4             	mov    DWORD PTR [ebp-0x1c],eax
  4039c1:	8b 43 04             	mov    eax,DWORD PTR [ebx+0x4]
  4039c4:	a8 80                	test   al,0x80
  4039c6:	74 0d                	je     4039d5 <___pformat_int+0x55>
  4039c8:	85 ff                	test   edi,edi
  4039ca:	0f 88 b0 01 00 00    	js     403b80 <___pformat_int+0x200>
  4039d0:	24 7f                	and    al,0x7f
  4039d2:	89 43 04             	mov    DWORD PTR [ebx+0x4],eax
  4039d5:	8b 4d dc             	mov    ecx,DWORD PTR [ebp-0x24]
  4039d8:	8b 7d d8             	mov    edi,DWORD PTR [ebp-0x28]
  4039db:	8b 75 e4             	mov    esi,DWORD PTR [ebp-0x1c]
  4039de:	89 c8                	mov    eax,ecx
  4039e0:	09 f8                	or     eax,edi
  4039e2:	74 5d                	je     403a41 <___pformat_int+0xc1>
  4039e4:	89 5d d8             	mov    DWORD PTR [ebp-0x28],ebx
  4039e7:	89 cb                	mov    ebx,ecx
  4039e9:	8d b4 26 00 00 00 00 	lea    esi,[esi+eiz*1+0x0]
  4039f0:	89 3c 24             	mov    DWORD PTR [esp],edi
  4039f3:	83 c6 01             	add    esi,0x1
  4039f6:	89 5c 24 04          	mov    DWORD PTR [esp+0x4],ebx
  4039fa:	c7 44 24 08 0a 00 00 	mov    DWORD PTR [esp+0x8],0xa
  403a01:	00 
  403a02:	c7 44 24 0c 00 00 00 	mov    DWORD PTR [esp+0xc],0x0
  403a09:	00 
  403a0a:	e8 01 48 00 00       	call   408210 <___umoddi3>
  403a0f:	83 c0 30             	add    eax,0x30
  403a12:	88 46 ff             	mov    BYTE PTR [esi-0x1],al
  403a15:	89 3c 24             	mov    DWORD PTR [esp],edi
  403a18:	89 5c 24 04          	mov    DWORD PTR [esp+0x4],ebx
  403a1c:	c7 44 24 08 0a 00 00 	mov    DWORD PTR [esp+0x8],0xa
  403a23:	00 
  403a24:	c7 44 24 0c 00 00 00 	mov    DWORD PTR [esp+0xc],0x0
  403a2b:	00 
  403a2c:	e8 cf 46 00 00       	call   408100 <___udivdi3>
  403a31:	89 c7                	mov    edi,eax
  403a33:	89 d0                	mov    eax,edx
  403a35:	09 f8                	or     eax,edi
  403a37:	89 d3                	mov    ebx,edx
  403a39:	75 b5                	jne    4039f0 <___pformat_int+0x70>
  403a3b:	8b 5d d8             	mov    ebx,DWORD PTR [ebp-0x28]
  403a3e:	8b 53 0c             	mov    edx,DWORD PTR [ebx+0xc]
  403a41:	85 d2                	test   edx,edx
  403a43:	89 f7                	mov    edi,esi
  403a45:	7e 19                	jle    403a60 <___pformat_int+0xe0>
  403a47:	8b 45 e4             	mov    eax,DWORD PTR [ebp-0x1c]
  403a4a:	29 f0                	sub    eax,esi
  403a4c:	01 c2                	add    edx,eax
  403a4e:	85 d2                	test   edx,edx
  403a50:	7e 0e                	jle    403a60 <___pformat_int+0xe0>
  403a52:	8d 3c 16             	lea    edi,[esi+edx*1]
  403a55:	83 c6 01             	add    esi,0x1
  403a58:	39 fe                	cmp    esi,edi
  403a5a:	c6 46 ff 30          	mov    BYTE PTR [esi-0x1],0x30
  403a5e:	75 f5                	jne    403a55 <___pformat_int+0xd5>
  403a60:	3b 7d e4             	cmp    edi,DWORD PTR [ebp-0x1c]
  403a63:	0f 84 29 01 00 00    	je     403b92 <___pformat_int+0x212>
  403a69:	8b 43 08             	mov    eax,DWORD PTR [ebx+0x8]
  403a6c:	85 c0                	test   eax,eax
  403a6e:	7e 59                	jle    403ac9 <___pformat_int+0x149>
  403a70:	8b 55 e4             	mov    edx,DWORD PTR [ebp-0x1c]
  403a73:	29 fa                	sub    edx,edi
  403a75:	01 c2                	add    edx,eax
  403a77:	8b 43 04             	mov    eax,DWORD PTR [ebx+0x4]
  403a7a:	85 d2                	test   edx,edx
  403a7c:	89 53 08             	mov    DWORD PTR [ebx+0x8],edx
  403a7f:	7e 4b                	jle    403acc <___pformat_int+0x14c>
  403a81:	a9 c0 01 00 00       	test   eax,0x1c0
  403a86:	74 06                	je     403a8e <___pformat_int+0x10e>
  403a88:	83 ea 01             	sub    edx,0x1
  403a8b:	89 53 08             	mov    DWORD PTR [ebx+0x8],edx
  403a8e:	8b 53 0c             	mov    edx,DWORD PTR [ebx+0xc]
  403a91:	85 d2                	test   edx,edx
  403a93:	0f 88 a7 00 00 00    	js     403b40 <___pformat_int+0x1c0>
  403a99:	f6 c4 04             	test   ah,0x4
  403a9c:	75 2e                	jne    403acc <___pformat_int+0x14c>
  403a9e:	8b 53 08             	mov    edx,DWORD PTR [ebx+0x8]
  403aa1:	8d 4a ff             	lea    ecx,[edx-0x1]
  403aa4:	85 d2                	test   edx,edx
  403aa6:	89 4b 08             	mov    DWORD PTR [ebx+0x8],ecx
  403aa9:	7e 21                	jle    403acc <___pformat_int+0x14c>
  403aab:	90                   	nop
  403aac:	8d 74 26 00          	lea    esi,[esi+eiz*1+0x0]
  403ab0:	89 da                	mov    edx,ebx
  403ab2:	b8 20 00 00 00       	mov    eax,0x20
  403ab7:	e8 14 fc ff ff       	call   4036d0 <___pformat_putc>
  403abc:	8b 43 08             	mov    eax,DWORD PTR [ebx+0x8]
  403abf:	8d 50 ff             	lea    edx,[eax-0x1]
  403ac2:	85 c0                	test   eax,eax
  403ac4:	89 53 08             	mov    DWORD PTR [ebx+0x8],edx
  403ac7:	7f e7                	jg     403ab0 <___pformat_int+0x130>
  403ac9:	8b 43 04             	mov    eax,DWORD PTR [ebx+0x4]
  403acc:	a8 80                	test   al,0x80
  403ace:	74 51                	je     403b21 <___pformat_int+0x1a1>
  403ad0:	8d 77 01             	lea    esi,[edi+0x1]
  403ad3:	c6 07 2d             	mov    BYTE PTR [edi],0x2d
  403ad6:	39 75 e4             	cmp    DWORD PTR [ebp-0x1c],esi
  403ad9:	8b 7d e4             	mov    edi,DWORD PTR [ebp-0x1c]
  403adc:	73 2e                	jae    403b0c <___pformat_int+0x18c>
  403ade:	66 90                	xchg   ax,ax
  403ae0:	83 ee 01             	sub    esi,0x1
  403ae3:	0f be 06             	movsx  eax,BYTE PTR [esi]
  403ae6:	89 da                	mov    edx,ebx
  403ae8:	e8 e3 fb ff ff       	call   4036d0 <___pformat_putc>
  403aed:	39 fe                	cmp    esi,edi
  403aef:	75 ef                	jne    403ae0 <___pformat_int+0x160>
  403af1:	8b 43 08             	mov    eax,DWORD PTR [ebx+0x8]
  403af4:	8d 50 ff             	lea    edx,[eax-0x1]
  403af7:	85 c0                	test   eax,eax
  403af9:	89 53 08             	mov    DWORD PTR [ebx+0x8],edx
  403afc:	7e 1b                	jle    403b19 <___pformat_int+0x199>
  403afe:	66 90                	xchg   ax,ax
  403b00:	89 da                	mov    edx,ebx
  403b02:	b8 20 00 00 00       	mov    eax,0x20
  403b07:	e8 c4 fb ff ff       	call   4036d0 <___pformat_putc>
  403b0c:	8b 43 08             	mov    eax,DWORD PTR [ebx+0x8]
  403b0f:	8d 50 ff             	lea    edx,[eax-0x1]
  403b12:	85 c0                	test   eax,eax
  403b14:	89 53 08             	mov    DWORD PTR [ebx+0x8],edx
  403b17:	7f e7                	jg     403b00 <___pformat_int+0x180>
  403b19:	8d 65 f4             	lea    esp,[ebp-0xc]
  403b1c:	5b                   	pop    ebx
  403b1d:	5e                   	pop    esi
  403b1e:	5f                   	pop    edi
  403b1f:	5d                   	pop    ebp
  403b20:	c3                   	ret    
  403b21:	f6 c4 01             	test   ah,0x1
  403b24:	74 0a                	je     403b30 <___pformat_int+0x1b0>
  403b26:	8d 77 01             	lea    esi,[edi+0x1]
  403b29:	c6 07 2b             	mov    BYTE PTR [edi],0x2b
  403b2c:	eb a8                	jmp    403ad6 <___pformat_int+0x156>
  403b2e:	66 90                	xchg   ax,ax
  403b30:	a8 40                	test   al,0x40
  403b32:	89 fe                	mov    esi,edi
  403b34:	74 a0                	je     403ad6 <___pformat_int+0x156>
  403b36:	83 c6 01             	add    esi,0x1
  403b39:	c6 07 20             	mov    BYTE PTR [edi],0x20
  403b3c:	eb 98                	jmp    403ad6 <___pformat_int+0x156>
  403b3e:	66 90                	xchg   ax,ax
  403b40:	89 c2                	mov    edx,eax
  403b42:	81 e2 00 06 00 00    	and    edx,0x600
  403b48:	81 fa 00 02 00 00    	cmp    edx,0x200
  403b4e:	0f 85 45 ff ff ff    	jne    403a99 <___pformat_int+0x119>
  403b54:	8b 53 08             	mov    edx,DWORD PTR [ebx+0x8]
  403b57:	8d 4a ff             	lea    ecx,[edx-0x1]
  403b5a:	85 d2                	test   edx,edx
  403b5c:	89 4b 08             	mov    DWORD PTR [ebx+0x8],ecx
  403b5f:	0f 8e 67 ff ff ff    	jle    403acc <___pformat_int+0x14c>
  403b65:	83 c7 01             	add    edi,0x1
  403b68:	c6 47 ff 30          	mov    BYTE PTR [edi-0x1],0x30
  403b6c:	8b 43 08             	mov    eax,DWORD PTR [ebx+0x8]
  403b6f:	8d 50 ff             	lea    edx,[eax-0x1]
  403b72:	85 c0                	test   eax,eax
  403b74:	89 53 08             	mov    DWORD PTR [ebx+0x8],edx
  403b77:	7f ec                	jg     403b65 <___pformat_int+0x1e5>
  403b79:	e9 4b ff ff ff       	jmp    403ac9 <___pformat_int+0x149>
  403b7e:	66 90                	xchg   ax,ax
  403b80:	f7 de                	neg    esi
  403b82:	83 d7 00             	adc    edi,0x0
  403b85:	f7 df                	neg    edi
  403b87:	89 75 d8             	mov    DWORD PTR [ebp-0x28],esi
  403b8a:	89 7d dc             	mov    DWORD PTR [ebp-0x24],edi
  403b8d:	e9 43 fe ff ff       	jmp    4039d5 <___pformat_int+0x55>
  403b92:	8b 4b 0c             	mov    ecx,DWORD PTR [ebx+0xc]
  403b95:	85 c9                	test   ecx,ecx
  403b97:	0f 84 cc fe ff ff    	je     403a69 <___pformat_int+0xe9>
  403b9d:	c6 07 30             	mov    BYTE PTR [edi],0x30
  403ba0:	83 c7 01             	add    edi,0x1
  403ba3:	e9 c1 fe ff ff       	jmp    403a69 <___pformat_int+0xe9>
  403ba8:	90                   	nop
  403ba9:	8d b4 26 00 00 00 00 	lea    esi,[esi+eiz*1+0x0]

00403bb0 <___pformat_xint>:
  403bb0:	55                   	push   ebp
  403bb1:	89 e5                	mov    ebp,esp
  403bb3:	57                   	push   edi
  403bb4:	89 cf                	mov    edi,ecx
  403bb6:	56                   	push   esi
  403bb7:	89 d6                	mov    esi,edx
  403bb9:	53                   	push   ebx
  403bba:	83 ec 2c             	sub    esp,0x2c
  403bbd:	89 55 dc             	mov    DWORD PTR [ebp-0x24],edx
  403bc0:	31 d2                	xor    edx,edx
  403bc2:	83 f8 6f             	cmp    eax,0x6f
  403bc5:	0f 94 c2             	sete   dl
  403bc8:	83 ea 01             	sub    edx,0x1
  403bcb:	83 e2 fa             	and    edx,0xfffffffa
  403bce:	89 4d d4             	mov    DWORD PTR [ebp-0x2c],ecx
  403bd1:	31 c9                	xor    ecx,ecx
  403bd3:	83 f8 6f             	cmp    eax,0x6f
  403bd6:	0f 95 c1             	setne  cl
  403bd9:	89 45 d8             	mov    DWORD PTR [ebp-0x28],eax
  403bdc:	89 c8                	mov    eax,ecx
  403bde:	89 45 e4             	mov    DWORD PTR [ebp-0x1c],eax
  403be1:	8b 45 08             	mov    eax,DWORD PTR [ebp+0x8]
  403be4:	8d 1c cd 07 00 00 00 	lea    ebx,[ecx*8+0x7]
  403beb:	89 5d d0             	mov    DWORD PTR [ebp-0x30],ebx
  403bee:	8b 4d 08             	mov    ecx,DWORD PTR [ebp+0x8]
  403bf1:	83 45 e4 03          	add    DWORD PTR [ebp-0x1c],0x3
  403bf5:	8b 58 0c             	mov    ebx,DWORD PTR [eax+0xc]
  403bf8:	8b 49 08             	mov    ecx,DWORD PTR [ecx+0x8]
  403bfb:	89 d8                	mov    eax,ebx
  403bfd:	c1 f8 1f             	sar    eax,0x1f
  403c00:	f7 d0                	not    eax
  403c02:	21 d8                	and    eax,ebx
  403c04:	8d 44 02 18          	lea    eax,[edx+eax*1+0x18]
  403c08:	39 c8                	cmp    eax,ecx
  403c0a:	7d 02                	jge    403c0e <___pformat_xint+0x5e>
  403c0c:	89 c8                	mov    eax,ecx
  403c0e:	83 c0 0f             	add    eax,0xf
  403c11:	83 e0 f0             	and    eax,0xfffffff0
  403c14:	e8 47 e3 ff ff       	call   401f60 <___chkstk_ms>
  403c19:	29 c4                	sub    esp,eax
  403c1b:	8b 45 d4             	mov    eax,DWORD PTR [ebp-0x2c]
  403c1e:	0b 45 dc             	or     eax,DWORD PTR [ebp-0x24]
  403c21:	89 65 e0             	mov    DWORD PTR [ebp-0x20],esp
  403c24:	0f 84 4a 02 00 00    	je     403e74 <___pformat_xint+0x2c4>
  403c2a:	0f b6 4d d8          	movzx  ecx,BYTE PTR [ebp-0x28]
  403c2e:	89 e0                	mov    eax,esp
  403c30:	0f b6 5d d0          	movzx  ebx,BYTE PTR [ebp-0x30]
  403c34:	83 e1 20             	and    ecx,0x20
  403c37:	88 4d dc             	mov    BYTE PTR [ebp-0x24],cl
  403c3a:	eb 1f                	jmp    403c5b <___pformat_xint+0xab>
  403c3c:	8d 74 26 00          	lea    esi,[esi+eiz*1+0x0]
  403c40:	88 48 ff             	mov    BYTE PTR [eax-0x1],cl
  403c43:	0f b6 4d e4          	movzx  ecx,BYTE PTR [ebp-0x1c]
  403c47:	0f ad fe             	shrd   esi,edi,cl
  403c4a:	d3 ef                	shr    edi,cl
  403c4c:	f6 c1 20             	test   cl,0x20
  403c4f:	74 04                	je     403c55 <___pformat_xint+0xa5>
  403c51:	89 fe                	mov    esi,edi
  403c53:	31 ff                	xor    edi,edi
  403c55:	89 f9                	mov    ecx,edi
  403c57:	09 f1                	or     ecx,esi
  403c59:	74 1a                	je     403c75 <___pformat_xint+0xc5>
  403c5b:	89 f2                	mov    edx,esi
  403c5d:	83 c0 01             	add    eax,0x1
  403c60:	21 da                	and    edx,ebx
  403c62:	8d 4a 30             	lea    ecx,[edx+0x30]
  403c65:	80 f9 39             	cmp    cl,0x39
  403c68:	7e d6                	jle    403c40 <___pformat_xint+0x90>
  403c6a:	83 c2 37             	add    edx,0x37
  403c6d:	0a 55 dc             	or     dl,BYTE PTR [ebp-0x24]
  403c70:	88 50 ff             	mov    BYTE PTR [eax-0x1],dl
  403c73:	eb ce                	jmp    403c43 <___pformat_xint+0x93>
  403c75:	39 45 e0             	cmp    DWORD PTR [ebp-0x20],eax
  403c78:	0f 84 f0 01 00 00    	je     403e6e <___pformat_xint+0x2be>
  403c7e:	8b 7d 08             	mov    edi,DWORD PTR [ebp+0x8]
  403c81:	8b 5f 0c             	mov    ebx,DWORD PTR [edi+0xc]
  403c84:	85 db                	test   ebx,ebx
  403c86:	0f 8e a5 01 00 00    	jle    403e31 <___pformat_xint+0x281>
  403c8c:	8b 4d e0             	mov    ecx,DWORD PTR [ebp-0x20]
  403c8f:	29 c1                	sub    ecx,eax
  403c91:	01 cb                	add    ebx,ecx
  403c93:	85 db                	test   ebx,ebx
  403c95:	0f 8e 96 01 00 00    	jle    403e31 <___pformat_xint+0x281>
  403c9b:	8d 3c 18             	lea    edi,[eax+ebx*1]
  403c9e:	66 90                	xchg   ax,ax
  403ca0:	83 c0 01             	add    eax,0x1
  403ca3:	39 f8                	cmp    eax,edi
  403ca5:	c6 40 ff 30          	mov    BYTE PTR [eax-0x1],0x30
  403ca9:	75 f5                	jne    403ca0 <___pformat_xint+0xf0>
  403cab:	3b 7d e0             	cmp    edi,DWORD PTR [ebp-0x20]
  403cae:	0f 84 a1 01 00 00    	je     403e55 <___pformat_xint+0x2a5>
  403cb4:	8b 45 08             	mov    eax,DWORD PTR [ebp+0x8]
  403cb7:	8b 70 08             	mov    esi,DWORD PTR [eax+0x8]
  403cba:	89 f8                	mov    eax,edi
  403cbc:	2b 45 e0             	sub    eax,DWORD PTR [ebp-0x20]
  403cbf:	39 c6                	cmp    esi,eax
  403cc1:	0f 8e a9 00 00 00    	jle    403d70 <___pformat_xint+0x1c0>
  403cc7:	29 c6                	sub    esi,eax
  403cc9:	8b 45 08             	mov    eax,DWORD PTR [ebp+0x8]
  403ccc:	85 f6                	test   esi,esi
  403cce:	89 70 08             	mov    DWORD PTR [eax+0x8],esi
  403cd1:	7e 21                	jle    403cf4 <___pformat_xint+0x144>
  403cd3:	83 7d d8 6f          	cmp    DWORD PTR [ebp-0x28],0x6f
  403cd7:	74 0d                	je     403ce6 <___pformat_xint+0x136>
  403cd9:	8b 45 08             	mov    eax,DWORD PTR [ebp+0x8]
  403cdc:	f6 40 05 08          	test   BYTE PTR [eax+0x5],0x8
  403ce0:	0f 85 00 01 00 00    	jne    403de6 <___pformat_xint+0x236>
  403ce6:	8b 45 08             	mov    eax,DWORD PTR [ebp+0x8]
  403ce9:	8b 58 0c             	mov    ebx,DWORD PTR [eax+0xc]
  403cec:	85 db                	test   ebx,ebx
  403cee:	0f 88 09 01 00 00    	js     403dfd <___pformat_xint+0x24d>
  403cf4:	8d 46 ff             	lea    eax,[esi-0x1]
  403cf7:	89 45 e4             	mov    DWORD PTR [ebp-0x1c],eax
  403cfa:	8b 45 e4             	mov    eax,DWORD PTR [ebp-0x1c]
  403cfd:	83 7d d8 6f          	cmp    DWORD PTR [ebp-0x28],0x6f
  403d01:	89 c3                	mov    ebx,eax
  403d03:	74 0d                	je     403d12 <___pformat_xint+0x162>
  403d05:	8b 45 08             	mov    eax,DWORD PTR [ebp+0x8]
  403d08:	f6 40 05 08          	test   BYTE PTR [eax+0x5],0x8
  403d0c:	0f 85 be 00 00 00    	jne    403dd0 <___pformat_xint+0x220>
  403d12:	85 f6                	test   esi,esi
  403d14:	7e 09                	jle    403d1f <___pformat_xint+0x16f>
  403d16:	8b 45 08             	mov    eax,DWORD PTR [ebp+0x8]
  403d19:	f6 40 05 04          	test   BYTE PTR [eax+0x5],0x4
  403d1d:	74 71                	je     403d90 <___pformat_xint+0x1e0>
  403d1f:	3b 7d e0             	cmp    edi,DWORD PTR [ebp-0x20]
  403d22:	76 25                	jbe    403d49 <___pformat_xint+0x199>
  403d24:	89 75 e4             	mov    DWORD PTR [ebp-0x1c],esi
  403d27:	8b 75 e0             	mov    esi,DWORD PTR [ebp-0x20]
  403d2a:	89 5d e0             	mov    DWORD PTR [ebp-0x20],ebx
  403d2d:	89 fb                	mov    ebx,edi
  403d2f:	8b 7d 08             	mov    edi,DWORD PTR [ebp+0x8]
  403d32:	83 eb 01             	sub    ebx,0x1
  403d35:	0f be 03             	movsx  eax,BYTE PTR [ebx]
  403d38:	89 fa                	mov    edx,edi
  403d3a:	e8 91 f9 ff ff       	call   4036d0 <___pformat_putc>
  403d3f:	39 f3                	cmp    ebx,esi
  403d41:	75 ef                	jne    403d32 <___pformat_xint+0x182>
  403d43:	8b 75 e4             	mov    esi,DWORD PTR [ebp-0x1c]
  403d46:	8b 5d e0             	mov    ebx,DWORD PTR [ebp-0x20]
  403d49:	85 f6                	test   esi,esi
  403d4b:	7e 19                	jle    403d66 <___pformat_xint+0x1b6>
  403d4d:	8b 75 08             	mov    esi,DWORD PTR [ebp+0x8]
  403d50:	b8 20 00 00 00       	mov    eax,0x20
  403d55:	83 eb 01             	sub    ebx,0x1
  403d58:	89 f2                	mov    edx,esi
  403d5a:	e8 71 f9 ff ff       	call   4036d0 <___pformat_putc>
  403d5f:	8d 43 01             	lea    eax,[ebx+0x1]
  403d62:	85 c0                	test   eax,eax
  403d64:	7f ea                	jg     403d50 <___pformat_xint+0x1a0>
  403d66:	8d 65 f4             	lea    esp,[ebp-0xc]
  403d69:	5b                   	pop    ebx
  403d6a:	5e                   	pop    esi
  403d6b:	5f                   	pop    edi
  403d6c:	5d                   	pop    ebp
  403d6d:	c3                   	ret    
  403d6e:	66 90                	xchg   ax,ax
  403d70:	8b 45 08             	mov    eax,DWORD PTR [ebp+0x8]
  403d73:	be ff ff ff ff       	mov    esi,0xffffffff
  403d78:	c7 45 e4 fe ff ff ff 	mov    DWORD PTR [ebp-0x1c],0xfffffffe
  403d7f:	c7 40 08 ff ff ff ff 	mov    DWORD PTR [eax+0x8],0xffffffff
  403d86:	e9 6f ff ff ff       	jmp    403cfa <___pformat_xint+0x14a>
  403d8b:	90                   	nop
  403d8c:	8d 74 26 00          	lea    esi,[esi+eiz*1+0x0]
  403d90:	8b 5d e4             	mov    ebx,DWORD PTR [ebp-0x1c]
  403d93:	89 c6                	mov    esi,eax
  403d95:	b8 20 00 00 00       	mov    eax,0x20
  403d9a:	83 eb 01             	sub    ebx,0x1
  403d9d:	89 f2                	mov    edx,esi
  403d9f:	e8 2c f9 ff ff       	call   4036d0 <___pformat_putc>
  403da4:	8d 43 01             	lea    eax,[ebx+0x1]
  403da7:	85 c0                	test   eax,eax
  403da9:	7f ea                	jg     403d95 <___pformat_xint+0x1e5>
  403dab:	8b 4d e4             	mov    ecx,DWORD PTR [ebp-0x1c]
  403dae:	89 c8                	mov    eax,ecx
  403db0:	c1 f8 1f             	sar    eax,0x1f
  403db3:	f7 d0                	not    eax
  403db5:	8d 71 ff             	lea    esi,[ecx-0x1]
  403db8:	21 c8                	and    eax,ecx
  403dba:	29 c6                	sub    esi,eax
  403dbc:	8d 5e ff             	lea    ebx,[esi-0x1]
  403dbf:	e9 5b ff ff ff       	jmp    403d1f <___pformat_xint+0x16f>
  403dc4:	83 ee 03             	sub    esi,0x3
  403dc7:	89 75 e4             	mov    DWORD PTR [ebp-0x1c],esi
  403dca:	89 c6                	mov    esi,eax
  403dcc:	8d 74 26 00          	lea    esi,[esi+eiz*1+0x0]
  403dd0:	0f b6 45 d8          	movzx  eax,BYTE PTR [ebp-0x28]
  403dd4:	83 c7 02             	add    edi,0x2
  403dd7:	c6 47 ff 30          	mov    BYTE PTR [edi-0x1],0x30
  403ddb:	8b 5d e4             	mov    ebx,DWORD PTR [ebp-0x1c]
  403dde:	88 47 fe             	mov    BYTE PTR [edi-0x2],al
  403de1:	e9 2c ff ff ff       	jmp    403d12 <___pformat_xint+0x162>
  403de6:	8d 46 fe             	lea    eax,[esi-0x2]
  403de9:	85 c0                	test   eax,eax
  403deb:	7e d7                	jle    403dc4 <___pformat_xint+0x214>
  403ded:	89 c6                	mov    esi,eax
  403def:	8b 45 08             	mov    eax,DWORD PTR [ebp+0x8]
  403df2:	8b 58 0c             	mov    ebx,DWORD PTR [eax+0xc]
  403df5:	85 db                	test   ebx,ebx
  403df7:	0f 89 f7 fe ff ff    	jns    403cf4 <___pformat_xint+0x144>
  403dfd:	8b 45 08             	mov    eax,DWORD PTR [ebp+0x8]
  403e00:	8b 40 04             	mov    eax,DWORD PTR [eax+0x4]
  403e03:	25 00 06 00 00       	and    eax,0x600
  403e08:	3d 00 02 00 00       	cmp    eax,0x200
  403e0d:	0f 85 e1 fe ff ff    	jne    403cf4 <___pformat_xint+0x144>
  403e13:	01 fe                	add    esi,edi
  403e15:	83 c7 01             	add    edi,0x1
  403e18:	39 f7                	cmp    edi,esi
  403e1a:	c6 47 ff 30          	mov    BYTE PTR [edi-0x1],0x30
  403e1e:	75 f5                	jne    403e15 <___pformat_xint+0x265>
  403e20:	c7 45 e4 fe ff ff ff 	mov    DWORD PTR [ebp-0x1c],0xfffffffe
  403e27:	be ff ff ff ff       	mov    esi,0xffffffff
  403e2c:	e9 c9 fe ff ff       	jmp    403cfa <___pformat_xint+0x14a>
  403e31:	83 7d d8 6f          	cmp    DWORD PTR [ebp-0x28],0x6f
  403e35:	89 c7                	mov    edi,eax
  403e37:	0f 85 6e fe ff ff    	jne    403cab <___pformat_xint+0xfb>
  403e3d:	8b 75 08             	mov    esi,DWORD PTR [ebp+0x8]
  403e40:	f6 46 05 08          	test   BYTE PTR [esi+0x5],0x8
  403e44:	0f 84 61 fe ff ff    	je     403cab <___pformat_xint+0xfb>
  403e4a:	83 c7 01             	add    edi,0x1
  403e4d:	c6 00 30             	mov    BYTE PTR [eax],0x30
  403e50:	e9 56 fe ff ff       	jmp    403cab <___pformat_xint+0xfb>
  403e55:	8b 45 08             	mov    eax,DWORD PTR [ebp+0x8]
  403e58:	8b 70 0c             	mov    esi,DWORD PTR [eax+0xc]
  403e5b:	85 f6                	test   esi,esi
  403e5d:	0f 84 51 fe ff ff    	je     403cb4 <___pformat_xint+0x104>
  403e63:	c6 07 30             	mov    BYTE PTR [edi],0x30
  403e66:	83 c7 01             	add    edi,0x1
  403e69:	e9 46 fe ff ff       	jmp    403cb4 <___pformat_xint+0x104>
  403e6e:	8b 45 08             	mov    eax,DWORD PTR [ebp+0x8]
  403e71:	8b 58 0c             	mov    ebx,DWORD PTR [eax+0xc]
  403e74:	8b 45 08             	mov    eax,DWORD PTR [ebp+0x8]
  403e77:	81 60 04 ff f7 ff ff 	and    DWORD PTR [eax+0x4],0xfffff7ff
  403e7e:	8b 45 e0             	mov    eax,DWORD PTR [ebp-0x20]
  403e81:	e9 fe fd ff ff       	jmp    403c84 <___pformat_xint+0xd4>
  403e86:	8d 76 00             	lea    esi,[esi+0x0]
  403e89:	8d bc 27 00 00 00 00 	lea    edi,[edi+eiz*1+0x0]

00403e90 <___pformat_emit_float>:
  403e90:	55                   	push   ebp
  403e91:	89 e5                	mov    ebp,esp
  403e93:	57                   	push   edi
  403e94:	56                   	push   esi
  403e95:	89 d6                	mov    esi,edx
  403e97:	53                   	push   ebx
  403e98:	89 cb                	mov    ebx,ecx
  403e9a:	83 ec 3c             	sub    esp,0x3c
  403e9d:	8b 7d 08             	mov    edi,DWORD PTR [ebp+0x8]
  403ea0:	85 c9                	test   ecx,ecx
  403ea2:	89 45 d4             	mov    DWORD PTR [ebp-0x2c],eax
  403ea5:	8b 47 08             	mov    eax,DWORD PTR [edi+0x8]
  403ea8:	0f 8e 7a 02 00 00    	jle    404128 <___pformat_emit_float+0x298>
  403eae:	39 c1                	cmp    ecx,eax
  403eb0:	0f 8d 3a 01 00 00    	jge    403ff0 <___pformat_emit_float+0x160>
  403eb6:	29 c8                	sub    eax,ecx
  403eb8:	89 47 08             	mov    DWORD PTR [edi+0x8],eax
  403ebb:	85 c0                	test   eax,eax
  403ebd:	0f 88 2d 01 00 00    	js     403ff0 <___pformat_emit_float+0x160>
  403ec3:	8b 57 0c             	mov    edx,DWORD PTR [edi+0xc]
  403ec6:	39 c2                	cmp    edx,eax
  403ec8:	0f 8d 22 01 00 00    	jge    403ff0 <___pformat_emit_float+0x160>
  403ece:	29 d0                	sub    eax,edx
  403ed0:	85 c0                	test   eax,eax
  403ed2:	89 47 08             	mov    DWORD PTR [edi+0x8],eax
  403ed5:	0f 8e 1c 01 00 00    	jle    403ff7 <___pformat_emit_float+0x167>
  403edb:	85 d2                	test   edx,edx
  403edd:	0f 8e ad 02 00 00    	jle    404190 <___pformat_emit_float+0x300>
  403ee3:	83 e8 01             	sub    eax,0x1
  403ee6:	85 c0                	test   eax,eax
  403ee8:	89 47 08             	mov    DWORD PTR [edi+0x8],eax
  403eeb:	0f 84 06 01 00 00    	je     403ff7 <___pformat_emit_float+0x167>
  403ef1:	8b 55 d4             	mov    edx,DWORD PTR [ebp-0x2c]
  403ef4:	85 d2                	test   edx,edx
  403ef6:	0f 85 ba 01 00 00    	jne    4040b6 <___pformat_emit_float+0x226>
  403efc:	8b 57 04             	mov    edx,DWORD PTR [edi+0x4]
  403eff:	f7 c2 c0 01 00 00    	test   edx,0x1c0
  403f05:	0f 85 ab 01 00 00    	jne    4040b6 <___pformat_emit_float+0x226>
  403f0b:	80 e6 06             	and    dh,0x6
  403f0e:	0f 85 e3 00 00 00    	jne    403ff7 <___pformat_emit_float+0x167>
  403f14:	eb 0c                	jmp    403f22 <___pformat_emit_float+0x92>
  403f16:	89 fa                	mov    edx,edi
  403f18:	b8 20 00 00 00       	mov    eax,0x20
  403f1d:	e8 ae f7 ff ff       	call   4036d0 <___pformat_putc>
  403f22:	8b 47 08             	mov    eax,DWORD PTR [edi+0x8]
  403f25:	8d 50 ff             	lea    edx,[eax-0x1]
  403f28:	85 c0                	test   eax,eax
  403f2a:	89 57 08             	mov    DWORD PTR [edi+0x8],edx
  403f2d:	7f e7                	jg     403f16 <___pformat_emit_float+0x86>
  403f2f:	8b 45 d4             	mov    eax,DWORD PTR [ebp-0x2c]
  403f32:	85 c0                	test   eax,eax
  403f34:	0f 84 c8 00 00 00    	je     404002 <___pformat_emit_float+0x172>
  403f3a:	89 fa                	mov    edx,edi
  403f3c:	b8 2d 00 00 00       	mov    eax,0x2d
  403f41:	e8 8a f7 ff ff       	call   4036d0 <___pformat_putc>
  403f46:	8b 57 08             	mov    edx,DWORD PTR [edi+0x8]
  403f49:	85 d2                	test   edx,edx
  403f4b:	7e 13                	jle    403f60 <___pformat_emit_float+0xd0>
  403f4d:	8b 47 04             	mov    eax,DWORD PTR [edi+0x4]
  403f50:	25 00 06 00 00       	and    eax,0x600
  403f55:	3d 00 02 00 00       	cmp    eax,0x200
  403f5a:	0f 84 f1 01 00 00    	je     404151 <___pformat_emit_float+0x2c1>
  403f60:	85 db                	test   ebx,ebx
  403f62:	0f 8e 10 02 00 00    	jle    404178 <___pformat_emit_float+0x2e8>
  403f68:	0f b6 16             	movzx  edx,BYTE PTR [esi]
  403f6b:	b8 30 00 00 00       	mov    eax,0x30
  403f70:	84 d2                	test   dl,dl
  403f72:	74 06                	je     403f7a <___pformat_emit_float+0xea>
  403f74:	83 c6 01             	add    esi,0x1
  403f77:	0f be c2             	movsx  eax,dl
  403f7a:	89 fa                	mov    edx,edi
  403f7c:	e8 4f f7 ff ff       	call   4036d0 <___pformat_putc>
  403f81:	83 eb 01             	sub    ebx,0x1
  403f84:	75 e2                	jne    403f68 <___pformat_emit_float+0xd8>
  403f86:	8b 47 0c             	mov    eax,DWORD PTR [edi+0xc]
  403f89:	85 c0                	test   eax,eax
  403f8b:	0f 8e 3f 01 00 00    	jle    4040d0 <___pformat_emit_float+0x240>
  403f91:	83 7f 10 fd          	cmp    DWORD PTR [edi+0x10],0xfffffffd
  403f95:	0f 84 49 01 00 00    	je     4040e4 <___pformat_emit_float+0x254>
  403f9b:	0f b7 57 14          	movzx  edx,WORD PTR [edi+0x14]
  403f9f:	66 85 d2             	test   dx,dx
  403fa2:	0f 85 7f 00 00 00    	jne    404027 <___pformat_emit_float+0x197>
  403fa8:	b8 2e 00 00 00       	mov    eax,0x2e
  403fad:	89 fa                	mov    edx,edi
  403faf:	e8 1c f7 ff ff       	call   4036d0 <___pformat_putc>
  403fb4:	8b 47 0c             	mov    eax,DWORD PTR [edi+0xc]
  403fb7:	85 db                	test   ebx,ebx
  403fb9:	74 21                	je     403fdc <___pformat_emit_float+0x14c>
  403fbb:	e9 d8 00 00 00       	jmp    404098 <___pformat_emit_float+0x208>
  403fc0:	0f b6 16             	movzx  edx,BYTE PTR [esi]
  403fc3:	b8 30 00 00 00       	mov    eax,0x30
  403fc8:	84 d2                	test   dl,dl
  403fca:	74 06                	je     403fd2 <___pformat_emit_float+0x142>
  403fcc:	83 c6 01             	add    esi,0x1
  403fcf:	0f be c2             	movsx  eax,dl
  403fd2:	89 fa                	mov    edx,edi
  403fd4:	e8 f7 f6 ff ff       	call   4036d0 <___pformat_putc>
  403fd9:	8b 47 0c             	mov    eax,DWORD PTR [edi+0xc]
  403fdc:	8d 50 ff             	lea    edx,[eax-0x1]
  403fdf:	85 c0                	test   eax,eax
  403fe1:	89 57 0c             	mov    DWORD PTR [edi+0xc],edx
  403fe4:	7f da                	jg     403fc0 <___pformat_emit_float+0x130>
  403fe6:	8d 65 f4             	lea    esp,[ebp-0xc]
  403fe9:	5b                   	pop    ebx
  403fea:	5e                   	pop    esi
  403feb:	5f                   	pop    edi
  403fec:	5d                   	pop    ebp
  403fed:	c3                   	ret    
  403fee:	66 90                	xchg   ax,ax
  403ff0:	c7 47 08 ff ff ff ff 	mov    DWORD PTR [edi+0x8],0xffffffff
  403ff7:	8b 45 d4             	mov    eax,DWORD PTR [ebp-0x2c]
  403ffa:	85 c0                	test   eax,eax
  403ffc:	0f 85 38 ff ff ff    	jne    403f3a <___pformat_emit_float+0xaa>
  404002:	8b 47 04             	mov    eax,DWORD PTR [edi+0x4]
  404005:	f6 c4 01             	test   ah,0x1
  404008:	0f 85 32 01 00 00    	jne    404140 <___pformat_emit_float+0x2b0>
  40400e:	a8 40                	test   al,0x40
  404010:	0f 84 30 ff ff ff    	je     403f46 <___pformat_emit_float+0xb6>
  404016:	89 fa                	mov    edx,edi
  404018:	b8 20 00 00 00       	mov    eax,0x20
  40401d:	e8 ae f6 ff ff       	call   4036d0 <___pformat_putc>
  404022:	e9 1f ff ff ff       	jmp    403f46 <___pformat_emit_float+0xb6>
  404027:	8b 47 10             	mov    eax,DWORD PTR [edi+0x10]
  40402a:	89 65 d4             	mov    DWORD PTR [ebp-0x2c],esp
  40402d:	83 c0 0f             	add    eax,0xf
  404030:	83 e0 f0             	and    eax,0xfffffff0
  404033:	e8 28 df ff ff       	call   401f60 <___chkstk_ms>
  404038:	29 c4                	sub    esp,eax
  40403a:	8d 4c 24 10          	lea    ecx,[esp+0x10]
  40403e:	8d 45 e4             	lea    eax,[ebp-0x1c]
  404041:	c7 45 e4 00 00 00 00 	mov    DWORD PTR [ebp-0x1c],0x0
  404048:	89 44 24 08          	mov    DWORD PTR [esp+0x8],eax
  40404c:	89 54 24 04          	mov    DWORD PTR [esp+0x4],edx
  404050:	89 0c 24             	mov    DWORD PTR [esp],ecx
  404053:	89 4d d0             	mov    DWORD PTR [ebp-0x30],ecx
  404056:	e8 35 19 00 00       	call   405990 <_wcrtomb>
  40405b:	85 c0                	test   eax,eax
  40405d:	0f 8e 42 01 00 00    	jle    4041a5 <___pformat_emit_float+0x315>
  404063:	8b 4d d0             	mov    ecx,DWORD PTR [ebp-0x30]
  404066:	89 5d cc             	mov    DWORD PTR [ebp-0x34],ebx
  404069:	89 75 d0             	mov    DWORD PTR [ebp-0x30],esi
  40406c:	01 c8                	add    eax,ecx
  40406e:	89 cb                	mov    ebx,ecx
  404070:	89 c6                	mov    esi,eax
  404072:	83 c3 01             	add    ebx,0x1
  404075:	0f be 43 ff          	movsx  eax,BYTE PTR [ebx-0x1]
  404079:	89 fa                	mov    edx,edi
  40407b:	e8 50 f6 ff ff       	call   4036d0 <___pformat_putc>
  404080:	39 f3                	cmp    ebx,esi
  404082:	75 ee                	jne    404072 <___pformat_emit_float+0x1e2>
  404084:	8b 75 d0             	mov    esi,DWORD PTR [ebp-0x30]
  404087:	8b 5d cc             	mov    ebx,DWORD PTR [ebp-0x34]
  40408a:	85 db                	test   ebx,ebx
  40408c:	8b 65 d4             	mov    esp,DWORD PTR [ebp-0x2c]
  40408f:	8b 47 0c             	mov    eax,DWORD PTR [edi+0xc]
  404092:	0f 84 44 ff ff ff    	je     403fdc <___pformat_emit_float+0x14c>
  404098:	01 d8                	add    eax,ebx
  40409a:	89 47 0c             	mov    DWORD PTR [edi+0xc],eax
  40409d:	8d 76 00             	lea    esi,[esi+0x0]
  4040a0:	89 fa                	mov    edx,edi
  4040a2:	b8 30 00 00 00       	mov    eax,0x30
  4040a7:	e8 24 f6 ff ff       	call   4036d0 <___pformat_putc>
  4040ac:	83 c3 01             	add    ebx,0x1
  4040af:	78 ef                	js     4040a0 <___pformat_emit_float+0x210>
  4040b1:	e9 23 ff ff ff       	jmp    403fd9 <___pformat_emit_float+0x149>
  4040b6:	83 e8 01             	sub    eax,0x1
  4040b9:	85 c0                	test   eax,eax
  4040bb:	89 47 08             	mov    DWORD PTR [edi+0x8],eax
  4040be:	0f 84 33 ff ff ff    	je     403ff7 <___pformat_emit_float+0x167>
  4040c4:	8b 57 04             	mov    edx,DWORD PTR [edi+0x4]
  4040c7:	e9 3f fe ff ff       	jmp    403f0b <___pformat_emit_float+0x7b>
  4040cc:	8d 74 26 00          	lea    esi,[esi+eiz*1+0x0]
  4040d0:	f6 47 05 08          	test   BYTE PTR [edi+0x5],0x8
  4040d4:	0f 84 dd fe ff ff    	je     403fb7 <___pformat_emit_float+0x127>
  4040da:	83 7f 10 fd          	cmp    DWORD PTR [edi+0x10],0xfffffffd
  4040de:	0f 85 b7 fe ff ff    	jne    403f9b <___pformat_emit_float+0x10b>
  4040e4:	c7 45 e4 00 00 00 00 	mov    DWORD PTR [ebp-0x1c],0x0
  4040eb:	e8 e0 3e 00 00       	call   407fd0 <_localeconv>
  4040f0:	8d 55 e4             	lea    edx,[ebp-0x1c]
  4040f3:	89 54 24 0c          	mov    DWORD PTR [esp+0xc],edx
  4040f7:	c7 44 24 08 10 00 00 	mov    DWORD PTR [esp+0x8],0x10
  4040fe:	00 
  4040ff:	8b 00                	mov    eax,DWORD PTR [eax]
  404101:	89 44 24 04          	mov    DWORD PTR [esp+0x4],eax
  404105:	8d 45 e2             	lea    eax,[ebp-0x1e]
  404108:	89 04 24             	mov    DWORD PTR [esp],eax
  40410b:	e8 50 15 00 00       	call   405660 <_mbrtowc>
  404110:	85 c0                	test   eax,eax
  404112:	0f 8e 9e 00 00 00    	jle    4041b6 <___pformat_emit_float+0x326>
  404118:	0f b7 55 e2          	movzx  edx,WORD PTR [ebp-0x1e]
  40411c:	66 89 57 14          	mov    WORD PTR [edi+0x14],dx
  404120:	89 47 10             	mov    DWORD PTR [edi+0x10],eax
  404123:	e9 77 fe ff ff       	jmp    403f9f <___pformat_emit_float+0x10f>
  404128:	85 c0                	test   eax,eax
  40412a:	0f 8e 8b fd ff ff    	jle    403ebb <___pformat_emit_float+0x2b>
  404130:	83 e8 01             	sub    eax,0x1
  404133:	89 47 08             	mov    DWORD PTR [edi+0x8],eax
  404136:	e9 88 fd ff ff       	jmp    403ec3 <___pformat_emit_float+0x33>
  40413b:	90                   	nop
  40413c:	8d 74 26 00          	lea    esi,[esi+eiz*1+0x0]
  404140:	89 fa                	mov    edx,edi
  404142:	b8 2b 00 00 00       	mov    eax,0x2b
  404147:	e8 84 f5 ff ff       	call   4036d0 <___pformat_putc>
  40414c:	e9 f5 fd ff ff       	jmp    403f46 <___pformat_emit_float+0xb6>
  404151:	83 ea 01             	sub    edx,0x1
  404154:	89 57 08             	mov    DWORD PTR [edi+0x8],edx
  404157:	89 fa                	mov    edx,edi
  404159:	b8 30 00 00 00       	mov    eax,0x30
  40415e:	e8 6d f5 ff ff       	call   4036d0 <___pformat_putc>
  404163:	8b 47 08             	mov    eax,DWORD PTR [edi+0x8]
  404166:	8d 50 ff             	lea    edx,[eax-0x1]
  404169:	85 c0                	test   eax,eax
  40416b:	89 57 08             	mov    DWORD PTR [edi+0x8],edx
  40416e:	7f e7                	jg     404157 <___pformat_emit_float+0x2c7>
  404170:	85 db                	test   ebx,ebx
  404172:	0f 8f f0 fd ff ff    	jg     403f68 <___pformat_emit_float+0xd8>
  404178:	89 fa                	mov    edx,edi
  40417a:	b8 30 00 00 00       	mov    eax,0x30
  40417f:	e8 4c f5 ff ff       	call   4036d0 <___pformat_putc>
  404184:	e9 fd fd ff ff       	jmp    403f86 <___pformat_emit_float+0xf6>
  404189:	8d b4 26 00 00 00 00 	lea    esi,[esi+eiz*1+0x0]
  404190:	f6 47 05 08          	test   BYTE PTR [edi+0x5],0x8
  404194:	0f 84 57 fd ff ff    	je     403ef1 <___pformat_emit_float+0x61>
  40419a:	8d b6 00 00 00 00    	lea    esi,[esi+0x0]
  4041a0:	e9 3e fd ff ff       	jmp    403ee3 <___pformat_emit_float+0x53>
  4041a5:	89 fa                	mov    edx,edi
  4041a7:	b8 2e 00 00 00       	mov    eax,0x2e
  4041ac:	e8 1f f5 ff ff       	call   4036d0 <___pformat_putc>
  4041b1:	e9 d4 fe ff ff       	jmp    40408a <___pformat_emit_float+0x1fa>
  4041b6:	0f b7 57 14          	movzx  edx,WORD PTR [edi+0x14]
  4041ba:	e9 61 ff ff ff       	jmp    404120 <___pformat_emit_float+0x290>
  4041bf:	90                   	nop

004041c0 <___pformat_emit_efloat>:
  4041c0:	55                   	push   ebp
  4041c1:	83 e9 01             	sub    ecx,0x1
  4041c4:	57                   	push   edi
  4041c5:	89 d5                	mov    ebp,edx
  4041c7:	56                   	push   esi
  4041c8:	be 01 00 00 00       	mov    esi,0x1
  4041cd:	53                   	push   ebx
  4041ce:	bb 67 66 66 66       	mov    ebx,0x66666667
  4041d3:	83 ec 1c             	sub    esp,0x1c
  4041d6:	89 44 24 04          	mov    DWORD PTR [esp+0x4],eax
  4041da:	89 c8                	mov    eax,ecx
  4041dc:	8b 7c 24 30          	mov    edi,DWORD PTR [esp+0x30]
  4041e0:	c1 f8 1f             	sar    eax,0x1f
  4041e3:	89 44 24 0c          	mov    DWORD PTR [esp+0xc],eax
  4041e7:	89 c8                	mov    eax,ecx
  4041e9:	f7 eb                	imul   ebx
  4041eb:	89 4c 24 08          	mov    DWORD PTR [esp+0x8],ecx
  4041ef:	c1 f9 1f             	sar    ecx,0x1f
  4041f2:	c1 fa 02             	sar    edx,0x2
  4041f5:	89 d3                	mov    ebx,edx
  4041f7:	29 cb                	sub    ebx,ecx
  4041f9:	74 18                	je     404213 <___pformat_emit_efloat+0x53>
  4041fb:	b9 67 66 66 66       	mov    ecx,0x66666667
  404200:	89 d8                	mov    eax,ebx
  404202:	83 c6 01             	add    esi,0x1
  404205:	f7 e9                	imul   ecx
  404207:	c1 fb 1f             	sar    ebx,0x1f
  40420a:	c1 fa 02             	sar    edx,0x2
  40420d:	29 da                	sub    edx,ebx
  40420f:	89 d3                	mov    ebx,edx
  404211:	75 ed                	jne    404200 <___pformat_emit_efloat+0x40>
  404213:	8b 47 20             	mov    eax,DWORD PTR [edi+0x20]
  404216:	39 c6                	cmp    esi,eax
  404218:	7d 02                	jge    40421c <___pformat_emit_efloat+0x5c>
  40421a:	89 c6                	mov    esi,eax
  40421c:	8b 57 08             	mov    edx,DWORD PTR [edi+0x8]
  40421f:	8d 46 02             	lea    eax,[esi+0x2]
  404222:	39 c2                	cmp    edx,eax
  404224:	7f 5a                	jg     404280 <___pformat_emit_efloat+0xc0>
  404226:	c7 47 08 ff ff ff ff 	mov    DWORD PTR [edi+0x8],0xffffffff
  40422d:	8b 44 24 04          	mov    eax,DWORD PTR [esp+0x4]
  404231:	b9 01 00 00 00       	mov    ecx,0x1
  404236:	89 ea                	mov    edx,ebp
  404238:	89 3c 24             	mov    DWORD PTR [esp],edi
  40423b:	83 c6 01             	add    esi,0x1
  40423e:	e8 4d fc ff ff       	call   403e90 <___pformat_emit_float>
  404243:	8b 47 20             	mov    eax,DWORD PTR [edi+0x20]
  404246:	89 47 0c             	mov    DWORD PTR [edi+0xc],eax
  404249:	8b 47 04             	mov    eax,DWORD PTR [edi+0x4]
  40424c:	89 c2                	mov    edx,eax
  40424e:	83 e0 20             	and    eax,0x20
  404251:	81 ca c0 01 00 00    	or     edx,0x1c0
  404257:	83 c8 45             	or     eax,0x45
  40425a:	89 57 04             	mov    DWORD PTR [edi+0x4],edx
  40425d:	89 fa                	mov    edx,edi
  40425f:	e8 6c f4 ff ff       	call   4036d0 <___pformat_putc>
  404264:	8b 44 24 08          	mov    eax,DWORD PTR [esp+0x8]
  404268:	89 f9                	mov    ecx,edi
  40426a:	01 77 08             	add    DWORD PTR [edi+0x8],esi
  40426d:	8b 54 24 0c          	mov    edx,DWORD PTR [esp+0xc]
  404271:	e8 0a f7 ff ff       	call   403980 <___pformat_int>
  404276:	83 c4 1c             	add    esp,0x1c
  404279:	5b                   	pop    ebx
  40427a:	5e                   	pop    esi
  40427b:	5f                   	pop    edi
  40427c:	5d                   	pop    ebp
  40427d:	c3                   	ret    
  40427e:	66 90                	xchg   ax,ax
  404280:	29 c2                	sub    edx,eax
  404282:	89 57 08             	mov    DWORD PTR [edi+0x8],edx
  404285:	eb a6                	jmp    40422d <___pformat_emit_efloat+0x6d>
  404287:	89 f6                	mov    esi,esi
  404289:	8d bc 27 00 00 00 00 	lea    edi,[edi+eiz*1+0x0]

00404290 <___pformat_efloat>:
  404290:	56                   	push   esi
  404291:	53                   	push   ebx
  404292:	89 c3                	mov    ebx,eax
  404294:	83 ec 44             	sub    esp,0x44
  404297:	8b 40 0c             	mov    eax,DWORD PTR [eax+0xc]
  40429a:	85 c0                	test   eax,eax
  40429c:	78 72                	js     404310 <___pformat_efloat+0x80>
  40429e:	83 c0 01             	add    eax,0x1
  4042a1:	db 6c 24 50          	fld    TBYTE PTR [esp+0x50]
  4042a5:	89 44 24 10          	mov    DWORD PTR [esp+0x10],eax
  4042a9:	8d 54 24 28          	lea    edx,[esp+0x28]
  4042ad:	db 7c 24 30          	fstp   TBYTE PTR [esp+0x30]
  4042b1:	8b 44 24 30          	mov    eax,DWORD PTR [esp+0x30]
  4042b5:	89 54 24 18          	mov    DWORD PTR [esp+0x18],edx
  4042b9:	8d 54 24 2c          	lea    edx,[esp+0x2c]
  4042bd:	89 54 24 14          	mov    DWORD PTR [esp+0x14],edx
  4042c1:	89 04 24             	mov    DWORD PTR [esp],eax
  4042c4:	8b 44 24 34          	mov    eax,DWORD PTR [esp+0x34]
  4042c8:	89 44 24 04          	mov    DWORD PTR [esp+0x4],eax
  4042cc:	8b 44 24 38          	mov    eax,DWORD PTR [esp+0x38]
  4042d0:	89 44 24 08          	mov    DWORD PTR [esp+0x8],eax
  4042d4:	8b 44 24 3c          	mov    eax,DWORD PTR [esp+0x3c]
  4042d8:	89 44 24 0c          	mov    DWORD PTR [esp+0xc],eax
  4042dc:	b8 02 00 00 00       	mov    eax,0x2
  4042e1:	e8 ea f2 ff ff       	call   4035d0 <___pformat_cvt>
  4042e6:	8b 4c 24 2c          	mov    ecx,DWORD PTR [esp+0x2c]
  4042ea:	81 f9 00 80 ff ff    	cmp    ecx,0xffff8000
  4042f0:	89 c6                	mov    esi,eax
  4042f2:	74 2c                	je     404320 <___pformat_efloat+0x90>
  4042f4:	89 c2                	mov    edx,eax
  4042f6:	8b 44 24 28          	mov    eax,DWORD PTR [esp+0x28]
  4042fa:	89 1c 24             	mov    DWORD PTR [esp],ebx
  4042fd:	e8 be fe ff ff       	call   4041c0 <___pformat_emit_efloat>
  404302:	89 34 24             	mov    DWORD PTR [esp],esi
  404305:	e8 e6 2e 00 00       	call   4071f0 <___freedtoa>
  40430a:	83 c4 44             	add    esp,0x44
  40430d:	5b                   	pop    ebx
  40430e:	5e                   	pop    esi
  40430f:	c3                   	ret    
  404310:	c7 43 0c 06 00 00 00 	mov    DWORD PTR [ebx+0xc],0x6
  404317:	b8 07 00 00 00       	mov    eax,0x7
  40431c:	eb 83                	jmp    4042a1 <___pformat_efloat+0x11>
  40431e:	66 90                	xchg   ax,ax
  404320:	89 c2                	mov    edx,eax
  404322:	8b 44 24 28          	mov    eax,DWORD PTR [esp+0x28]
  404326:	89 d9                	mov    ecx,ebx
  404328:	e8 c3 f5 ff ff       	call   4038f0 <___pformat_emit_inf_or_nan>
  40432d:	89 34 24             	mov    DWORD PTR [esp],esi
  404330:	e8 bb 2e 00 00       	call   4071f0 <___freedtoa>
  404335:	83 c4 44             	add    esp,0x44
  404338:	5b                   	pop    ebx
  404339:	5e                   	pop    esi
  40433a:	c3                   	ret    
  40433b:	90                   	nop
  40433c:	8d 74 26 00          	lea    esi,[esi+eiz*1+0x0]

00404340 <___pformat_float>:
  404340:	57                   	push   edi
  404341:	56                   	push   esi
  404342:	53                   	push   ebx
  404343:	89 c3                	mov    ebx,eax
  404345:	83 ec 40             	sub    esp,0x40
  404348:	8b 40 0c             	mov    eax,DWORD PTR [eax+0xc]
  40434b:	85 c0                	test   eax,eax
  40434d:	0f 88 9d 00 00 00    	js     4043f0 <___pformat_float+0xb0>
  404353:	db 6c 24 50          	fld    TBYTE PTR [esp+0x50]
  404357:	89 44 24 10          	mov    DWORD PTR [esp+0x10],eax
  40435b:	8d 54 24 28          	lea    edx,[esp+0x28]
  40435f:	db 7c 24 30          	fstp   TBYTE PTR [esp+0x30]
  404363:	8b 44 24 30          	mov    eax,DWORD PTR [esp+0x30]
  404367:	89 54 24 18          	mov    DWORD PTR [esp+0x18],edx
  40436b:	8d 54 24 2c          	lea    edx,[esp+0x2c]
  40436f:	89 54 24 14          	mov    DWORD PTR [esp+0x14],edx
  404373:	89 04 24             	mov    DWORD PTR [esp],eax
  404376:	8b 44 24 34          	mov    eax,DWORD PTR [esp+0x34]
  40437a:	89 44 24 04          	mov    DWORD PTR [esp+0x4],eax
  40437e:	8b 44 24 38          	mov    eax,DWORD PTR [esp+0x38]
  404382:	89 44 24 08          	mov    DWORD PTR [esp+0x8],eax
  404386:	8b 44 24 3c          	mov    eax,DWORD PTR [esp+0x3c]
  40438a:	89 44 24 0c          	mov    DWORD PTR [esp+0xc],eax
  40438e:	b8 03 00 00 00       	mov    eax,0x3
  404393:	e8 38 f2 ff ff       	call   4035d0 <___pformat_cvt>
  404398:	8b 4c 24 2c          	mov    ecx,DWORD PTR [esp+0x2c]
  40439c:	81 f9 00 80 ff ff    	cmp    ecx,0xffff8000
  4043a2:	89 c7                	mov    edi,eax
  4043a4:	74 5b                	je     404401 <___pformat_float+0xc1>
  4043a6:	89 c2                	mov    edx,eax
  4043a8:	8b 44 24 28          	mov    eax,DWORD PTR [esp+0x28]
  4043ac:	89 1c 24             	mov    DWORD PTR [esp],ebx
  4043af:	e8 dc fa ff ff       	call   403e90 <___pformat_emit_float>
  4043b4:	8b 43 08             	mov    eax,DWORD PTR [ebx+0x8]
  4043b7:	8d 50 ff             	lea    edx,[eax-0x1]
  4043ba:	85 c0                	test   eax,eax
  4043bc:	89 53 08             	mov    DWORD PTR [ebx+0x8],edx
  4043bf:	7e 19                	jle    4043da <___pformat_float+0x9a>
  4043c1:	89 da                	mov    edx,ebx
  4043c3:	b8 20 00 00 00       	mov    eax,0x20
  4043c8:	e8 03 f3 ff ff       	call   4036d0 <___pformat_putc>
  4043cd:	8b 4b 08             	mov    ecx,DWORD PTR [ebx+0x8]
  4043d0:	8d 71 ff             	lea    esi,[ecx-0x1]
  4043d3:	85 c9                	test   ecx,ecx
  4043d5:	89 73 08             	mov    DWORD PTR [ebx+0x8],esi
  4043d8:	7f e7                	jg     4043c1 <___pformat_float+0x81>
  4043da:	89 3c 24             	mov    DWORD PTR [esp],edi
  4043dd:	e8 0e 2e 00 00       	call   4071f0 <___freedtoa>
  4043e2:	83 c4 40             	add    esp,0x40
  4043e5:	5b                   	pop    ebx
  4043e6:	5e                   	pop    esi
  4043e7:	5f                   	pop    edi
  4043e8:	c3                   	ret    
  4043e9:	8d b4 26 00 00 00 00 	lea    esi,[esi+eiz*1+0x0]
  4043f0:	c7 43 0c 06 00 00 00 	mov    DWORD PTR [ebx+0xc],0x6
  4043f7:	b8 06 00 00 00       	mov    eax,0x6
  4043fc:	e9 52 ff ff ff       	jmp    404353 <___pformat_float+0x13>
  404401:	89 c2                	mov    edx,eax
  404403:	8b 44 24 28          	mov    eax,DWORD PTR [esp+0x28]
  404407:	89 d9                	mov    ecx,ebx
  404409:	e8 e2 f4 ff ff       	call   4038f0 <___pformat_emit_inf_or_nan>
  40440e:	89 3c 24             	mov    DWORD PTR [esp],edi
  404411:	e8 da 2d 00 00       	call   4071f0 <___freedtoa>
  404416:	83 c4 40             	add    esp,0x40
  404419:	5b                   	pop    ebx
  40441a:	5e                   	pop    esi
  40441b:	5f                   	pop    edi
  40441c:	c3                   	ret    
  40441d:	8d 76 00             	lea    esi,[esi+0x0]

00404420 <___pformat_gfloat>:
  404420:	57                   	push   edi
  404421:	56                   	push   esi
  404422:	53                   	push   ebx
  404423:	89 c3                	mov    ebx,eax
  404425:	83 ec 40             	sub    esp,0x40
  404428:	8b 40 0c             	mov    eax,DWORD PTR [eax+0xc]
  40442b:	85 c0                	test   eax,eax
  40442d:	0f 88 1d 01 00 00    	js     404550 <___pformat_gfloat+0x130>
  404433:	0f 84 fa 00 00 00    	je     404533 <___pformat_gfloat+0x113>
  404439:	db 6c 24 50          	fld    TBYTE PTR [esp+0x50]
  40443d:	89 44 24 10          	mov    DWORD PTR [esp+0x10],eax
  404441:	8d 54 24 28          	lea    edx,[esp+0x28]
  404445:	db 7c 24 30          	fstp   TBYTE PTR [esp+0x30]
  404449:	8b 44 24 30          	mov    eax,DWORD PTR [esp+0x30]
  40444d:	89 54 24 18          	mov    DWORD PTR [esp+0x18],edx
  404451:	8d 54 24 2c          	lea    edx,[esp+0x2c]
  404455:	89 54 24 14          	mov    DWORD PTR [esp+0x14],edx
  404459:	89 04 24             	mov    DWORD PTR [esp],eax
  40445c:	8b 44 24 34          	mov    eax,DWORD PTR [esp+0x34]
  404460:	89 44 24 04          	mov    DWORD PTR [esp+0x4],eax
  404464:	8b 44 24 38          	mov    eax,DWORD PTR [esp+0x38]
  404468:	89 44 24 08          	mov    DWORD PTR [esp+0x8],eax
  40446c:	8b 44 24 3c          	mov    eax,DWORD PTR [esp+0x3c]
  404470:	89 44 24 0c          	mov    DWORD PTR [esp+0xc],eax
  404474:	b8 02 00 00 00       	mov    eax,0x2
  404479:	e8 52 f1 ff ff       	call   4035d0 <___pformat_cvt>
  40447e:	8b 74 24 2c          	mov    esi,DWORD PTR [esp+0x2c]
  404482:	81 fe 00 80 ff ff    	cmp    esi,0xffff8000
  404488:	89 c7                	mov    edi,eax
  40448a:	0f 84 e0 00 00 00    	je     404570 <___pformat_gfloat+0x150>
  404490:	83 fe fd             	cmp    esi,0xfffffffd
  404493:	7c 6b                	jl     404500 <___pformat_gfloat+0xe0>
  404495:	8b 43 0c             	mov    eax,DWORD PTR [ebx+0xc]
  404498:	39 c6                	cmp    esi,eax
  40449a:	7f 64                	jg     404500 <___pformat_gfloat+0xe0>
  40449c:	f6 43 05 08          	test   BYTE PTR [ebx+0x5],0x8
  4044a0:	0f 85 bb 00 00 00    	jne    404561 <___pformat_gfloat+0x141>
  4044a6:	89 3c 24             	mov    DWORD PTR [esp],edi
  4044a9:	e8 d2 3a 00 00       	call   407f80 <_strlen>
  4044ae:	29 f0                	sub    eax,esi
  4044b0:	85 c0                	test   eax,eax
  4044b2:	89 43 0c             	mov    DWORD PTR [ebx+0xc],eax
  4044b5:	0f 88 c5 00 00 00    	js     404580 <___pformat_gfloat+0x160>
  4044bb:	8b 44 24 28          	mov    eax,DWORD PTR [esp+0x28]
  4044bf:	89 fa                	mov    edx,edi
  4044c1:	89 f1                	mov    ecx,esi
  4044c3:	89 1c 24             	mov    DWORD PTR [esp],ebx
  4044c6:	e8 c5 f9 ff ff       	call   403e90 <___pformat_emit_float>
  4044cb:	8b 43 08             	mov    eax,DWORD PTR [ebx+0x8]
  4044ce:	8d 50 ff             	lea    edx,[eax-0x1]
  4044d1:	85 c0                	test   eax,eax
  4044d3:	89 53 08             	mov    DWORD PTR [ebx+0x8],edx
  4044d6:	7e 4c                	jle    404524 <___pformat_gfloat+0x104>
  4044d8:	89 da                	mov    edx,ebx
  4044da:	b8 20 00 00 00       	mov    eax,0x20
  4044df:	e8 ec f1 ff ff       	call   4036d0 <___pformat_putc>
  4044e4:	8b 4b 08             	mov    ecx,DWORD PTR [ebx+0x8]
  4044e7:	8d 71 ff             	lea    esi,[ecx-0x1]
  4044ea:	85 c9                	test   ecx,ecx
  4044ec:	89 73 08             	mov    DWORD PTR [ebx+0x8],esi
  4044ef:	7f e7                	jg     4044d8 <___pformat_gfloat+0xb8>
  4044f1:	89 3c 24             	mov    DWORD PTR [esp],edi
  4044f4:	e8 f7 2c 00 00       	call   4071f0 <___freedtoa>
  4044f9:	83 c4 40             	add    esp,0x40
  4044fc:	5b                   	pop    ebx
  4044fd:	5e                   	pop    esi
  4044fe:	5f                   	pop    edi
  4044ff:	c3                   	ret    
  404500:	f6 43 05 08          	test   BYTE PTR [ebx+0x5],0x8
  404504:	75 3e                	jne    404544 <___pformat_gfloat+0x124>
  404506:	89 3c 24             	mov    DWORD PTR [esp],edi
  404509:	e8 72 3a 00 00       	call   407f80 <_strlen>
  40450e:	83 e8 01             	sub    eax,0x1
  404511:	89 43 0c             	mov    DWORD PTR [ebx+0xc],eax
  404514:	8b 44 24 28          	mov    eax,DWORD PTR [esp+0x28]
  404518:	89 f1                	mov    ecx,esi
  40451a:	89 fa                	mov    edx,edi
  40451c:	89 1c 24             	mov    DWORD PTR [esp],ebx
  40451f:	e8 9c fc ff ff       	call   4041c0 <___pformat_emit_efloat>
  404524:	89 3c 24             	mov    DWORD PTR [esp],edi
  404527:	e8 c4 2c 00 00       	call   4071f0 <___freedtoa>
  40452c:	83 c4 40             	add    esp,0x40
  40452f:	5b                   	pop    ebx
  404530:	5e                   	pop    esi
  404531:	5f                   	pop    edi
  404532:	c3                   	ret    
  404533:	c7 43 0c 01 00 00 00 	mov    DWORD PTR [ebx+0xc],0x1
  40453a:	b8 01 00 00 00       	mov    eax,0x1
  40453f:	e9 f5 fe ff ff       	jmp    404439 <___pformat_gfloat+0x19>
  404544:	83 6b 0c 01          	sub    DWORD PTR [ebx+0xc],0x1
  404548:	eb ca                	jmp    404514 <___pformat_gfloat+0xf4>
  40454a:	8d b6 00 00 00 00    	lea    esi,[esi+0x0]
  404550:	c7 43 0c 06 00 00 00 	mov    DWORD PTR [ebx+0xc],0x6
  404557:	b8 06 00 00 00       	mov    eax,0x6
  40455c:	e9 d8 fe ff ff       	jmp    404439 <___pformat_gfloat+0x19>
  404561:	29 f0                	sub    eax,esi
  404563:	89 43 0c             	mov    DWORD PTR [ebx+0xc],eax
  404566:	e9 50 ff ff ff       	jmp    4044bb <___pformat_gfloat+0x9b>
  40456b:	90                   	nop
  40456c:	8d 74 26 00          	lea    esi,[esi+eiz*1+0x0]
  404570:	89 c2                	mov    edx,eax
  404572:	8b 44 24 28          	mov    eax,DWORD PTR [esp+0x28]
  404576:	89 d9                	mov    ecx,ebx
  404578:	e8 73 f3 ff ff       	call   4038f0 <___pformat_emit_inf_or_nan>
  40457d:	eb a5                	jmp    404524 <___pformat_gfloat+0x104>
  40457f:	90                   	nop
  404580:	8b 53 08             	mov    edx,DWORD PTR [ebx+0x8]
  404583:	85 d2                	test   edx,edx
  404585:	0f 8e 30 ff ff ff    	jle    4044bb <___pformat_gfloat+0x9b>
  40458b:	01 d0                	add    eax,edx
  40458d:	89 43 08             	mov    DWORD PTR [ebx+0x8],eax
  404590:	e9 26 ff ff ff       	jmp    4044bb <___pformat_gfloat+0x9b>
  404595:	8d 74 26 00          	lea    esi,[esi+eiz*1+0x0]
  404599:	8d bc 27 00 00 00 00 	lea    edi,[edi+eiz*1+0x0]

004045a0 <___pformat_xldouble>:
  4045a0:	55                   	push   ebp
  4045a1:	89 e5                	mov    ebp,esp
  4045a3:	57                   	push   edi
  4045a4:	89 c7                	mov    edi,eax
  4045a6:	56                   	push   esi
  4045a7:	53                   	push   ebx
  4045a8:	83 ec 6c             	sub    esp,0x6c
  4045ab:	db 6d 08             	fld    TBYTE PTR [ebp+0x8]
  4045ae:	d9 c0                	fld    st(0)
  4045b0:	db 7d c0             	fstp   TBYTE PTR [ebp-0x40]
  4045b3:	d9 e5                	fxam   
  4045b5:	9b df e0             	fstsw  ax
  4045b8:	66 25 00 45          	and    ax,0x4500
  4045bc:	66 3d 00 01          	cmp    ax,0x100
  4045c0:	0f 84 1f 05 00 00    	je     404ae5 <___pformat_xldouble+0x545>
  4045c6:	0f b7 55 c8          	movzx  edx,WORD PTR [ebp-0x38]
  4045ca:	89 d3                	mov    ebx,edx
  4045cc:	81 e3 00 80 00 00    	and    ebx,0x8000
  4045d2:	0f 85 48 01 00 00    	jne    404720 <___pformat_xldouble+0x180>
  4045d8:	d9 e5                	fxam   
  4045da:	9b df e0             	fstsw  ax
  4045dd:	dd d8                	fstp   st(0)
  4045df:	66 25 00 45          	and    ax,0x4500
  4045e3:	66 3d 00 05          	cmp    ax,0x500
  4045e7:	0f 84 16 05 00 00    	je     404b03 <___pformat_xldouble+0x563>
  4045ed:	66 81 e2 ff 7f       	and    dx,0x7fff
  4045f2:	0f 84 b8 01 00 00    	je     4047b0 <___pformat_xldouble+0x210>
  4045f8:	8d b2 01 c0 ff ff    	lea    esi,[edx-0x3fff]
  4045fe:	8b 45 c0             	mov    eax,DWORD PTR [ebp-0x40]
  404601:	8b 55 c4             	mov    edx,DWORD PTR [ebp-0x3c]
  404604:	8b 5f 0c             	mov    ebx,DWORD PTR [edi+0xc]
  404607:	83 fb 0e             	cmp    ebx,0xe
  40460a:	0f 86 26 01 00 00    	jbe    404736 <___pformat_xldouble+0x196>
  404610:	89 d1                	mov    ecx,edx
  404612:	09 c1                	or     ecx,eax
  404614:	0f 84 fc 04 00 00    	je     404b16 <___pformat_xldouble+0x576>
  40461a:	8d 4d d6             	lea    ecx,[ebp-0x2a]
  40461d:	89 4d a4             	mov    DWORD PTR [ebp-0x5c],ecx
  404620:	89 4d ac             	mov    DWORD PTR [ebp-0x54],ecx
  404623:	89 7d a8             	mov    DWORD PTR [ebp-0x58],edi
  404626:	eb 5e                	jmp    404686 <___pformat_xldouble+0xe6>
  404628:	8b 4d a8             	mov    ecx,DWORD PTR [ebp-0x58]
  40462b:	8b 49 0c             	mov    ecx,DWORD PTR [ecx+0xc]
  40462e:	85 c9                	test   ecx,ecx
  404630:	7e 09                	jle    40463b <___pformat_xldouble+0x9b>
  404632:	8b 5d a8             	mov    ebx,DWORD PTR [ebp-0x58]
  404635:	83 e9 01             	sub    ecx,0x1
  404638:	89 4b 0c             	mov    DWORD PTR [ebx+0xc],ecx
  40463b:	8b 4d ac             	mov    ecx,DWORD PTR [ebp-0x54]
  40463e:	0f ac d0 04          	shrd   eax,edx,0x4
  404642:	c1 ea 04             	shr    edx,0x4
  404645:	85 ff                	test   edi,edi
  404647:	89 4d b0             	mov    DWORD PTR [ebp-0x50],ecx
  40464a:	0f 84 a8 00 00 00    	je     4046f8 <___pformat_xldouble+0x158>
  404650:	8b 4d b0             	mov    ecx,DWORD PTR [ebp-0x50]
  404653:	83 c1 01             	add    ecx,0x1
  404656:	83 ff 09             	cmp    edi,0x9
  404659:	89 4d ac             	mov    DWORD PTR [ebp-0x54],ecx
  40465c:	0f 8e b5 00 00 00    	jle    404717 <___pformat_xldouble+0x177>
  404662:	8d 4f 37             	lea    ecx,[edi+0x37]
  404665:	8b 7d a8             	mov    edi,DWORD PTR [ebp-0x58]
  404668:	8b 7f 04             	mov    edi,DWORD PTR [edi+0x4]
  40466b:	89 7d a0             	mov    DWORD PTR [ebp-0x60],edi
  40466e:	0f b6 5d a0          	movzx  ebx,BYTE PTR [ebp-0x60]
  404672:	83 e3 20             	and    ebx,0x20
  404675:	09 d9                	or     ecx,ebx
  404677:	8b 7d b0             	mov    edi,DWORD PTR [ebp-0x50]
  40467a:	88 0f                	mov    BYTE PTR [edi],cl
  40467c:	89 d7                	mov    edi,edx
  40467e:	09 c7                	or     edi,eax
  404680:	0f 84 60 01 00 00    	je     4047e6 <___pformat_xldouble+0x246>
  404686:	89 c7                	mov    edi,eax
  404688:	89 c1                	mov    ecx,eax
  40468a:	83 e7 0f             	and    edi,0xf
  40468d:	89 fb                	mov    ebx,edi
  40468f:	31 f9                	xor    ecx,edi
  404691:	c1 fb 1f             	sar    ebx,0x1f
  404694:	31 d3                	xor    ebx,edx
  404696:	09 cb                	or     ebx,ecx
  404698:	75 8e                	jne    404628 <___pformat_xldouble+0x88>
  40469a:	8b 4d a4             	mov    ecx,DWORD PTR [ebp-0x5c]
  40469d:	39 4d ac             	cmp    DWORD PTR [ebp-0x54],ecx
  4046a0:	77 1e                	ja     4046c0 <___pformat_xldouble+0x120>
  4046a2:	8b 4d a8             	mov    ecx,DWORD PTR [ebp-0x58]
  4046a5:	f6 41 05 08          	test   BYTE PTR [ecx+0x5],0x8
  4046a9:	75 15                	jne    4046c0 <___pformat_xldouble+0x120>
  4046ab:	8b 4d ac             	mov    ecx,DWORD PTR [ebp-0x54]
  4046ae:	89 4d b0             	mov    DWORD PTR [ebp-0x50],ecx
  4046b1:	8b 4d a8             	mov    ecx,DWORD PTR [ebp-0x58]
  4046b4:	8b 59 0c             	mov    ebx,DWORD PTR [ecx+0xc]
  4046b7:	85 db                	test   ebx,ebx
  4046b9:	7e 11                	jle    4046cc <___pformat_xldouble+0x12c>
  4046bb:	90                   	nop
  4046bc:	8d 74 26 00          	lea    esi,[esi+eiz*1+0x0]
  4046c0:	8b 4d ac             	mov    ecx,DWORD PTR [ebp-0x54]
  4046c3:	8d 59 01             	lea    ebx,[ecx+0x1]
  4046c6:	89 5d b0             	mov    DWORD PTR [ebp-0x50],ebx
  4046c9:	c6 01 2e             	mov    BYTE PTR [ecx],0x2e
  4046cc:	89 c1                	mov    ecx,eax
  4046ce:	83 f1 01             	xor    ecx,0x1
  4046d1:	09 d1                	or     ecx,edx
  4046d3:	74 17                	je     4046ec <___pformat_xldouble+0x14c>
  4046d5:	8d 4e ff             	lea    ecx,[esi-0x1]
  4046d8:	0f ac d0 01          	shrd   eax,edx,0x1
  4046dc:	89 ce                	mov    esi,ecx
  4046de:	89 c3                	mov    ebx,eax
  4046e0:	d1 ea                	shr    edx,1
  4046e2:	83 f3 01             	xor    ebx,0x1
  4046e5:	09 d3                	or     ebx,edx
  4046e7:	8d 4e ff             	lea    ecx,[esi-0x1]
  4046ea:	75 ec                	jne    4046d8 <___pformat_xldouble+0x138>
  4046ec:	31 c0                	xor    eax,eax
  4046ee:	31 d2                	xor    edx,edx
  4046f0:	85 ff                	test   edi,edi
  4046f2:	0f 85 58 ff ff ff    	jne    404650 <___pformat_xldouble+0xb0>
  4046f8:	8b 4d a4             	mov    ecx,DWORD PTR [ebp-0x5c]
  4046fb:	39 4d b0             	cmp    DWORD PTR [ebp-0x50],ecx
  4046fe:	77 0e                	ja     40470e <___pformat_xldouble+0x16e>
  404700:	8b 4d a8             	mov    ecx,DWORD PTR [ebp-0x58]
  404703:	8b 49 0c             	mov    ecx,DWORD PTR [ecx+0xc]
  404706:	85 c9                	test   ecx,ecx
  404708:	0f 88 b7 01 00 00    	js     4048c5 <___pformat_xldouble+0x325>
  40470e:	8b 4d b0             	mov    ecx,DWORD PTR [ebp-0x50]
  404711:	83 c1 01             	add    ecx,0x1
  404714:	89 4d ac             	mov    DWORD PTR [ebp-0x54],ecx
  404717:	8d 4f 30             	lea    ecx,[edi+0x30]
  40471a:	e9 58 ff ff ff       	jmp    404677 <___pformat_xldouble+0xd7>
  40471f:	90                   	nop
  404720:	81 4f 04 80 00 00 00 	or     DWORD PTR [edi+0x4],0x80
  404727:	e9 ac fe ff ff       	jmp    4045d8 <___pformat_xldouble+0x38>
  40472c:	8d 74 26 00          	lea    esi,[esi+eiz*1+0x0]
  404730:	0f a4 c2 01          	shld   edx,eax,0x1
  404734:	01 c0                	add    eax,eax
  404736:	85 d2                	test   edx,edx
  404738:	79 f6                	jns    404730 <___pformat_xldouble+0x190>
  40473a:	b9 0e 00 00 00       	mov    ecx,0xe
  40473f:	0f ac d0 01          	shrd   eax,edx,0x1
  404743:	29 d9                	sub    ecx,ebx
  404745:	d1 ea                	shr    edx,1
  404747:	c1 e1 02             	shl    ecx,0x2
  40474a:	89 45 b0             	mov    DWORD PTR [ebp-0x50],eax
  40474d:	b8 04 00 00 00       	mov    eax,0x4
  404752:	89 55 b4             	mov    DWORD PTR [ebp-0x4c],edx
  404755:	31 d2                	xor    edx,edx
  404757:	0f a5 c2             	shld   edx,eax,cl
  40475a:	d3 e0                	shl    eax,cl
  40475c:	f6 c1 20             	test   cl,0x20
