
main.exe:     file format pei-i386


Disassembly of section .text:

00401000 <__gnu_exception_handler@4>:
  401000:	53                   	push   ebx
  401001:	83 ec 18             	sub    esp,0x18
  401004:	8b 44 24 20          	mov    eax,DWORD PTR [esp+0x20]
  401008:	8b 00                	mov    eax,DWORD PTR [eax]
  40100a:	8b 00                	mov    eax,DWORD PTR [eax]
  40100c:	3d 91 00 00 c0       	cmp    eax,0xc0000091
  401011:	77 4d                	ja     401060 <__gnu_exception_handler@4+0x60>
  401013:	3d 8d 00 00 c0       	cmp    eax,0xc000008d
  401018:	73 5b                	jae    401075 <__gnu_exception_handler@4+0x75>
  40101a:	3d 05 00 00 c0       	cmp    eax,0xc0000005
  40101f:	0f 85 8e 00 00 00    	jne    4010b3 <__gnu_exception_handler@4+0xb3>
  401025:	c7 44 24 04 00 00 00 	mov    DWORD PTR [esp+0x4],0x0
  40102c:	00 
  40102d:	c7 04 24 0b 00 00 00 	mov    DWORD PTR [esp],0xb
  401034:	e8 1f 6f 00 00       	call   407f58 <_signal>
  401039:	83 f8 01             	cmp    eax,0x1
  40103c:	0f 84 c1 00 00 00    	je     401103 <__gnu_exception_handler@4+0x103>
  401042:	85 c0                	test   eax,eax
  401044:	0f 85 a6 00 00 00    	jne    4010f0 <__gnu_exception_handler@4+0xf0>
  40104a:	8d b6 00 00 00 00    	lea    esi,[esi+0x0]
  401050:	31 c0                	xor    eax,eax
  401052:	83 c4 18             	add    esp,0x18
  401055:	5b                   	pop    ebx
  401056:	c2 04 00             	ret    0x4
  401059:	8d b4 26 00 00 00 00 	lea    esi,[esi+eiz*1+0x0]
  401060:	3d 94 00 00 c0       	cmp    eax,0xc0000094
  401065:	74 19                	je     401080 <__gnu_exception_handler@4+0x80>
  401067:	3d 96 00 00 c0       	cmp    eax,0xc0000096
  40106c:	74 4c                	je     4010ba <__gnu_exception_handler@4+0xba>
  40106e:	3d 93 00 00 c0       	cmp    eax,0xc0000093
  401073:	75 db                	jne    401050 <__gnu_exception_handler@4+0x50>
  401075:	bb 01 00 00 00       	mov    ebx,0x1
  40107a:	eb 06                	jmp    401082 <__gnu_exception_handler@4+0x82>
  40107c:	8d 74 26 00          	lea    esi,[esi+eiz*1+0x0]
  401080:	31 db                	xor    ebx,ebx
  401082:	c7 44 24 04 00 00 00 	mov    DWORD PTR [esp+0x4],0x0
  401089:	00 
  40108a:	c7 04 24 08 00 00 00 	mov    DWORD PTR [esp],0x8
  401091:	e8 c2 6e 00 00       	call   407f58 <_signal>
  401096:	83 f8 01             	cmp    eax,0x1
  401099:	0f 84 a1 00 00 00    	je     401140 <__gnu_exception_handler@4+0x140>
  40109f:	85 c0                	test   eax,eax
  4010a1:	74 ad                	je     401050 <__gnu_exception_handler@4+0x50>
  4010a3:	c7 04 24 08 00 00 00 	mov    DWORD PTR [esp],0x8
  4010aa:	ff d0                	call   eax
  4010ac:	b8 ff ff ff ff       	mov    eax,0xffffffff
  4010b1:	eb 9f                	jmp    401052 <__gnu_exception_handler@4+0x52>
  4010b3:	3d 1d 00 00 c0       	cmp    eax,0xc000001d
  4010b8:	75 96                	jne    401050 <__gnu_exception_handler@4+0x50>
  4010ba:	c7 44 24 04 00 00 00 	mov    DWORD PTR [esp+0x4],0x0
  4010c1:	00 
  4010c2:	c7 04 24 04 00 00 00 	mov    DWORD PTR [esp],0x4
  4010c9:	e8 8a 6e 00 00       	call   407f58 <_signal>
  4010ce:	83 f8 01             	cmp    eax,0x1
  4010d1:	74 4c                	je     40111f <__gnu_exception_handler@4+0x11f>
  4010d3:	85 c0                	test   eax,eax
  4010d5:	0f 84 75 ff ff ff    	je     401050 <__gnu_exception_handler@4+0x50>
  4010db:	c7 04 24 04 00 00 00 	mov    DWORD PTR [esp],0x4
  4010e2:	ff d0                	call   eax
  4010e4:	b8 ff ff ff ff       	mov    eax,0xffffffff
  4010e9:	e9 64 ff ff ff       	jmp    401052 <__gnu_exception_handler@4+0x52>
  4010ee:	66 90                	xchg   ax,ax
  4010f0:	c7 04 24 0b 00 00 00 	mov    DWORD PTR [esp],0xb
  4010f7:	ff d0                	call   eax
  4010f9:	b8 ff ff ff ff       	mov    eax,0xffffffff
  4010fe:	e9 4f ff ff ff       	jmp    401052 <__gnu_exception_handler@4+0x52>
  401103:	c7 44 24 04 01 00 00 	mov    DWORD PTR [esp+0x4],0x1
  40110a:	00 
  40110b:	c7 04 24 0b 00 00 00 	mov    DWORD PTR [esp],0xb
  401112:	e8 41 6e 00 00       	call   407f58 <_signal>
  401117:	83 c8 ff             	or     eax,0xffffffff
  40111a:	e9 33 ff ff ff       	jmp    401052 <__gnu_exception_handler@4+0x52>
  40111f:	c7 44 24 04 01 00 00 	mov    DWORD PTR [esp+0x4],0x1
  401126:	00 
  401127:	c7 04 24 04 00 00 00 	mov    DWORD PTR [esp],0x4
  40112e:	e8 25 6e 00 00       	call   407f58 <_signal>
  401133:	83 c8 ff             	or     eax,0xffffffff
  401136:	e9 17 ff ff ff       	jmp    401052 <__gnu_exception_handler@4+0x52>
  40113b:	90                   	nop
  40113c:	8d 74 26 00          	lea    esi,[esi+eiz*1+0x0]
  401140:	c7 44 24 04 01 00 00 	mov    DWORD PTR [esp+0x4],0x1
  401147:	00 
  401148:	c7 04 24 08 00 00 00 	mov    DWORD PTR [esp],0x8
  40114f:	e8 04 6e 00 00       	call   407f58 <_signal>
  401154:	85 db                	test   ebx,ebx
  401156:	b8 ff ff ff ff       	mov    eax,0xffffffff
  40115b:	0f 84 f1 fe ff ff    	je     401052 <__gnu_exception_handler@4+0x52>
  401161:	89 44 24 0c          	mov    DWORD PTR [esp+0xc],eax
  401165:	e8 b6 06 00 00       	call   401820 <__fpreset>
  40116a:	8b 44 24 0c          	mov    eax,DWORD PTR [esp+0xc]
  40116e:	e9 df fe ff ff       	jmp    401052 <__gnu_exception_handler@4+0x52>
  401173:	8d b6 00 00 00 00    	lea    esi,[esi+0x0]
  401179:	8d bc 27 00 00 00 00 	lea    edi,[edi+eiz*1+0x0]

00401180 <___mingw_CRTStartup>:
  401180:	55                   	push   ebp
  401181:	89 e5                	mov    ebp,esp
  401183:	53                   	push   ebx
  401184:	83 ec 14             	sub    esp,0x14
  401187:	a1 64 a0 40 00       	mov    eax,ds:0x40a064
  40118c:	85 c0                	test   eax,eax
  40118e:	74 1c                	je     4011ac <___mingw_CRTStartup+0x2c>
  401190:	c7 44 24 08 00 00 00 	mov    DWORD PTR [esp+0x8],0x0
  401197:	00 
  401198:	c7 44 24 04 02 00 00 	mov    DWORD PTR [esp+0x4],0x2
  40119f:	00 
  4011a0:	c7 04 24 00 00 00 00 	mov    DWORD PTR [esp],0x0
  4011a7:	ff d0                	call   eax
  4011a9:	83 ec 0c             	sub    esp,0xc
  4011ac:	c7 04 24 00 10 40 00 	mov    DWORD PTR [esp],0x401000
  4011b3:	e8 80 6e 00 00       	call   408038 <_SetUnhandledExceptionFilter@4>
  4011b8:	83 ec 04             	sub    esp,0x4
  4011bb:	e8 80 05 00 00       	call   401740 <___cpu_features_init>
  4011c0:	e8 5b 06 00 00       	call   401820 <__fpreset>
  4011c5:	e8 66 02 00 00       	call   401430 <__setargv>
  4011ca:	a1 20 d0 40 00       	mov    eax,ds:0x40d020
  4011cf:	85 c0                	test   eax,eax
  4011d1:	74 42                	je     401215 <___mingw_CRTStartup+0x95>
  4011d3:	8b 1d c8 e1 40 00    	mov    ebx,DWORD PTR ds:0x40e1c8
  4011d9:	a3 04 90 40 00       	mov    ds:0x409004,eax
  4011de:	89 44 24 04          	mov    DWORD PTR [esp+0x4],eax
  4011e2:	8b 43 10             	mov    eax,DWORD PTR [ebx+0x10]
  4011e5:	89 04 24             	mov    DWORD PTR [esp],eax
  4011e8:	e8 eb 6d 00 00       	call   407fd8 <__setmode>
  4011ed:	a1 20 d0 40 00       	mov    eax,ds:0x40d020
  4011f2:	89 44 24 04          	mov    DWORD PTR [esp+0x4],eax
  4011f6:	8b 43 30             	mov    eax,DWORD PTR [ebx+0x30]
  4011f9:	89 04 24             	mov    DWORD PTR [esp],eax
  4011fc:	e8 d7 6d 00 00       	call   407fd8 <__setmode>
  401201:	a1 20 d0 40 00       	mov    eax,ds:0x40d020
  401206:	89 44 24 04          	mov    DWORD PTR [esp+0x4],eax
  40120a:	8b 43 50             	mov    eax,DWORD PTR [ebx+0x50]
  40120d:	89 04 24             	mov    DWORD PTR [esp],eax
  401210:	e8 c3 6d 00 00       	call   407fd8 <__setmode>
  401215:	e8 de 6d 00 00       	call   407ff8 <___p__fmode>
  40121a:	8b 15 04 90 40 00    	mov    edx,DWORD PTR ds:0x409004
  401220:	89 10                	mov    DWORD PTR [eax],edx
  401222:	e8 19 0b 00 00       	call   401d40 <__pei386_runtime_relocator>
  401227:	83 e4 f0             	and    esp,0xfffffff0
  40122a:	e8 81 06 00 00       	call   4018b0 <___main>
  40122f:	e8 cc 6d 00 00       	call   408000 <___p__environ>
  401234:	8b 00                	mov    eax,DWORD PTR [eax]
  401236:	89 44 24 08          	mov    DWORD PTR [esp+0x8],eax
  40123a:	a1 00 d0 40 00       	mov    eax,ds:0x40d000
  40123f:	89 44 24 04          	mov    DWORD PTR [esp+0x4],eax
  401243:	a1 04 d0 40 00       	mov    eax,ds:0x40d004
  401248:	89 04 24             	mov    DWORD PTR [esp],eax
  40124b:	e8 90 01 00 00       	call   4013e0 <_main>
  401250:	89 c3                	mov    ebx,eax
  401252:	e8 99 6d 00 00       	call   407ff0 <__cexit>
  401257:	89 1c 24             	mov    DWORD PTR [esp],ebx
  40125a:	e8 41 6e 00 00       	call   4080a0 <_ExitProcess@4>
  40125f:	90                   	nop

00401260 <__mingw32_init_mainargs>:
  401260:	83 ec 3c             	sub    esp,0x3c
  401263:	8d 44 24 2c          	lea    eax,[esp+0x2c]
  401267:	89 44 24 10          	mov    DWORD PTR [esp+0x10],eax
  40126b:	a1 00 90 40 00       	mov    eax,ds:0x409000
  401270:	c7 44 24 04 00 d0 40 	mov    DWORD PTR [esp+0x4],0x40d000
  401277:	00 
  401278:	c7 04 24 04 d0 40 00 	mov    DWORD PTR [esp],0x40d004
  40127f:	c7 44 24 2c 00 00 00 	mov    DWORD PTR [esp+0x2c],0x0
  401286:	00 
  401287:	83 e0 01             	and    eax,0x1
  40128a:	89 44 24 0c          	mov    DWORD PTR [esp+0xc],eax
  40128e:	8d 44 24 28          	lea    eax,[esp+0x28]
  401292:	89 44 24 08          	mov    DWORD PTR [esp+0x8],eax
  401296:	e8 6d 6d 00 00       	call   408008 <___getmainargs>
  40129b:	83 c4 3c             	add    esp,0x3c
  40129e:	c3                   	ret    
  40129f:	90                   	nop

004012a0 <_mainCRTStartup>:
  4012a0:	83 ec 1c             	sub    esp,0x1c
  4012a3:	c7 04 24 01 00 00 00 	mov    DWORD PTR [esp],0x1
  4012aa:	ff 15 b8 e1 40 00    	call   DWORD PTR ds:0x40e1b8
  4012b0:	e8 cb fe ff ff       	call   401180 <___mingw_CRTStartup>
  4012b5:	8d 74 26 00          	lea    esi,[esi+eiz*1+0x0]
  4012b9:	8d bc 27 00 00 00 00 	lea    edi,[edi+eiz*1+0x0]

004012c0 <_WinMainCRTStartup>:
  4012c0:	83 ec 1c             	sub    esp,0x1c
  4012c3:	c7 04 24 02 00 00 00 	mov    DWORD PTR [esp],0x2
  4012ca:	ff 15 b8 e1 40 00    	call   DWORD PTR ds:0x40e1b8
  4012d0:	e8 ab fe ff ff       	call   401180 <___mingw_CRTStartup>
  4012d5:	8d 74 26 00          	lea    esi,[esi+eiz*1+0x0]
  4012d9:	8d bc 27 00 00 00 00 	lea    edi,[edi+eiz*1+0x0]

004012e0 <_atexit>:
  4012e0:	a1 d8 e1 40 00       	mov    eax,ds:0x40e1d8
  4012e5:	ff e0                	jmp    eax
  4012e7:	89 f6                	mov    esi,esi
  4012e9:	8d bc 27 00 00 00 00 	lea    edi,[edi+eiz*1+0x0]

004012f0 <__onexit>:
  4012f0:	a1 cc e1 40 00       	mov    eax,ds:0x40e1cc
  4012f5:	ff e0                	jmp    eax
  4012f7:	90                   	nop
  4012f8:	90                   	nop
  4012f9:	90                   	nop
  4012fa:	90                   	nop
  4012fb:	90                   	nop
  4012fc:	90                   	nop
  4012fd:	90                   	nop
  4012fe:	90                   	nop
  4012ff:	90                   	nop

00401300 <___gcc_register_frame>:
  401300:	55                   	push   ebp
  401301:	89 e5                	mov    ebp,esp
  401303:	83 ec 18             	sub    esp,0x18
  401306:	c7 04 24 00 a0 40 00 	mov    DWORD PTR [esp],0x40a000
  40130d:	e8 5e 6d 00 00       	call   408070 <_GetModuleHandleA@4>
  401312:	ba 00 00 00 00       	mov    edx,0x0
  401317:	83 ec 04             	sub    esp,0x4
  40131a:	85 c0                	test   eax,eax
  40131c:	74 15                	je     401333 <___gcc_register_frame+0x33>
  40131e:	c7 44 24 04 13 a0 40 	mov    DWORD PTR [esp+0x4],0x40a013
  401325:	00 
  401326:	89 04 24             	mov    DWORD PTR [esp],eax
  401329:	e8 3a 6d 00 00       	call   408068 <_GetProcAddress@8>
  40132e:	83 ec 08             	sub    esp,0x8
  401331:	89 c2                	mov    edx,eax
  401333:	85 d2                	test   edx,edx
  401335:	74 11                	je     401348 <___gcc_register_frame+0x48>
  401337:	c7 44 24 04 08 d0 40 	mov    DWORD PTR [esp+0x4],0x40d008
  40133e:	00 
  40133f:	c7 04 24 c0 b0 40 00 	mov    DWORD PTR [esp],0x40b0c0
  401346:	ff d2                	call   edx
  401348:	a1 24 90 40 00       	mov    eax,ds:0x409024
  40134d:	85 c0                	test   eax,eax
  40134f:	74 3a                	je     40138b <___gcc_register_frame+0x8b>
  401351:	c7 04 24 29 a0 40 00 	mov    DWORD PTR [esp],0x40a029
  401358:	e8 13 6d 00 00       	call   408070 <_GetModuleHandleA@4>
  40135d:	ba 00 00 00 00       	mov    edx,0x0
  401362:	83 ec 04             	sub    esp,0x4
  401365:	85 c0                	test   eax,eax
  401367:	74 15                	je     40137e <___gcc_register_frame+0x7e>
  401369:	c7 44 24 04 37 a0 40 	mov    DWORD PTR [esp+0x4],0x40a037
  401370:	00 
  401371:	89 04 24             	mov    DWORD PTR [esp],eax
  401374:	e8 ef 6c 00 00       	call   408068 <_GetProcAddress@8>
  401379:	83 ec 08             	sub    esp,0x8
  40137c:	89 c2                	mov    edx,eax
  40137e:	85 d2                	test   edx,edx
  401380:	74 09                	je     40138b <___gcc_register_frame+0x8b>
  401382:	c7 04 24 24 90 40 00 	mov    DWORD PTR [esp],0x409024
  401389:	ff d2                	call   edx
  40138b:	c9                   	leave  
  40138c:	c3                   	ret    
  40138d:	8d 76 00             	lea    esi,[esi+0x0]

00401390 <___gcc_deregister_frame>:
  401390:	55                   	push   ebp
  401391:	89 e5                	mov    ebp,esp
  401393:	83 ec 18             	sub    esp,0x18
  401396:	c7 04 24 00 a0 40 00 	mov    DWORD PTR [esp],0x40a000
  40139d:	e8 ce 6c 00 00       	call   408070 <_GetModuleHandleA@4>
  4013a2:	ba 00 00 00 00       	mov    edx,0x0
  4013a7:	83 ec 04             	sub    esp,0x4
  4013aa:	85 c0                	test   eax,eax
  4013ac:	74 15                	je     4013c3 <___gcc_deregister_frame+0x33>
  4013ae:	c7 44 24 04 4b a0 40 	mov    DWORD PTR [esp+0x4],0x40a04b
  4013b5:	00 
  4013b6:	89 04 24             	mov    DWORD PTR [esp],eax
  4013b9:	e8 aa 6c 00 00       	call   408068 <_GetProcAddress@8>
  4013be:	83 ec 08             	sub    esp,0x8
  4013c1:	89 c2                	mov    edx,eax
  4013c3:	85 d2                	test   edx,edx
  4013c5:	74 09                	je     4013d0 <___gcc_deregister_frame+0x40>
  4013c7:	c7 04 24 c0 b0 40 00 	mov    DWORD PTR [esp],0x40b0c0
  4013ce:	ff d2                	call   edx
  4013d0:	c9                   	leave  
  4013d1:	c3                   	ret    
  4013d2:	90                   	nop
  4013d3:	90                   	nop
  4013d4:	90                   	nop
  4013d5:	90                   	nop
  4013d6:	90                   	nop
  4013d7:	90                   	nop
  4013d8:	90                   	nop
  4013d9:	90                   	nop
  4013da:	90                   	nop
  4013db:	90                   	nop
  4013dc:	90                   	nop
  4013dd:	90                   	nop
  4013de:	90                   	nop
  4013df:	90                   	nop

004013e0 <_main>:
  4013e0:	55                   	push   ebp
  4013e1:	89 e5                	mov    ebp,esp
  4013e3:	83 e4 f0             	and    esp,0xfffffff0
  4013e6:	83 ec 30             	sub    esp,0x30
  4013e9:	e8 c2 04 00 00       	call   4018b0 <___main>
  4013ee:	8d 44 24 1c          	lea    eax,[esp+0x1c]
  4013f2:	c7 00 48 65 6c 6c    	mov    DWORD PTR [eax],0x6c6c6548
  4013f8:	c7 40 04 6f 2c 20 57 	mov    DWORD PTR [eax+0x4],0x57202c6f
  4013ff:	c7 40 08 6f 72 6c 64 	mov    DWORD PTR [eax+0x8],0x646c726f
  401406:	66 c7 40 0c 21 0a    	mov    WORD PTR [eax+0xc],0xa21
  40140c:	c6 40 0e 00          	mov    BYTE PTR [eax+0xe],0x0
  401410:	8d 44 24 1c          	lea    eax,[esp+0x1c]
  401414:	89 04 24             	mov    DWORD PTR [esp],eax
  401417:	e8 54 6b 00 00       	call   407f70 <_printf>
  40141c:	b8 00 00 00 00       	mov    eax,0x0
  401421:	c9                   	leave  
  401422:	c3                   	ret    
  401423:	90                   	nop

00401424 <.text>:
  401424:	66 90                	xchg   ax,ax
  401426:	66 90                	xchg   ax,ax
  401428:	66 90                	xchg   ax,ax
  40142a:	66 90                	xchg   ax,ax
  40142c:	66 90                	xchg   ax,ax
  40142e:	66 90                	xchg   ax,ax

00401430 <__setargv>:
  401430:	55                   	push   ebp
  401431:	89 e5                	mov    ebp,esp
  401433:	57                   	push   edi
  401434:	56                   	push   esi
  401435:	53                   	push   ebx
  401436:	83 ec 4c             	sub    esp,0x4c
  401439:	f6 05 00 90 40 00 02 	test   BYTE PTR ds:0x409000,0x2
  401440:	0f 84 ba 02 00 00    	je     401700 <__setargv+0x2d0>
  401446:	e8 35 6c 00 00       	call   408080 <_GetCommandLineA@0>
  40144b:	89 65 c0             	mov    DWORD PTR [ebp-0x40],esp
  40144e:	89 04 24             	mov    DWORD PTR [esp],eax
  401451:	89 c6                	mov    esi,eax
  401453:	e8 e8 6a 00 00       	call   407f40 <_strlen>
  401458:	8d 44 00 11          	lea    eax,[eax+eax*1+0x11]
  40145c:	83 e0 f0             	and    eax,0xfffffff0
  40145f:	e8 bc 0a 00 00       	call   401f20 <___chkstk_ms>
  401464:	29 c4                	sub    esp,eax
  401466:	8d 44 24 10          	lea    eax,[esp+0x10]
  40146a:	89 c2                	mov    edx,eax
  40146c:	89 45 c4             	mov    DWORD PTR [ebp-0x3c],eax
  40146f:	a1 00 90 40 00       	mov    eax,ds:0x409000
  401474:	c7 45 e4 00 00 00 00 	mov    DWORD PTR [ebp-0x1c],0x0
  40147b:	c7 45 d0 00 00 00 00 	mov    DWORD PTR [ebp-0x30],0x0
  401482:	c7 45 cc 00 00 00 00 	mov    DWORD PTR [ebp-0x34],0x0
  401489:	83 e0 40             	and    eax,0x40
  40148c:	83 f8 01             	cmp    eax,0x1
  40148f:	19 c0                	sbb    eax,eax
  401491:	89 45 c8             	mov    DWORD PTR [ebp-0x38],eax
  401494:	31 c0                	xor    eax,eax
  401496:	81 65 c8 00 c0 ff ff 	and    DWORD PTR [ebp-0x38],0xffffc000
  40149d:	81 45 c8 10 40 00 00 	add    DWORD PTR [ebp-0x38],0x4010
  4014a4:	89 55 d4             	mov    DWORD PTR [ebp-0x2c],edx
  4014a7:	83 c6 01             	add    esi,0x1
  4014aa:	0f b6 5e ff          	movzx  ebx,BYTE PTR [esi-0x1]
  4014ae:	0f be cb             	movsx  ecx,bl
  4014b1:	85 c9                	test   ecx,ecx
  4014b3:	74 7b                	je     401530 <__setargv+0x100>
  4014b5:	80 fb 3f             	cmp    bl,0x3f
  4014b8:	0f 84 13 01 00 00    	je     4015d1 <__setargv+0x1a1>
  4014be:	0f 8f ec 00 00 00    	jg     4015b0 <__setargv+0x180>
  4014c4:	80 fb 27             	cmp    bl,0x27
  4014c7:	0f 84 e3 01 00 00    	je     4016b0 <__setargv+0x280>
  4014cd:	80 fb 2a             	cmp    bl,0x2a
  4014d0:	0f 84 fb 00 00 00    	je     4015d1 <__setargv+0x1a1>
  4014d6:	80 fb 22             	cmp    bl,0x22
  4014d9:	0f 85 36 01 00 00    	jne    401615 <__setargv+0x1e5>
  4014df:	89 c3                	mov    ebx,eax
  4014e1:	d1 fb                	sar    ebx,1
  4014e3:	0f 84 3e 02 00 00    	je     401727 <__setargv+0x2f7>
  4014e9:	8b 55 d4             	mov    edx,DWORD PTR [ebp-0x2c]
  4014ec:	01 d3                	add    ebx,edx
  4014ee:	66 90                	xchg   ax,ax
  4014f0:	83 c2 01             	add    edx,0x1
  4014f3:	39 da                	cmp    edx,ebx
  4014f5:	c6 42 ff 5c          	mov    BYTE PTR [edx-0x1],0x5c
  4014f9:	75 f5                	jne    4014f0 <__setargv+0xc0>
  4014fb:	a8 01                	test   al,0x1
  4014fd:	0f 85 93 00 00 00    	jne    401596 <__setargv+0x166>
  401503:	83 7d d0 27          	cmp    DWORD PTR [ebp-0x30],0x27
  401507:	0f 84 89 00 00 00    	je     401596 <__setargv+0x166>
  40150d:	83 c6 01             	add    esi,0x1
  401510:	31 c0                	xor    eax,eax
  401512:	89 5d d4             	mov    DWORD PTR [ebp-0x2c],ebx
  401515:	0f b6 5e ff          	movzx  ebx,BYTE PTR [esi-0x1]
  401519:	31 4d d0             	xor    DWORD PTR [ebp-0x30],ecx
  40151c:	c7 45 cc 01 00 00 00 	mov    DWORD PTR [ebp-0x34],0x1
  401523:	0f be cb             	movsx  ecx,bl
  401526:	85 c9                	test   ecx,ecx
  401528:	75 8b                	jne    4014b5 <__setargv+0x85>
  40152a:	8d b6 00 00 00 00    	lea    esi,[esi+0x0]
  401530:	85 c0                	test   eax,eax
  401532:	8b 55 d4             	mov    edx,DWORD PTR [ebp-0x2c]
  401535:	0f 84 f4 01 00 00    	je     40172f <__setargv+0x2ff>
  40153b:	01 d0                	add    eax,edx
  40153d:	8d 76 00             	lea    esi,[esi+0x0]
  401540:	83 c2 01             	add    edx,0x1
  401543:	39 c2                	cmp    edx,eax
  401545:	c6 42 ff 5c          	mov    BYTE PTR [edx-0x1],0x5c
  401549:	75 f5                	jne    401540 <__setargv+0x110>
  40154b:	8b 55 cc             	mov    edx,DWORD PTR [ebp-0x34]
  40154e:	85 d2                	test   edx,edx
  401550:	75 05                	jne    401557 <__setargv+0x127>
  401552:	39 45 c4             	cmp    DWORD PTR [ebp-0x3c],eax
  401555:	73 24                	jae    40157b <__setargv+0x14b>
  401557:	c6 00 00             	mov    BYTE PTR [eax],0x0
  40155a:	8d 45 d8             	lea    eax,[ebp-0x28]
  40155d:	89 44 24 0c          	mov    DWORD PTR [esp+0xc],eax
  401561:	c7 44 24 08 00 00 00 	mov    DWORD PTR [esp+0x8],0x0
  401568:	00 
  401569:	8b 45 c8             	mov    eax,DWORD PTR [ebp-0x38]
  40156c:	89 44 24 04          	mov    DWORD PTR [esp+0x4],eax
  401570:	8b 45 c4             	mov    eax,DWORD PTR [ebp-0x3c]
  401573:	89 04 24             	mov    DWORD PTR [esp],eax
  401576:	e8 d5 15 00 00       	call   402b50 <___mingw_glob>
  40157b:	8b 45 dc             	mov    eax,DWORD PTR [ebp-0x24]
  40157e:	a3 04 d0 40 00       	mov    ds:0x40d004,eax
  401583:	8b 45 e0             	mov    eax,DWORD PTR [ebp-0x20]
  401586:	a3 00 d0 40 00       	mov    ds:0x40d000,eax
  40158b:	8b 65 c0             	mov    esp,DWORD PTR [ebp-0x40]
  40158e:	8d 65 f4             	lea    esp,[ebp-0xc]
  401591:	5b                   	pop    ebx
  401592:	5e                   	pop    esi
  401593:	5f                   	pop    edi
  401594:	5d                   	pop    ebp
  401595:	c3                   	ret    
  401596:	8d 43 01             	lea    eax,[ebx+0x1]
  401599:	89 45 d4             	mov    DWORD PTR [ebp-0x2c],eax
  40159c:	31 c0                	xor    eax,eax
  40159e:	c6 03 22             	mov    BYTE PTR [ebx],0x22
  4015a1:	c7 45 cc 01 00 00 00 	mov    DWORD PTR [ebp-0x34],0x1
  4015a8:	e9 fa fe ff ff       	jmp    4014a7 <__setargv+0x77>
  4015ad:	8d 76 00             	lea    esi,[esi+0x0]
  4015b0:	80 fb 5c             	cmp    bl,0x5c
  4015b3:	0f 84 3f 01 00 00    	je     4016f8 <__setargv+0x2c8>
  4015b9:	80 fb 7f             	cmp    bl,0x7f
  4015bc:	74 13                	je     4015d1 <__setargv+0x1a1>
  4015be:	80 fb 5b             	cmp    bl,0x5b
  4015c1:	75 52                	jne    401615 <__setargv+0x1e5>
  4015c3:	f6 05 00 90 40 00 20 	test   BYTE PTR ds:0x409000,0x20
  4015ca:	bf 01 00 00 00       	mov    edi,0x1
  4015cf:	74 0a                	je     4015db <__setargv+0x1ab>
  4015d1:	8b 55 d0             	mov    edx,DWORD PTR [ebp-0x30]
  4015d4:	85 d2                	test   edx,edx
  4015d6:	0f 95 c2             	setne  dl
  4015d9:	89 d7                	mov    edi,edx
  4015db:	85 c0                	test   eax,eax
  4015dd:	0f 84 34 01 00 00    	je     401717 <__setargv+0x2e7>
  4015e3:	8b 55 d4             	mov    edx,DWORD PTR [ebp-0x2c]
  4015e6:	01 d0                	add    eax,edx
  4015e8:	83 c2 01             	add    edx,0x1
  4015eb:	39 c2                	cmp    edx,eax
  4015ed:	c6 42 ff 5c          	mov    BYTE PTR [edx-0x1],0x5c
  4015f1:	75 f5                	jne    4015e8 <__setargv+0x1b8>
  4015f3:	89 fa                	mov    edx,edi
  4015f5:	84 d2                	test   dl,dl
  4015f7:	0f 85 a3 00 00 00    	jne    4016a0 <__setargv+0x270>
  4015fd:	83 f9 7f             	cmp    ecx,0x7f
  401600:	0f 84 9a 00 00 00    	je     4016a0 <__setargv+0x270>
  401606:	8d 48 01             	lea    ecx,[eax+0x1]
  401609:	88 18                	mov    BYTE PTR [eax],bl
  40160b:	31 c0                	xor    eax,eax
  40160d:	89 4d d4             	mov    DWORD PTR [ebp-0x2c],ecx
  401610:	e9 92 fe ff ff       	jmp    4014a7 <__setargv+0x77>
  401615:	8b 7d d4             	mov    edi,DWORD PTR [ebp-0x2c]
  401618:	8b 55 d4             	mov    edx,DWORD PTR [ebp-0x2c]
  40161b:	01 c7                	add    edi,eax
  40161d:	85 c0                	test   eax,eax
  40161f:	0f 84 fa 00 00 00    	je     40171f <__setargv+0x2ef>
  401625:	83 c2 01             	add    edx,0x1
  401628:	39 fa                	cmp    edx,edi
  40162a:	c6 42 ff 5c          	mov    BYTE PTR [edx-0x1],0x5c
  40162e:	75 f5                	jne    401625 <__setargv+0x1f5>
  401630:	8b 45 d0             	mov    eax,DWORD PTR [ebp-0x30]
  401633:	85 c0                	test   eax,eax
  401635:	75 59                	jne    401690 <__setargv+0x260>
  401637:	89 0c 24             	mov    DWORD PTR [esp],ecx
  40163a:	e8 59 69 00 00       	call   407f98 <_isspace>
  40163f:	85 c0                	test   eax,eax
  401641:	74 4d                	je     401690 <__setargv+0x260>
  401643:	8b 4d cc             	mov    ecx,DWORD PTR [ebp-0x34]
  401646:	85 c9                	test   ecx,ecx
  401648:	75 09                	jne    401653 <__setargv+0x223>
  40164a:	39 7d c4             	cmp    DWORD PTR [ebp-0x3c],edi
  40164d:	0f 83 ba 00 00 00    	jae    40170d <__setargv+0x2dd>
  401653:	8d 45 d8             	lea    eax,[ebp-0x28]
  401656:	c6 07 00             	mov    BYTE PTR [edi],0x0
  401659:	89 44 24 0c          	mov    DWORD PTR [esp+0xc],eax
  40165d:	c7 44 24 08 00 00 00 	mov    DWORD PTR [esp+0x8],0x0
  401664:	00 
  401665:	8b 45 c8             	mov    eax,DWORD PTR [ebp-0x38]
  401668:	89 44 24 04          	mov    DWORD PTR [esp+0x4],eax
  40166c:	8b 7d c4             	mov    edi,DWORD PTR [ebp-0x3c]
  40166f:	89 3c 24             	mov    DWORD PTR [esp],edi
  401672:	e8 d9 14 00 00       	call   402b50 <___mingw_glob>
  401677:	31 c0                	xor    eax,eax
  401679:	83 4d c8 01          	or     DWORD PTR [ebp-0x38],0x1
  40167d:	89 7d d4             	mov    DWORD PTR [ebp-0x2c],edi
  401680:	c7 45 cc 00 00 00 00 	mov    DWORD PTR [ebp-0x34],0x0
  401687:	e9 1b fe ff ff       	jmp    4014a7 <__setargv+0x77>
  40168c:	8d 74 26 00          	lea    esi,[esi+eiz*1+0x0]
  401690:	8d 47 01             	lea    eax,[edi+0x1]
  401693:	89 45 d4             	mov    DWORD PTR [ebp-0x2c],eax
  401696:	31 c0                	xor    eax,eax
  401698:	88 1f                	mov    BYTE PTR [edi],bl
  40169a:	e9 08 fe ff ff       	jmp    4014a7 <__setargv+0x77>
  40169f:	90                   	nop
  4016a0:	c6 00 7f             	mov    BYTE PTR [eax],0x7f
  4016a3:	83 c0 01             	add    eax,0x1
  4016a6:	e9 5b ff ff ff       	jmp    401606 <__setargv+0x1d6>
  4016ab:	90                   	nop
  4016ac:	8d 74 26 00          	lea    esi,[esi+eiz*1+0x0]
  4016b0:	f6 05 00 90 40 00 10 	test   BYTE PTR ds:0x409000,0x10
  4016b7:	0f 84 58 ff ff ff    	je     401615 <__setargv+0x1e5>
  4016bd:	89 c3                	mov    ebx,eax
  4016bf:	d1 fb                	sar    ebx,1
  4016c1:	74 73                	je     401736 <__setargv+0x306>
  4016c3:	8b 55 d4             	mov    edx,DWORD PTR [ebp-0x2c]
  4016c6:	01 d3                	add    ebx,edx
  4016c8:	83 c2 01             	add    edx,0x1
  4016cb:	39 da                	cmp    edx,ebx
  4016cd:	c6 42 ff 5c          	mov    BYTE PTR [edx-0x1],0x5c
  4016d1:	75 f5                	jne    4016c8 <__setargv+0x298>
  4016d3:	a8 01                	test   al,0x1
  4016d5:	75 0a                	jne    4016e1 <__setargv+0x2b1>
  4016d7:	83 7d d0 22          	cmp    DWORD PTR [ebp-0x30],0x22
  4016db:	0f 85 2c fe ff ff    	jne    40150d <__setargv+0xdd>
  4016e1:	8d 43 01             	lea    eax,[ebx+0x1]
  4016e4:	89 45 d4             	mov    DWORD PTR [ebp-0x2c],eax
  4016e7:	31 c0                	xor    eax,eax
  4016e9:	c6 03 27             	mov    BYTE PTR [ebx],0x27
  4016ec:	c7 45 cc 01 00 00 00 	mov    DWORD PTR [ebp-0x34],0x1
  4016f3:	e9 af fd ff ff       	jmp    4014a7 <__setargv+0x77>
  4016f8:	83 c0 01             	add    eax,0x1
  4016fb:	e9 a7 fd ff ff       	jmp    4014a7 <__setargv+0x77>
  401700:	e8 5b fb ff ff       	call   401260 <__mingw32_init_mainargs>
  401705:	8d 65 f4             	lea    esp,[ebp-0xc]
  401708:	5b                   	pop    ebx
  401709:	5e                   	pop    esi
  40170a:	5f                   	pop    edi
  40170b:	5d                   	pop    ebp
  40170c:	c3                   	ret    
  40170d:	89 7d d4             	mov    DWORD PTR [ebp-0x2c],edi
  401710:	31 c0                	xor    eax,eax
  401712:	e9 90 fd ff ff       	jmp    4014a7 <__setargv+0x77>
  401717:	8b 45 d4             	mov    eax,DWORD PTR [ebp-0x2c]
  40171a:	e9 d4 fe ff ff       	jmp    4015f3 <__setargv+0x1c3>
  40171f:	8b 7d d4             	mov    edi,DWORD PTR [ebp-0x2c]
  401722:	e9 09 ff ff ff       	jmp    401630 <__setargv+0x200>
  401727:	8b 5d d4             	mov    ebx,DWORD PTR [ebp-0x2c]
  40172a:	e9 cc fd ff ff       	jmp    4014fb <__setargv+0xcb>
  40172f:	89 d0                	mov    eax,edx
  401731:	e9 15 fe ff ff       	jmp    40154b <__setargv+0x11b>
  401736:	8b 5d d4             	mov    ebx,DWORD PTR [ebp-0x2c]
  401739:	eb 98                	jmp    4016d3 <__setargv+0x2a3>
  40173b:	90                   	nop
  40173c:	90                   	nop
  40173d:	90                   	nop
  40173e:	90                   	nop
  40173f:	90                   	nop

00401740 <___cpu_features_init>:
  401740:	9c                   	pushf  
  401741:	9c                   	pushf  
  401742:	58                   	pop    eax
  401743:	89 c2                	mov    edx,eax
  401745:	35 00 00 20 00       	xor    eax,0x200000
  40174a:	50                   	push   eax
  40174b:	9d                   	popf   
  40174c:	9c                   	pushf  
  40174d:	58                   	pop    eax
  40174e:	9d                   	popf   
  40174f:	31 d0                	xor    eax,edx
  401751:	a9 00 00 20 00       	test   eax,0x200000
  401756:	0f 84 a5 00 00 00    	je     401801 <___cpu_features_init+0xc1>
  40175c:	53                   	push   ebx
  40175d:	31 c0                	xor    eax,eax
  40175f:	0f a2                	cpuid  
  401761:	85 c0                	test   eax,eax
  401763:	0f 84 97 00 00 00    	je     401800 <___cpu_features_init+0xc0>
  401769:	b8 01 00 00 00       	mov    eax,0x1
  40176e:	0f a2                	cpuid  
  401770:	f6 c6 01             	test   dh,0x1
  401773:	74 07                	je     40177c <___cpu_features_init+0x3c>
  401775:	83 0d 24 d0 40 00 01 	or     DWORD PTR ds:0x40d024,0x1
  40177c:	f6 c6 80             	test   dh,0x80
  40177f:	74 07                	je     401788 <___cpu_features_init+0x48>
  401781:	83 0d 24 d0 40 00 02 	or     DWORD PTR ds:0x40d024,0x2
  401788:	f7 c2 00 00 80 00    	test   edx,0x800000
  40178e:	74 07                	je     401797 <___cpu_features_init+0x57>
  401790:	83 0d 24 d0 40 00 04 	or     DWORD PTR ds:0x40d024,0x4
  401797:	f7 c2 00 00 00 01    	test   edx,0x1000000
  40179d:	74 07                	je     4017a6 <___cpu_features_init+0x66>
  40179f:	83 0d 24 d0 40 00 08 	or     DWORD PTR ds:0x40d024,0x8
  4017a6:	f7 c2 00 00 00 02    	test   edx,0x2000000
  4017ac:	74 07                	je     4017b5 <___cpu_features_init+0x75>
  4017ae:	83 0d 24 d0 40 00 10 	or     DWORD PTR ds:0x40d024,0x10
  4017b5:	81 e2 00 00 00 04    	and    edx,0x4000000
  4017bb:	74 07                	je     4017c4 <___cpu_features_init+0x84>
  4017bd:	83 0d 24 d0 40 00 20 	or     DWORD PTR ds:0x40d024,0x20
  4017c4:	f6 c1 01             	test   cl,0x1
  4017c7:	74 07                	je     4017d0 <___cpu_features_init+0x90>
  4017c9:	83 0d 24 d0 40 00 40 	or     DWORD PTR ds:0x40d024,0x40
  4017d0:	80 e5 20             	and    ch,0x20
  4017d3:	75 2e                	jne    401803 <___cpu_features_init+0xc3>
  4017d5:	b8 00 00 00 80       	mov    eax,0x80000000
  4017da:	0f a2                	cpuid  
  4017dc:	3d 00 00 00 80       	cmp    eax,0x80000000
  4017e1:	76 1d                	jbe    401800 <___cpu_features_init+0xc0>
  4017e3:	b8 01 00 00 80       	mov    eax,0x80000001
  4017e8:	0f a2                	cpuid  
  4017ea:	85 d2                	test   edx,edx
  4017ec:	78 22                	js     401810 <___cpu_features_init+0xd0>
  4017ee:	81 e2 00 00 00 40    	and    edx,0x40000000
  4017f4:	74 0a                	je     401800 <___cpu_features_init+0xc0>
  4017f6:	81 0d 24 d0 40 00 00 	or     DWORD PTR ds:0x40d024,0x200
  4017fd:	02 00 00 
  401800:	5b                   	pop    ebx
  401801:	f3 c3                	repz ret 
  401803:	81 0d 24 d0 40 00 80 	or     DWORD PTR ds:0x40d024,0x80
  40180a:	00 00 00 
  40180d:	eb c6                	jmp    4017d5 <___cpu_features_init+0x95>
  40180f:	90                   	nop
  401810:	81 0d 24 d0 40 00 00 	or     DWORD PTR ds:0x40d024,0x100
  401817:	01 00 00 
  40181a:	eb d2                	jmp    4017ee <___cpu_features_init+0xae>
  40181c:	90                   	nop
  40181d:	90                   	nop
  40181e:	90                   	nop
  40181f:	90                   	nop

00401820 <__fpreset>:
  401820:	db e3                	fninit 
  401822:	c3                   	ret    
  401823:	90                   	nop
  401824:	90                   	nop
  401825:	90                   	nop
  401826:	90                   	nop
  401827:	90                   	nop
  401828:	90                   	nop
  401829:	90                   	nop
  40182a:	90                   	nop
  40182b:	90                   	nop
  40182c:	90                   	nop
  40182d:	90                   	nop
  40182e:	90                   	nop
  40182f:	90                   	nop

00401830 <___do_global_dtors>:
  401830:	a1 08 90 40 00       	mov    eax,ds:0x409008
  401835:	8b 00                	mov    eax,DWORD PTR [eax]
  401837:	85 c0                	test   eax,eax
  401839:	74 1f                	je     40185a <___do_global_dtors+0x2a>
  40183b:	83 ec 0c             	sub    esp,0xc
  40183e:	66 90                	xchg   ax,ax
  401840:	ff d0                	call   eax
  401842:	a1 08 90 40 00       	mov    eax,ds:0x409008
  401847:	8d 50 04             	lea    edx,[eax+0x4]
  40184a:	8b 40 04             	mov    eax,DWORD PTR [eax+0x4]
  40184d:	89 15 08 90 40 00    	mov    DWORD PTR ds:0x409008,edx
  401853:	85 c0                	test   eax,eax
  401855:	75 e9                	jne    401840 <___do_global_dtors+0x10>
  401857:	83 c4 0c             	add    esp,0xc
  40185a:	f3 c3                	repz ret 
  40185c:	8d 74 26 00          	lea    esi,[esi+eiz*1+0x0]

00401860 <___do_global_ctors>:
  401860:	53                   	push   ebx
  401861:	83 ec 18             	sub    esp,0x18
  401864:	8b 1d 50 83 40 00    	mov    ebx,DWORD PTR ds:0x408350
  40186a:	83 fb ff             	cmp    ebx,0xffffffff
  40186d:	74 24                	je     401893 <___do_global_ctors+0x33>
  40186f:	85 db                	test   ebx,ebx
  401871:	74 0f                	je     401882 <___do_global_ctors+0x22>
  401873:	ff 14 9d 50 83 40 00 	call   DWORD PTR [ebx*4+0x408350]
  40187a:	83 eb 01             	sub    ebx,0x1
  40187d:	8d 76 00             	lea    esi,[esi+0x0]
  401880:	75 f1                	jne    401873 <___do_global_ctors+0x13>
  401882:	c7 04 24 30 18 40 00 	mov    DWORD PTR [esp],0x401830
  401889:	e8 52 fa ff ff       	call   4012e0 <_atexit>
  40188e:	83 c4 18             	add    esp,0x18
  401891:	5b                   	pop    ebx
  401892:	c3                   	ret    
  401893:	31 db                	xor    ebx,ebx
  401895:	eb 02                	jmp    401899 <___do_global_ctors+0x39>
  401897:	89 c3                	mov    ebx,eax
  401899:	8d 43 01             	lea    eax,[ebx+0x1]
  40189c:	8b 14 85 50 83 40 00 	mov    edx,DWORD PTR [eax*4+0x408350]
  4018a3:	85 d2                	test   edx,edx
  4018a5:	75 f0                	jne    401897 <___do_global_ctors+0x37>
  4018a7:	eb c6                	jmp    40186f <___do_global_ctors+0xf>
  4018a9:	8d b4 26 00 00 00 00 	lea    esi,[esi+eiz*1+0x0]

004018b0 <___main>:
  4018b0:	8b 0d 28 d0 40 00    	mov    ecx,DWORD PTR ds:0x40d028
  4018b6:	85 c9                	test   ecx,ecx
  4018b8:	74 06                	je     4018c0 <___main+0x10>
  4018ba:	f3 c3                	repz ret 
  4018bc:	8d 74 26 00          	lea    esi,[esi+eiz*1+0x0]
  4018c0:	c7 05 28 d0 40 00 01 	mov    DWORD PTR ds:0x40d028,0x1
  4018c7:	00 00 00 
  4018ca:	eb 94                	jmp    401860 <___do_global_ctors>
  4018cc:	90                   	nop
  4018cd:	90                   	nop
  4018ce:	90                   	nop
  4018cf:	90                   	nop

004018d0 <___dyn_tls_dtor@12>:
  4018d0:	83 ec 1c             	sub    esp,0x1c
  4018d3:	8b 44 24 24          	mov    eax,DWORD PTR [esp+0x24]
  4018d7:	85 c0                	test   eax,eax
  4018d9:	74 15                	je     4018f0 <___dyn_tls_dtor@12+0x20>
  4018db:	83 f8 03             	cmp    eax,0x3
  4018de:	74 10                	je     4018f0 <___dyn_tls_dtor@12+0x20>
  4018e0:	b8 01 00 00 00       	mov    eax,0x1
  4018e5:	83 c4 1c             	add    esp,0x1c
  4018e8:	c2 0c 00             	ret    0xc
  4018eb:	90                   	nop
  4018ec:	8d 74 26 00          	lea    esi,[esi+eiz*1+0x0]
  4018f0:	8b 54 24 28          	mov    edx,DWORD PTR [esp+0x28]
  4018f4:	89 44 24 04          	mov    DWORD PTR [esp+0x4],eax
  4018f8:	8b 44 24 20          	mov    eax,DWORD PTR [esp+0x20]
  4018fc:	89 54 24 08          	mov    DWORD PTR [esp+0x8],edx
  401900:	89 04 24             	mov    DWORD PTR [esp],eax
  401903:	e8 58 02 00 00       	call   401b60 <___mingw_TLScallback>
  401908:	b8 01 00 00 00       	mov    eax,0x1
  40190d:	83 c4 1c             	add    esp,0x1c
  401910:	c2 0c 00             	ret    0xc
  401913:	8d b6 00 00 00 00    	lea    esi,[esi+0x0]
  401919:	8d bc 27 00 00 00 00 	lea    edi,[edi+eiz*1+0x0]

00401920 <___dyn_tls_init@12>:
  401920:	56                   	push   esi
  401921:	53                   	push   ebx
  401922:	83 ec 14             	sub    esp,0x14
  401925:	83 3d 64 d0 40 00 02 	cmp    DWORD PTR ds:0x40d064,0x2
  40192c:	8b 44 24 24          	mov    eax,DWORD PTR [esp+0x24]
  401930:	74 0a                	je     40193c <___dyn_tls_init@12+0x1c>
  401932:	c7 05 64 d0 40 00 02 	mov    DWORD PTR ds:0x40d064,0x2
  401939:	00 00 00 
  40193c:	83 f8 02             	cmp    eax,0x2
  40193f:	74 12                	je     401953 <___dyn_tls_init@12+0x33>
  401941:	83 f8 01             	cmp    eax,0x1
  401944:	74 42                	je     401988 <___dyn_tls_init@12+0x68>
  401946:	83 c4 14             	add    esp,0x14
  401949:	b8 01 00 00 00       	mov    eax,0x1
  40194e:	5b                   	pop    ebx
  40194f:	5e                   	pop    esi
  401950:	c2 0c 00             	ret    0xc
  401953:	be 14 f0 40 00       	mov    esi,0x40f014
  401958:	81 ee 14 f0 40 00    	sub    esi,0x40f014
  40195e:	c1 fe 02             	sar    esi,0x2
  401961:	85 f6                	test   esi,esi
  401963:	7e e1                	jle    401946 <___dyn_tls_init@12+0x26>
  401965:	31 db                	xor    ebx,ebx
  401967:	8b 04 9d 14 f0 40 00 	mov    eax,DWORD PTR [ebx*4+0x40f014]
  40196e:	85 c0                	test   eax,eax
  401970:	74 02                	je     401974 <___dyn_tls_init@12+0x54>
  401972:	ff d0                	call   eax
  401974:	83 c3 01             	add    ebx,0x1
  401977:	39 f3                	cmp    ebx,esi
  401979:	75 ec                	jne    401967 <___dyn_tls_init@12+0x47>
  40197b:	83 c4 14             	add    esp,0x14
  40197e:	b8 01 00 00 00       	mov    eax,0x1
  401983:	5b                   	pop    ebx
  401984:	5e                   	pop    esi
  401985:	c2 0c 00             	ret    0xc
  401988:	8b 44 24 28          	mov    eax,DWORD PTR [esp+0x28]
  40198c:	c7 44 24 04 01 00 00 	mov    DWORD PTR [esp+0x4],0x1
  401993:	00 
  401994:	89 44 24 08          	mov    DWORD PTR [esp+0x8],eax
  401998:	8b 44 24 20          	mov    eax,DWORD PTR [esp+0x20]
  40199c:	89 04 24             	mov    DWORD PTR [esp],eax
  40199f:	e8 bc 01 00 00       	call   401b60 <___mingw_TLScallback>
  4019a4:	eb a0                	jmp    401946 <___dyn_tls_init@12+0x26>
  4019a6:	8d 76 00             	lea    esi,[esi+0x0]
  4019a9:	8d bc 27 00 00 00 00 	lea    edi,[edi+eiz*1+0x0]

004019b0 <___tlregdtor>:
  4019b0:	31 c0                	xor    eax,eax
  4019b2:	c3                   	ret    
  4019b3:	90                   	nop
  4019b4:	90                   	nop
  4019b5:	90                   	nop
  4019b6:	90                   	nop
  4019b7:	90                   	nop
  4019b8:	90                   	nop
  4019b9:	90                   	nop
  4019ba:	90                   	nop
  4019bb:	90                   	nop
  4019bc:	90                   	nop
  4019bd:	90                   	nop
  4019be:	90                   	nop
  4019bf:	90                   	nop

004019c0 <___mingwthr_run_key_dtors.part.0>:
  4019c0:	55                   	push   ebp
  4019c1:	89 e5                	mov    ebp,esp
  4019c3:	56                   	push   esi
  4019c4:	53                   	push   ebx
  4019c5:	83 ec 10             	sub    esp,0x10
  4019c8:	c7 04 24 44 d0 40 00 	mov    DWORD PTR [esp],0x40d044
  4019cf:	e8 d4 66 00 00       	call   4080a8 <_EnterCriticalSection@4>
  4019d4:	8b 1d 3c d0 40 00    	mov    ebx,DWORD PTR ds:0x40d03c
  4019da:	83 ec 04             	sub    esp,0x4
  4019dd:	85 db                	test   ebx,ebx
  4019df:	74 2b                	je     401a0c <___mingwthr_run_key_dtors.part.0+0x4c>
  4019e1:	8b 03                	mov    eax,DWORD PTR [ebx]
  4019e3:	89 04 24             	mov    DWORD PTR [esp],eax
  4019e6:	e8 3d 66 00 00       	call   408028 <_TlsGetValue@4>
  4019eb:	83 ec 04             	sub    esp,0x4
  4019ee:	89 c6                	mov    esi,eax
  4019f0:	e8 83 66 00 00       	call   408078 <_GetLastError@0>
  4019f5:	85 c0                	test   eax,eax
  4019f7:	75 0c                	jne    401a05 <___mingwthr_run_key_dtors.part.0+0x45>
  4019f9:	85 f6                	test   esi,esi
  4019fb:	74 08                	je     401a05 <___mingwthr_run_key_dtors.part.0+0x45>
  4019fd:	8b 43 04             	mov    eax,DWORD PTR [ebx+0x4]
  401a00:	89 34 24             	mov    DWORD PTR [esp],esi
  401a03:	ff d0                	call   eax
  401a05:	8b 5b 08             	mov    ebx,DWORD PTR [ebx+0x8]
  401a08:	85 db                	test   ebx,ebx
  401a0a:	75 d5                	jne    4019e1 <___mingwthr_run_key_dtors.part.0+0x21>
  401a0c:	c7 04 24 44 d0 40 00 	mov    DWORD PTR [esp],0x40d044
  401a13:	e8 30 66 00 00       	call   408048 <_LeaveCriticalSection@4>
  401a18:	83 ec 04             	sub    esp,0x4
  401a1b:	8d 65 f8             	lea    esp,[ebp-0x8]
  401a1e:	5b                   	pop    ebx
  401a1f:	5e                   	pop    esi
  401a20:	5d                   	pop    ebp
  401a21:	c3                   	ret    
  401a22:	8d b4 26 00 00 00 00 	lea    esi,[esi+eiz*1+0x0]
  401a29:	8d bc 27 00 00 00 00 	lea    edi,[edi+eiz*1+0x0]

00401a30 <____w64_mingwthr_add_key_dtor>:
  401a30:	55                   	push   ebp
  401a31:	89 e5                	mov    ebp,esp
  401a33:	56                   	push   esi
  401a34:	31 f6                	xor    esi,esi
  401a36:	53                   	push   ebx
  401a37:	83 ec 10             	sub    esp,0x10
  401a3a:	a1 40 d0 40 00       	mov    eax,ds:0x40d040
  401a3f:	85 c0                	test   eax,eax
  401a41:	75 0d                	jne    401a50 <____w64_mingwthr_add_key_dtor+0x20>
  401a43:	8d 65 f8             	lea    esp,[ebp-0x8]
  401a46:	89 f0                	mov    eax,esi
  401a48:	5b                   	pop    ebx
  401a49:	5e                   	pop    esi
  401a4a:	5d                   	pop    ebp
  401a4b:	c3                   	ret    
  401a4c:	8d 74 26 00          	lea    esi,[esi+eiz*1+0x0]
  401a50:	c7 44 24 04 0c 00 00 	mov    DWORD PTR [esp+0x4],0xc
  401a57:	00 
  401a58:	c7 04 24 01 00 00 00 	mov    DWORD PTR [esp],0x1
  401a5f:	e8 5c 65 00 00       	call   407fc0 <_calloc>
  401a64:	85 c0                	test   eax,eax
  401a66:	89 c3                	mov    ebx,eax
  401a68:	74 40                	je     401aaa <____w64_mingwthr_add_key_dtor+0x7a>
  401a6a:	8b 45 08             	mov    eax,DWORD PTR [ebp+0x8]
  401a6d:	c7 04 24 44 d0 40 00 	mov    DWORD PTR [esp],0x40d044
  401a74:	89 03                	mov    DWORD PTR [ebx],eax
  401a76:	8b 45 0c             	mov    eax,DWORD PTR [ebp+0xc]
  401a79:	89 43 04             	mov    DWORD PTR [ebx+0x4],eax
  401a7c:	e8 27 66 00 00       	call   4080a8 <_EnterCriticalSection@4>
  401a81:	a1 3c d0 40 00       	mov    eax,ds:0x40d03c
  401a86:	89 1d 3c d0 40 00    	mov    DWORD PTR ds:0x40d03c,ebx
  401a8c:	89 43 08             	mov    DWORD PTR [ebx+0x8],eax
  401a8f:	83 ec 04             	sub    esp,0x4
  401a92:	c7 04 24 44 d0 40 00 	mov    DWORD PTR [esp],0x40d044
  401a99:	e8 aa 65 00 00       	call   408048 <_LeaveCriticalSection@4>
  401a9e:	89 f0                	mov    eax,esi
  401aa0:	83 ec 04             	sub    esp,0x4
  401aa3:	8d 65 f8             	lea    esp,[ebp-0x8]
  401aa6:	5b                   	pop    ebx
  401aa7:	5e                   	pop    esi
  401aa8:	5d                   	pop    ebp
  401aa9:	c3                   	ret    
  401aaa:	be ff ff ff ff       	mov    esi,0xffffffff
  401aaf:	eb 92                	jmp    401a43 <____w64_mingwthr_add_key_dtor+0x13>
  401ab1:	eb 0d                	jmp    401ac0 <____w64_mingwthr_remove_key_dtor>
  401ab3:	90                   	nop
  401ab4:	90                   	nop
  401ab5:	90                   	nop
  401ab6:	90                   	nop
  401ab7:	90                   	nop
  401ab8:	90                   	nop
  401ab9:	90                   	nop
  401aba:	90                   	nop
  401abb:	90                   	nop
  401abc:	90                   	nop
  401abd:	90                   	nop
  401abe:	90                   	nop
  401abf:	90                   	nop

00401ac0 <____w64_mingwthr_remove_key_dtor>:
  401ac0:	55                   	push   ebp
  401ac1:	89 e5                	mov    ebp,esp
  401ac3:	53                   	push   ebx
  401ac4:	83 ec 14             	sub    esp,0x14
  401ac7:	a1 40 d0 40 00       	mov    eax,ds:0x40d040
  401acc:	8b 5d 08             	mov    ebx,DWORD PTR [ebp+0x8]
  401acf:	85 c0                	test   eax,eax
  401ad1:	75 0d                	jne    401ae0 <____w64_mingwthr_remove_key_dtor+0x20>
  401ad3:	31 c0                	xor    eax,eax
  401ad5:	8b 5d fc             	mov    ebx,DWORD PTR [ebp-0x4]
  401ad8:	c9                   	leave  
  401ad9:	c3                   	ret    
  401ada:	8d b6 00 00 00 00    	lea    esi,[esi+0x0]
  401ae0:	c7 04 24 44 d0 40 00 	mov    DWORD PTR [esp],0x40d044
  401ae7:	e8 bc 65 00 00       	call   4080a8 <_EnterCriticalSection@4>
  401aec:	8b 15 3c d0 40 00    	mov    edx,DWORD PTR ds:0x40d03c
  401af2:	83 ec 04             	sub    esp,0x4
  401af5:	85 d2                	test   edx,edx
  401af7:	74 17                	je     401b10 <____w64_mingwthr_remove_key_dtor+0x50>
  401af9:	8b 02                	mov    eax,DWORD PTR [edx]
  401afb:	39 d8                	cmp    eax,ebx
  401afd:	75 0a                	jne    401b09 <____w64_mingwthr_remove_key_dtor+0x49>
  401aff:	eb 44                	jmp    401b45 <____w64_mingwthr_remove_key_dtor+0x85>
  401b01:	8b 08                	mov    ecx,DWORD PTR [eax]
  401b03:	39 d9                	cmp    ecx,ebx
  401b05:	74 1f                	je     401b26 <____w64_mingwthr_remove_key_dtor+0x66>
  401b07:	89 c2                	mov    edx,eax
  401b09:	8b 42 08             	mov    eax,DWORD PTR [edx+0x8]
  401b0c:	85 c0                	test   eax,eax
  401b0e:	75 f1                	jne    401b01 <____w64_mingwthr_remove_key_dtor+0x41>
  401b10:	c7 04 24 44 d0 40 00 	mov    DWORD PTR [esp],0x40d044
  401b17:	e8 2c 65 00 00       	call   408048 <_LeaveCriticalSection@4>
  401b1c:	83 ec 04             	sub    esp,0x4
  401b1f:	31 c0                	xor    eax,eax
  401b21:	8b 5d fc             	mov    ebx,DWORD PTR [ebp-0x4]
  401b24:	c9                   	leave  
  401b25:	c3                   	ret    
  401b26:	8b 48 08             	mov    ecx,DWORD PTR [eax+0x8]
  401b29:	89 4a 08             	mov    DWORD PTR [edx+0x8],ecx
  401b2c:	89 04 24             	mov    DWORD PTR [esp],eax
  401b2f:	e8 7c 64 00 00       	call   407fb0 <_free>
  401b34:	c7 04 24 44 d0 40 00 	mov    DWORD PTR [esp],0x40d044
  401b3b:	e8 08 65 00 00       	call   408048 <_LeaveCriticalSection@4>
  401b40:	83 ec 04             	sub    esp,0x4
  401b43:	eb da                	jmp    401b1f <____w64_mingwthr_remove_key_dtor+0x5f>
  401b45:	8b 42 08             	mov    eax,DWORD PTR [edx+0x8]
  401b48:	a3 3c d0 40 00       	mov    ds:0x40d03c,eax
  401b4d:	89 d0                	mov    eax,edx
  401b4f:	eb db                	jmp    401b2c <____w64_mingwthr_remove_key_dtor+0x6c>
  401b51:	eb 0d                	jmp    401b60 <___mingw_TLScallback>
  401b53:	90                   	nop
  401b54:	90                   	nop
  401b55:	90                   	nop
  401b56:	90                   	nop
  401b57:	90                   	nop
  401b58:	90                   	nop
  401b59:	90                   	nop
  401b5a:	90                   	nop
  401b5b:	90                   	nop
  401b5c:	90                   	nop
  401b5d:	90                   	nop
  401b5e:	90                   	nop
  401b5f:	90                   	nop

00401b60 <___mingw_TLScallback>:
  401b60:	55                   	push   ebp
  401b61:	89 e5                	mov    ebp,esp
  401b63:	83 ec 18             	sub    esp,0x18
  401b66:	8b 45 0c             	mov    eax,DWORD PTR [ebp+0xc]
  401b69:	83 f8 01             	cmp    eax,0x1
  401b6c:	74 45                	je     401bb3 <___mingw_TLScallback+0x53>
  401b6e:	72 15                	jb     401b85 <___mingw_TLScallback+0x25>
  401b70:	83 f8 03             	cmp    eax,0x3
  401b73:	75 09                	jne    401b7e <___mingw_TLScallback+0x1e>
  401b75:	a1 40 d0 40 00       	mov    eax,ds:0x40d040
  401b7a:	85 c0                	test   eax,eax
  401b7c:	75 63                	jne    401be1 <___mingw_TLScallback+0x81>
  401b7e:	b8 01 00 00 00       	mov    eax,0x1
  401b83:	c9                   	leave  
  401b84:	c3                   	ret    
  401b85:	a1 40 d0 40 00       	mov    eax,ds:0x40d040
  401b8a:	85 c0                	test   eax,eax
  401b8c:	75 5a                	jne    401be8 <___mingw_TLScallback+0x88>
  401b8e:	a1 40 d0 40 00       	mov    eax,ds:0x40d040
  401b93:	83 f8 01             	cmp    eax,0x1
  401b96:	75 e6                	jne    401b7e <___mingw_TLScallback+0x1e>
  401b98:	c7 04 24 44 d0 40 00 	mov    DWORD PTR [esp],0x40d044
  401b9f:	c7 05 40 d0 40 00 00 	mov    DWORD PTR ds:0x40d040,0x0
  401ba6:	00 00 00 
  401ba9:	e8 02 65 00 00       	call   4080b0 <_DeleteCriticalSection@4>
  401bae:	83 ec 04             	sub    esp,0x4
  401bb1:	eb cb                	jmp    401b7e <___mingw_TLScallback+0x1e>
  401bb3:	a1 40 d0 40 00       	mov    eax,ds:0x40d040
  401bb8:	85 c0                	test   eax,eax
  401bba:	74 14                	je     401bd0 <___mingw_TLScallback+0x70>
  401bbc:	c7 05 40 d0 40 00 01 	mov    DWORD PTR ds:0x40d040,0x1
  401bc3:	00 00 00 
  401bc6:	b8 01 00 00 00       	mov    eax,0x1
  401bcb:	c9                   	leave  
  401bcc:	c3                   	ret    
  401bcd:	8d 76 00             	lea    esi,[esi+0x0]
  401bd0:	c7 04 24 44 d0 40 00 	mov    DWORD PTR [esp],0x40d044
  401bd7:	e8 84 64 00 00       	call   408060 <_InitializeCriticalSection@4>
  401bdc:	83 ec 04             	sub    esp,0x4
  401bdf:	eb db                	jmp    401bbc <___mingw_TLScallback+0x5c>
  401be1:	e8 da fd ff ff       	call   4019c0 <___mingwthr_run_key_dtors.part.0>
  401be6:	eb 96                	jmp    401b7e <___mingw_TLScallback+0x1e>
  401be8:	90                   	nop
  401be9:	8d b4 26 00 00 00 00 	lea    esi,[esi+eiz*1+0x0]
  401bf0:	e8 cb fd ff ff       	call   4019c0 <___mingwthr_run_key_dtors.part.0>
  401bf5:	eb 97                	jmp    401b8e <___mingw_TLScallback+0x2e>
  401bf7:	90                   	nop
  401bf8:	90                   	nop
  401bf9:	90                   	nop
  401bfa:	90                   	nop
  401bfb:	90                   	nop
  401bfc:	90                   	nop
  401bfd:	90                   	nop
  401bfe:	90                   	nop
  401bff:	90                   	nop

00401c00 <___report_error>:
  401c00:	56                   	push   esi
  401c01:	53                   	push   ebx
  401c02:	83 ec 14             	sub    esp,0x14
  401c05:	a1 c8 e1 40 00       	mov    eax,ds:0x40e1c8
  401c0a:	c7 44 24 08 17 00 00 	mov    DWORD PTR [esp+0x8],0x17
  401c11:	00 
  401c12:	8d 74 24 24          	lea    esi,[esp+0x24]
  401c16:	c7 44 24 04 01 00 00 	mov    DWORD PTR [esp+0x4],0x1
  401c1d:	00 
  401c1e:	c7 04 24 68 a0 40 00 	mov    DWORD PTR [esp],0x40a068
  401c25:	8d 58 40             	lea    ebx,[eax+0x40]
  401c28:	89 5c 24 0c          	mov    DWORD PTR [esp+0xc],ebx
  401c2c:	e8 77 63 00 00       	call   407fa8 <_fwrite>
  401c31:	8b 44 24 20          	mov    eax,DWORD PTR [esp+0x20]
  401c35:	89 74 24 08          	mov    DWORD PTR [esp+0x8],esi
  401c39:	89 1c 24             	mov    DWORD PTR [esp],ebx
  401c3c:	89 44 24 04          	mov    DWORD PTR [esp+0x4],eax
  401c40:	e8 eb 62 00 00       	call   407f30 <_vfprintf>
  401c45:	e8 86 63 00 00       	call   407fd0 <_abort>
  401c4a:	8d b6 00 00 00 00    	lea    esi,[esi+0x0]

00401c50 <___write_memory.part.0>:
  401c50:	55                   	push   ebp
  401c51:	89 e5                	mov    ebp,esp
  401c53:	57                   	push   edi
  401c54:	89 cf                	mov    edi,ecx
  401c56:	56                   	push   esi
  401c57:	89 d6                	mov    esi,edx
  401c59:	53                   	push   ebx
  401c5a:	89 c3                	mov    ebx,eax
  401c5c:	83 ec 4c             	sub    esp,0x4c
  401c5f:	8d 45 cc             	lea    eax,[ebp-0x34]
  401c62:	c7 44 24 08 1c 00 00 	mov    DWORD PTR [esp+0x8],0x1c
  401c69:	00 
  401c6a:	89 44 24 04          	mov    DWORD PTR [esp+0x4],eax
  401c6e:	89 1c 24             	mov    DWORD PTR [esp],ebx
  401c71:	e8 a2 63 00 00       	call   408018 <_VirtualQuery@12>
  401c76:	83 ec 0c             	sub    esp,0xc
  401c79:	85 c0                	test   eax,eax
  401c7b:	0f 84 9a 00 00 00    	je     401d1b <___write_memory.part.0+0xcb>
  401c81:	8b 45 e0             	mov    eax,DWORD PTR [ebp-0x20]
  401c84:	83 f8 04             	cmp    eax,0x4
  401c87:	75 18                	jne    401ca1 <___write_memory.part.0+0x51>
  401c89:	89 7c 24 08          	mov    DWORD PTR [esp+0x8],edi
  401c8d:	89 74 24 04          	mov    DWORD PTR [esp+0x4],esi
  401c91:	89 1c 24             	mov    DWORD PTR [esp],ebx
  401c94:	e8 df 62 00 00       	call   407f78 <_memcpy>
  401c99:	8d 65 f4             	lea    esp,[ebp-0xc]
  401c9c:	5b                   	pop    ebx
  401c9d:	5e                   	pop    esi
  401c9e:	5f                   	pop    edi
  401c9f:	5d                   	pop    ebp
  401ca0:	c3                   	ret    
  401ca1:	83 f8 40             	cmp    eax,0x40
  401ca4:	74 e3                	je     401c89 <___write_memory.part.0+0x39>
  401ca6:	8b 45 d8             	mov    eax,DWORD PTR [ebp-0x28]
  401ca9:	8d 55 c8             	lea    edx,[ebp-0x38]
  401cac:	89 54 24 0c          	mov    DWORD PTR [esp+0xc],edx
  401cb0:	c7 44 24 08 40 00 00 	mov    DWORD PTR [esp+0x8],0x40
  401cb7:	00 
  401cb8:	89 55 c4             	mov    DWORD PTR [ebp-0x3c],edx
  401cbb:	89 44 24 04          	mov    DWORD PTR [esp+0x4],eax
  401cbf:	8b 45 cc             	mov    eax,DWORD PTR [ebp-0x34]
  401cc2:	89 04 24             	mov    DWORD PTR [esp],eax
  401cc5:	e8 56 63 00 00       	call   408020 <_VirtualProtect@16>
  401cca:	8b 4d e0             	mov    ecx,DWORD PTR [ebp-0x20]
  401ccd:	89 4d c0             	mov    DWORD PTR [ebp-0x40],ecx
  401cd0:	83 ec 10             	sub    esp,0x10
  401cd3:	89 7c 24 08          	mov    DWORD PTR [esp+0x8],edi
  401cd7:	89 74 24 04          	mov    DWORD PTR [esp+0x4],esi
  401cdb:	89 1c 24             	mov    DWORD PTR [esp],ebx
  401cde:	e8 95 62 00 00       	call   407f78 <_memcpy>
  401ce3:	8b 4d c0             	mov    ecx,DWORD PTR [ebp-0x40]
  401ce6:	83 f9 04             	cmp    ecx,0x4
  401ce9:	74 ae                	je     401c99 <___write_memory.part.0+0x49>
  401ceb:	83 f9 40             	cmp    ecx,0x40
  401cee:	74 a9                	je     401c99 <___write_memory.part.0+0x49>
  401cf0:	8b 45 c8             	mov    eax,DWORD PTR [ebp-0x38]
  401cf3:	8b 55 c4             	mov    edx,DWORD PTR [ebp-0x3c]
  401cf6:	89 44 24 08          	mov    DWORD PTR [esp+0x8],eax
  401cfa:	8b 45 d8             	mov    eax,DWORD PTR [ebp-0x28]
  401cfd:	89 54 24 0c          	mov    DWORD PTR [esp+0xc],edx
  401d01:	89 44 24 04          	mov    DWORD PTR [esp+0x4],eax
  401d05:	8b 45 cc             	mov    eax,DWORD PTR [ebp-0x34]
  401d08:	89 04 24             	mov    DWORD PTR [esp],eax
  401d0b:	e8 10 63 00 00       	call   408020 <_VirtualProtect@16>
  401d10:	83 ec 10             	sub    esp,0x10
  401d13:	8d 65 f4             	lea    esp,[ebp-0xc]
  401d16:	5b                   	pop    ebx
  401d17:	5e                   	pop    esi
  401d18:	5f                   	pop    edi
  401d19:	5d                   	pop    ebp
  401d1a:	c3                   	ret    
  401d1b:	89 5c 24 08          	mov    DWORD PTR [esp+0x8],ebx
  401d1f:	c7 44 24 04 1c 00 00 	mov    DWORD PTR [esp+0x4],0x1c
  401d26:	00 
  401d27:	c7 04 24 80 a0 40 00 	mov    DWORD PTR [esp],0x40a080
  401d2e:	e8 cd fe ff ff       	call   401c00 <___report_error>
  401d33:	8d b6 00 00 00 00    	lea    esi,[esi+0x0]
  401d39:	8d bc 27 00 00 00 00 	lea    edi,[edi+eiz*1+0x0]

00401d40 <__pei386_runtime_relocator>:
  401d40:	a1 5c d0 40 00       	mov    eax,ds:0x40d05c
  401d45:	85 c0                	test   eax,eax
  401d47:	74 07                	je     401d50 <__pei386_runtime_relocator+0x10>
  401d49:	c3                   	ret    
  401d4a:	8d b6 00 00 00 00    	lea    esi,[esi+0x0]
  401d50:	b8 20 a7 40 00       	mov    eax,0x40a720
  401d55:	2d 20 a7 40 00       	sub    eax,0x40a720
  401d5a:	83 f8 07             	cmp    eax,0x7
  401d5d:	c7 05 5c d0 40 00 01 	mov    DWORD PTR ds:0x40d05c,0x1
  401d64:	00 00 00 
  401d67:	7e e0                	jle    401d49 <__pei386_runtime_relocator+0x9>
  401d69:	57                   	push   edi
  401d6a:	56                   	push   esi
  401d6b:	53                   	push   ebx
  401d6c:	83 ec 20             	sub    esp,0x20
  401d6f:	83 f8 0b             	cmp    eax,0xb
  401d72:	0f 8e de 00 00 00    	jle    401e56 <__pei386_runtime_relocator+0x116>
  401d78:	8b 35 20 a7 40 00    	mov    esi,DWORD PTR ds:0x40a720
  401d7e:	85 f6                	test   esi,esi
  401d80:	0f 85 8a 00 00 00    	jne    401e10 <__pei386_runtime_relocator+0xd0>
  401d86:	8b 1d 24 a7 40 00    	mov    ebx,DWORD PTR ds:0x40a724
  401d8c:	85 db                	test   ebx,ebx
  401d8e:	0f 85 7c 00 00 00    	jne    401e10 <__pei386_runtime_relocator+0xd0>
  401d94:	8b 0d 28 a7 40 00    	mov    ecx,DWORD PTR ds:0x40a728
  401d9a:	bb 2c a7 40 00       	mov    ebx,0x40a72c
  401d9f:	85 c9                	test   ecx,ecx
  401da1:	0f 84 b4 00 00 00    	je     401e5b <__pei386_runtime_relocator+0x11b>
  401da7:	bb 20 a7 40 00       	mov    ebx,0x40a720
  401dac:	8b 43 08             	mov    eax,DWORD PTR [ebx+0x8]
  401daf:	83 f8 01             	cmp    eax,0x1
  401db2:	0f 85 49 01 00 00    	jne    401f01 <__pei386_runtime_relocator+0x1c1>
  401db8:	83 c3 0c             	add    ebx,0xc
  401dbb:	81 fb 20 a7 40 00    	cmp    ebx,0x40a720
  401dc1:	0f 83 88 00 00 00    	jae    401e4f <__pei386_runtime_relocator+0x10f>
  401dc7:	0f b6 53 08          	movzx  edx,BYTE PTR [ebx+0x8]
  401dcb:	8b 73 04             	mov    esi,DWORD PTR [ebx+0x4]
  401dce:	8b 0b                	mov    ecx,DWORD PTR [ebx]
  401dd0:	83 fa 10             	cmp    edx,0x10
  401dd3:	8d 86 00 00 40 00    	lea    eax,[esi+0x400000]
  401dd9:	8b b9 00 00 40 00    	mov    edi,DWORD PTR [ecx+0x400000]
  401ddf:	0f 84 8b 00 00 00    	je     401e70 <__pei386_runtime_relocator+0x130>
  401de5:	83 fa 20             	cmp    edx,0x20
  401de8:	0f 84 f2 00 00 00    	je     401ee0 <__pei386_runtime_relocator+0x1a0>
  401dee:	83 fa 08             	cmp    edx,0x8
  401df1:	0f 84 af 00 00 00    	je     401ea6 <__pei386_runtime_relocator+0x166>
  401df7:	89 54 24 04          	mov    DWORD PTR [esp+0x4],edx
  401dfb:	c7 04 24 e8 a0 40 00 	mov    DWORD PTR [esp],0x40a0e8
  401e02:	c7 44 24 1c 00 00 00 	mov    DWORD PTR [esp+0x1c],0x0
  401e09:	00 
  401e0a:	e8 f1 fd ff ff       	call   401c00 <___report_error>
  401e0f:	90                   	nop
  401e10:	bb 20 a7 40 00       	mov    ebx,0x40a720
  401e15:	81 fb 20 a7 40 00    	cmp    ebx,0x40a720
  401e1b:	73 32                	jae    401e4f <__pei386_runtime_relocator+0x10f>
  401e1d:	8d 76 00             	lea    esi,[esi+0x0]
  401e20:	8b 53 04             	mov    edx,DWORD PTR [ebx+0x4]
  401e23:	b9 04 00 00 00       	mov    ecx,0x4
  401e28:	83 c3 08             	add    ebx,0x8
  401e2b:	8d 82 00 00 40 00    	lea    eax,[edx+0x400000]
  401e31:	8b 92 00 00 40 00    	mov    edx,DWORD PTR [edx+0x400000]
  401e37:	03 53 f8             	add    edx,DWORD PTR [ebx-0x8]
  401e3a:	89 54 24 1c          	mov    DWORD PTR [esp+0x1c],edx
  401e3e:	8d 54 24 1c          	lea    edx,[esp+0x1c]
  401e42:	e8 09 fe ff ff       	call   401c50 <___write_memory.part.0>
  401e47:	81 fb 20 a7 40 00    	cmp    ebx,0x40a720
  401e4d:	72 d1                	jb     401e20 <__pei386_runtime_relocator+0xe0>
  401e4f:	83 c4 20             	add    esp,0x20
  401e52:	5b                   	pop    ebx
  401e53:	5e                   	pop    esi
  401e54:	5f                   	pop    edi
  401e55:	c3                   	ret    
  401e56:	bb 20 a7 40 00       	mov    ebx,0x40a720
  401e5b:	8b 13                	mov    edx,DWORD PTR [ebx]
  401e5d:	85 d2                	test   edx,edx
  401e5f:	75 b4                	jne    401e15 <__pei386_runtime_relocator+0xd5>
  401e61:	8b 43 04             	mov    eax,DWORD PTR [ebx+0x4]
  401e64:	85 c0                	test   eax,eax
  401e66:	0f 84 40 ff ff ff    	je     401dac <__pei386_runtime_relocator+0x6c>
  401e6c:	eb a7                	jmp    401e15 <__pei386_runtime_relocator+0xd5>
  401e6e:	66 90                	xchg   ax,ax
  401e70:	0f b7 b6 00 00 40 00 	movzx  esi,WORD PTR [esi+0x400000]
  401e77:	66 85 f6             	test   si,si
  401e7a:	0f b7 d6             	movzx  edx,si
  401e7d:	79 06                	jns    401e85 <__pei386_runtime_relocator+0x145>
  401e7f:	81 ca 00 00 ff ff    	or     edx,0xffff0000
  401e85:	29 ca                	sub    edx,ecx
  401e87:	b9 02 00 00 00       	mov    ecx,0x2
  401e8c:	81 ea 00 00 40 00    	sub    edx,0x400000
  401e92:	01 fa                	add    edx,edi
  401e94:	89 54 24 1c          	mov    DWORD PTR [esp+0x1c],edx
  401e98:	8d 54 24 1c          	lea    edx,[esp+0x1c]
  401e9c:	e8 af fd ff ff       	call   401c50 <___write_memory.part.0>
  401ea1:	e9 12 ff ff ff       	jmp    401db8 <__pei386_runtime_relocator+0x78>
  401ea6:	0f b6 10             	movzx  edx,BYTE PTR [eax]
  401ea9:	84 d2                	test   dl,dl
  401eab:	0f b6 f2             	movzx  esi,dl
  401eae:	79 06                	jns    401eb6 <__pei386_runtime_relocator+0x176>
  401eb0:	81 ce 00 ff ff ff    	or     esi,0xffffff00
  401eb6:	81 ee 00 00 40 00    	sub    esi,0x400000
  401ebc:	89 f2                	mov    edx,esi
  401ebe:	29 ca                	sub    edx,ecx
  401ec0:	b9 01 00 00 00       	mov    ecx,0x1
  401ec5:	01 fa                	add    edx,edi
  401ec7:	89 54 24 1c          	mov    DWORD PTR [esp+0x1c],edx
  401ecb:	8d 54 24 1c          	lea    edx,[esp+0x1c]
  401ecf:	e8 7c fd ff ff       	call   401c50 <___write_memory.part.0>
  401ed4:	e9 df fe ff ff       	jmp    401db8 <__pei386_runtime_relocator+0x78>
  401ed9:	8d b4 26 00 00 00 00 	lea    esi,[esi+eiz*1+0x0]
  401ee0:	81 c1 00 00 40 00    	add    ecx,0x400000
  401ee6:	29 cf                	sub    edi,ecx
  401ee8:	b9 04 00 00 00       	mov    ecx,0x4
  401eed:	03 38                	add    edi,DWORD PTR [eax]
  401eef:	8d 54 24 1c          	lea    edx,[esp+0x1c]
  401ef3:	89 7c 24 1c          	mov    DWORD PTR [esp+0x1c],edi
  401ef7:	e8 54 fd ff ff       	call   401c50 <___write_memory.part.0>
  401efc:	e9 b7 fe ff ff       	jmp    401db8 <__pei386_runtime_relocator+0x78>
  401f01:	89 44 24 04          	mov    DWORD PTR [esp+0x4],eax
  401f05:	c7 04 24 b4 a0 40 00 	mov    DWORD PTR [esp],0x40a0b4
  401f0c:	e8 ef fc ff ff       	call   401c00 <___report_error>
  401f11:	90                   	nop
  401f12:	90                   	nop
  401f13:	90                   	nop
  401f14:	90                   	nop
  401f15:	90                   	nop
  401f16:	90                   	nop
  401f17:	90                   	nop
  401f18:	90                   	nop
  401f19:	90                   	nop
  401f1a:	90                   	nop
  401f1b:	90                   	nop
  401f1c:	90                   	nop
  401f1d:	90                   	nop
  401f1e:	90                   	nop
  401f1f:	90                   	nop

00401f20 <___chkstk_ms>:
  401f20:	51                   	push   ecx
  401f21:	50                   	push   eax
  401f22:	3d 00 10 00 00       	cmp    eax,0x1000
  401f27:	8d 4c 24 0c          	lea    ecx,[esp+0xc]
  401f2b:	72 15                	jb     401f42 <___chkstk_ms+0x22>
  401f2d:	81 e9 00 10 00 00    	sub    ecx,0x1000
  401f33:	83 09 00             	or     DWORD PTR [ecx],0x0
  401f36:	2d 00 10 00 00       	sub    eax,0x1000
  401f3b:	3d 00 10 00 00       	cmp    eax,0x1000
  401f40:	77 eb                	ja     401f2d <___chkstk_ms+0xd>
  401f42:	29 c1                	sub    ecx,eax
  401f44:	83 09 00             	or     DWORD PTR [ecx],0x0
  401f47:	58                   	pop    eax
  401f48:	59                   	pop    ecx
  401f49:	c3                   	ret    
  401f4a:	90                   	nop
  401f4b:	90                   	nop

00401f4c <.text>:
  401f4c:	66 90                	xchg   ax,ax
  401f4e:	66 90                	xchg   ax,ax

00401f50 <_is_glob_pattern>:
  401f50:	57                   	push   edi
  401f51:	85 c0                	test   eax,eax
  401f53:	56                   	push   esi
  401f54:	53                   	push   ebx
  401f55:	89 c3                	mov    ebx,eax
  401f57:	74 44                	je     401f9d <_is_glob_pattern+0x4d>
  401f59:	0f be 0b             	movsx  ecx,BYTE PTR [ebx]
  401f5c:	89 d6                	mov    esi,edx
  401f5e:	31 c0                	xor    eax,eax
  401f60:	83 e6 20             	and    esi,0x20
  401f63:	8d 53 01             	lea    edx,[ebx+0x1]
  401f66:	85 c9                	test   ecx,ecx
  401f68:	74 33                	je     401f9d <_is_glob_pattern+0x4d>
  401f6a:	8d b6 00 00 00 00    	lea    esi,[esi+0x0]
  401f70:	85 f6                	test   esi,esi
  401f72:	89 f7                	mov    edi,esi
  401f74:	75 05                	jne    401f7b <_is_glob_pattern+0x2b>
  401f76:	83 f9 7f             	cmp    ecx,0x7f
  401f79:	74 45                	je     401fc0 <_is_glob_pattern+0x70>
  401f7b:	85 c0                	test   eax,eax
  401f7d:	75 26                	jne    401fa5 <_is_glob_pattern+0x55>
  401f7f:	83 f9 3f             	cmp    ecx,0x3f
  401f82:	74 51                	je     401fd5 <_is_glob_pattern+0x85>
  401f84:	83 f9 2a             	cmp    ecx,0x2a
  401f87:	74 4c                	je     401fd5 <_is_glob_pattern+0x85>
  401f89:	31 c0                	xor    eax,eax
  401f8b:	83 f9 5b             	cmp    ecx,0x5b
  401f8e:	0f 94 c0             	sete   al
  401f91:	89 d3                	mov    ebx,edx
  401f93:	0f be 0b             	movsx  ecx,BYTE PTR [ebx]
  401f96:	8d 53 01             	lea    edx,[ebx+0x1]
  401f99:	85 c9                	test   ecx,ecx
  401f9b:	75 d3                	jne    401f70 <_is_glob_pattern+0x20>
  401f9d:	31 ff                	xor    edi,edi
  401f9f:	89 f8                	mov    eax,edi
  401fa1:	5b                   	pop    ebx
  401fa2:	5e                   	pop    esi
  401fa3:	5f                   	pop    edi
  401fa4:	c3                   	ret    
  401fa5:	83 f9 5d             	cmp    ecx,0x5d
  401fa8:	74 26                	je     401fd0 <_is_glob_pattern+0x80>
  401faa:	83 f9 21             	cmp    ecx,0x21
  401fad:	89 d3                	mov    ebx,edx
  401faf:	0f 95 c1             	setne  cl
  401fb2:	0f b6 c9             	movzx  ecx,cl
  401fb5:	01 c8                	add    eax,ecx
  401fb7:	eb da                	jmp    401f93 <_is_glob_pattern+0x43>
  401fb9:	8d b4 26 00 00 00 00 	lea    esi,[esi+eiz*1+0x0]
  401fc0:	80 7b 01 00          	cmp    BYTE PTR [ebx+0x1],0x0
  401fc4:	8d 53 02             	lea    edx,[ebx+0x2]
  401fc7:	75 b2                	jne    401f7b <_is_glob_pattern+0x2b>
  401fc9:	eb d4                	jmp    401f9f <_is_glob_pattern+0x4f>
  401fcb:	90                   	nop
  401fcc:	8d 74 26 00          	lea    esi,[esi+eiz*1+0x0]
  401fd0:	83 f8 01             	cmp    eax,0x1
  401fd3:	7e d5                	jle    401faa <_is_glob_pattern+0x5a>
  401fd5:	bf 01 00 00 00       	mov    edi,0x1
  401fda:	89 f8                	mov    eax,edi
  401fdc:	5b                   	pop    ebx
  401fdd:	5e                   	pop    esi
  401fde:	5f                   	pop    edi
  401fdf:	c3                   	ret    

00401fe0 <_glob_in_set>:
  401fe0:	55                   	push   ebp
  401fe1:	57                   	push   edi
  401fe2:	56                   	push   esi
  401fe3:	53                   	push   ebx
  401fe4:	83 ec 04             	sub    esp,0x4
  401fe7:	0f b6 18             	movzx  ebx,BYTE PTR [eax]
  401fea:	89 0c 24             	mov    DWORD PTR [esp],ecx
  401fed:	0f be fb             	movsx  edi,bl
  401ff0:	83 ff 5d             	cmp    edi,0x5d
  401ff3:	0f 84 d7 00 00 00    	je     4020d0 <_glob_in_set+0xf0>
  401ff9:	83 ff 2d             	cmp    edi,0x2d
  401ffc:	89 d9                	mov    ecx,ebx
  401ffe:	75 2e                	jne    40202e <_glob_in_set+0x4e>
  402000:	e9 cb 00 00 00       	jmp    4020d0 <_glob_in_set+0xf0>
  402005:	85 db                	test   ebx,ebx
  402007:	0f 84 b3 00 00 00    	je     4020c0 <_glob_in_set+0xe0>
  40200d:	83 fb 5c             	cmp    ebx,0x5c
  402010:	0f 84 aa 00 00 00    	je     4020c0 <_glob_in_set+0xe0>
  402016:	83 fb 2f             	cmp    ebx,0x2f
  402019:	0f 84 a1 00 00 00    	je     4020c0 <_glob_in_set+0xe0>
  40201f:	89 df                	mov    edi,ebx
  402021:	0f b6 0e             	movzx  ecx,BYTE PTR [esi]
  402024:	89 f0                	mov    eax,esi
  402026:	39 d7                	cmp    edi,edx
  402028:	0f 84 ca 00 00 00    	je     4020f8 <_glob_in_set+0x118>
  40202e:	0f be d9             	movsx  ebx,cl
  402031:	83 fb 5d             	cmp    ebx,0x5d
  402034:	8d 70 01             	lea    esi,[eax+0x1]
  402037:	0f 84 83 00 00 00    	je     4020c0 <_glob_in_set+0xe0>
  40203d:	83 fb 2d             	cmp    ebx,0x2d
  402040:	75 c3                	jne    402005 <_glob_in_set+0x25>
  402042:	0f b6 58 01          	movzx  ebx,BYTE PTR [eax+0x1]
  402046:	80 fb 5d             	cmp    bl,0x5d
  402049:	0f 84 95 00 00 00    	je     4020e4 <_glob_in_set+0x104>
  40204f:	0f be eb             	movsx  ebp,bl
  402052:	85 ed                	test   ebp,ebp
  402054:	89 eb                	mov    ebx,ebp
  402056:	74 68                	je     4020c0 <_glob_in_set+0xe0>
  402058:	39 ef                	cmp    edi,ebp
  40205a:	8d 70 02             	lea    esi,[eax+0x2]
  40205d:	0f 8d 85 01 00 00    	jge    4021e8 <_glob_in_set+0x208>
  402063:	39 d7                	cmp    edi,edx
  402065:	8d 47 01             	lea    eax,[edi+0x1]
  402068:	75 14                	jne    40207e <_glob_in_set+0x9e>
  40206a:	e9 c1 00 00 00       	jmp    402130 <_glob_in_set+0x150>
  40206f:	90                   	nop
  402070:	83 c0 01             	add    eax,0x1
  402073:	8d 78 ff             	lea    edi,[eax-0x1]
  402076:	39 fa                	cmp    edx,edi
  402078:	0f 84 b2 00 00 00    	je     402130 <_glob_in_set+0x150>
  40207e:	39 c5                	cmp    ebp,eax
  402080:	7f ee                	jg     402070 <_glob_in_set+0x90>
  402082:	39 c5                	cmp    ebp,eax
  402084:	7d 87                	jge    40200d <_glob_in_set+0x2d>
  402086:	39 c2                	cmp    edx,eax
  402088:	74 15                	je     40209f <_glob_in_set+0xbf>
  40208a:	83 c5 01             	add    ebp,0x1
  40208d:	8d 76 00             	lea    esi,[esi+0x0]
  402090:	39 e8                	cmp    eax,ebp
  402092:	0f 84 75 ff ff ff    	je     40200d <_glob_in_set+0x2d>
  402098:	83 e8 01             	sub    eax,0x1
  40209b:	39 c2                	cmp    edx,eax
  40209d:	75 f1                	jne    402090 <_glob_in_set+0xb0>
  40209f:	8b 0c 24             	mov    ecx,DWORD PTR [esp]
  4020a2:	83 e1 20             	and    ecx,0x20
  4020a5:	0f b6 06             	movzx  eax,BYTE PTR [esi]
  4020a8:	3c 5d                	cmp    al,0x5d
  4020aa:	0f 84 a3 00 00 00    	je     402153 <_glob_in_set+0x173>
  4020b0:	3c 7f                	cmp    al,0x7f
  4020b2:	0f 84 bd 00 00 00    	je     402175 <_glob_in_set+0x195>
  4020b8:	83 c6 01             	add    esi,0x1
  4020bb:	84 c0                	test   al,al
  4020bd:	75 e6                	jne    4020a5 <_glob_in_set+0xc5>
  4020bf:	90                   	nop
  4020c0:	83 c4 04             	add    esp,0x4
  4020c3:	31 c0                	xor    eax,eax
  4020c5:	5b                   	pop    ebx
  4020c6:	5e                   	pop    esi
  4020c7:	5f                   	pop    edi
  4020c8:	5d                   	pop    ebp
  4020c9:	c3                   	ret    
  4020ca:	8d b6 00 00 00 00    	lea    esi,[esi+0x0]
  4020d0:	39 d7                	cmp    edi,edx
  4020d2:	0f 84 b8 00 00 00    	je     402190 <_glob_in_set+0x1b0>
  4020d8:	0f b6 48 01          	movzx  ecx,BYTE PTR [eax+0x1]
  4020dc:	83 c0 01             	add    eax,0x1
  4020df:	e9 4a ff ff ff       	jmp    40202e <_glob_in_set+0x4e>
  4020e4:	bf 2d 00 00 00       	mov    edi,0x2d
  4020e9:	89 f0                	mov    eax,esi
  4020eb:	39 d7                	cmp    edi,edx
  4020ed:	b9 5d 00 00 00       	mov    ecx,0x5d
  4020f2:	0f 85 36 ff ff ff    	jne    40202e <_glob_in_set+0x4e>
  4020f8:	8b 14 24             	mov    edx,DWORD PTR [esp]
  4020fb:	83 e2 20             	and    edx,0x20
  4020fe:	eb 0a                	jmp    40210a <_glob_in_set+0x12a>
  402100:	83 c0 01             	add    eax,0x1
  402103:	84 c9                	test   cl,cl
  402105:	74 b9                	je     4020c0 <_glob_in_set+0xe0>
  402107:	0f b6 08             	movzx  ecx,BYTE PTR [eax]
  40210a:	80 f9 5d             	cmp    cl,0x5d
  40210d:	0f 84 c2 00 00 00    	je     4021d5 <_glob_in_set+0x1f5>
  402113:	80 f9 7f             	cmp    cl,0x7f
  402116:	75 e8                	jne    402100 <_glob_in_set+0x120>
  402118:	85 d2                	test   edx,edx
  40211a:	0f 85 c0 00 00 00    	jne    4021e0 <_glob_in_set+0x200>
  402120:	0f b6 48 01          	movzx  ecx,BYTE PTR [eax+0x1]
  402124:	83 c0 01             	add    eax,0x1
  402127:	eb d7                	jmp    402100 <_glob_in_set+0x120>
  402129:	8d b4 26 00 00 00 00 	lea    esi,[esi+eiz*1+0x0]
  402130:	8b 0c 24             	mov    ecx,DWORD PTR [esp]
  402133:	83 e1 20             	and    ecx,0x20
  402136:	0f b6 06             	movzx  eax,BYTE PTR [esi]
  402139:	3c 5d                	cmp    al,0x5d
  40213b:	74 16                	je     402153 <_glob_in_set+0x173>
  40213d:	3c 7f                	cmp    al,0x7f
  40213f:	74 1f                	je     402160 <_glob_in_set+0x180>
  402141:	83 c6 01             	add    esi,0x1
  402144:	84 c0                	test   al,al
  402146:	0f 84 74 ff ff ff    	je     4020c0 <_glob_in_set+0xe0>
  40214c:	0f b6 06             	movzx  eax,BYTE PTR [esi]
  40214f:	3c 5d                	cmp    al,0x5d
  402151:	75 ea                	jne    40213d <_glob_in_set+0x15d>
  402153:	83 c4 04             	add    esp,0x4
  402156:	5b                   	pop    ebx
  402157:	8d 46 01             	lea    eax,[esi+0x1]
  40215a:	5e                   	pop    esi
  40215b:	5f                   	pop    edi
  40215c:	5d                   	pop    ebp
  40215d:	c3                   	ret    
  40215e:	66 90                	xchg   ax,ax
  402160:	85 c9                	test   ecx,ecx
  402162:	75 0c                	jne    402170 <_glob_in_set+0x190>
  402164:	0f b6 46 01          	movzx  eax,BYTE PTR [esi+0x1]
  402168:	83 c6 01             	add    esi,0x1
  40216b:	eb d4                	jmp    402141 <_glob_in_set+0x161>
  40216d:	8d 76 00             	lea    esi,[esi+0x0]
  402170:	83 c6 01             	add    esi,0x1
  402173:	eb c1                	jmp    402136 <_glob_in_set+0x156>
  402175:	85 c9                	test   ecx,ecx
  402177:	75 0c                	jne    402185 <_glob_in_set+0x1a5>
  402179:	0f b6 46 01          	movzx  eax,BYTE PTR [esi+0x1]
  40217d:	83 c6 01             	add    esi,0x1
  402180:	e9 33 ff ff ff       	jmp    4020b8 <_glob_in_set+0xd8>
  402185:	83 c6 01             	add    esi,0x1
  402188:	e9 18 ff ff ff       	jmp    4020a5 <_glob_in_set+0xc5>
  40218d:	8d 76 00             	lea    esi,[esi+0x0]
  402190:	8b 0c 24             	mov    ecx,DWORD PTR [esp]
  402193:	83 c0 01             	add    eax,0x1
  402196:	83 e1 20             	and    ecx,0x20
  402199:	8d b4 26 00 00 00 00 	lea    esi,[esi+eiz*1+0x0]
  4021a0:	0f b6 10             	movzx  edx,BYTE PTR [eax]
  4021a3:	80 fa 5d             	cmp    dl,0x5d
  4021a6:	74 2d                	je     4021d5 <_glob_in_set+0x1f5>
  4021a8:	80 fa 7f             	cmp    dl,0x7f
  4021ab:	74 13                	je     4021c0 <_glob_in_set+0x1e0>
  4021ad:	83 c0 01             	add    eax,0x1
  4021b0:	84 d2                	test   dl,dl
  4021b2:	75 ec                	jne    4021a0 <_glob_in_set+0x1c0>
  4021b4:	e9 07 ff ff ff       	jmp    4020c0 <_glob_in_set+0xe0>
  4021b9:	8d b4 26 00 00 00 00 	lea    esi,[esi+eiz*1+0x0]
  4021c0:	85 c9                	test   ecx,ecx
  4021c2:	75 0c                	jne    4021d0 <_glob_in_set+0x1f0>
  4021c4:	0f b6 50 01          	movzx  edx,BYTE PTR [eax+0x1]
  4021c8:	83 c0 01             	add    eax,0x1
  4021cb:	eb e0                	jmp    4021ad <_glob_in_set+0x1cd>
  4021cd:	8d 76 00             	lea    esi,[esi+0x0]
  4021d0:	83 c0 01             	add    eax,0x1
  4021d3:	eb cb                	jmp    4021a0 <_glob_in_set+0x1c0>
  4021d5:	83 c4 04             	add    esp,0x4
  4021d8:	83 c0 01             	add    eax,0x1
  4021db:	5b                   	pop    ebx
  4021dc:	5e                   	pop    esi
  4021dd:	5f                   	pop    edi
  4021de:	5d                   	pop    ebp
  4021df:	c3                   	ret    
  4021e0:	83 c0 01             	add    eax,0x1
  4021e3:	e9 1f ff ff ff       	jmp    402107 <_glob_in_set+0x127>
  4021e8:	89 f8                	mov    eax,edi
  4021ea:	e9 93 fe ff ff       	jmp    402082 <_glob_in_set+0xa2>
  4021ef:	90                   	nop

004021f0 <_glob_initialise>:
  4021f0:	55                   	push   ebp
  4021f1:	57                   	push   edi
  4021f2:	56                   	push   esi
  4021f3:	89 c6                	mov    esi,eax
  4021f5:	53                   	push   ebx
  4021f6:	83 ec 1c             	sub    esp,0x1c
  4021f9:	85 c0                	test   eax,eax
  4021fb:	74 47                	je     402244 <_glob_initialise+0x54>
  4021fd:	8b 40 0c             	mov    eax,DWORD PTR [eax+0xc]
  402200:	8d 78 01             	lea    edi,[eax+0x1]
  402203:	8d 2c bd 00 00 00 00 	lea    ebp,[edi*4+0x0]
  40220a:	89 2c 24             	mov    DWORD PTR [esp],ebp
  40220d:	e8 76 5d 00 00       	call   407f88 <_malloc>
  402212:	89 c3                	mov    ebx,eax
  402214:	85 db                	test   ebx,ebx
  402216:	89 46 08             	mov    DWORD PTR [esi+0x8],eax
  402219:	b8 03 00 00 00       	mov    eax,0x3
  40221e:	74 26                	je     402246 <_glob_initialise+0x56>
  402220:	85 ff                	test   edi,edi
  402222:	89 fa                	mov    edx,edi
  402224:	c7 46 04 00 00 00 00 	mov    DWORD PTR [esi+0x4],0x0
  40222b:	7e 17                	jle    402244 <_glob_initialise+0x54>
  40222d:	8d 4d fc             	lea    ecx,[ebp-0x4]
  402230:	eb 03                	jmp    402235 <_glob_initialise+0x45>
  402232:	8b 5e 08             	mov    ebx,DWORD PTR [esi+0x8]
  402235:	c7 04 0b 00 00 00 00 	mov    DWORD PTR [ebx+ecx*1],0x0
  40223c:	83 e9 04             	sub    ecx,0x4
  40223f:	83 ea 01             	sub    edx,0x1
  402242:	75 ee                	jne    402232 <_glob_initialise+0x42>
  402244:	31 c0                	xor    eax,eax
  402246:	83 c4 1c             	add    esp,0x1c
  402249:	5b                   	pop    ebx
  40224a:	5e                   	pop    esi
  40224b:	5f                   	pop    edi
  40224c:	5d                   	pop    ebp
  40224d:	c3                   	ret    
  40224e:	66 90                	xchg   ax,ax

00402250 <_glob_strcmp>:
  402250:	55                   	push   ebp
  402251:	57                   	push   edi
  402252:	89 c7                	mov    edi,eax
  402254:	56                   	push   esi
  402255:	53                   	push   ebx
  402256:	83 ec 2c             	sub    esp,0x2c
  402259:	80 3a 2e             	cmp    BYTE PTR [edx],0x2e
  40225c:	89 4c 24 10          	mov    DWORD PTR [esp+0x10],ecx
  402260:	0f 84 5a 01 00 00    	je     4023c0 <_glob_strcmp+0x170>
  402266:	0f b6 08             	movzx  ecx,BYTE PTR [eax]
  402269:	8b 74 24 10          	mov    esi,DWORD PTR [esp+0x10]
  40226d:	8d 6a 01             	lea    ebp,[edx+0x1]
  402270:	89 f0                	mov    eax,esi
  402272:	83 e0 20             	and    eax,0x20
  402275:	89 44 24 14          	mov    DWORD PTR [esp+0x14],eax
  402279:	89 f0                	mov    eax,esi
  40227b:	25 00 40 00 00       	and    eax,0x4000
  402280:	89 44 24 18          	mov    DWORD PTR [esp+0x18],eax
  402284:	0f be d1             	movsx  edx,cl
  402287:	85 d2                	test   edx,edx
  402289:	8d 75 ff             	lea    esi,[ebp-0x1]
  40228c:	8d 47 01             	lea    eax,[edi+0x1]
  40228f:	0f 84 70 01 00 00    	je     402405 <_glob_strcmp+0x1b5>
  402295:	80 f9 3f             	cmp    cl,0x3f
  402298:	0f 84 e4 00 00 00    	je     402382 <_glob_strcmp+0x132>
  40229e:	80 f9 5b             	cmp    cl,0x5b
  4022a1:	0f 84 ab 00 00 00    	je     402352 <_glob_strcmp+0x102>
  4022a7:	80 f9 2a             	cmp    cl,0x2a
  4022aa:	74 5c                	je     402308 <_glob_strcmp+0xb8>
  4022ac:	8b 4c 24 14          	mov    ecx,DWORD PTR [esp+0x14]
  4022b0:	85 c9                	test   ecx,ecx
  4022b2:	0f 84 d8 00 00 00    	je     402390 <_glob_strcmp+0x140>
  4022b8:	89 c7                	mov    edi,eax
  4022ba:	0f be 5d ff          	movsx  ebx,BYTE PTR [ebp-0x1]
  4022be:	84 db                	test   bl,bl
  4022c0:	0f 84 92 01 00 00    	je     402458 <_glob_strcmp+0x208>
  4022c6:	8b 44 24 18          	mov    eax,DWORD PTR [esp+0x18]
  4022ca:	85 c0                	test   eax,eax
  4022cc:	0f 85 de 00 00 00    	jne    4023b0 <_glob_strcmp+0x160>
  4022d2:	89 14 24             	mov    DWORD PTR [esp],edx
  4022d5:	89 54 24 1c          	mov    DWORD PTR [esp+0x1c],edx
  4022d9:	e8 5a 5c 00 00       	call   407f38 <_tolower>
  4022de:	89 1c 24             	mov    DWORD PTR [esp],ebx
  4022e1:	89 c6                	mov    esi,eax
  4022e3:	e8 50 5c 00 00       	call   407f38 <_tolower>
  4022e8:	8b 54 24 1c          	mov    edx,DWORD PTR [esp+0x1c]
  4022ec:	29 c6                	sub    esi,eax
  4022ee:	85 f6                	test   esi,esi
  4022f0:	0f 84 81 00 00 00    	je     402377 <_glob_strcmp+0x127>
  4022f6:	89 d0                	mov    eax,edx
  4022f8:	29 d8                	sub    eax,ebx
  4022fa:	8d b6 00 00 00 00    	lea    esi,[esi+0x0]
  402300:	83 c4 2c             	add    esp,0x2c
  402303:	5b                   	pop    ebx
  402304:	5e                   	pop    esi
  402305:	5f                   	pop    edi
  402306:	5d                   	pop    ebp
  402307:	c3                   	ret    
  402308:	0f b6 57 01          	movzx  edx,BYTE PTR [edi+0x1]
  40230c:	89 c3                	mov    ebx,eax
  40230e:	80 fa 2a             	cmp    dl,0x2a
  402311:	75 0b                	jne    40231e <_glob_strcmp+0xce>
  402313:	83 c3 01             	add    ebx,0x1
  402316:	0f b6 13             	movzx  edx,BYTE PTR [ebx]
  402319:	80 fa 2a             	cmp    dl,0x2a
  40231c:	74 f5                	je     402313 <_glob_strcmp+0xc3>
  40231e:	31 c0                	xor    eax,eax
  402320:	84 d2                	test   dl,dl
  402322:	74 dc                	je     402300 <_glob_strcmp+0xb0>
  402324:	8b 7c 24 10          	mov    edi,DWORD PTR [esp+0x10]
  402328:	81 cf 00 00 01 00    	or     edi,0x10000
  40232e:	eb 09                	jmp    402339 <_glob_strcmp+0xe9>
  402330:	83 c6 01             	add    esi,0x1
  402333:	80 7e ff 00          	cmp    BYTE PTR [esi-0x1],0x0
  402337:	74 c7                	je     402300 <_glob_strcmp+0xb0>
  402339:	89 f9                	mov    ecx,edi
  40233b:	89 f2                	mov    edx,esi
  40233d:	89 d8                	mov    eax,ebx
  40233f:	e8 0c ff ff ff       	call   402250 <_glob_strcmp>
  402344:	85 c0                	test   eax,eax
  402346:	75 e8                	jne    402330 <_glob_strcmp+0xe0>
  402348:	83 c4 2c             	add    esp,0x2c
  40234b:	31 c0                	xor    eax,eax
  40234d:	5b                   	pop    ebx
  40234e:	5e                   	pop    esi
  40234f:	5f                   	pop    edi
  402350:	5d                   	pop    ebp
  402351:	c3                   	ret    
  402352:	0f be 55 ff          	movsx  edx,BYTE PTR [ebp-0x1]
  402356:	85 d2                	test   edx,edx
  402358:	0f 84 0b 01 00 00    	je     402469 <_glob_strcmp+0x219>
  40235e:	80 7f 01 21          	cmp    BYTE PTR [edi+0x1],0x21
  402362:	74 7c                	je     4023e0 <_glob_strcmp+0x190>
  402364:	8b 4c 24 10          	mov    ecx,DWORD PTR [esp+0x10]
  402368:	e8 73 fc ff ff       	call   401fe0 <_glob_in_set>
  40236d:	85 c0                	test   eax,eax
  40236f:	89 c7                	mov    edi,eax
  402371:	0f 84 d7 00 00 00    	je     40244e <_glob_strcmp+0x1fe>
  402377:	0f b6 0f             	movzx  ecx,BYTE PTR [edi]
  40237a:	83 c5 01             	add    ebp,0x1
  40237d:	e9 02 ff ff ff       	jmp    402284 <_glob_strcmp+0x34>
  402382:	80 7d ff 00          	cmp    BYTE PTR [ebp-0x1],0x0
  402386:	0f 84 d3 00 00 00    	je     40245f <_glob_strcmp+0x20f>
  40238c:	89 c7                	mov    edi,eax
  40238e:	eb e7                	jmp    402377 <_glob_strcmp+0x127>
  402390:	83 fa 7f             	cmp    edx,0x7f
  402393:	0f 85 1f ff ff ff    	jne    4022b8 <_glob_strcmp+0x68>
  402399:	0f be 57 01          	movsx  edx,BYTE PTR [edi+0x1]
  40239d:	83 c7 02             	add    edi,0x2
  4023a0:	85 d2                	test   edx,edx
  4023a2:	0f 85 12 ff ff ff    	jne    4022ba <_glob_strcmp+0x6a>
  4023a8:	e9 0b ff ff ff       	jmp    4022b8 <_glob_strcmp+0x68>
  4023ad:	8d 76 00             	lea    esi,[esi+0x0]
  4023b0:	89 d6                	mov    esi,edx
  4023b2:	29 de                	sub    esi,ebx
  4023b4:	e9 35 ff ff ff       	jmp    4022ee <_glob_strcmp+0x9e>
  4023b9:	8d b4 26 00 00 00 00 	lea    esi,[esi+eiz*1+0x0]
  4023c0:	0f be 00             	movsx  eax,BYTE PTR [eax]
  4023c3:	3c 2e                	cmp    al,0x2e
  4023c5:	74 32                	je     4023f9 <_glob_strcmp+0x1a9>
  4023c7:	89 c1                	mov    ecx,eax
  4023c9:	83 e8 2e             	sub    eax,0x2e
  4023cc:	f7 44 24 10 00 00 01 	test   DWORD PTR [esp+0x10],0x10000
  4023d3:	00 
  4023d4:	0f 85 8f fe ff ff    	jne    402269 <_glob_strcmp+0x19>
  4023da:	e9 21 ff ff ff       	jmp    402300 <_glob_strcmp+0xb0>
  4023df:	90                   	nop
  4023e0:	8b 4c 24 10          	mov    ecx,DWORD PTR [esp+0x10]
  4023e4:	8d 5f 02             	lea    ebx,[edi+0x2]
  4023e7:	89 d8                	mov    eax,ebx
  4023e9:	e8 f2 fb ff ff       	call   401fe0 <_glob_in_set>
  4023ee:	85 c0                	test   eax,eax
  4023f0:	74 1d                	je     40240f <_glob_strcmp+0x1bf>
  4023f2:	89 df                	mov    edi,ebx
  4023f4:	e9 7e ff ff ff       	jmp    402377 <_glob_strcmp+0x127>
  4023f9:	b9 2e 00 00 00       	mov    ecx,0x2e
  4023fe:	66 90                	xchg   ax,ax
  402400:	e9 64 fe ff ff       	jmp    402269 <_glob_strcmp+0x19>
  402405:	0f be 06             	movsx  eax,BYTE PTR [esi]
  402408:	f7 d8                	neg    eax
  40240a:	e9 f1 fe ff ff       	jmp    402300 <_glob_strcmp+0xb0>
  40240f:	0f b6 47 02          	movzx  eax,BYTE PTR [edi+0x2]
  402413:	8b 54 24 14          	mov    edx,DWORD PTR [esp+0x14]
  402417:	3c 5d                	cmp    al,0x5d
  402419:	75 0f                	jne    40242a <_glob_strcmp+0x1da>
  40241b:	eb 56                	jmp    402473 <_glob_strcmp+0x223>
  40241d:	8d 76 00             	lea    esi,[esi+0x0]
  402420:	83 c3 01             	add    ebx,0x1
  402423:	84 c0                	test   al,al
  402425:	74 27                	je     40244e <_glob_strcmp+0x1fe>
  402427:	0f b6 03             	movzx  eax,BYTE PTR [ebx]
  40242a:	3c 5d                	cmp    al,0x5d
  40242c:	74 16                	je     402444 <_glob_strcmp+0x1f4>
  40242e:	3c 7f                	cmp    al,0x7f
  402430:	75 ee                	jne    402420 <_glob_strcmp+0x1d0>
  402432:	85 d2                	test   edx,edx
  402434:	75 09                	jne    40243f <_glob_strcmp+0x1ef>
  402436:	0f b6 43 01          	movzx  eax,BYTE PTR [ebx+0x1]
  40243a:	83 c3 01             	add    ebx,0x1
  40243d:	eb e1                	jmp    402420 <_glob_strcmp+0x1d0>
  40243f:	83 c3 01             	add    ebx,0x1
  402442:	eb e3                	jmp    402427 <_glob_strcmp+0x1d7>
  402444:	83 c3 01             	add    ebx,0x1
  402447:	89 df                	mov    edi,ebx
  402449:	e9 29 ff ff ff       	jmp    402377 <_glob_strcmp+0x127>
  40244e:	b8 5d 00 00 00       	mov    eax,0x5d
  402453:	e9 a8 fe ff ff       	jmp    402300 <_glob_strcmp+0xb0>
  402458:	31 db                	xor    ebx,ebx
  40245a:	e9 97 fe ff ff       	jmp    4022f6 <_glob_strcmp+0xa6>
  40245f:	b8 3f 00 00 00       	mov    eax,0x3f
  402464:	e9 97 fe ff ff       	jmp    402300 <_glob_strcmp+0xb0>
  402469:	b8 5b 00 00 00       	mov    eax,0x5b
  40246e:	e9 8d fe ff ff       	jmp    402300 <_glob_strcmp+0xb0>
  402473:	8d 5f 03             	lea    ebx,[edi+0x3]
  402476:	0f b6 47 03          	movzx  eax,BYTE PTR [edi+0x3]
  40247a:	8b 54 24 14          	mov    edx,DWORD PTR [esp+0x14]
  40247e:	eb aa                	jmp    40242a <_glob_strcmp+0x1da>

00402480 <_glob_registry.part.1>:
  402480:	57                   	push   edi
  402481:	89 c7                	mov    edi,eax
  402483:	56                   	push   esi
  402484:	53                   	push   ebx
  402485:	83 ec 10             	sub    esp,0x10
  402488:	8b 40 04             	mov    eax,DWORD PTR [eax+0x4]
  40248b:	8b 4f 0c             	mov    ecx,DWORD PTR [edi+0xc]
  40248e:	85 c0                	test   eax,eax
  402490:	8d 70 ff             	lea    esi,[eax-0x1]
  402493:	8d 1c 8d 00 00 00 00 	lea    ebx,[ecx*4+0x0]
  40249a:	7e 1d                	jle    4024b9 <_glob_registry.part.1+0x39>
  40249c:	8d 74 26 00          	lea    esi,[esi+eiz*1+0x0]
  4024a0:	8b 57 08             	mov    edx,DWORD PTR [edi+0x8]
  4024a3:	83 ee 01             	sub    esi,0x1
  4024a6:	8b 14 1a             	mov    edx,DWORD PTR [edx+ebx*1]
  4024a9:	83 c3 04             	add    ebx,0x4
  4024ac:	89 14 24             	mov    DWORD PTR [esp],edx
  4024af:	e8 fc 5a 00 00       	call   407fb0 <_free>
  4024b4:	83 fe ff             	cmp    esi,0xffffffff
  4024b7:	75 e7                	jne    4024a0 <_glob_registry.part.1+0x20>
  4024b9:	8b 47 08             	mov    eax,DWORD PTR [edi+0x8]
  4024bc:	89 04 24             	mov    DWORD PTR [esp],eax
  4024bf:	e8 ec 5a 00 00       	call   407fb0 <_free>
  4024c4:	83 c4 10             	add    esp,0x10
  4024c7:	31 c0                	xor    eax,eax
  4024c9:	5b                   	pop    ebx
  4024ca:	5e                   	pop    esi
  4024cb:	5f                   	pop    edi
  4024cc:	c3                   	ret    
  4024cd:	8d 76 00             	lea    esi,[esi+0x0]

004024d0 <_glob_store_entry.part.2>:
  4024d0:	57                   	push   edi
  4024d1:	56                   	push   esi
  4024d2:	89 c6                	mov    esi,eax
  4024d4:	53                   	push   ebx
  4024d5:	89 d3                	mov    ebx,edx
  4024d7:	83 ec 10             	sub    esp,0x10
  4024da:	8b 52 04             	mov    edx,DWORD PTR [edx+0x4]
  4024dd:	03 53 0c             	add    edx,DWORD PTR [ebx+0xc]
  4024e0:	8d 04 95 08 00 00 00 	lea    eax,[edx*4+0x8]
  4024e7:	89 44 24 04          	mov    DWORD PTR [esp+0x4],eax
  4024eb:	8b 43 08             	mov    eax,DWORD PTR [ebx+0x8]
  4024ee:	89 04 24             	mov    DWORD PTR [esp],eax
  4024f1:	e8 72 5a 00 00       	call   407f68 <_realloc>
  4024f6:	85 c0                	test   eax,eax
  4024f8:	89 c2                	mov    edx,eax
  4024fa:	74 29                	je     402525 <_glob_store_entry.part.2+0x55>
  4024fc:	8b 7b 04             	mov    edi,DWORD PTR [ebx+0x4]
  4024ff:	89 43 08             	mov    DWORD PTR [ebx+0x8],eax
  402502:	8b 43 0c             	mov    eax,DWORD PTR [ebx+0xc]
  402505:	8d 4f 01             	lea    ecx,[edi+0x1]
  402508:	01 c7                	add    edi,eax
  40250a:	01 c8                	add    eax,ecx
  40250c:	89 4b 04             	mov    DWORD PTR [ebx+0x4],ecx
  40250f:	89 34 ba             	mov    DWORD PTR [edx+edi*4],esi
  402512:	8b 53 08             	mov    edx,DWORD PTR [ebx+0x8]
  402515:	c7 04 82 00 00 00 00 	mov    DWORD PTR [edx+eax*4],0x0
  40251c:	83 c4 10             	add    esp,0x10
  40251f:	31 c0                	xor    eax,eax
  402521:	5b                   	pop    ebx
  402522:	5e                   	pop    esi
  402523:	5f                   	pop    edi
  402524:	c3                   	ret    
  402525:	83 c4 10             	add    esp,0x10
  402528:	b8 01 00 00 00       	mov    eax,0x1
  40252d:	5b                   	pop    ebx
  40252e:	5e                   	pop    esi
  40252f:	5f                   	pop    edi
  402530:	c3                   	ret    
  402531:	eb 0d                	jmp    402540 <_glob_store_entry>
  402533:	90                   	nop
  402534:	90                   	nop
  402535:	90                   	nop
  402536:	90                   	nop
  402537:	90                   	nop
  402538:	90                   	nop
  402539:	90                   	nop
  40253a:	90                   	nop
  40253b:	90                   	nop
  40253c:	90                   	nop
  40253d:	90                   	nop
  40253e:	90                   	nop
  40253f:	90                   	nop

00402540 <_glob_store_entry>:
  402540:	85 c0                	test   eax,eax
  402542:	75 0c                	jne    402550 <_glob_store_entry+0x10>
  402544:	b8 01 00 00 00       	mov    eax,0x1
  402549:	c3                   	ret    
  40254a:	8d b6 00 00 00 00    	lea    esi,[esi+0x0]
  402550:	85 d2                	test   edx,edx
  402552:	74 f0                	je     402544 <_glob_store_entry+0x4>
  402554:	e9 77 ff ff ff       	jmp    4024d0 <_glob_store_entry.part.2>
  402559:	8d b4 26 00 00 00 00 	lea    esi,[esi+eiz*1+0x0]

00402560 <_glob_store_collated_entries>:
  402560:	56                   	push   esi
  402561:	89 d6                	mov    esi,edx
  402563:	53                   	push   ebx
  402564:	89 c3                	mov    ebx,eax
  402566:	83 ec 14             	sub    esp,0x14
  402569:	8b 00                	mov    eax,DWORD PTR [eax]
  40256b:	85 c0                	test   eax,eax
  40256d:	74 05                	je     402574 <_glob_store_collated_entries+0x14>
  40256f:	e8 ec ff ff ff       	call   402560 <_glob_store_collated_entries>
  402574:	8b 43 08             	mov    eax,DWORD PTR [ebx+0x8]
  402577:	89 f2                	mov    edx,esi
  402579:	e8 c2 ff ff ff       	call   402540 <_glob_store_entry>
  40257e:	8b 43 04             	mov    eax,DWORD PTR [ebx+0x4]
  402581:	85 c0                	test   eax,eax
  402583:	74 07                	je     40258c <_glob_store_collated_entries+0x2c>
  402585:	89 f2                	mov    edx,esi
  402587:	e8 d4 ff ff ff       	call   402560 <_glob_store_collated_entries>
  40258c:	89 1c 24             	mov    DWORD PTR [esp],ebx
  40258f:	e8 1c 5a 00 00       	call   407fb0 <_free>
  402594:	83 c4 14             	add    esp,0x14
  402597:	5b                   	pop    ebx
  402598:	5e                   	pop    esi
  402599:	c3                   	ret    
  40259a:	8d b6 00 00 00 00    	lea    esi,[esi+0x0]

004025a0 <_glob_match>:
  4025a0:	55                   	push   ebp
  4025a1:	89 e5                	mov    ebp,esp
  4025a3:	57                   	push   edi
  4025a4:	56                   	push   esi
  4025a5:	53                   	push   ebx
  4025a6:	89 c3                	mov    ebx,eax
  4025a8:	83 ec 6c             	sub    esp,0x6c
  4025ab:	89 55 cc             	mov    DWORD PTR [ebp-0x34],edx
  4025ae:	89 4d a4             	mov    DWORD PTR [ebp-0x5c],ecx
  4025b1:	89 04 24             	mov    DWORD PTR [esp],eax
  4025b4:	e8 87 59 00 00       	call   407f40 <_strlen>
  4025b9:	8d 50 01             	lea    edx,[eax+0x1]
  4025bc:	83 c0 10             	add    eax,0x10
  4025bf:	83 e0 f0             	and    eax,0xfffffff0
  4025c2:	e8 59 f9 ff ff       	call   401f20 <___chkstk_ms>
  4025c7:	29 c4                	sub    esp,eax
  4025c9:	8d 44 24 0c          	lea    eax,[esp+0xc]
  4025cd:	89 54 24 08          	mov    DWORD PTR [esp+0x8],edx
  4025d1:	89 5c 24 04          	mov    DWORD PTR [esp+0x4],ebx
  4025d5:	89 04 24             	mov    DWORD PTR [esp],eax
  4025d8:	e8 9b 59 00 00       	call   407f78 <_memcpy>
  4025dd:	89 04 24             	mov    DWORD PTR [esp],eax
  4025e0:	e8 4b 06 00 00       	call   402c30 <___mingw_dirname>
  4025e5:	c7 45 e4 00 00 00 00 	mov    DWORD PTR [ebp-0x1c],0x0
  4025ec:	89 45 b8             	mov    DWORD PTR [ebp-0x48],eax
  4025ef:	8d 45 d8             	lea    eax,[ebp-0x28]
  4025f2:	e8 f9 fb ff ff       	call   4021f0 <_glob_initialise>
  4025f7:	85 c0                	test   eax,eax
  4025f9:	74 08                	je     402603 <_glob_match+0x63>
  4025fb:	8d 65 f4             	lea    esp,[ebp-0xc]
  4025fe:	5b                   	pop    ebx
  4025ff:	5e                   	pop    esi
  402600:	5f                   	pop    edi
  402601:	5d                   	pop    ebp
  402602:	c3                   	ret    
  402603:	8b 55 cc             	mov    edx,DWORD PTR [ebp-0x34]
  402606:	8b 45 b8             	mov    eax,DWORD PTR [ebp-0x48]
  402609:	e8 42 f9 ff ff       	call   401f50 <_is_glob_pattern>
  40260e:	85 c0                	test   eax,eax
  402610:	0f 84 5a 02 00 00    	je     402870 <_glob_match+0x2d0>
  402616:	8b 55 cc             	mov    edx,DWORD PTR [ebp-0x34]
  402619:	8d 45 d8             	lea    eax,[ebp-0x28]
  40261c:	89 04 24             	mov    DWORD PTR [esp],eax
  40261f:	8b 4d a4             	mov    ecx,DWORD PTR [ebp-0x5c]
  402622:	8b 45 b8             	mov    eax,DWORD PTR [ebp-0x48]
  402625:	80 ce 80             	or     dh,0x80
  402628:	e8 73 ff ff ff       	call   4025a0 <_glob_match>
  40262d:	85 c0                	test   eax,eax
  40262f:	75 ca                	jne    4025fb <_glob_match+0x5b>
  402631:	0f b6 43 01          	movzx  eax,BYTE PTR [ebx+0x1]
  402635:	3c 5c                	cmp    al,0x5c
  402637:	0f 84 5b 03 00 00    	je     402998 <_glob_match+0x3f8>
  40263d:	3c 2f                	cmp    al,0x2f
  40263f:	0f 84 53 03 00 00    	je     402998 <_glob_match+0x3f8>
  402645:	8b 75 b8             	mov    esi,DWORD PTR [ebp-0x48]
  402648:	bf 14 a1 40 00       	mov    edi,0x40a114
  40264d:	b9 02 00 00 00       	mov    ecx,0x2
  402652:	f3 a6                	repz cmps BYTE PTR ds:[esi],BYTE PTR es:[edi]
  402654:	0f 85 3e 03 00 00    	jne    402998 <_glob_match+0x3f8>
  40265a:	c6 45 a3 5c          	mov    BYTE PTR [ebp-0x5d],0x5c
  40265e:	f6 45 cc 10          	test   BYTE PTR [ebp-0x34],0x10
  402662:	89 5d c0             	mov    DWORD PTR [ebp-0x40],ebx
  402665:	c7 45 b8 00 00 00 00 	mov    DWORD PTR [ebp-0x48],0x0
  40266c:	0f 85 33 04 00 00    	jne    402aa5 <_glob_match+0x505>
  402672:	8b 45 e0             	mov    eax,DWORD PTR [ebp-0x20]
  402675:	89 45 c8             	mov    DWORD PTR [ebp-0x38],eax
  402678:	8b 00                	mov    eax,DWORD PTR [eax]
  40267a:	85 c0                	test   eax,eax
  40267c:	0f 84 71 04 00 00    	je     402af3 <_glob_match+0x553>
  402682:	8b 4d cc             	mov    ecx,DWORD PTR [ebp-0x34]
  402685:	c7 45 c4 02 00 00 00 	mov    DWORD PTR [ebp-0x3c],0x2
  40268c:	89 cf                	mov    edi,ecx
  40268e:	83 e7 04             	and    edi,0x4
  402691:	89 7d 98             	mov    DWORD PTR [ebp-0x68],edi
  402694:	89 cf                	mov    edi,ecx
  402696:	81 e7 00 80 00 00    	and    edi,0x8000
  40269c:	89 7d d0             	mov    DWORD PTR [ebp-0x30],edi
  40269f:	90                   	nop
  4026a0:	83 7d c4 01          	cmp    DWORD PTR [ebp-0x3c],0x1
  4026a4:	0f 84 58 02 00 00    	je     402902 <_glob_match+0x362>
  4026aa:	89 04 24             	mov    DWORD PTR [esp],eax
  4026ad:	e8 ee 0a 00 00       	call   4031a0 <___mingw_opendir>
  4026b2:	85 c0                	test   eax,eax
  4026b4:	89 45 d4             	mov    DWORD PTR [ebp-0x2c],eax
  4026b7:	0f 84 76 03 00 00    	je     402a33 <_glob_match+0x493>
  4026bd:	8b 45 b8             	mov    eax,DWORD PTR [ebp-0x48]
  4026c0:	85 c0                	test   eax,eax
  4026c2:	0f 84 bd 03 00 00    	je     402a85 <_glob_match+0x4e5>
  4026c8:	8b 45 c8             	mov    eax,DWORD PTR [ebp-0x38]
  4026cb:	8b 00                	mov    eax,DWORD PTR [eax]
  4026cd:	89 04 24             	mov    DWORD PTR [esp],eax
  4026d0:	e8 6b 58 00 00       	call   407f40 <_strlen>
  4026d5:	89 45 b4             	mov    DWORD PTR [ebp-0x4c],eax
  4026d8:	8b 45 cc             	mov    eax,DWORD PTR [ebp-0x34]
  4026db:	c7 45 bc 00 00 00 00 	mov    DWORD PTR [ebp-0x44],0x0
  4026e2:	83 e0 40             	and    eax,0x40
  4026e5:	89 45 a8             	mov    DWORD PTR [ebp-0x58],eax
  4026e8:	8b 45 d4             	mov    eax,DWORD PTR [ebp-0x2c]
  4026eb:	89 04 24             	mov    DWORD PTR [esp],eax
  4026ee:	e8 4d 0c 00 00       	call   403340 <___mingw_readdir>
  4026f3:	85 c0                	test   eax,eax
  4026f5:	89 c6                	mov    esi,eax
  4026f7:	0f 84 e8 01 00 00    	je     4028e5 <_glob_match+0x345>
  4026fd:	8b 45 d0             	mov    eax,DWORD PTR [ebp-0x30]
  402700:	85 c0                	test   eax,eax
  402702:	74 06                	je     40270a <_glob_match+0x16a>
  402704:	83 7e 08 10          	cmp    DWORD PTR [esi+0x8],0x10
  402708:	75 de                	jne    4026e8 <_glob_match+0x148>
  40270a:	8b 4d cc             	mov    ecx,DWORD PTR [ebp-0x34]
  40270d:	8d 5e 0c             	lea    ebx,[esi+0xc]
  402710:	8b 45 c0             	mov    eax,DWORD PTR [ebp-0x40]
  402713:	89 da                	mov    edx,ebx
  402715:	e8 36 fb ff ff       	call   402250 <_glob_strcmp>
  40271a:	85 c0                	test   eax,eax
  40271c:	75 ca                	jne    4026e8 <_glob_match+0x148>
  40271e:	0f b7 56 06          	movzx  edx,WORD PTR [esi+0x6]
  402722:	8b 4d b4             	mov    ecx,DWORD PTR [ebp-0x4c]
  402725:	89 65 b0             	mov    DWORD PTR [ebp-0x50],esp
  402728:	8d 44 11 11          	lea    eax,[ecx+edx*1+0x11]
  40272c:	83 e0 f0             	and    eax,0xfffffff0
  40272f:	e8 ec f7 ff ff       	call   401f20 <___chkstk_ms>
  402734:	29 c4                	sub    esp,eax
  402736:	31 c0                	xor    eax,eax
  402738:	8d 7c 24 0c          	lea    edi,[esp+0xc]
  40273c:	85 c9                	test   ecx,ecx
  40273e:	89 7d ac             	mov    DWORD PTR [ebp-0x54],edi
  402741:	0f 85 ed 01 00 00    	jne    402934 <_glob_match+0x394>
  402747:	83 c2 01             	add    edx,0x1
  40274a:	01 f8                	add    eax,edi
  40274c:	89 54 24 08          	mov    DWORD PTR [esp+0x8],edx
  402750:	89 5c 24 04          	mov    DWORD PTR [esp+0x4],ebx
  402754:	89 e3                	mov    ebx,esp
  402756:	89 04 24             	mov    DWORD PTR [esp],eax
  402759:	e8 1a 58 00 00       	call   407f78 <_memcpy>
  40275e:	89 3c 24             	mov    DWORD PTR [esp],edi
  402761:	e8 da 57 00 00       	call   407f40 <_strlen>
  402766:	83 c0 10             	add    eax,0x10
  402769:	83 e0 f0             	and    eax,0xfffffff0
  40276c:	e8 af f7 ff ff       	call   401f20 <___chkstk_ms>
  402771:	8b 75 ac             	mov    esi,DWORD PTR [ebp-0x54]
  402774:	29 c4                	sub    esp,eax
  402776:	8d 4c 24 0c          	lea    ecx,[esp+0xc]
  40277a:	89 ca                	mov    edx,ecx
  40277c:	eb 0f                	jmp    40278d <_glob_match+0x1ed>
  40277e:	66 90                	xchg   ax,ax
  402780:	83 c2 01             	add    edx,0x1
  402783:	83 c6 01             	add    esi,0x1
  402786:	84 c0                	test   al,al
  402788:	88 42 ff             	mov    BYTE PTR [edx-0x1],al
  40278b:	74 1b                	je     4027a8 <_glob_match+0x208>
  40278d:	0f b6 06             	movzx  eax,BYTE PTR [esi]
  402790:	3c 7f                	cmp    al,0x7f
  402792:	75 ec                	jne    402780 <_glob_match+0x1e0>
  402794:	0f b6 46 01          	movzx  eax,BYTE PTR [esi+0x1]
  402798:	83 c6 01             	add    esi,0x1
  40279b:	83 c2 01             	add    edx,0x1
  40279e:	83 c6 01             	add    esi,0x1
  4027a1:	84 c0                	test   al,al
  4027a3:	88 42 ff             	mov    BYTE PTR [edx-0x1],al
  4027a6:	75 e5                	jne    40278d <_glob_match+0x1ed>
  4027a8:	89 0c 24             	mov    DWORD PTR [esp],ecx
  4027ab:	e8 78 5b 00 00       	call   408328 <_strdup>
  4027b0:	89 dc                	mov    esp,ebx
  4027b2:	85 c0                	test   eax,eax
  4027b4:	89 c6                	mov    esi,eax
  4027b6:	0f 84 c6 01 00 00    	je     402982 <_glob_match+0x3e2>
  4027bc:	31 c0                	xor    eax,eax
  4027be:	83 7d c4 02          	cmp    DWORD PTR [ebp-0x3c],0x2
  4027c2:	0f 94 c0             	sete   al
  4027c5:	83 e8 01             	sub    eax,0x1
  4027c8:	21 45 c4             	and    DWORD PTR [ebp-0x3c],eax
  4027cb:	8b 45 a8             	mov    eax,DWORD PTR [ebp-0x58]
  4027ce:	85 c0                	test   eax,eax
  4027d0:	0f 85 9d 01 00 00    	jne    402973 <_glob_match+0x3d3>
  4027d6:	8b 5d bc             	mov    ebx,DWORD PTR [ebp-0x44]
  4027d9:	85 db                	test   ebx,ebx
  4027db:	0f 84 bb 02 00 00    	je     402a9c <_glob_match+0x4fc>
  4027e1:	8b 7d cc             	mov    edi,DWORD PTR [ebp-0x34]
  4027e4:	81 e7 00 40 00 00    	and    edi,0x4000
  4027ea:	eb 18                	jmp    402804 <_glob_match+0x264>
  4027ec:	8d 74 26 00          	lea    esi,[esi+eiz*1+0x0]
  4027f0:	e8 53 57 00 00       	call   407f48 <_strcoll>
  4027f5:	8b 0b                	mov    ecx,DWORD PTR [ebx]
  4027f7:	8b 53 04             	mov    edx,DWORD PTR [ebx+0x4]
  4027fa:	85 c0                	test   eax,eax
  4027fc:	7e 22                	jle    402820 <_glob_match+0x280>
  4027fe:	85 d2                	test   edx,edx
  402800:	74 24                	je     402826 <_glob_match+0x286>
  402802:	89 d3                	mov    ebx,edx
  402804:	8b 43 08             	mov    eax,DWORD PTR [ebx+0x8]
  402807:	85 ff                	test   edi,edi
  402809:	89 34 24             	mov    DWORD PTR [esp],esi
  40280c:	89 44 24 04          	mov    DWORD PTR [esp+0x4],eax
  402810:	75 de                	jne    4027f0 <_glob_match+0x250>
  402812:	e8 09 5b 00 00       	call   408320 <_stricoll>
  402817:	8b 0b                	mov    ecx,DWORD PTR [ebx]
  402819:	8b 53 04             	mov    edx,DWORD PTR [ebx+0x4]
  40281c:	85 c0                	test   eax,eax
  40281e:	7f de                	jg     4027fe <_glob_match+0x25e>
  402820:	89 ca                	mov    edx,ecx
  402822:	85 d2                	test   edx,edx
  402824:	75 dc                	jne    402802 <_glob_match+0x262>
  402826:	89 c1                	mov    ecx,eax
  402828:	89 4d ac             	mov    DWORD PTR [ebp-0x54],ecx
  40282b:	c7 04 24 0c 00 00 00 	mov    DWORD PTR [esp],0xc
  402832:	e8 51 57 00 00       	call   407f88 <_malloc>
  402837:	85 c0                	test   eax,eax
  402839:	74 22                	je     40285d <_glob_match+0x2bd>
  40283b:	85 db                	test   ebx,ebx
  40283d:	89 70 08             	mov    DWORD PTR [eax+0x8],esi
  402840:	c7 40 04 00 00 00 00 	mov    DWORD PTR [eax+0x4],0x0
  402847:	c7 00 00 00 00 00    	mov    DWORD PTR [eax],0x0
  40284d:	74 0e                	je     40285d <_glob_match+0x2bd>
  40284f:	8b 4d ac             	mov    ecx,DWORD PTR [ebp-0x54]
  402852:	85 c9                	test   ecx,ecx
  402854:	0f 8e 16 02 00 00    	jle    402a70 <_glob_match+0x4d0>
  40285a:	89 43 04             	mov    DWORD PTR [ebx+0x4],eax
  40285d:	8b 7d bc             	mov    edi,DWORD PTR [ebp-0x44]
  402860:	85 ff                	test   edi,edi
  402862:	0f 84 15 02 00 00    	je     402a7d <_glob_match+0x4dd>
  402868:	8b 65 b0             	mov    esp,DWORD PTR [ebp-0x50]
  40286b:	e9 78 fe ff ff       	jmp    4026e8 <_glob_match+0x148>
  402870:	8b 45 b8             	mov    eax,DWORD PTR [ebp-0x48]
  402873:	89 e6                	mov    esi,esp
  402875:	89 04 24             	mov    DWORD PTR [esp],eax
  402878:	e8 c3 56 00 00       	call   407f40 <_strlen>
  40287d:	83 c0 10             	add    eax,0x10
  402880:	83 e0 f0             	and    eax,0xfffffff0
  402883:	e8 98 f6 ff ff       	call   401f20 <___chkstk_ms>
  402888:	8b 55 b8             	mov    edx,DWORD PTR [ebp-0x48]
  40288b:	29 c4                	sub    esp,eax
  40288d:	8d 7c 24 0c          	lea    edi,[esp+0xc]
  402891:	89 f9                	mov    ecx,edi
  402893:	eb 0d                	jmp    4028a2 <_glob_match+0x302>
  402895:	83 c1 01             	add    ecx,0x1
  402898:	83 c2 01             	add    edx,0x1
  40289b:	84 c0                	test   al,al
  40289d:	88 41 ff             	mov    BYTE PTR [ecx-0x1],al
  4028a0:	74 1b                	je     4028bd <_glob_match+0x31d>
  4028a2:	0f b6 02             	movzx  eax,BYTE PTR [edx]
  4028a5:	3c 7f                	cmp    al,0x7f
  4028a7:	75 ec                	jne    402895 <_glob_match+0x2f5>
  4028a9:	0f b6 42 01          	movzx  eax,BYTE PTR [edx+0x1]
  4028ad:	83 c2 01             	add    edx,0x1
  4028b0:	83 c1 01             	add    ecx,0x1
  4028b3:	83 c2 01             	add    edx,0x1
  4028b6:	84 c0                	test   al,al
  4028b8:	88 41 ff             	mov    BYTE PTR [ecx-0x1],al
  4028bb:	75 e5                	jne    4028a2 <_glob_match+0x302>
  4028bd:	89 3c 24             	mov    DWORD PTR [esp],edi
  4028c0:	e8 63 5a 00 00       	call   408328 <_strdup>
  4028c5:	89 f4                	mov    esp,esi
  4028c7:	89 c1                	mov    ecx,eax
  4028c9:	b8 01 00 00 00       	mov    eax,0x1
  4028ce:	85 c9                	test   ecx,ecx
  4028d0:	0f 84 25 fd ff ff    	je     4025fb <_glob_match+0x5b>
  4028d6:	8d 55 d8             	lea    edx,[ebp-0x28]
  4028d9:	89 c8                	mov    eax,ecx
  4028db:	e8 f0 fb ff ff       	call   4024d0 <_glob_store_entry.part.2>
  4028e0:	e9 48 fd ff ff       	jmp    40262d <_glob_match+0x8d>
  4028e5:	8b 45 d4             	mov    eax,DWORD PTR [ebp-0x2c]
  4028e8:	89 04 24             	mov    DWORD PTR [esp],eax
  4028eb:	e8 a0 0a 00 00       	call   403390 <___mingw_closedir>
  4028f0:	8b 75 bc             	mov    esi,DWORD PTR [ebp-0x44]
  4028f3:	85 f6                	test   esi,esi
  4028f5:	74 0b                	je     402902 <_glob_match+0x362>
  4028f7:	8b 55 08             	mov    edx,DWORD PTR [ebp+0x8]
  4028fa:	8b 45 bc             	mov    eax,DWORD PTR [ebp-0x44]
  4028fd:	e8 5e fc ff ff       	call   402560 <_glob_store_collated_entries>
  402902:	83 45 c8 04          	add    DWORD PTR [ebp-0x38],0x4
  402906:	8b 7d c8             	mov    edi,DWORD PTR [ebp-0x38]
  402909:	8b 47 fc             	mov    eax,DWORD PTR [edi-0x4]
  40290c:	89 04 24             	mov    DWORD PTR [esp],eax
  40290f:	e8 9c 56 00 00       	call   407fb0 <_free>
  402914:	8b 07                	mov    eax,DWORD PTR [edi]
  402916:	85 c0                	test   eax,eax
  402918:	0f 85 82 fd ff ff    	jne    4026a0 <_glob_match+0x100>
  40291e:	8b 45 e0             	mov    eax,DWORD PTR [ebp-0x20]
  402921:	89 04 24             	mov    DWORD PTR [esp],eax
  402924:	e8 87 56 00 00       	call   407fb0 <_free>
  402929:	8b 45 c4             	mov    eax,DWORD PTR [ebp-0x3c]
  40292c:	8d 65 f4             	lea    esp,[ebp-0xc]
  40292f:	5b                   	pop    ebx
  402930:	5e                   	pop    esi
  402931:	5f                   	pop    edi
  402932:	5d                   	pop    ebp
  402933:	c3                   	ret    
  402934:	8b 45 c8             	mov    eax,DWORD PTR [ebp-0x38]
  402937:	8b 75 b4             	mov    esi,DWORD PTR [ebp-0x4c]
  40293a:	89 55 9c             	mov    DWORD PTR [ebp-0x64],edx
  40293d:	8b 00                	mov    eax,DWORD PTR [eax]
  40293f:	89 74 24 08          	mov    DWORD PTR [esp+0x8],esi
  402943:	89 3c 24             	mov    DWORD PTR [esp],edi
  402946:	89 44 24 04          	mov    DWORD PTR [esp+0x4],eax
  40294a:	e8 29 56 00 00       	call   407f78 <_memcpy>
  40294f:	0f b6 44 34 0b       	movzx  eax,BYTE PTR [esp+esi*1+0xb]
  402954:	8b 55 9c             	mov    edx,DWORD PTR [ebp-0x64]
  402957:	3c 5c                	cmp    al,0x5c
  402959:	74 35                	je     402990 <_glob_match+0x3f0>
  40295b:	3c 2f                	cmp    al,0x2f
  40295d:	74 31                	je     402990 <_glob_match+0x3f0>
  40295f:	8b 75 b4             	mov    esi,DWORD PTR [ebp-0x4c]
  402962:	0f b6 4d a3          	movzx  ecx,BYTE PTR [ebp-0x5d]
  402966:	89 f0                	mov    eax,esi
  402968:	83 c0 01             	add    eax,0x1
  40296b:	88 0c 37             	mov    BYTE PTR [edi+esi*1],cl
  40296e:	e9 d4 fd ff ff       	jmp    402747 <_glob_match+0x1a7>
  402973:	8b 55 08             	mov    edx,DWORD PTR [ebp+0x8]
  402976:	89 f0                	mov    eax,esi
  402978:	e8 c3 fb ff ff       	call   402540 <_glob_store_entry>
  40297d:	e9 e6 fe ff ff       	jmp    402868 <_glob_match+0x2c8>
  402982:	c7 45 c4 03 00 00 00 	mov    DWORD PTR [ebp-0x3c],0x3
  402989:	e9 da fe ff ff       	jmp    402868 <_glob_match+0x2c8>
  40298e:	66 90                	xchg   ax,ax
  402990:	8b 45 b4             	mov    eax,DWORD PTR [ebp-0x4c]
  402993:	e9 af fd ff ff       	jmp    402747 <_glob_match+0x1a7>
  402998:	8b 45 b8             	mov    eax,DWORD PTR [ebp-0x48]
  40299b:	89 04 24             	mov    DWORD PTR [esp],eax
  40299e:	e8 9d 55 00 00       	call   407f40 <_strlen>
  4029a3:	01 d8                	add    eax,ebx
  4029a5:	39 c3                	cmp    ebx,eax
  4029a7:	0f 83 94 01 00 00    	jae    402b41 <_glob_match+0x5a1>
  4029ad:	0f b6 10             	movzx  edx,BYTE PTR [eax]
  4029b0:	80 fa 2f             	cmp    dl,0x2f
  4029b3:	0f 84 7d 01 00 00    	je     402b36 <_glob_match+0x596>
  4029b9:	80 fa 5c             	cmp    dl,0x5c
  4029bc:	75 1d                	jne    4029db <_glob_match+0x43b>
  4029be:	66 90                	xchg   ax,ax
  4029c0:	e9 71 01 00 00       	jmp    402b36 <_glob_match+0x596>
  4029c5:	0f b6 40 ff          	movzx  eax,BYTE PTR [eax-0x1]
  4029c9:	3c 5c                	cmp    al,0x5c
  4029cb:	0f 84 c0 00 00 00    	je     402a91 <_glob_match+0x4f1>
  4029d1:	3c 2f                	cmp    al,0x2f
  4029d3:	0f 84 b8 00 00 00    	je     402a91 <_glob_match+0x4f1>
  4029d9:	89 d0                	mov    eax,edx
  4029db:	8d 50 ff             	lea    edx,[eax-0x1]
  4029de:	39 da                	cmp    edx,ebx
  4029e0:	75 e3                	jne    4029c5 <_glob_match+0x425>
  4029e2:	0f b6 40 ff          	movzx  eax,BYTE PTR [eax-0x1]
  4029e6:	89 55 c0             	mov    DWORD PTR [ebp-0x40],edx
  4029e9:	88 45 a3             	mov    BYTE PTR [ebp-0x5d],al
  4029ec:	80 7d a3 5c          	cmp    BYTE PTR [ebp-0x5d],0x5c
  4029f0:	0f 85 0c 01 00 00    	jne    402b02 <_glob_match+0x562>
  4029f6:	8b 45 c0             	mov    eax,DWORD PTR [ebp-0x40]
  4029f9:	0f b6 4d a3          	movzx  ecx,BYTE PTR [ebp-0x5d]
  4029fd:	83 c0 01             	add    eax,0x1
  402a00:	0f b6 10             	movzx  edx,BYTE PTR [eax]
  402a03:	80 fa 5c             	cmp    dl,0x5c
  402a06:	75 0d                	jne    402a15 <_glob_match+0x475>
  402a08:	83 c0 01             	add    eax,0x1
  402a0b:	89 d1                	mov    ecx,edx
  402a0d:	0f b6 10             	movzx  edx,BYTE PTR [eax]
  402a10:	80 fa 5c             	cmp    dl,0x5c
  402a13:	74 f3                	je     402a08 <_glob_match+0x468>
  402a15:	80 fa 2f             	cmp    dl,0x2f
  402a18:	74 ee                	je     402a08 <_glob_match+0x468>
  402a1a:	89 45 c0             	mov    DWORD PTR [ebp-0x40],eax
  402a1d:	88 4d a3             	mov    BYTE PTR [ebp-0x5d],cl
  402a20:	8b 45 b8             	mov    eax,DWORD PTR [ebp-0x48]
  402a23:	85 c0                	test   eax,eax
  402a25:	0f 85 47 fc ff ff    	jne    402672 <_glob_match+0xd2>
  402a2b:	8b 5d c0             	mov    ebx,DWORD PTR [ebp-0x40]
  402a2e:	e9 2b fc ff ff       	jmp    40265e <_glob_match+0xbe>
  402a33:	8b 5d 98             	mov    ebx,DWORD PTR [ebp-0x68]
  402a36:	85 db                	test   ebx,ebx
  402a38:	75 28                	jne    402a62 <_glob_match+0x4c2>
  402a3a:	8b 7d a4             	mov    edi,DWORD PTR [ebp-0x5c]
  402a3d:	85 ff                	test   edi,edi
  402a3f:	0f 84 bd fe ff ff    	je     402902 <_glob_match+0x362>
  402a45:	e8 9e 55 00 00       	call   407fe8 <__errno>
  402a4a:	8b 00                	mov    eax,DWORD PTR [eax]
  402a4c:	89 44 24 04          	mov    DWORD PTR [esp+0x4],eax
  402a50:	8b 45 c8             	mov    eax,DWORD PTR [ebp-0x38]
  402a53:	8b 00                	mov    eax,DWORD PTR [eax]
  402a55:	89 04 24             	mov    DWORD PTR [esp],eax
  402a58:	ff d7                	call   edi
  402a5a:	85 c0                	test   eax,eax
  402a5c:	0f 84 a0 fe ff ff    	je     402902 <_glob_match+0x362>
  402a62:	c7 45 c4 01 00 00 00 	mov    DWORD PTR [ebp-0x3c],0x1
  402a69:	e9 94 fe ff ff       	jmp    402902 <_glob_match+0x362>
  402a6e:	66 90                	xchg   ax,ax
  402a70:	8b 7d bc             	mov    edi,DWORD PTR [ebp-0x44]
  402a73:	89 03                	mov    DWORD PTR [ebx],eax
  402a75:	85 ff                	test   edi,edi
  402a77:	0f 85 eb fd ff ff    	jne    402868 <_glob_match+0x2c8>
  402a7d:	89 45 bc             	mov    DWORD PTR [ebp-0x44],eax
  402a80:	e9 e3 fd ff ff       	jmp    402868 <_glob_match+0x2c8>
  402a85:	c7 45 b4 00 00 00 00 	mov    DWORD PTR [ebp-0x4c],0x0
  402a8c:	e9 47 fc ff ff       	jmp    4026d8 <_glob_match+0x138>
  402a91:	89 55 c0             	mov    DWORD PTR [ebp-0x40],edx
  402a94:	88 45 a3             	mov    BYTE PTR [ebp-0x5d],al
  402a97:	e9 50 ff ff ff       	jmp    4029ec <_glob_match+0x44c>
  402a9c:	31 db                	xor    ebx,ebx
  402a9e:	31 c9                	xor    ecx,ecx
  402aa0:	e9 83 fd ff ff       	jmp    402828 <_glob_match+0x288>
  402aa5:	8b 55 cc             	mov    edx,DWORD PTR [ebp-0x34]
  402aa8:	89 d8                	mov    eax,ebx
  402aaa:	e8 a1 f4 ff ff       	call   401f50 <_is_glob_pattern>
  402aaf:	85 c0                	test   eax,eax
  402ab1:	0f 85 bb fb ff ff    	jne    402672 <_glob_match+0xd2>
  402ab7:	89 1c 24             	mov    DWORD PTR [esp],ebx
  402aba:	89 e6                	mov    esi,esp
  402abc:	e8 7f 54 00 00       	call   407f40 <_strlen>
  402ac1:	83 c0 10             	add    eax,0x10
  402ac4:	83 e0 f0             	and    eax,0xfffffff0
  402ac7:	e8 54 f4 ff ff       	call   401f20 <___chkstk_ms>
  402acc:	29 c4                	sub    esp,eax
  402ace:	8d 4c 24 0c          	lea    ecx,[esp+0xc]
  402ad2:	89 ca                	mov    edx,ecx
  402ad4:	eb 0d                	jmp    402ae3 <_glob_match+0x543>
  402ad6:	83 c2 01             	add    edx,0x1
  402ad9:	83 c3 01             	add    ebx,0x1
  402adc:	84 c0                	test   al,al
  402ade:	88 42 ff             	mov    BYTE PTR [edx-0x1],al
  402ae1:	74 32                	je     402b15 <_glob_match+0x575>
  402ae3:	0f b6 03             	movzx  eax,BYTE PTR [ebx]
  402ae6:	3c 7f                	cmp    al,0x7f
  402ae8:	75 ec                	jne    402ad6 <_glob_match+0x536>
  402aea:	0f b6 43 01          	movzx  eax,BYTE PTR [ebx+0x1]
  402aee:	83 c3 01             	add    ebx,0x1
  402af1:	eb e3                	jmp    402ad6 <_glob_match+0x536>
  402af3:	8b 45 c8             	mov    eax,DWORD PTR [ebp-0x38]
  402af6:	c7 45 c4 02 00 00 00 	mov    DWORD PTR [ebp-0x3c],0x2
  402afd:	e9 1f fe ff ff       	jmp    402921 <_glob_match+0x381>
  402b02:	80 7d a3 2f          	cmp    BYTE PTR [ebp-0x5d],0x2f
  402b06:	0f 84 ea fe ff ff    	je     4029f6 <_glob_match+0x456>
  402b0c:	c6 45 a3 5c          	mov    BYTE PTR [ebp-0x5d],0x5c
  402b10:	e9 0b ff ff ff       	jmp    402a20 <_glob_match+0x480>
  402b15:	89 0c 24             	mov    DWORD PTR [esp],ecx
  402b18:	e8 0b 58 00 00       	call   408328 <_strdup>
  402b1d:	8b 55 08             	mov    edx,DWORD PTR [ebp+0x8]
  402b20:	89 f4                	mov    esp,esi
  402b22:	e8 19 fa ff ff       	call   402540 <_glob_store_entry>
  402b27:	8b 45 e0             	mov    eax,DWORD PTR [ebp-0x20]
  402b2a:	c7 45 c4 00 00 00 00 	mov    DWORD PTR [ebp-0x3c],0x0
  402b31:	e9 eb fd ff ff       	jmp    402921 <_glob_match+0x381>
  402b36:	88 55 a3             	mov    BYTE PTR [ebp-0x5d],dl
  402b39:	89 45 c0             	mov    DWORD PTR [ebp-0x40],eax
  402b3c:	e9 ab fe ff ff       	jmp    4029ec <_glob_match+0x44c>
  402b41:	0f b6 08             	movzx  ecx,BYTE PTR [eax]
  402b44:	89 45 c0             	mov    DWORD PTR [ebp-0x40],eax
  402b47:	88 4d a3             	mov    BYTE PTR [ebp-0x5d],cl
  402b4a:	e9 9d fe ff ff       	jmp    4029ec <_glob_match+0x44c>
  402b4f:	90                   	nop

00402b50 <___mingw_glob>:
  402b50:	55                   	push   ebp
  402b51:	89 e5                	mov    ebp,esp
  402b53:	57                   	push   edi
  402b54:	56                   	push   esi
  402b55:	53                   	push   ebx
  402b56:	83 ec 1c             	sub    esp,0x1c
  402b59:	8b 75 14             	mov    esi,DWORD PTR [ebp+0x14]
  402b5c:	8b 5d 08             	mov    ebx,DWORD PTR [ebp+0x8]
  402b5f:	81 3e 16 a1 40 00    	cmp    DWORD PTR [esi],0x40a116
  402b65:	74 0d                	je     402b74 <___mingw_glob+0x24>
  402b67:	89 f0                	mov    eax,esi
  402b69:	e8 82 f6 ff ff       	call   4021f0 <_glob_initialise>
  402b6e:	c7 06 16 a1 40 00    	mov    DWORD PTR [esi],0x40a116
  402b74:	89 34 24             	mov    DWORD PTR [esp],esi
  402b77:	8b 4d 10             	mov    ecx,DWORD PTR [ebp+0x10]
  402b7a:	89 d8                	mov    eax,ebx
  402b7c:	8b 55 0c             	mov    edx,DWORD PTR [ebp+0xc]
  402b7f:	e8 1c fa ff ff       	call   4025a0 <_glob_match>
  402b84:	83 f8 02             	cmp    eax,0x2
  402b87:	89 c7                	mov    edi,eax
  402b89:	74 0a                	je     402b95 <___mingw_glob+0x45>
  402b8b:	8d 65 f4             	lea    esp,[ebp-0xc]
  402b8e:	89 f8                	mov    eax,edi
  402b90:	5b                   	pop    ebx
  402b91:	5e                   	pop    esi
  402b92:	5f                   	pop    edi
  402b93:	5d                   	pop    ebp
  402b94:	c3                   	ret    
  402b95:	f6 45 0c 10          	test   BYTE PTR [ebp+0xc],0x10
  402b99:	74 f0                	je     402b8b <___mingw_glob+0x3b>
  402b9b:	89 65 e4             	mov    DWORD PTR [ebp-0x1c],esp
  402b9e:	89 1c 24             	mov    DWORD PTR [esp],ebx
  402ba1:	e8 9a 53 00 00       	call   407f40 <_strlen>
  402ba6:	83 c0 10             	add    eax,0x10
  402ba9:	83 e0 f0             	and    eax,0xfffffff0
  402bac:	e8 6f f3 ff ff       	call   401f20 <___chkstk_ms>
  402bb1:	29 c4                	sub    esp,eax
  402bb3:	8d 4c 24 04          	lea    ecx,[esp+0x4]
  402bb7:	89 ca                	mov    edx,ecx
  402bb9:	eb 12                	jmp    402bcd <___mingw_glob+0x7d>
  402bbb:	90                   	nop
  402bbc:	8d 74 26 00          	lea    esi,[esi+eiz*1+0x0]
  402bc0:	83 c2 01             	add    edx,0x1
  402bc3:	83 c3 01             	add    ebx,0x1
  402bc6:	84 c0                	test   al,al
  402bc8:	88 42 ff             	mov    BYTE PTR [edx-0x1],al
  402bcb:	74 1b                	je     402be8 <___mingw_glob+0x98>
  402bcd:	0f b6 03             	movzx  eax,BYTE PTR [ebx]
  402bd0:	3c 7f                	cmp    al,0x7f
  402bd2:	75 ec                	jne    402bc0 <___mingw_glob+0x70>
  402bd4:	0f b6 43 01          	movzx  eax,BYTE PTR [ebx+0x1]
  402bd8:	83 c3 01             	add    ebx,0x1
  402bdb:	83 c2 01             	add    edx,0x1
  402bde:	83 c3 01             	add    ebx,0x1
  402be1:	84 c0                	test   al,al
  402be3:	88 42 ff             	mov    BYTE PTR [edx-0x1],al
  402be6:	75 e5                	jne    402bcd <___mingw_glob+0x7d>
  402be8:	89 0c 24             	mov    DWORD PTR [esp],ecx
  402beb:	e8 38 57 00 00       	call   408328 <_strdup>
  402bf0:	8b 65 e4             	mov    esp,DWORD PTR [ebp-0x1c]
  402bf3:	89 f2                	mov    edx,esi
  402bf5:	e8 46 f9 ff ff       	call   402540 <_glob_store_entry>
  402bfa:	8d 65 f4             	lea    esp,[ebp-0xc]
  402bfd:	89 f8                	mov    eax,edi
  402bff:	5b                   	pop    ebx
  402c00:	5e                   	pop    esi
  402c01:	5f                   	pop    edi
  402c02:	5d                   	pop    ebp
  402c03:	c3                   	ret    
  402c04:	8d b6 00 00 00 00    	lea    esi,[esi+0x0]
  402c0a:	8d bf 00 00 00 00    	lea    edi,[edi+0x0]

00402c10 <___mingw_globfree>:
  402c10:	8b 44 24 04          	mov    eax,DWORD PTR [esp+0x4]
  402c14:	81 38 16 a1 40 00    	cmp    DWORD PTR [eax],0x40a116
  402c1a:	74 04                	je     402c20 <___mingw_globfree+0x10>
  402c1c:	f3 c3                	repz ret 
  402c1e:	66 90                	xchg   ax,ax
  402c20:	e9 5b f8 ff ff       	jmp    402480 <_glob_registry.part.1>
  402c25:	90                   	nop
  402c26:	90                   	nop
  402c27:	90                   	nop
  402c28:	90                   	nop
  402c29:	90                   	nop
  402c2a:	90                   	nop
  402c2b:	90                   	nop
  402c2c:	90                   	nop
  402c2d:	90                   	nop
  402c2e:	90                   	nop
  402c2f:	90                   	nop

00402c30 <___mingw_dirname>:
  402c30:	55                   	push   ebp
  402c31:	89 e5                	mov    ebp,esp
  402c33:	57                   	push   edi
  402c34:	56                   	push   esi
  402c35:	53                   	push   ebx
  402c36:	83 ec 3c             	sub    esp,0x3c
  402c39:	8b 75 08             	mov    esi,DWORD PTR [ebp+0x8]
  402c3c:	c7 44 24 04 00 00 00 	mov    DWORD PTR [esp+0x4],0x0
  402c43:	00 
  402c44:	c7 04 24 02 00 00 00 	mov    DWORD PTR [esp],0x2
  402c4b:	e8 10 53 00 00       	call   407f60 <_setlocale>
  402c50:	85 c0                	test   eax,eax
  402c52:	89 c3                	mov    ebx,eax
  402c54:	74 0a                	je     402c60 <___mingw_dirname+0x30>
  402c56:	89 04 24             	mov    DWORD PTR [esp],eax
  402c59:	e8 ca 56 00 00       	call   408328 <_strdup>
  402c5e:	89 c3                	mov    ebx,eax
  402c60:	c7 44 24 04 28 a1 40 	mov    DWORD PTR [esp+0x4],0x40a128
  402c67:	00 
  402c68:	c7 04 24 02 00 00 00 	mov    DWORD PTR [esp],0x2
  402c6f:	e8 ec 52 00 00       	call   407f60 <_setlocale>
  402c74:	85 f6                	test   esi,esi
  402c76:	74 05                	je     402c7d <___mingw_dirname+0x4d>
  402c78:	80 3e 00             	cmp    BYTE PTR [esi],0x0
  402c7b:	75 73                	jne    402cf0 <___mingw_dirname+0xc0>
  402c7d:	c7 44 24 08 00 00 00 	mov    DWORD PTR [esp+0x8],0x0
  402c84:	00 
  402c85:	c7 44 24 04 2a a1 40 	mov    DWORD PTR [esp+0x4],0x40a12a
  402c8c:	00 
  402c8d:	c7 04 24 00 00 00 00 	mov    DWORD PTR [esp],0x0
  402c94:	e8 87 52 00 00       	call   407f20 <_wcstombs>
  402c99:	8d 70 01             	lea    esi,[eax+0x1]
  402c9c:	89 74 24 04          	mov    DWORD PTR [esp+0x4],esi
  402ca0:	a1 68 d0 40 00       	mov    eax,ds:0x40d068
  402ca5:	89 04 24             	mov    DWORD PTR [esp],eax
  402ca8:	e8 bb 52 00 00       	call   407f68 <_realloc>
  402cad:	a3 68 d0 40 00       	mov    ds:0x40d068,eax
  402cb2:	89 74 24 08          	mov    DWORD PTR [esp+0x8],esi
  402cb6:	c7 44 24 04 2a a1 40 	mov    DWORD PTR [esp+0x4],0x40a12a
  402cbd:	00 
  402cbe:	89 04 24             	mov    DWORD PTR [esp],eax
  402cc1:	e8 5a 52 00 00       	call   407f20 <_wcstombs>
  402cc6:	89 5c 24 04          	mov    DWORD PTR [esp+0x4],ebx
  402cca:	c7 04 24 02 00 00 00 	mov    DWORD PTR [esp],0x2
  402cd1:	e8 8a 52 00 00       	call   407f60 <_setlocale>
  402cd6:	89 1c 24             	mov    DWORD PTR [esp],ebx
  402cd9:	e8 d2 52 00 00       	call   407fb0 <_free>
  402cde:	a1 68 d0 40 00       	mov    eax,ds:0x40d068
  402ce3:	8d 65 f4             	lea    esp,[ebp-0xc]
  402ce6:	5b                   	pop    ebx
  402ce7:	5e                   	pop    esi
  402ce8:	5f                   	pop    edi
  402ce9:	5d                   	pop    ebp
  402cea:	c3                   	ret    
  402ceb:	90                   	nop
  402cec:	8d 74 26 00          	lea    esi,[esi+eiz*1+0x0]
  402cf0:	89 65 d4             	mov    DWORD PTR [ebp-0x2c],esp
  402cf3:	c7 44 24 08 00 00 00 	mov    DWORD PTR [esp+0x8],0x0
  402cfa:	00 
  402cfb:	89 74 24 04          	mov    DWORD PTR [esp+0x4],esi
  402cff:	c7 04 24 00 00 00 00 	mov    DWORD PTR [esp],0x0
  402d06:	e8 75 52 00 00       	call   407f80 <_mbstowcs>
  402d0b:	89 c2                	mov    edx,eax
  402d0d:	8d 44 00 12          	lea    eax,[eax+eax*1+0x12]
  402d11:	83 e0 f0             	and    eax,0xfffffff0
  402d14:	e8 07 f2 ff ff       	call   401f20 <___chkstk_ms>
  402d19:	29 c4                	sub    esp,eax
  402d1b:	8d 44 24 0d          	lea    eax,[esp+0xd]
  402d1f:	89 45 e4             	mov    DWORD PTR [ebp-0x1c],eax
  402d22:	d1 6d e4             	shr    DWORD PTR [ebp-0x1c],1
  402d25:	8b 45 e4             	mov    eax,DWORD PTR [ebp-0x1c]
  402d28:	01 c0                	add    eax,eax
  402d2a:	89 45 e0             	mov    DWORD PTR [ebp-0x20],eax
  402d2d:	89 c7                	mov    edi,eax
  402d2f:	89 54 24 08          	mov    DWORD PTR [esp+0x8],edx
  402d33:	89 74 24 04          	mov    DWORD PTR [esp+0x4],esi
  402d37:	89 04 24             	mov    DWORD PTR [esp],eax
  402d3a:	e8 41 52 00 00       	call   407f80 <_mbstowcs>
  402d3f:	31 c9                	xor    ecx,ecx
  402d41:	66 89 0c 47          	mov    WORD PTR [edi+eax*2],cx
  402d45:	83 f8 01             	cmp    eax,0x1
  402d48:	89 45 d0             	mov    DWORD PTR [ebp-0x30],eax
  402d4b:	8b 45 e4             	mov    eax,DWORD PTR [ebp-0x1c]
  402d4e:	0f b7 04 00          	movzx  eax,WORD PTR [eax+eax*1]
  402d52:	66 89 45 da          	mov    WORD PTR [ebp-0x26],ax
  402d56:	0f 86 f2 00 00 00    	jbe    402e4e <___mingw_dirname+0x21e>
  402d5c:	66 83 f8 5c          	cmp    ax,0x5c
  402d60:	74 0a                	je     402d6c <___mingw_dirname+0x13c>
  402d62:	66 83 f8 2f          	cmp    ax,0x2f
  402d66:	0f 85 0a 01 00 00    	jne    402e76 <___mingw_dirname+0x246>
  402d6c:	8b 7d e0             	mov    edi,DWORD PTR [ebp-0x20]
  402d6f:	89 7d dc             	mov    DWORD PTR [ebp-0x24],edi
  402d72:	8b 7d e4             	mov    edi,DWORD PTR [ebp-0x1c]
  402d75:	66 3b 44 3f 02       	cmp    ax,WORD PTR [edi+edi*1+0x2]
  402d7a:	0f 84 4f 02 00 00    	je     402fcf <___mingw_dirname+0x39f>
  402d80:	0f b7 45 da          	movzx  eax,WORD PTR [ebp-0x26]
  402d84:	66 85 c0             	test   ax,ax
  402d87:	0f 84 fa 01 00 00    	je     402f87 <___mingw_dirname+0x357>
  402d8d:	8b 55 dc             	mov    edx,DWORD PTR [ebp-0x24]
  402d90:	89 d7                	mov    edi,edx
  402d92:	eb 14                	jmp    402da8 <___mingw_dirname+0x178>
  402d94:	66 83 f8 2f          	cmp    ax,0x2f
  402d98:	74 20                	je     402dba <___mingw_dirname+0x18a>
  402d9a:	0f b7 42 02          	movzx  eax,WORD PTR [edx+0x2]
  402d9e:	8d 4a 02             	lea    ecx,[edx+0x2]
  402da1:	66 85 c0             	test   ax,ax
  402da4:	74 36                	je     402ddc <___mingw_dirname+0x1ac>
  402da6:	89 ca                	mov    edx,ecx
  402da8:	66 83 f8 5c          	cmp    ax,0x5c
  402dac:	75 e6                	jne    402d94 <___mingw_dirname+0x164>
  402dae:	0f b7 02             	movzx  eax,WORD PTR [edx]
  402db1:	66 83 f8 5c          	cmp    ax,0x5c
  402db5:	75 0c                	jne    402dc3 <___mingw_dirname+0x193>
  402db7:	83 c2 02             	add    edx,0x2
  402dba:	0f b7 02             	movzx  eax,WORD PTR [edx]
  402dbd:	66 83 f8 5c          	cmp    ax,0x5c
  402dc1:	74 f4                	je     402db7 <___mingw_dirname+0x187>
  402dc3:	66 83 f8 2f          	cmp    ax,0x2f
  402dc7:	74 ee                	je     402db7 <___mingw_dirname+0x187>
  402dc9:	66 85 c0             	test   ax,ax
  402dcc:	74 0e                	je     402ddc <___mingw_dirname+0x1ac>
  402dce:	0f b7 42 02          	movzx  eax,WORD PTR [edx+0x2]
  402dd2:	89 d7                	mov    edi,edx
  402dd4:	8d 4a 02             	lea    ecx,[edx+0x2]
  402dd7:	66 85 c0             	test   ax,ax
  402dda:	75 ca                	jne    402da6 <___mingw_dirname+0x176>
  402ddc:	8b 4d dc             	mov    ecx,DWORD PTR [ebp-0x24]
  402ddf:	39 f9                	cmp    ecx,edi
  402de1:	72 7e                	jb     402e61 <___mingw_dirname+0x231>
  402de3:	66 83 7d da 5c       	cmp    WORD PTR [ebp-0x26],0x5c
  402de8:	74 0b                	je     402df5 <___mingw_dirname+0x1c5>
  402dea:	66 83 7d da 2f       	cmp    WORD PTR [ebp-0x26],0x2f
  402def:	0f 85 ba 01 00 00    	jne    402faf <___mingw_dirname+0x37f>
  402df5:	8b 45 dc             	mov    eax,DWORD PTR [ebp-0x24]
  402df8:	83 c0 02             	add    eax,0x2
  402dfb:	31 d2                	xor    edx,edx
  402dfd:	66 89 10             	mov    WORD PTR [eax],dx
  402e00:	c7 44 24 08 00 00 00 	mov    DWORD PTR [esp+0x8],0x0
  402e07:	00 
  402e08:	8b 45 e0             	mov    eax,DWORD PTR [ebp-0x20]
  402e0b:	c7 04 24 00 00 00 00 	mov    DWORD PTR [esp],0x0
  402e12:	89 44 24 04          	mov    DWORD PTR [esp+0x4],eax
  402e16:	e8 05 51 00 00       	call   407f20 <_wcstombs>
  402e1b:	8d 78 01             	lea    edi,[eax+0x1]
  402e1e:	89 7c 24 04          	mov    DWORD PTR [esp+0x4],edi
  402e22:	a1 68 d0 40 00       	mov    eax,ds:0x40d068
  402e27:	89 04 24             	mov    DWORD PTR [esp],eax
  402e2a:	e8 39 51 00 00       	call   407f68 <_realloc>
  402e2f:	a3 68 d0 40 00       	mov    ds:0x40d068,eax
  402e34:	89 c6                	mov    esi,eax
  402e36:	89 7c 24 08          	mov    DWORD PTR [esp+0x8],edi
  402e3a:	8b 45 e0             	mov    eax,DWORD PTR [ebp-0x20]
  402e3d:	89 34 24             	mov    DWORD PTR [esp],esi
  402e40:	89 44 24 04          	mov    DWORD PTR [esp+0x4],eax
  402e44:	e8 d7 50 00 00       	call   407f20 <_wcstombs>
  402e49:	e9 e9 00 00 00       	jmp    402f37 <___mingw_dirname+0x307>
  402e4e:	8b 45 e0             	mov    eax,DWORD PTR [ebp-0x20]
  402e51:	89 45 dc             	mov    DWORD PTR [ebp-0x24],eax
  402e54:	e9 27 ff ff ff       	jmp    402d80 <___mingw_dirname+0x150>
  402e59:	66 83 fa 2f          	cmp    dx,0x2f
  402e5d:	75 46                	jne    402ea5 <___mingw_dirname+0x275>
  402e5f:	89 c7                	mov    edi,eax
  402e61:	8d 47 fe             	lea    eax,[edi-0x2]
  402e64:	39 c1                	cmp    ecx,eax
  402e66:	73 3d                	jae    402ea5 <___mingw_dirname+0x275>
  402e68:	0f b7 57 fe          	movzx  edx,WORD PTR [edi-0x2]
  402e6c:	66 83 fa 5c          	cmp    dx,0x5c
  402e70:	75 e7                	jne    402e59 <___mingw_dirname+0x229>
  402e72:	89 c7                	mov    edi,eax
  402e74:	eb eb                	jmp    402e61 <___mingw_dirname+0x231>
  402e76:	8b 45 e0             	mov    eax,DWORD PTR [ebp-0x20]
  402e79:	89 45 dc             	mov    DWORD PTR [ebp-0x24],eax
  402e7c:	8b 45 e4             	mov    eax,DWORD PTR [ebp-0x1c]
  402e7f:	66 83 7c 00 02 3a    	cmp    WORD PTR [eax+eax*1+0x2],0x3a
  402e85:	0f 85 f5 fe ff ff    	jne    402d80 <___mingw_dirname+0x150>
  402e8b:	8b 45 e0             	mov    eax,DWORD PTR [ebp-0x20]
  402e8e:	83 c0 04             	add    eax,0x4
  402e91:	89 45 dc             	mov    DWORD PTR [ebp-0x24],eax
  402e94:	8b 45 e4             	mov    eax,DWORD PTR [ebp-0x1c]
  402e97:	0f b7 44 00 04       	movzx  eax,WORD PTR [eax+eax*1+0x4]
  402e9c:	66 89 45 da          	mov    WORD PTR [ebp-0x26],ax
  402ea0:	e9 db fe ff ff       	jmp    402d80 <___mingw_dirname+0x150>
  402ea5:	39 45 dc             	cmp    DWORD PTR [ebp-0x24],eax
  402ea8:	0f 84 37 01 00 00    	je     402fe5 <___mingw_dirname+0x3b5>
  402eae:	31 d2                	xor    edx,edx
  402eb0:	66 89 50 02          	mov    WORD PTR [eax+0x2],dx
  402eb4:	8b 45 e4             	mov    eax,DWORD PTR [ebp-0x1c]
  402eb7:	0f b7 14 00          	movzx  edx,WORD PTR [eax+eax*1]
  402ebb:	8b 45 e0             	mov    eax,DWORD PTR [ebp-0x20]
  402ebe:	66 83 fa 5c          	cmp    dx,0x5c
  402ec2:	0f 85 c7 00 00 00    	jne    402f8f <___mingw_dirname+0x35f>
  402ec8:	83 c0 02             	add    eax,0x2
  402ecb:	0f b7 08             	movzx  ecx,WORD PTR [eax]
  402ece:	66 83 f9 5c          	cmp    cx,0x5c
  402ed2:	74 f4                	je     402ec8 <___mingw_dirname+0x298>
  402ed4:	66 83 f9 2f          	cmp    cx,0x2f
  402ed8:	74 ee                	je     402ec8 <___mingw_dirname+0x298>
  402eda:	89 c1                	mov    ecx,eax
  402edc:	2b 4d e0             	sub    ecx,DWORD PTR [ebp-0x20]
  402edf:	83 f9 05             	cmp    ecx,0x5
  402ee2:	0f 8e b1 00 00 00    	jle    402f99 <___mingw_dirname+0x369>
  402ee8:	8b 45 e0             	mov    eax,DWORD PTR [ebp-0x20]
  402eeb:	89 c1                	mov    ecx,eax
  402eed:	66 85 d2             	test   dx,dx
  402ef0:	74 21                	je     402f13 <___mingw_dirname+0x2e3>
  402ef2:	83 c1 02             	add    ecx,0x2
  402ef5:	66 83 fa 2f          	cmp    dx,0x2f
  402ef9:	66 89 51 fe          	mov    WORD PTR [ecx-0x2],dx
  402efd:	74 63                	je     402f62 <___mingw_dirname+0x332>
  402eff:	66 83 38 5c          	cmp    WORD PTR [eax],0x5c
  402f03:	8d 78 02             	lea    edi,[eax+0x2]
  402f06:	74 58                	je     402f60 <___mingw_dirname+0x330>
  402f08:	0f b7 50 02          	movzx  edx,WORD PTR [eax+0x2]
  402f0c:	89 f8                	mov    eax,edi
  402f0e:	66 85 d2             	test   dx,dx
  402f11:	75 df                	jne    402ef2 <___mingw_dirname+0x2c2>
  402f13:	8b 45 d0             	mov    eax,DWORD PTR [ebp-0x30]
  402f16:	31 ff                	xor    edi,edi
  402f18:	66 89 39             	mov    WORD PTR [ecx],di
  402f1b:	89 44 24 08          	mov    DWORD PTR [esp+0x8],eax
  402f1f:	8b 45 e0             	mov    eax,DWORD PTR [ebp-0x20]
  402f22:	89 34 24             	mov    DWORD PTR [esp],esi
  402f25:	89 44 24 04          	mov    DWORD PTR [esp+0x4],eax
  402f29:	e8 f2 4f 00 00       	call   407f20 <_wcstombs>
  402f2e:	83 f8 ff             	cmp    eax,0xffffffff
  402f31:	74 04                	je     402f37 <___mingw_dirname+0x307>
  402f33:	c6 04 06 00          	mov    BYTE PTR [esi+eax*1],0x0
  402f37:	89 5c 24 04          	mov    DWORD PTR [esp+0x4],ebx
  402f3b:	c7 04 24 02 00 00 00 	mov    DWORD PTR [esp],0x2
  402f42:	e8 19 50 00 00       	call   407f60 <_setlocale>
  402f47:	89 1c 24             	mov    DWORD PTR [esp],ebx
  402f4a:	e8 61 50 00 00       	call   407fb0 <_free>
  402f4f:	8b 65 d4             	mov    esp,DWORD PTR [ebp-0x2c]
  402f52:	8d 65 f4             	lea    esp,[ebp-0xc]
  402f55:	5b                   	pop    ebx
  402f56:	89 f0                	mov    eax,esi
  402f58:	5e                   	pop    esi
  402f59:	5f                   	pop    edi
  402f5a:	5d                   	pop    ebp
  402f5b:	c3                   	ret    
  402f5c:	8d 74 26 00          	lea    esi,[esi+eiz*1+0x0]
  402f60:	89 f8                	mov    eax,edi
  402f62:	0f b7 10             	movzx  edx,WORD PTR [eax]
  402f65:	66 83 fa 2f          	cmp    dx,0x2f
  402f69:	75 59                	jne    402fc4 <___mingw_dirname+0x394>
  402f6b:	90                   	nop
  402f6c:	8d 74 26 00          	lea    esi,[esi+eiz*1+0x0]
  402f70:	83 c0 02             	add    eax,0x2
  402f73:	0f b7 10             	movzx  edx,WORD PTR [eax]
  402f76:	66 83 fa 5c          	cmp    dx,0x5c
  402f7a:	74 f4                	je     402f70 <___mingw_dirname+0x340>
  402f7c:	66 83 fa 2f          	cmp    dx,0x2f
  402f80:	74 ee                	je     402f70 <___mingw_dirname+0x340>
  402f82:	e9 66 ff ff ff       	jmp    402eed <___mingw_dirname+0x2bd>
  402f87:	8b 65 d4             	mov    esp,DWORD PTR [ebp-0x2c]
  402f8a:	e9 ee fc ff ff       	jmp    402c7d <___mingw_dirname+0x4d>
  402f8f:	66 83 fa 2f          	cmp    dx,0x2f
  402f93:	0f 84 2f ff ff ff    	je     402ec8 <___mingw_dirname+0x298>
  402f99:	8b 7d e4             	mov    edi,DWORD PTR [ebp-0x1c]
  402f9c:	66 39 54 3f 02       	cmp    WORD PTR [edi+edi*1+0x2],dx
  402fa1:	0f 85 41 ff ff ff    	jne    402ee8 <___mingw_dirname+0x2b8>
  402fa7:	0f b7 10             	movzx  edx,WORD PTR [eax]
  402faa:	e9 3c ff ff ff       	jmp    402eeb <___mingw_dirname+0x2bb>
  402faf:	8b 7d dc             	mov    edi,DWORD PTR [ebp-0x24]
  402fb2:	b9 2e 00 00 00       	mov    ecx,0x2e
  402fb7:	89 f8                	mov    eax,edi
  402fb9:	83 c0 02             	add    eax,0x2
  402fbc:	66 89 0f             	mov    WORD PTR [edi],cx
  402fbf:	e9 37 fe ff ff       	jmp    402dfb <___mingw_dirname+0x1cb>
  402fc4:	66 83 fa 5c          	cmp    dx,0x5c
  402fc8:	74 a6                	je     402f70 <___mingw_dirname+0x340>
  402fca:	e9 1e ff ff ff       	jmp    402eed <___mingw_dirname+0x2bd>
  402fcf:	66 83 7c 3f 04 00    	cmp    WORD PTR [edi+edi*1+0x4],0x0
  402fd5:	0f 85 a5 fd ff ff    	jne    402d80 <___mingw_dirname+0x150>
  402fdb:	90                   	nop
  402fdc:	8d 74 26 00          	lea    esi,[esi+eiz*1+0x0]
  402fe0:	e9 52 ff ff ff       	jmp    402f37 <___mingw_dirname+0x307>
  402fe5:	66 83 7d da 5c       	cmp    WORD PTR [ebp-0x26],0x5c
  402fea:	74 0e                	je     402ffa <___mingw_dirname+0x3ca>
  402fec:	66 83 7d da 2f       	cmp    WORD PTR [ebp-0x26],0x2f
  402ff1:	8b 45 dc             	mov    eax,DWORD PTR [ebp-0x24]
  402ff4:	0f 85 b4 fe ff ff    	jne    402eae <___mingw_dirname+0x27e>
  402ffa:	8b 45 dc             	mov    eax,DWORD PTR [ebp-0x24]
  402ffd:	0f b7 4d da          	movzx  ecx,WORD PTR [ebp-0x26]
  403001:	66 39 48 02          	cmp    WORD PTR [eax+0x2],cx
  403005:	0f 85 a3 fe ff ff    	jne    402eae <___mingw_dirname+0x27e>
  40300b:	0f b7 50 04          	movzx  edx,WORD PTR [eax+0x4]
  40300f:	66 83 fa 2f          	cmp    dx,0x2f
  403013:	0f 84 95 fe ff ff    	je     402eae <___mingw_dirname+0x27e>
  403019:	66 83 fa 5c          	cmp    dx,0x5c
  40301d:	89 f8                	mov    eax,edi
  40301f:	0f 85 89 fe ff ff    	jne    402eae <___mingw_dirname+0x27e>
  403025:	8b 45 dc             	mov    eax,DWORD PTR [ebp-0x24]
  403028:	e9 81 fe ff ff       	jmp    402eae <___mingw_dirname+0x27e>
  40302d:	90                   	nop
  40302e:	90                   	nop
  40302f:	90                   	nop

00403030 <_dirent_findnext>:
  403030:	55                   	push   ebp
  403031:	89 e5                	mov    ebp,esp
  403033:	56                   	push   esi
  403034:	89 d6                	mov    esi,edx
  403036:	53                   	push   ebx
  403037:	81 ec 50 01 00 00    	sub    esp,0x150
  40303d:	8d 95 b8 fe ff ff    	lea    edx,[ebp-0x148]
  403043:	89 54 24 04          	mov    DWORD PTR [esp+0x4],edx
  403047:	89 04 24             	mov    DWORD PTR [esp],eax
  40304a:	e8 39 50 00 00       	call   408088 <_FindNextFileA@8>
  40304f:	83 ec 08             	sub    esp,0x8
  403052:	85 c0                	test   eax,eax
  403054:	89 c3                	mov    ebx,eax
  403056:	75 20                	jne    403078 <_dirent_findnext+0x48>
  403058:	e8 1b 50 00 00       	call   408078 <_GetLastError@0>
  40305d:	31 db                	xor    ebx,ebx
  40305f:	83 f8 12             	cmp    eax,0x12
  403062:	74 0b                	je     40306f <_dirent_findnext+0x3f>
  403064:	e8 7f 4f 00 00       	call   407fe8 <__errno>
  403069:	c7 00 02 00 00 00    	mov    DWORD PTR [eax],0x2
  40306f:	8d 65 f8             	lea    esp,[ebp-0x8]
  403072:	89 d8                	mov    eax,ebx
  403074:	5b                   	pop    ebx
  403075:	5e                   	pop    esi
  403076:	5d                   	pop    ebp
  403077:	c3                   	ret    
  403078:	8d 85 e4 fe ff ff    	lea    eax,[ebp-0x11c]
  40307e:	89 44 24 0c          	mov    DWORD PTR [esp+0xc],eax
  403082:	8d 46 0c             	lea    eax,[esi+0xc]
  403085:	c7 44 24 08 30 a1 40 	mov    DWORD PTR [esp+0x8],0x40a130
  40308c:	00 
  40308d:	c7 44 24 04 04 01 00 	mov    DWORD PTR [esp+0x4],0x104
  403094:	00 
  403095:	89 04 24             	mov    DWORD PTR [esp],eax
  403098:	e8 43 04 00 00       	call   4034e0 <___mingw_snprintf>
  40309d:	66 89 46 06          	mov    WORD PTR [esi+0x6],ax
  4030a1:	8b 85 b8 fe ff ff    	mov    eax,DWORD PTR [ebp-0x148]
  4030a7:	24 58                	and    al,0x58
  4030a9:	83 f8 10             	cmp    eax,0x10
  4030ac:	76 12                	jbe    4030c0 <_dirent_findnext+0x90>
  4030ae:	c7 46 08 18 00 00 00 	mov    DWORD PTR [esi+0x8],0x18
  4030b5:	8d 65 f8             	lea    esp,[ebp-0x8]
  4030b8:	89 d8                	mov    eax,ebx
  4030ba:	5b                   	pop    ebx
  4030bb:	5e                   	pop    esi
  4030bc:	5d                   	pop    ebp
  4030bd:	c3                   	ret    
  4030be:	66 90                	xchg   ax,ax
  4030c0:	89 46 08             	mov    DWORD PTR [esi+0x8],eax
  4030c3:	8d 65 f8             	lea    esp,[ebp-0x8]
  4030c6:	89 d8                	mov    eax,ebx
  4030c8:	5b                   	pop    ebx
  4030c9:	5e                   	pop    esi
  4030ca:	5d                   	pop    ebp
  4030cb:	c3                   	ret    
  4030cc:	8d 74 26 00          	lea    esi,[esi+eiz*1+0x0]

004030d0 <_dirent_findfirst>:
  4030d0:	55                   	push   ebp
  4030d1:	89 e5                	mov    ebp,esp
  4030d3:	56                   	push   esi
  4030d4:	53                   	push   ebx
  4030d5:	89 d3                	mov    ebx,edx
  4030d7:	81 ec 50 01 00 00    	sub    esp,0x150
  4030dd:	8d 95 b8 fe ff ff    	lea    edx,[ebp-0x148]
  4030e3:	89 54 24 04          	mov    DWORD PTR [esp+0x4],edx
  4030e7:	89 04 24             	mov    DWORD PTR [esp],eax
  4030ea:	e8 a1 4f 00 00       	call   408090 <_FindFirstFileA@8>
  4030ef:	83 ec 08             	sub    esp,0x8
  4030f2:	83 f8 ff             	cmp    eax,0xffffffff
  4030f5:	89 c6                	mov    esi,eax
  4030f7:	74 4a                	je     403143 <_dirent_findfirst+0x73>
  4030f9:	8d 85 e4 fe ff ff    	lea    eax,[ebp-0x11c]
  4030ff:	89 44 24 0c          	mov    DWORD PTR [esp+0xc],eax
  403103:	8d 43 0c             	lea    eax,[ebx+0xc]
  403106:	c7 44 24 08 30 a1 40 	mov    DWORD PTR [esp+0x8],0x40a130
  40310d:	00 
  40310e:	c7 44 24 04 04 01 00 	mov    DWORD PTR [esp+0x4],0x104
  403115:	00 
  403116:	89 04 24             	mov    DWORD PTR [esp],eax
  403119:	e8 c2 03 00 00       	call   4034e0 <___mingw_snprintf>
  40311e:	8b 8d b8 fe ff ff    	mov    ecx,DWORD PTR [ebp-0x148]
  403124:	80 e1 58             	and    cl,0x58
  403127:	83 f9 10             	cmp    ecx,0x10
  40312a:	66 89 43 06          	mov    WORD PTR [ebx+0x6],ax
  40312e:	89 4b 08             	mov    DWORD PTR [ebx+0x8],ecx
  403131:	76 07                	jbe    40313a <_dirent_findfirst+0x6a>
  403133:	c7 43 08 18 00 00 00 	mov    DWORD PTR [ebx+0x8],0x18
  40313a:	8d 65 f8             	lea    esp,[ebp-0x8]
  40313d:	89 f0                	mov    eax,esi
  40313f:	5b                   	pop    ebx
  403140:	5e                   	pop    esi
  403141:	5d                   	pop    ebp
  403142:	c3                   	ret    
  403143:	e8 a0 4e 00 00       	call   407fe8 <__errno>
  403148:	89 c3                	mov    ebx,eax
  40314a:	e8 29 4f 00 00       	call   408078 <_GetLastError@0>
  40314f:	83 f8 03             	cmp    eax,0x3
  403152:	89 03                	mov    DWORD PTR [ebx],eax
  403154:	74 2a                	je     403180 <_dirent_findfirst+0xb0>
  403156:	e8 8d 4e 00 00       	call   407fe8 <__errno>
  40315b:	81 38 0b 01 00 00    	cmp    DWORD PTR [eax],0x10b
  403161:	74 2d                	je     403190 <_dirent_findfirst+0xc0>
  403163:	e8 80 4e 00 00       	call   407fe8 <__errno>
  403168:	83 38 02             	cmp    DWORD PTR [eax],0x2
  40316b:	74 cd                	je     40313a <_dirent_findfirst+0x6a>
  40316d:	8d 76 00             	lea    esi,[esi+0x0]
  403170:	e8 73 4e 00 00       	call   407fe8 <__errno>
  403175:	c7 00 16 00 00 00    	mov    DWORD PTR [eax],0x16
  40317b:	eb bd                	jmp    40313a <_dirent_findfirst+0x6a>
  40317d:	8d 76 00             	lea    esi,[esi+0x0]
  403180:	e8 63 4e 00 00       	call   407fe8 <__errno>
  403185:	c7 00 02 00 00 00    	mov    DWORD PTR [eax],0x2
  40318b:	eb ad                	jmp    40313a <_dirent_findfirst+0x6a>
  40318d:	8d 76 00             	lea    esi,[esi+0x0]
  403190:	e8 53 4e 00 00       	call   407fe8 <__errno>
  403195:	c7 00 14 00 00 00    	mov    DWORD PTR [eax],0x14
  40319b:	eb 9d                	jmp    40313a <_dirent_findfirst+0x6a>
  40319d:	8d 76 00             	lea    esi,[esi+0x0]

004031a0 <___mingw_opendir>:
  4031a0:	55                   	push   ebp
  4031a1:	57                   	push   edi
  4031a2:	56                   	push   esi
  4031a3:	53                   	push   ebx
  4031a4:	81 ec 2c 01 00 00    	sub    esp,0x12c
  4031aa:	8b 84 24 40 01 00 00 	mov    eax,DWORD PTR [esp+0x140]
  4031b1:	85 c0                	test   eax,eax
  4031b3:	0f 84 67 01 00 00    	je     403320 <___mingw_opendir+0x180>
  4031b9:	80 38 00             	cmp    BYTE PTR [eax],0x0
  4031bc:	0f 84 40 01 00 00    	je     403302 <___mingw_opendir+0x162>
  4031c2:	8d 7c 24 1c          	lea    edi,[esp+0x1c]
  4031c6:	c7 44 24 08 04 01 00 	mov    DWORD PTR [esp+0x8],0x104
  4031cd:	00 
  4031ce:	89 fb                	mov    ebx,edi
  4031d0:	89 44 24 04          	mov    DWORD PTR [esp+0x4],eax
  4031d4:	89 3c 24             	mov    DWORD PTR [esp],edi
  4031d7:	e8 04 4e 00 00       	call   407fe0 <__fullpath>
  4031dc:	80 7c 24 1c 00       	cmp    BYTE PTR [esp+0x1c],0x0
  4031e1:	74 5d                	je     403240 <___mingw_opendir+0xa0>
  4031e3:	8b 13                	mov    edx,DWORD PTR [ebx]
  4031e5:	83 c3 04             	add    ebx,0x4
  4031e8:	8d 82 ff fe fe fe    	lea    eax,[edx-0x1010101]
  4031ee:	f7 d2                	not    edx
  4031f0:	21 d0                	and    eax,edx
  4031f2:	25 80 80 80 80       	and    eax,0x80808080
  4031f7:	74 ea                	je     4031e3 <___mingw_opendir+0x43>
  4031f9:	a9 80 80 00 00       	test   eax,0x8080
  4031fe:	0f 84 df 00 00 00    	je     4032e3 <___mingw_opendir+0x143>
  403204:	00 c0                	add    al,al
  403206:	83 db 03             	sbb    ebx,0x3
  403209:	29 fb                	sub    ebx,edi
  40320b:	0f b6 44 1c 1b       	movzx  eax,BYTE PTR [esp+ebx*1+0x1b]
  403210:	3c 5c                	cmp    al,0x5c
  403212:	74 50                	je     403264 <___mingw_opendir+0xc4>
  403214:	3c 2f                	cmp    al,0x2f
  403216:	74 4c                	je     403264 <___mingw_opendir+0xc4>
  403218:	b9 5c 00 00 00       	mov    ecx,0x5c
  40321d:	66 89 0c 1f          	mov    WORD PTR [edi+ebx*1],cx
  403221:	89 fb                	mov    ebx,edi
  403223:	8b 13                	mov    edx,DWORD PTR [ebx]
  403225:	83 c3 04             	add    ebx,0x4
  403228:	8d 82 ff fe fe fe    	lea    eax,[edx-0x1010101]
  40322e:	f7 d2                	not    edx
  403230:	21 d0                	and    eax,edx
  403232:	25 80 80 80 80       	and    eax,0x80808080
  403237:	74 ea                	je     403223 <___mingw_opendir+0x83>
  403239:	eb 1b                	jmp    403256 <___mingw_opendir+0xb6>
  40323b:	90                   	nop
  40323c:	8d 74 26 00          	lea    esi,[esi+eiz*1+0x0]
  403240:	8b 13                	mov    edx,DWORD PTR [ebx]
  403242:	83 c3 04             	add    ebx,0x4
  403245:	8d 82 ff fe fe fe    	lea    eax,[edx-0x1010101]
  40324b:	f7 d2                	not    edx
  40324d:	21 d0                	and    eax,edx
  40324f:	25 80 80 80 80       	and    eax,0x80808080
  403254:	74 ea                	je     403240 <___mingw_opendir+0xa0>
  403256:	a9 80 80 00 00       	test   eax,0x8080
  40325b:	74 7b                	je     4032d8 <___mingw_opendir+0x138>
  40325d:	00 c0                	add    al,al
  40325f:	83 db 03             	sbb    ebx,0x3
  403262:	29 fb                	sub    ebx,edi
  403264:	ba 2a 00 00 00       	mov    edx,0x2a
  403269:	8d 83 1d 01 00 00    	lea    eax,[ebx+0x11d]
  40326f:	66 89 14 1f          	mov    WORD PTR [edi+ebx*1],dx
  403273:	89 04 24             	mov    DWORD PTR [esp],eax
  403276:	e8 0d 4d 00 00       	call   407f88 <_malloc>
  40327b:	85 c0                	test   eax,eax
  40327d:	89 c6                	mov    esi,eax
  40327f:	0f 84 8c 00 00 00    	je     403311 <___mingw_opendir+0x171>
  403285:	8d a8 18 01 00 00    	lea    ebp,[eax+0x118]
  40328b:	83 c3 02             	add    ebx,0x2
  40328e:	89 5c 24 08          	mov    DWORD PTR [esp+0x8],ebx
  403292:	89 7c 24 04          	mov    DWORD PTR [esp+0x4],edi
  403296:	89 2c 24             	mov    DWORD PTR [esp],ebp
  403299:	e8 da 4c 00 00       	call   407f78 <_memcpy>
  40329e:	89 f2                	mov    edx,esi
  4032a0:	89 e8                	mov    eax,ebp
  4032a2:	e8 29 fe ff ff       	call   4030d0 <_dirent_findfirst>
  4032a7:	83 f8 ff             	cmp    eax,0xffffffff
  4032aa:	89 86 10 01 00 00    	mov    DWORD PTR [esi+0x110],eax
  4032b0:	74 7d                	je     40332f <___mingw_opendir+0x18f>
  4032b2:	b8 10 01 00 00       	mov    eax,0x110
  4032b7:	66 89 46 04          	mov    WORD PTR [esi+0x4],ax
  4032bb:	89 f0                	mov    eax,esi
  4032bd:	c7 86 14 01 00 00 00 	mov    DWORD PTR [esi+0x114],0x0
  4032c4:	00 00 00 
  4032c7:	c7 06 00 00 00 00    	mov    DWORD PTR [esi],0x0
  4032cd:	81 c4 2c 01 00 00    	add    esp,0x12c
  4032d3:	5b                   	pop    ebx
  4032d4:	5e                   	pop    esi
  4032d5:	5f                   	pop    edi
  4032d6:	5d                   	pop    ebp
  4032d7:	c3                   	ret    
  4032d8:	c1 e8 10             	shr    eax,0x10
  4032db:	83 c3 02             	add    ebx,0x2
  4032de:	e9 7a ff ff ff       	jmp    40325d <___mingw_opendir+0xbd>
  4032e3:	c1 e8 10             	shr    eax,0x10
  4032e6:	83 c3 02             	add    ebx,0x2
  4032e9:	00 c0                	add    al,al
  4032eb:	83 db 03             	sbb    ebx,0x3
  4032ee:	29 fb                	sub    ebx,edi
  4032f0:	0f b6 44 1c 1b       	movzx  eax,BYTE PTR [esp+ebx*1+0x1b]
  4032f5:	3c 5c                	cmp    al,0x5c
  4032f7:	0f 84 67 ff ff ff    	je     403264 <___mingw_opendir+0xc4>
  4032fd:	e9 12 ff ff ff       	jmp    403214 <___mingw_opendir+0x74>
  403302:	e8 e1 4c 00 00       	call   407fe8 <__errno>
  403307:	c7 00 02 00 00 00    	mov    DWORD PTR [eax],0x2
  40330d:	31 c0                	xor    eax,eax
  40330f:	eb bc                	jmp    4032cd <___mingw_opendir+0x12d>
  403311:	e8 d2 4c 00 00       	call   407fe8 <__errno>
  403316:	c7 00 0c 00 00 00    	mov    DWORD PTR [eax],0xc
  40331c:	31 c0                	xor    eax,eax
  40331e:	eb ad                	jmp    4032cd <___mingw_opendir+0x12d>
  403320:	e8 c3 4c 00 00       	call   407fe8 <__errno>
  403325:	c7 00 16 00 00 00    	mov    DWORD PTR [eax],0x16
  40332b:	31 c0                	xor    eax,eax
  40332d:	eb 9e                	jmp    4032cd <___mingw_opendir+0x12d>
  40332f:	89 34 24             	mov    DWORD PTR [esp],esi
  403332:	e8 79 4c 00 00       	call   407fb0 <_free>
  403337:	31 c0                	xor    eax,eax
  403339:	eb 92                	jmp    4032cd <___mingw_opendir+0x12d>
  40333b:	90                   	nop
  40333c:	8d 74 26 00          	lea    esi,[esi+eiz*1+0x0]

00403340 <___mingw_readdir>:
  403340:	53                   	push   ebx
  403341:	83 ec 08             	sub    esp,0x8
  403344:	8b 5c 24 10          	mov    ebx,DWORD PTR [esp+0x10]
  403348:	85 db                	test   ebx,ebx
  40334a:	74 2b                	je     403377 <___mingw_readdir+0x37>
  40334c:	8b 83 14 01 00 00    	mov    eax,DWORD PTR [ebx+0x114]
  403352:	8d 50 01             	lea    edx,[eax+0x1]
  403355:	85 c0                	test   eax,eax
  403357:	89 93 14 01 00 00    	mov    DWORD PTR [ebx+0x114],edx
  40335d:	7e 11                	jle    403370 <___mingw_readdir+0x30>
  40335f:	8b 83 10 01 00 00    	mov    eax,DWORD PTR [ebx+0x110]
  403365:	89 da                	mov    edx,ebx
  403367:	e8 c4 fc ff ff       	call   403030 <_dirent_findnext>
  40336c:	85 c0                	test   eax,eax
  40336e:	74 02                	je     403372 <___mingw_readdir+0x32>
  403370:	89 d8                	mov    eax,ebx
  403372:	83 c4 08             	add    esp,0x8
  403375:	5b                   	pop    ebx
  403376:	c3                   	ret    
  403377:	e8 6c 4c 00 00       	call   407fe8 <__errno>
  40337c:	c7 00 09 00 00 00    	mov    DWORD PTR [eax],0x9
  403382:	31 c0                	xor    eax,eax
  403384:	eb ec                	jmp    403372 <___mingw_readdir+0x32>
  403386:	8d 76 00             	lea    esi,[esi+0x0]
  403389:	8d bc 27 00 00 00 00 	lea    edi,[edi+eiz*1+0x0]

00403390 <___mingw_closedir>:
  403390:	55                   	push   ebp
  403391:	89 e5                	mov    ebp,esp
  403393:	53                   	push   ebx
  403394:	83 ec 14             	sub    esp,0x14
  403397:	8b 5d 08             	mov    ebx,DWORD PTR [ebp+0x8]
  40339a:	85 db                	test   ebx,ebx
  40339c:	74 24                	je     4033c2 <___mingw_closedir+0x32>
  40339e:	8b 83 10 01 00 00    	mov    eax,DWORD PTR [ebx+0x110]
  4033a4:	89 04 24             	mov    DWORD PTR [esp],eax
  4033a7:	e8 ec 4c 00 00       	call   408098 <_FindClose@4>
  4033ac:	83 ec 04             	sub    esp,0x4
  4033af:	85 c0                	test   eax,eax
  4033b1:	74 0f                	je     4033c2 <___mingw_closedir+0x32>
  4033b3:	89 1c 24             	mov    DWORD PTR [esp],ebx
  4033b6:	e8 f5 4b 00 00       	call   407fb0 <_free>
  4033bb:	31 c0                	xor    eax,eax
  4033bd:	8b 5d fc             	mov    ebx,DWORD PTR [ebp-0x4]
  4033c0:	c9                   	leave  
  4033c1:	c3                   	ret    
  4033c2:	e8 21 4c 00 00       	call   407fe8 <__errno>
  4033c7:	c7 00 09 00 00 00    	mov    DWORD PTR [eax],0x9
  4033cd:	b8 ff ff ff ff       	mov    eax,0xffffffff
  4033d2:	eb e9                	jmp    4033bd <___mingw_closedir+0x2d>
  4033d4:	8d b6 00 00 00 00    	lea    esi,[esi+0x0]
  4033da:	8d bf 00 00 00 00    	lea    edi,[edi+0x0]

004033e0 <___mingw_rewinddir>:
  4033e0:	55                   	push   ebp
  4033e1:	89 e5                	mov    ebp,esp
  4033e3:	53                   	push   ebx
  4033e4:	83 ec 14             	sub    esp,0x14
  4033e7:	8b 5d 08             	mov    ebx,DWORD PTR [ebp+0x8]
  4033ea:	85 db                	test   ebx,ebx
  4033ec:	74 15                	je     403403 <___mingw_rewinddir+0x23>
  4033ee:	8b 83 10 01 00 00    	mov    eax,DWORD PTR [ebx+0x110]
  4033f4:	89 04 24             	mov    DWORD PTR [esp],eax
  4033f7:	e8 9c 4c 00 00       	call   408098 <_FindClose@4>
  4033fc:	83 ec 04             	sub    esp,0x4
  4033ff:	85 c0                	test   eax,eax
  403401:	75 10                	jne    403413 <___mingw_rewinddir+0x33>
  403403:	e8 e0 4b 00 00       	call   407fe8 <__errno>
  403408:	c7 00 09 00 00 00    	mov    DWORD PTR [eax],0x9
  40340e:	8b 5d fc             	mov    ebx,DWORD PTR [ebp-0x4]
  403411:	c9                   	leave  
  403412:	c3                   	ret    
  403413:	8d 83 18 01 00 00    	lea    eax,[ebx+0x118]
  403419:	89 da                	mov    edx,ebx
  40341b:	e8 b0 fc ff ff       	call   4030d0 <_dirent_findfirst>
  403420:	83 f8 ff             	cmp    eax,0xffffffff
  403423:	89 83 10 01 00 00    	mov    DWORD PTR [ebx+0x110],eax
  403429:	74 e3                	je     40340e <___mingw_rewinddir+0x2e>
  40342b:	c7 83 14 01 00 00 00 	mov    DWORD PTR [ebx+0x114],0x0
  403432:	00 00 00 
  403435:	8b 5d fc             	mov    ebx,DWORD PTR [ebp-0x4]
  403438:	c9                   	leave  
  403439:	c3                   	ret    
  40343a:	8d b6 00 00 00 00    	lea    esi,[esi+0x0]

00403440 <___mingw_telldir>:
  403440:	83 ec 0c             	sub    esp,0xc
  403443:	8b 44 24 10          	mov    eax,DWORD PTR [esp+0x10]
  403447:	85 c0                	test   eax,eax
  403449:	74 0a                	je     403455 <___mingw_telldir+0x15>
  40344b:	8b 80 14 01 00 00    	mov    eax,DWORD PTR [eax+0x114]
  403451:	83 c4 0c             	add    esp,0xc
  403454:	c3                   	ret    
  403455:	e8 8e 4b 00 00       	call   407fe8 <__errno>
  40345a:	c7 00 09 00 00 00    	mov    DWORD PTR [eax],0x9
  403460:	b8 ff ff ff ff       	mov    eax,0xffffffff
  403465:	eb ea                	jmp    403451 <___mingw_telldir+0x11>
  403467:	89 f6                	mov    esi,esi
  403469:	8d bc 27 00 00 00 00 	lea    edi,[edi+eiz*1+0x0]

00403470 <___mingw_seekdir>:
  403470:	56                   	push   esi
  403471:	53                   	push   ebx
  403472:	83 ec 14             	sub    esp,0x14
  403475:	8b 74 24 24          	mov    esi,DWORD PTR [esp+0x24]
  403479:	8b 5c 24 20          	mov    ebx,DWORD PTR [esp+0x20]
  40347d:	85 f6                	test   esi,esi
  40347f:	78 41                	js     4034c2 <___mingw_seekdir+0x52>
  403481:	89 1c 24             	mov    DWORD PTR [esp],ebx
  403484:	e8 57 ff ff ff       	call   4033e0 <___mingw_rewinddir>
  403489:	85 f6                	test   esi,esi
  40348b:	74 2f                	je     4034bc <___mingw_seekdir+0x4c>
  40348d:	83 bb 10 01 00 00 ff 	cmp    DWORD PTR [ebx+0x110],0xffffffff
  403494:	75 13                	jne    4034a9 <___mingw_seekdir+0x39>
  403496:	eb 24                	jmp    4034bc <___mingw_seekdir+0x4c>
  403498:	8b 83 10 01 00 00    	mov    eax,DWORD PTR [ebx+0x110]
  40349e:	89 da                	mov    edx,ebx
  4034a0:	e8 8b fb ff ff       	call   403030 <_dirent_findnext>
  4034a5:	85 c0                	test   eax,eax
  4034a7:	74 13                	je     4034bc <___mingw_seekdir+0x4c>
  4034a9:	8b 83 14 01 00 00    	mov    eax,DWORD PTR [ebx+0x114]
  4034af:	83 c0 01             	add    eax,0x1
  4034b2:	39 c6                	cmp    esi,eax
  4034b4:	89 83 14 01 00 00    	mov    DWORD PTR [ebx+0x114],eax
  4034ba:	7f dc                	jg     403498 <___mingw_seekdir+0x28>
  4034bc:	83 c4 14             	add    esp,0x14
  4034bf:	5b                   	pop    ebx
  4034c0:	5e                   	pop    esi
  4034c1:	c3                   	ret    
  4034c2:	e8 21 4b 00 00       	call   407fe8 <__errno>
  4034c7:	c7 00 16 00 00 00    	mov    DWORD PTR [eax],0x16
  4034cd:	83 c4 14             	add    esp,0x14
  4034d0:	5b                   	pop    ebx
  4034d1:	5e                   	pop    esi
  4034d2:	c3                   	ret    
  4034d3:	90                   	nop
  4034d4:	90                   	nop
  4034d5:	90                   	nop
  4034d6:	90                   	nop
  4034d7:	90                   	nop
  4034d8:	90                   	nop
  4034d9:	90                   	nop
  4034da:	90                   	nop
  4034db:	90                   	nop
  4034dc:	90                   	nop
  4034dd:	90                   	nop
  4034de:	90                   	nop
  4034df:	90                   	nop

004034e0 <___mingw_snprintf>:
  4034e0:	83 ec 1c             	sub    esp,0x1c
  4034e3:	8d 44 24 2c          	lea    eax,[esp+0x2c]
  4034e7:	89 44 24 0c          	mov    DWORD PTR [esp+0xc],eax
  4034eb:	8b 44 24 28          	mov    eax,DWORD PTR [esp+0x28]
  4034ef:	89 44 24 08          	mov    DWORD PTR [esp+0x8],eax
  4034f3:	8b 44 24 24          	mov    eax,DWORD PTR [esp+0x24]
  4034f7:	89 44 24 04          	mov    DWORD PTR [esp+0x4],eax
  4034fb:	8b 44 24 20          	mov    eax,DWORD PTR [esp+0x20]
  4034ff:	89 04 24             	mov    DWORD PTR [esp],eax
  403502:	e8 09 00 00 00       	call   403510 <___mingw_vsnprintf>
  403507:	83 c4 1c             	add    esp,0x1c
  40350a:	c3                   	ret    
  40350b:	90                   	nop
  40350c:	90                   	nop
  40350d:	90                   	nop
  40350e:	90                   	nop
  40350f:	90                   	nop

00403510 <___mingw_vsnprintf>:
  403510:	56                   	push   esi
  403511:	53                   	push   ebx
  403512:	83 ec 24             	sub    esp,0x24
  403515:	8b 44 24 34          	mov    eax,DWORD PTR [esp+0x34]
  403519:	8b 5c 24 30          	mov    ebx,DWORD PTR [esp+0x30]
  40351d:	8b 54 24 38          	mov    edx,DWORD PTR [esp+0x38]
  403521:	8b 4c 24 3c          	mov    ecx,DWORD PTR [esp+0x3c]
  403525:	85 c0                	test   eax,eax
  403527:	74 37                	je     403560 <___mingw_vsnprintf+0x50>
  403529:	8d 70 ff             	lea    esi,[eax-0x1]
  40352c:	89 54 24 0c          	mov    DWORD PTR [esp+0xc],edx
  403530:	89 4c 24 10          	mov    DWORD PTR [esp+0x10],ecx
  403534:	89 74 24 08          	mov    DWORD PTR [esp+0x8],esi
  403538:	89 5c 24 04          	mov    DWORD PTR [esp+0x4],ebx
  40353c:	c7 04 24 00 00 00 00 	mov    DWORD PTR [esp],0x0
  403543:	e8 e8 15 00 00       	call   404b30 <___mingw_pformat>
  403548:	39 f0                	cmp    eax,esi
  40354a:	89 c2                	mov    edx,eax
  40354c:	77 0a                	ja     403558 <___mingw_vsnprintf+0x48>
  40354e:	c6 04 13 00          	mov    BYTE PTR [ebx+edx*1],0x0
  403552:	83 c4 24             	add    esp,0x24
  403555:	5b                   	pop    ebx
  403556:	5e                   	pop    esi
  403557:	c3                   	ret    
  403558:	89 f2                	mov    edx,esi
  40355a:	eb f2                	jmp    40354e <___mingw_vsnprintf+0x3e>
  40355c:	8d 74 26 00          	lea    esi,[esi+eiz*1+0x0]
  403560:	89 5c 24 04          	mov    DWORD PTR [esp+0x4],ebx
  403564:	89 4c 24 10          	mov    DWORD PTR [esp+0x10],ecx
  403568:	89 54 24 0c          	mov    DWORD PTR [esp+0xc],edx
  40356c:	c7 44 24 08 00 00 00 	mov    DWORD PTR [esp+0x8],0x0
  403573:	00 
  403574:	c7 04 24 00 00 00 00 	mov    DWORD PTR [esp],0x0
  40357b:	e8 b0 15 00 00       	call   404b30 <___mingw_pformat>
  403580:	83 c4 24             	add    esp,0x24
  403583:	5b                   	pop    ebx
  403584:	5e                   	pop    esi
  403585:	c3                   	ret    
  403586:	90                   	nop
  403587:	90                   	nop
  403588:	90                   	nop
  403589:	90                   	nop
  40358a:	90                   	nop
  40358b:	90                   	nop
  40358c:	90                   	nop
  40358d:	90                   	nop
  40358e:	90                   	nop
  40358f:	90                   	nop

00403590 <___pformat_cvt>:
  403590:	53                   	push   ebx
  403591:	89 c1                	mov    ecx,eax
  403593:	83 ec 48             	sub    esp,0x48
  403596:	8b 44 24 50          	mov    eax,DWORD PTR [esp+0x50]
  40359a:	89 44 24 20          	mov    DWORD PTR [esp+0x20],eax
  40359e:	8b 44 24 54          	mov    eax,DWORD PTR [esp+0x54]
  4035a2:	89 44 24 24          	mov    DWORD PTR [esp+0x24],eax
  4035a6:	8b 44 24 58          	mov    eax,DWORD PTR [esp+0x58]
  4035aa:	89 44 24 28          	mov    DWORD PTR [esp+0x28],eax
  4035ae:	8b 44 24 5c          	mov    eax,DWORD PTR [esp+0x5c]
  4035b2:	db 6c 24 20          	fld    TBYTE PTR [esp+0x20]
  4035b6:	89 44 24 2c          	mov    DWORD PTR [esp+0x2c],eax
  4035ba:	d9 e5                	fxam   
  4035bc:	9b df e0             	fstsw  ax
  4035bf:	dd d8                	fstp   st(0)
  4035c1:	f6 c4 01             	test   ah,0x1
  4035c4:	74 1a                	je     4035e0 <___pformat_cvt+0x50>
  4035c6:	f6 c4 04             	test   ah,0x4
  4035c9:	0f 84 91 00 00 00    	je     403660 <___pformat_cvt+0xd0>
  4035cf:	c7 44 24 38 03 00 00 	mov    DWORD PTR [esp+0x38],0x3
  4035d6:	00 
  4035d7:	0f b7 54 24 28       	movzx  edx,WORD PTR [esp+0x28]
  4035dc:	31 c0                	xor    eax,eax
  4035de:	eb 14                	jmp    4035f4 <___pformat_cvt+0x64>
  4035e0:	f6 c4 04             	test   ah,0x4
  4035e3:	75 5c                	jne    403641 <___pformat_cvt+0xb1>
  4035e5:	0f b7 54 24 28       	movzx  edx,WORD PTR [esp+0x28]
  4035ea:	31 c0                	xor    eax,eax
  4035ec:	c7 44 24 38 00 00 00 	mov    DWORD PTR [esp+0x38],0x0
  4035f3:	00 
  4035f4:	81 e2 00 80 00 00    	and    edx,0x8000
  4035fa:	8b 5c 24 68          	mov    ebx,DWORD PTR [esp+0x68]
  4035fe:	89 13                	mov    DWORD PTR [ebx],edx
  403600:	8d 54 24 3c          	lea    edx,[esp+0x3c]
  403604:	89 54 24 1c          	mov    DWORD PTR [esp+0x1c],edx
  403608:	8b 54 24 64          	mov    edx,DWORD PTR [esp+0x64]
  40360c:	89 4c 24 10          	mov    DWORD PTR [esp+0x10],ecx
  403610:	89 44 24 04          	mov    DWORD PTR [esp+0x4],eax
  403614:	c7 04 24 0c 90 40 00 	mov    DWORD PTR [esp],0x40900c
  40361b:	89 54 24 18          	mov    DWORD PTR [esp+0x18],edx
  40361f:	8b 54 24 60          	mov    edx,DWORD PTR [esp+0x60]
  403623:	89 54 24 14          	mov    DWORD PTR [esp+0x14],edx
  403627:	8d 54 24 38          	lea    edx,[esp+0x38]
  40362b:	89 54 24 0c          	mov    DWORD PTR [esp+0xc],edx
  40362f:	8d 54 24 20          	lea    edx,[esp+0x20]
  403633:	89 54 24 08          	mov    DWORD PTR [esp+0x8],edx
  403637:	e8 e4 24 00 00       	call   405b20 <___gdtoa>
  40363c:	83 c4 48             	add    esp,0x48
  40363f:	5b                   	pop    ebx
  403640:	c3                   	ret    
  403641:	f6 c4 40             	test   ah,0x40
  403644:	74 2a                	je     403670 <___pformat_cvt+0xe0>
  403646:	c7 44 24 38 02 00 00 	mov    DWORD PTR [esp+0x38],0x2
  40364d:	00 
  40364e:	0f b7 54 24 28       	movzx  edx,WORD PTR [esp+0x28]
  403653:	b8 c3 bf ff ff       	mov    eax,0xffffbfc3
  403658:	eb 9a                	jmp    4035f4 <___pformat_cvt+0x64>
  40365a:	8d b6 00 00 00 00    	lea    esi,[esi+0x0]
  403660:	c7 44 24 38 04 00 00 	mov    DWORD PTR [esp+0x38],0x4
  403667:	00 
  403668:	31 c0                	xor    eax,eax
  40366a:	31 d2                	xor    edx,edx
  40366c:	eb 8c                	jmp    4035fa <___pformat_cvt+0x6a>
  40366e:	66 90                	xchg   ax,ax
  403670:	0f b7 54 24 28       	movzx  edx,WORD PTR [esp+0x28]
  403675:	c7 44 24 38 01 00 00 	mov    DWORD PTR [esp+0x38],0x1
  40367c:	00 
  40367d:	89 d0                	mov    eax,edx
  40367f:	25 ff 7f 00 00       	and    eax,0x7fff
  403684:	2d 3e 40 00 00       	sub    eax,0x403e
  403689:	e9 66 ff ff ff       	jmp    4035f4 <___pformat_cvt+0x64>
  40368e:	66 90                	xchg   ax,ax

00403690 <___pformat_putc>:
  403690:	53                   	push   ebx
  403691:	83 ec 18             	sub    esp,0x18
  403694:	8b 4a 04             	mov    ecx,DWORD PTR [edx+0x4]
  403697:	f6 c5 20             	test   ch,0x20
  40369a:	75 08                	jne    4036a4 <___pformat_putc+0x14>
  40369c:	8b 5a 18             	mov    ebx,DWORD PTR [edx+0x18]
  40369f:	39 5a 1c             	cmp    DWORD PTR [edx+0x1c],ebx
  4036a2:	7e 10                	jle    4036b4 <___pformat_putc+0x24>
  4036a4:	80 e5 10             	and    ch,0x10
  4036a7:	75 17                	jne    4036c0 <___pformat_putc+0x30>
  4036a9:	8b 1a                	mov    ebx,DWORD PTR [edx]
  4036ab:	8b 4a 18             	mov    ecx,DWORD PTR [edx+0x18]
  4036ae:	88 04 0b             	mov    BYTE PTR [ebx+ecx*1],al
  4036b1:	8b 5a 18             	mov    ebx,DWORD PTR [edx+0x18]
  4036b4:	83 c3 01             	add    ebx,0x1
  4036b7:	89 5a 18             	mov    DWORD PTR [edx+0x18],ebx
  4036ba:	83 c4 18             	add    esp,0x18
  4036bd:	5b                   	pop    ebx
  4036be:	c3                   	ret    
  4036bf:	90                   	nop
  4036c0:	8b 0a                	mov    ecx,DWORD PTR [edx]
  4036c2:	89 04 24             	mov    DWORD PTR [esp],eax
  4036c5:	89 54 24 0c          	mov    DWORD PTR [esp+0xc],edx
  4036c9:	89 4c 24 04          	mov    DWORD PTR [esp+0x4],ecx
  4036cd:	e8 e6 48 00 00       	call   407fb8 <_fputc>
  4036d2:	8b 54 24 0c          	mov    edx,DWORD PTR [esp+0xc]
  4036d6:	8b 5a 18             	mov    ebx,DWORD PTR [edx+0x18]
  4036d9:	83 c3 01             	add    ebx,0x1
  4036dc:	89 5a 18             	mov    DWORD PTR [edx+0x18],ebx
  4036df:	83 c4 18             	add    esp,0x18
  4036e2:	5b                   	pop    ebx
  4036e3:	c3                   	ret    
  4036e4:	8d b6 00 00 00 00    	lea    esi,[esi+0x0]
  4036ea:	8d bf 00 00 00 00    	lea    edi,[edi+0x0]

004036f0 <___pformat_wputchars>:
  4036f0:	55                   	push   ebp
  4036f1:	57                   	push   edi
  4036f2:	56                   	push   esi
  4036f3:	89 d6                	mov    esi,edx
  4036f5:	53                   	push   ebx
  4036f6:	89 cb                	mov    ebx,ecx
  4036f8:	83 ec 4c             	sub    esp,0x4c
  4036fb:	89 44 24 18          	mov    DWORD PTR [esp+0x18],eax
  4036ff:	8d 6c 24 30          	lea    ebp,[esp+0x30]
  403703:	8d 44 24 2c          	lea    eax,[esp+0x2c]
  403707:	89 44 24 08          	mov    DWORD PTR [esp+0x8],eax
  40370b:	c7 44 24 04 00 00 00 	mov    DWORD PTR [esp+0x4],0x0
  403712:	00 
  403713:	89 2c 24             	mov    DWORD PTR [esp],ebp
  403716:	e8 35 22 00 00       	call   405950 <_wcrtomb>
  40371b:	8b 43 0c             	mov    eax,DWORD PTR [ebx+0xc]
  40371e:	85 c0                	test   eax,eax
  403720:	78 08                	js     40372a <___pformat_wputchars+0x3a>
  403722:	39 c6                	cmp    esi,eax
  403724:	0f 8f c7 00 00 00    	jg     4037f1 <___pformat_wputchars+0x101>
  40372a:	8b 43 08             	mov    eax,DWORD PTR [ebx+0x8]
  40372d:	39 c6                	cmp    esi,eax
  40372f:	0f 8d 8c 00 00 00    	jge    4037c1 <___pformat_wputchars+0xd1>
  403735:	29 f0                	sub    eax,esi
  403737:	85 c0                	test   eax,eax
  403739:	89 43 08             	mov    DWORD PTR [ebx+0x8],eax
  40373c:	7e 0a                	jle    403748 <___pformat_wputchars+0x58>
  40373e:	f6 43 05 04          	test   BYTE PTR [ebx+0x5],0x4
  403742:	0f 84 85 00 00 00    	je     4037cd <___pformat_wputchars+0xdd>
  403748:	89 74 24 1c          	mov    DWORD PTR [esp+0x1c],esi
  40374c:	8d 74 26 00          	lea    esi,[esi+eiz*1+0x0]
  403750:	8b 44 24 1c          	mov    eax,DWORD PTR [esp+0x1c]
  403754:	85 c0                	test   eax,eax
  403756:	7e 54                	jle    4037ac <___pformat_wputchars+0xbc>
  403758:	83 44 24 18 02       	add    DWORD PTR [esp+0x18],0x2
  40375d:	8d 44 24 2c          	lea    eax,[esp+0x2c]
  403761:	89 44 24 08          	mov    DWORD PTR [esp+0x8],eax
  403765:	8b 44 24 18          	mov    eax,DWORD PTR [esp+0x18]
  403769:	0f b7 40 fe          	movzx  eax,WORD PTR [eax-0x2]
  40376d:	89 2c 24             	mov    DWORD PTR [esp],ebp
  403770:	89 44 24 04          	mov    DWORD PTR [esp+0x4],eax
  403774:	e8 d7 21 00 00       	call   405950 <_wcrtomb>
  403779:	85 c0                	test   eax,eax
  40377b:	7e 2f                	jle    4037ac <___pformat_wputchars+0xbc>
  40377d:	8d 74 05 00          	lea    esi,[ebp+eax*1+0x0]
  403781:	89 ef                	mov    edi,ebp
  403783:	83 c7 01             	add    edi,0x1
  403786:	0f be 47 ff          	movsx  eax,BYTE PTR [edi-0x1]
  40378a:	89 da                	mov    edx,ebx
  40378c:	e8 ff fe ff ff       	call   403690 <___pformat_putc>
  403791:	39 f7                	cmp    edi,esi
  403793:	75 ee                	jne    403783 <___pformat_wputchars+0x93>
  403795:	83 6c 24 1c 01       	sub    DWORD PTR [esp+0x1c],0x1
  40379a:	eb b4                	jmp    403750 <___pformat_wputchars+0x60>
  40379c:	8d 74 26 00          	lea    esi,[esi+eiz*1+0x0]
  4037a0:	89 da                	mov    edx,ebx
  4037a2:	b8 20 00 00 00       	mov    eax,0x20
  4037a7:	e8 e4 fe ff ff       	call   403690 <___pformat_putc>
  4037ac:	8b 43 08             	mov    eax,DWORD PTR [ebx+0x8]
  4037af:	8d 50 ff             	lea    edx,[eax-0x1]
  4037b2:	85 c0                	test   eax,eax
  4037b4:	89 53 08             	mov    DWORD PTR [ebx+0x8],edx
  4037b7:	7f e7                	jg     4037a0 <___pformat_wputchars+0xb0>
  4037b9:	83 c4 4c             	add    esp,0x4c
  4037bc:	5b                   	pop    ebx
  4037bd:	5e                   	pop    esi
  4037be:	5f                   	pop    edi
  4037bf:	5d                   	pop    ebp
  4037c0:	c3                   	ret    
  4037c1:	c7 43 08 ff ff ff ff 	mov    DWORD PTR [ebx+0x8],0xffffffff
  4037c8:	e9 7b ff ff ff       	jmp    403748 <___pformat_wputchars+0x58>
  4037cd:	83 e8 01             	sub    eax,0x1
  4037d0:	89 43 08             	mov    DWORD PTR [ebx+0x8],eax
  4037d3:	89 da                	mov    edx,ebx
  4037d5:	b8 20 00 00 00       	mov    eax,0x20
  4037da:	e8 b1 fe ff ff       	call   403690 <___pformat_putc>
  4037df:	8b 43 08             	mov    eax,DWORD PTR [ebx+0x8]
  4037e2:	8d 50 ff             	lea    edx,[eax-0x1]
  4037e5:	85 c0                	test   eax,eax
  4037e7:	89 53 08             	mov    DWORD PTR [ebx+0x8],edx
  4037ea:	75 e7                	jne    4037d3 <___pformat_wputchars+0xe3>
  4037ec:	e9 57 ff ff ff       	jmp    403748 <___pformat_wputchars+0x58>
  4037f1:	89 c6                	mov    esi,eax
  4037f3:	e9 32 ff ff ff       	jmp    40372a <___pformat_wputchars+0x3a>
  4037f8:	90                   	nop
  4037f9:	8d b4 26 00 00 00 00 	lea    esi,[esi+eiz*1+0x0]

00403800 <___pformat_putchars>:
  403800:	57                   	push   edi
  403801:	89 c7                	mov    edi,eax
  403803:	8b 41 0c             	mov    eax,DWORD PTR [ecx+0xc]
  403806:	56                   	push   esi
  403807:	89 d6                	mov    esi,edx
  403809:	53                   	push   ebx
  40380a:	89 cb                	mov    ebx,ecx
  40380c:	85 c0                	test   eax,eax
  40380e:	78 08                	js     403818 <___pformat_putchars+0x18>
  403810:	39 c2                	cmp    edx,eax
  403812:	0f 8f 88 00 00 00    	jg     4038a0 <___pformat_putchars+0xa0>
  403818:	8b 43 08             	mov    eax,DWORD PTR [ebx+0x8]
  40381b:	39 c6                	cmp    esi,eax
  40381d:	7d 71                	jge    403890 <___pformat_putchars+0x90>
  40381f:	29 f0                	sub    eax,esi
  403821:	85 c0                	test   eax,eax
  403823:	89 43 08             	mov    DWORD PTR [ebx+0x8],eax
  403826:	7e 25                	jle    40384d <___pformat_putchars+0x4d>
  403828:	f6 43 05 04          	test   BYTE PTR [ebx+0x5],0x4
  40382c:	75 1f                	jne    40384d <___pformat_putchars+0x4d>
  40382e:	83 e8 01             	sub    eax,0x1
  403831:	89 43 08             	mov    DWORD PTR [ebx+0x8],eax
  403834:	89 da                	mov    edx,ebx
  403836:	b8 20 00 00 00       	mov    eax,0x20
  40383b:	e8 50 fe ff ff       	call   403690 <___pformat_putc>
  403840:	8b 43 08             	mov    eax,DWORD PTR [ebx+0x8]
  403843:	8d 50 ff             	lea    edx,[eax-0x1]
  403846:	85 c0                	test   eax,eax
  403848:	89 53 08             	mov    DWORD PTR [ebx+0x8],edx
  40384b:	75 e7                	jne    403834 <___pformat_putchars+0x34>
  40384d:	85 f6                	test   esi,esi
  40384f:	74 2c                	je     40387d <___pformat_putchars+0x7d>
  403851:	83 c7 01             	add    edi,0x1
  403854:	0f be 47 ff          	movsx  eax,BYTE PTR [edi-0x1]
  403858:	89 da                	mov    edx,ebx
  40385a:	e8 31 fe ff ff       	call   403690 <___pformat_putc>
  40385f:	83 ee 01             	sub    esi,0x1
  403862:	75 ed                	jne    403851 <___pformat_putchars+0x51>
  403864:	8b 43 08             	mov    eax,DWORD PTR [ebx+0x8]
  403867:	8d 50 ff             	lea    edx,[eax-0x1]
  40386a:	85 c0                	test   eax,eax
  40386c:	89 53 08             	mov    DWORD PTR [ebx+0x8],edx
  40386f:	7e 19                	jle    40388a <___pformat_putchars+0x8a>
  403871:	89 da                	mov    edx,ebx
  403873:	b8 20 00 00 00       	mov    eax,0x20
  403878:	e8 13 fe ff ff       	call   403690 <___pformat_putc>
  40387d:	8b 43 08             	mov    eax,DWORD PTR [ebx+0x8]
  403880:	8d 50 ff             	lea    edx,[eax-0x1]
  403883:	85 c0                	test   eax,eax
  403885:	89 53 08             	mov    DWORD PTR [ebx+0x8],edx
  403888:	7f e7                	jg     403871 <___pformat_putchars+0x71>
  40388a:	5b                   	pop    ebx
  40388b:	5e                   	pop    esi
  40388c:	5f                   	pop    edi
  40388d:	c3                   	ret    
  40388e:	66 90                	xchg   ax,ax
  403890:	c7 43 08 ff ff ff ff 	mov    DWORD PTR [ebx+0x8],0xffffffff
  403897:	eb b4                	jmp    40384d <___pformat_putchars+0x4d>
  403899:	8d b4 26 00 00 00 00 	lea    esi,[esi+eiz*1+0x0]
  4038a0:	89 c6                	mov    esi,eax
  4038a2:	e9 71 ff ff ff       	jmp    403818 <___pformat_putchars+0x18>
  4038a7:	89 f6                	mov    esi,esi
  4038a9:	8d bc 27 00 00 00 00 	lea    edi,[edi+eiz*1+0x0]

004038b0 <___pformat_emit_inf_or_nan>:
  4038b0:	55                   	push   ebp
  4038b1:	57                   	push   edi
  4038b2:	56                   	push   esi
  4038b3:	53                   	push   ebx
  4038b4:	83 ec 1c             	sub    esp,0x1c
  4038b7:	85 c0                	test   eax,eax
  4038b9:	c7 41 0c ff ff ff ff 	mov    DWORD PTR [ecx+0xc],0xffffffff
  4038c0:	74 3e                	je     403900 <___pformat_emit_inf_or_nan+0x50>
  4038c2:	8b 69 04             	mov    ebp,DWORD PTR [ecx+0x4]
  4038c5:	8d 7c 24 0d          	lea    edi,[esp+0xd]
  4038c9:	c6 44 24 0c 2d       	mov    BYTE PTR [esp+0xc],0x2d
  4038ce:	8d 44 24 0c          	lea    eax,[esp+0xc]
  4038d2:	83 e5 20             	and    ebp,0x20
  4038d5:	31 f6                	xor    esi,esi
  4038d7:	0f b6 1c 32          	movzx  ebx,BYTE PTR [edx+esi*1]
  4038db:	83 e3 df             	and    ebx,0xffffffdf
  4038de:	09 eb                	or     ebx,ebp
  4038e0:	88 1c 37             	mov    BYTE PTR [edi+esi*1],bl
  4038e3:	83 c6 01             	add    esi,0x1
  4038e6:	83 fe 03             	cmp    esi,0x3
  4038e9:	75 ec                	jne    4038d7 <___pformat_emit_inf_or_nan+0x27>
  4038eb:	8d 57 03             	lea    edx,[edi+0x3]
  4038ee:	29 c2                	sub    edx,eax
  4038f0:	e8 0b ff ff ff       	call   403800 <___pformat_putchars>
  4038f5:	83 c4 1c             	add    esp,0x1c
  4038f8:	5b                   	pop    ebx
  4038f9:	5e                   	pop    esi
  4038fa:	5f                   	pop    edi
  4038fb:	5d                   	pop    ebp
  4038fc:	c3                   	ret    
  4038fd:	8d 76 00             	lea    esi,[esi+0x0]
  403900:	8b 69 04             	mov    ebp,DWORD PTR [ecx+0x4]
  403903:	f7 c5 00 01 00 00    	test   ebp,0x100
  403909:	74 15                	je     403920 <___pformat_emit_inf_or_nan+0x70>
  40390b:	c6 44 24 0c 2b       	mov    BYTE PTR [esp+0xc],0x2b
  403910:	8d 7c 24 0d          	lea    edi,[esp+0xd]
  403914:	8d 44 24 0c          	lea    eax,[esp+0xc]
  403918:	eb b8                	jmp    4038d2 <___pformat_emit_inf_or_nan+0x22>
  40391a:	8d b6 00 00 00 00    	lea    esi,[esi+0x0]
  403920:	f7 c5 40 00 00 00    	test   ebp,0x40
  403926:	74 0f                	je     403937 <___pformat_emit_inf_or_nan+0x87>
  403928:	c6 44 24 0c 20       	mov    BYTE PTR [esp+0xc],0x20
  40392d:	8d 7c 24 0d          	lea    edi,[esp+0xd]
  403931:	8d 44 24 0c          	lea    eax,[esp+0xc]
  403935:	eb 9b                	jmp    4038d2 <___pformat_emit_inf_or_nan+0x22>
  403937:	8d 44 24 0c          	lea    eax,[esp+0xc]
  40393b:	89 c7                	mov    edi,eax
  40393d:	eb 93                	jmp    4038d2 <___pformat_emit_inf_or_nan+0x22>
  40393f:	90                   	nop

00403940 <___pformat_int>:
  403940:	55                   	push   ebp
  403941:	89 e5                	mov    ebp,esp
  403943:	57                   	push   edi
  403944:	89 d7                	mov    edi,edx
  403946:	56                   	push   esi
  403947:	89 c6                	mov    esi,eax
  403949:	53                   	push   ebx
  40394a:	89 cb                	mov    ebx,ecx
  40394c:	83 ec 2c             	sub    esp,0x2c
  40394f:	89 55 dc             	mov    DWORD PTR [ebp-0x24],edx
  403952:	8b 51 0c             	mov    edx,DWORD PTR [ecx+0xc]
  403955:	89 45 d8             	mov    DWORD PTR [ebp-0x28],eax
  403958:	8b 49 08             	mov    ecx,DWORD PTR [ecx+0x8]
  40395b:	89 d0                	mov    eax,edx
  40395d:	c1 f8 1f             	sar    eax,0x1f
  403960:	f7 d0                	not    eax
  403962:	21 d0                	and    eax,edx
  403964:	83 c0 17             	add    eax,0x17
  403967:	39 c8                	cmp    eax,ecx
  403969:	7d 02                	jge    40396d <___pformat_int+0x2d>
  40396b:	89 c8                	mov    eax,ecx
  40396d:	83 c0 0f             	add    eax,0xf
  403970:	83 e0 f0             	and    eax,0xfffffff0
  403973:	e8 a8 e5 ff ff       	call   401f20 <___chkstk_ms>
  403978:	29 c4                	sub    esp,eax
  40397a:	8d 44 24 10          	lea    eax,[esp+0x10]
  40397e:	89 45 e4             	mov    DWORD PTR [ebp-0x1c],eax
  403981:	8b 43 04             	mov    eax,DWORD PTR [ebx+0x4]
  403984:	a8 80                	test   al,0x80
  403986:	74 0d                	je     403995 <___pformat_int+0x55>
  403988:	85 ff                	test   edi,edi
  40398a:	0f 88 b0 01 00 00    	js     403b40 <___pformat_int+0x200>
  403990:	24 7f                	and    al,0x7f
  403992:	89 43 04             	mov    DWORD PTR [ebx+0x4],eax
  403995:	8b 4d dc             	mov    ecx,DWORD PTR [ebp-0x24]
  403998:	8b 7d d8             	mov    edi,DWORD PTR [ebp-0x28]
  40399b:	8b 75 e4             	mov    esi,DWORD PTR [ebp-0x1c]
  40399e:	89 c8                	mov    eax,ecx
  4039a0:	09 f8                	or     eax,edi
  4039a2:	74 5d                	je     403a01 <___pformat_int+0xc1>
  4039a4:	89 5d d8             	mov    DWORD PTR [ebp-0x28],ebx
  4039a7:	89 cb                	mov    ebx,ecx
  4039a9:	8d b4 26 00 00 00 00 	lea    esi,[esi+eiz*1+0x0]
  4039b0:	89 3c 24             	mov    DWORD PTR [esp],edi
  4039b3:	83 c6 01             	add    esi,0x1
  4039b6:	89 5c 24 04          	mov    DWORD PTR [esp+0x4],ebx
  4039ba:	c7 44 24 08 0a 00 00 	mov    DWORD PTR [esp+0x8],0xa
  4039c1:	00 
  4039c2:	c7 44 24 0c 00 00 00 	mov    DWORD PTR [esp+0xc],0x0
  4039c9:	00 
  4039ca:	e8 01 48 00 00       	call   4081d0 <___umoddi3>
  4039cf:	83 c0 30             	add    eax,0x30
  4039d2:	88 46 ff             	mov    BYTE PTR [esi-0x1],al
  4039d5:	89 3c 24             	mov    DWORD PTR [esp],edi
  4039d8:	89 5c 24 04          	mov    DWORD PTR [esp+0x4],ebx
  4039dc:	c7 44 24 08 0a 00 00 	mov    DWORD PTR [esp+0x8],0xa
  4039e3:	00 
  4039e4:	c7 44 24 0c 00 00 00 	mov    DWORD PTR [esp+0xc],0x0
  4039eb:	00 
  4039ec:	e8 cf 46 00 00       	call   4080c0 <___udivdi3>
  4039f1:	89 c7                	mov    edi,eax
  4039f3:	89 d0                	mov    eax,edx
  4039f5:	09 f8                	or     eax,edi
  4039f7:	89 d3                	mov    ebx,edx
  4039f9:	75 b5                	jne    4039b0 <___pformat_int+0x70>
  4039fb:	8b 5d d8             	mov    ebx,DWORD PTR [ebp-0x28]
  4039fe:	8b 53 0c             	mov    edx,DWORD PTR [ebx+0xc]
  403a01:	85 d2                	test   edx,edx
  403a03:	89 f7                	mov    edi,esi
  403a05:	7e 19                	jle    403a20 <___pformat_int+0xe0>
  403a07:	8b 45 e4             	mov    eax,DWORD PTR [ebp-0x1c]
  403a0a:	29 f0                	sub    eax,esi
  403a0c:	01 c2                	add    edx,eax
  403a0e:	85 d2                	test   edx,edx
  403a10:	7e 0e                	jle    403a20 <___pformat_int+0xe0>
  403a12:	8d 3c 16             	lea    edi,[esi+edx*1]
  403a15:	83 c6 01             	add    esi,0x1
  403a18:	39 fe                	cmp    esi,edi
  403a1a:	c6 46 ff 30          	mov    BYTE PTR [esi-0x1],0x30
  403a1e:	75 f5                	jne    403a15 <___pformat_int+0xd5>
  403a20:	3b 7d e4             	cmp    edi,DWORD PTR [ebp-0x1c]
  403a23:	0f 84 29 01 00 00    	je     403b52 <___pformat_int+0x212>
  403a29:	8b 43 08             	mov    eax,DWORD PTR [ebx+0x8]
  403a2c:	85 c0                	test   eax,eax
  403a2e:	7e 59                	jle    403a89 <___pformat_int+0x149>
  403a30:	8b 55 e4             	mov    edx,DWORD PTR [ebp-0x1c]
  403a33:	29 fa                	sub    edx,edi
  403a35:	01 c2                	add    edx,eax
  403a37:	8b 43 04             	mov    eax,DWORD PTR [ebx+0x4]
  403a3a:	85 d2                	test   edx,edx
  403a3c:	89 53 08             	mov    DWORD PTR [ebx+0x8],edx
  403a3f:	7e 4b                	jle    403a8c <___pformat_int+0x14c>
  403a41:	a9 c0 01 00 00       	test   eax,0x1c0
  403a46:	74 06                	je     403a4e <___pformat_int+0x10e>
  403a48:	83 ea 01             	sub    edx,0x1
  403a4b:	89 53 08             	mov    DWORD PTR [ebx+0x8],edx
  403a4e:	8b 53 0c             	mov    edx,DWORD PTR [ebx+0xc]
  403a51:	85 d2                	test   edx,edx
  403a53:	0f 88 a7 00 00 00    	js     403b00 <___pformat_int+0x1c0>
  403a59:	f6 c4 04             	test   ah,0x4
  403a5c:	75 2e                	jne    403a8c <___pformat_int+0x14c>
  403a5e:	8b 53 08             	mov    edx,DWORD PTR [ebx+0x8]
  403a61:	8d 4a ff             	lea    ecx,[edx-0x1]
  403a64:	85 d2                	test   edx,edx
  403a66:	89 4b 08             	mov    DWORD PTR [ebx+0x8],ecx
  403a69:	7e 21                	jle    403a8c <___pformat_int+0x14c>
  403a6b:	90                   	nop
  403a6c:	8d 74 26 00          	lea    esi,[esi+eiz*1+0x0]
  403a70:	89 da                	mov    edx,ebx
  403a72:	b8 20 00 00 00       	mov    eax,0x20
  403a77:	e8 14 fc ff ff       	call   403690 <___pformat_putc>
  403a7c:	8b 43 08             	mov    eax,DWORD PTR [ebx+0x8]
  403a7f:	8d 50 ff             	lea    edx,[eax-0x1]
  403a82:	85 c0                	test   eax,eax
  403a84:	89 53 08             	mov    DWORD PTR [ebx+0x8],edx
  403a87:	7f e7                	jg     403a70 <___pformat_int+0x130>
  403a89:	8b 43 04             	mov    eax,DWORD PTR [ebx+0x4]
  403a8c:	a8 80                	test   al,0x80
  403a8e:	74 51                	je     403ae1 <___pformat_int+0x1a1>
  403a90:	8d 77 01             	lea    esi,[edi+0x1]
  403a93:	c6 07 2d             	mov    BYTE PTR [edi],0x2d
  403a96:	39 75 e4             	cmp    DWORD PTR [ebp-0x1c],esi
  403a99:	8b 7d e4             	mov    edi,DWORD PTR [ebp-0x1c]
  403a9c:	73 2e                	jae    403acc <___pformat_int+0x18c>
  403a9e:	66 90                	xchg   ax,ax
  403aa0:	83 ee 01             	sub    esi,0x1
  403aa3:	0f be 06             	movsx  eax,BYTE PTR [esi]
  403aa6:	89 da                	mov    edx,ebx
  403aa8:	e8 e3 fb ff ff       	call   403690 <___pformat_putc>
  403aad:	39 fe                	cmp    esi,edi
  403aaf:	75 ef                	jne    403aa0 <___pformat_int+0x160>
  403ab1:	8b 43 08             	mov    eax,DWORD PTR [ebx+0x8]
  403ab4:	8d 50 ff             	lea    edx,[eax-0x1]
  403ab7:	85 c0                	test   eax,eax
  403ab9:	89 53 08             	mov    DWORD PTR [ebx+0x8],edx
  403abc:	7e 1b                	jle    403ad9 <___pformat_int+0x199>
  403abe:	66 90                	xchg   ax,ax
  403ac0:	89 da                	mov    edx,ebx
  403ac2:	b8 20 00 00 00       	mov    eax,0x20
  403ac7:	e8 c4 fb ff ff       	call   403690 <___pformat_putc>
  403acc:	8b 43 08             	mov    eax,DWORD PTR [ebx+0x8]
  403acf:	8d 50 ff             	lea    edx,[eax-0x1]
  403ad2:	85 c0                	test   eax,eax
  403ad4:	89 53 08             	mov    DWORD PTR [ebx+0x8],edx
  403ad7:	7f e7                	jg     403ac0 <___pformat_int+0x180>
  403ad9:	8d 65 f4             	lea    esp,[ebp-0xc]
  403adc:	5b                   	pop    ebx
  403add:	5e                   	pop    esi
  403ade:	5f                   	pop    edi
  403adf:	5d                   	pop    ebp
  403ae0:	c3                   	ret    
  403ae1:	f6 c4 01             	test   ah,0x1
  403ae4:	74 0a                	je     403af0 <___pformat_int+0x1b0>
  403ae6:	8d 77 01             	lea    esi,[edi+0x1]
  403ae9:	c6 07 2b             	mov    BYTE PTR [edi],0x2b
  403aec:	eb a8                	jmp    403a96 <___pformat_int+0x156>
  403aee:	66 90                	xchg   ax,ax
  403af0:	a8 40                	test   al,0x40
  403af2:	89 fe                	mov    esi,edi
  403af4:	74 a0                	je     403a96 <___pformat_int+0x156>
  403af6:	83 c6 01             	add    esi,0x1
  403af9:	c6 07 20             	mov    BYTE PTR [edi],0x20
  403afc:	eb 98                	jmp    403a96 <___pformat_int+0x156>
  403afe:	66 90                	xchg   ax,ax
  403b00:	89 c2                	mov    edx,eax
  403b02:	81 e2 00 06 00 00    	and    edx,0x600
  403b08:	81 fa 00 02 00 00    	cmp    edx,0x200
  403b0e:	0f 85 45 ff ff ff    	jne    403a59 <___pformat_int+0x119>
  403b14:	8b 53 08             	mov    edx,DWORD PTR [ebx+0x8]
  403b17:	8d 4a ff             	lea    ecx,[edx-0x1]
  403b1a:	85 d2                	test   edx,edx
  403b1c:	89 4b 08             	mov    DWORD PTR [ebx+0x8],ecx
  403b1f:	0f 8e 67 ff ff ff    	jle    403a8c <___pformat_int+0x14c>
  403b25:	83 c7 01             	add    edi,0x1
  403b28:	c6 47 ff 30          	mov    BYTE PTR [edi-0x1],0x30
  403b2c:	8b 43 08             	mov    eax,DWORD PTR [ebx+0x8]
  403b2f:	8d 50 ff             	lea    edx,[eax-0x1]
  403b32:	85 c0                	test   eax,eax
  403b34:	89 53 08             	mov    DWORD PTR [ebx+0x8],edx
  403b37:	7f ec                	jg     403b25 <___pformat_int+0x1e5>
  403b39:	e9 4b ff ff ff       	jmp    403a89 <___pformat_int+0x149>
  403b3e:	66 90                	xchg   ax,ax
  403b40:	f7 de                	neg    esi
  403b42:	83 d7 00             	adc    edi,0x0
  403b45:	f7 df                	neg    edi
  403b47:	89 75 d8             	mov    DWORD PTR [ebp-0x28],esi
  403b4a:	89 7d dc             	mov    DWORD PTR [ebp-0x24],edi
  403b4d:	e9 43 fe ff ff       	jmp    403995 <___pformat_int+0x55>
  403b52:	8b 4b 0c             	mov    ecx,DWORD PTR [ebx+0xc]
  403b55:	85 c9                	test   ecx,ecx
  403b57:	0f 84 cc fe ff ff    	je     403a29 <___pformat_int+0xe9>
  403b5d:	c6 07 30             	mov    BYTE PTR [edi],0x30
  403b60:	83 c7 01             	add    edi,0x1
  403b63:	e9 c1 fe ff ff       	jmp    403a29 <___pformat_int+0xe9>
  403b68:	90                   	nop
  403b69:	8d b4 26 00 00 00 00 	lea    esi,[esi+eiz*1+0x0]

00403b70 <___pformat_xint>:
  403b70:	55                   	push   ebp
  403b71:	89 e5                	mov    ebp,esp
  403b73:	57                   	push   edi
  403b74:	89 cf                	mov    edi,ecx
  403b76:	56                   	push   esi
  403b77:	89 d6                	mov    esi,edx
  403b79:	53                   	push   ebx
  403b7a:	83 ec 2c             	sub    esp,0x2c
  403b7d:	89 55 dc             	mov    DWORD PTR [ebp-0x24],edx
  403b80:	31 d2                	xor    edx,edx
  403b82:	83 f8 6f             	cmp    eax,0x6f
  403b85:	0f 94 c2             	sete   dl
  403b88:	83 ea 01             	sub    edx,0x1
  403b8b:	83 e2 fa             	and    edx,0xfffffffa
  403b8e:	89 4d d4             	mov    DWORD PTR [ebp-0x2c],ecx
  403b91:	31 c9                	xor    ecx,ecx
  403b93:	83 f8 6f             	cmp    eax,0x6f
  403b96:	0f 95 c1             	setne  cl
  403b99:	89 45 d8             	mov    DWORD PTR [ebp-0x28],eax
  403b9c:	89 c8                	mov    eax,ecx
  403b9e:	89 45 e4             	mov    DWORD PTR [ebp-0x1c],eax
  403ba1:	8b 45 08             	mov    eax,DWORD PTR [ebp+0x8]
  403ba4:	8d 1c cd 07 00 00 00 	lea    ebx,[ecx*8+0x7]
  403bab:	89 5d d0             	mov    DWORD PTR [ebp-0x30],ebx
  403bae:	8b 4d 08             	mov    ecx,DWORD PTR [ebp+0x8]
  403bb1:	83 45 e4 03          	add    DWORD PTR [ebp-0x1c],0x3
  403bb5:	8b 58 0c             	mov    ebx,DWORD PTR [eax+0xc]
  403bb8:	8b 49 08             	mov    ecx,DWORD PTR [ecx+0x8]
  403bbb:	89 d8                	mov    eax,ebx
  403bbd:	c1 f8 1f             	sar    eax,0x1f
  403bc0:	f7 d0                	not    eax
  403bc2:	21 d8                	and    eax,ebx
  403bc4:	8d 44 02 18          	lea    eax,[edx+eax*1+0x18]
  403bc8:	39 c8                	cmp    eax,ecx
  403bca:	7d 02                	jge    403bce <___pformat_xint+0x5e>
  403bcc:	89 c8                	mov    eax,ecx
  403bce:	83 c0 0f             	add    eax,0xf
  403bd1:	83 e0 f0             	and    eax,0xfffffff0
  403bd4:	e8 47 e3 ff ff       	call   401f20 <___chkstk_ms>
  403bd9:	29 c4                	sub    esp,eax
  403bdb:	8b 45 d4             	mov    eax,DWORD PTR [ebp-0x2c]
  403bde:	0b 45 dc             	or     eax,DWORD PTR [ebp-0x24]
  403be1:	89 65 e0             	mov    DWORD PTR [ebp-0x20],esp
  403be4:	0f 84 4a 02 00 00    	je     403e34 <___pformat_xint+0x2c4>
  403bea:	0f b6 4d d8          	movzx  ecx,BYTE PTR [ebp-0x28]
  403bee:	89 e0                	mov    eax,esp
  403bf0:	0f b6 5d d0          	movzx  ebx,BYTE PTR [ebp-0x30]
  403bf4:	83 e1 20             	and    ecx,0x20
  403bf7:	88 4d dc             	mov    BYTE PTR [ebp-0x24],cl
  403bfa:	eb 1f                	jmp    403c1b <___pformat_xint+0xab>
  403bfc:	8d 74 26 00          	lea    esi,[esi+eiz*1+0x0]
  403c00:	88 48 ff             	mov    BYTE PTR [eax-0x1],cl
  403c03:	0f b6 4d e4          	movzx  ecx,BYTE PTR [ebp-0x1c]
  403c07:	0f ad fe             	shrd   esi,edi,cl
  403c0a:	d3 ef                	shr    edi,cl
  403c0c:	f6 c1 20             	test   cl,0x20
  403c0f:	74 04                	je     403c15 <___pformat_xint+0xa5>
  403c11:	89 fe                	mov    esi,edi
  403c13:	31 ff                	xor    edi,edi
  403c15:	89 f9                	mov    ecx,edi
  403c17:	09 f1                	or     ecx,esi
  403c19:	74 1a                	je     403c35 <___pformat_xint+0xc5>
  403c1b:	89 f2                	mov    edx,esi
  403c1d:	83 c0 01             	add    eax,0x1
  403c20:	21 da                	and    edx,ebx
  403c22:	8d 4a 30             	lea    ecx,[edx+0x30]
  403c25:	80 f9 39             	cmp    cl,0x39
  403c28:	7e d6                	jle    403c00 <___pformat_xint+0x90>
  403c2a:	83 c2 37             	add    edx,0x37
  403c2d:	0a 55 dc             	or     dl,BYTE PTR [ebp-0x24]
  403c30:	88 50 ff             	mov    BYTE PTR [eax-0x1],dl
  403c33:	eb ce                	jmp    403c03 <___pformat_xint+0x93>
  403c35:	39 45 e0             	cmp    DWORD PTR [ebp-0x20],eax
  403c38:	0f 84 f0 01 00 00    	je     403e2e <___pformat_xint+0x2be>
  403c3e:	8b 7d 08             	mov    edi,DWORD PTR [ebp+0x8]
  403c41:	8b 5f 0c             	mov    ebx,DWORD PTR [edi+0xc]
  403c44:	85 db                	test   ebx,ebx
  403c46:	0f 8e a5 01 00 00    	jle    403df1 <___pformat_xint+0x281>
  403c4c:	8b 4d e0             	mov    ecx,DWORD PTR [ebp-0x20]
  403c4f:	29 c1                	sub    ecx,eax
  403c51:	01 cb                	add    ebx,ecx
  403c53:	85 db                	test   ebx,ebx
  403c55:	0f 8e 96 01 00 00    	jle    403df1 <___pformat_xint+0x281>
  403c5b:	8d 3c 18             	lea    edi,[eax+ebx*1]
  403c5e:	66 90                	xchg   ax,ax
  403c60:	83 c0 01             	add    eax,0x1
  403c63:	39 f8                	cmp    eax,edi
  403c65:	c6 40 ff 30          	mov    BYTE PTR [eax-0x1],0x30
  403c69:	75 f5                	jne    403c60 <___pformat_xint+0xf0>
  403c6b:	3b 7d e0             	cmp    edi,DWORD PTR [ebp-0x20]
  403c6e:	0f 84 a1 01 00 00    	je     403e15 <___pformat_xint+0x2a5>
  403c74:	8b 45 08             	mov    eax,DWORD PTR [ebp+0x8]
  403c77:	8b 70 08             	mov    esi,DWORD PTR [eax+0x8]
  403c7a:	89 f8                	mov    eax,edi
  403c7c:	2b 45 e0             	sub    eax,DWORD PTR [ebp-0x20]
  403c7f:	39 c6                	cmp    esi,eax
  403c81:	0f 8e a9 00 00 00    	jle    403d30 <___pformat_xint+0x1c0>
  403c87:	29 c6                	sub    esi,eax
  403c89:	8b 45 08             	mov    eax,DWORD PTR [ebp+0x8]
  403c8c:	85 f6                	test   esi,esi
  403c8e:	89 70 08             	mov    DWORD PTR [eax+0x8],esi
  403c91:	7e 21                	jle    403cb4 <___pformat_xint+0x144>
  403c93:	83 7d d8 6f          	cmp    DWORD PTR [ebp-0x28],0x6f
  403c97:	74 0d                	je     403ca6 <___pformat_xint+0x136>
  403c99:	8b 45 08             	mov    eax,DWORD PTR [ebp+0x8]
  403c9c:	f6 40 05 08          	test   BYTE PTR [eax+0x5],0x8
  403ca0:	0f 85 00 01 00 00    	jne    403da6 <___pformat_xint+0x236>
  403ca6:	8b 45 08             	mov    eax,DWORD PTR [ebp+0x8]
  403ca9:	8b 58 0c             	mov    ebx,DWORD PTR [eax+0xc]
  403cac:	85 db                	test   ebx,ebx
  403cae:	0f 88 09 01 00 00    	js     403dbd <___pformat_xint+0x24d>
  403cb4:	8d 46 ff             	lea    eax,[esi-0x1]
  403cb7:	89 45 e4             	mov    DWORD PTR [ebp-0x1c],eax
  403cba:	8b 45 e4             	mov    eax,DWORD PTR [ebp-0x1c]
  403cbd:	83 7d d8 6f          	cmp    DWORD PTR [ebp-0x28],0x6f
  403cc1:	89 c3                	mov    ebx,eax
  403cc3:	74 0d                	je     403cd2 <___pformat_xint+0x162>
  403cc5:	8b 45 08             	mov    eax,DWORD PTR [ebp+0x8]
  403cc8:	f6 40 05 08          	test   BYTE PTR [eax+0x5],0x8
  403ccc:	0f 85 be 00 00 00    	jne    403d90 <___pformat_xint+0x220>
  403cd2:	85 f6                	test   esi,esi
  403cd4:	7e 09                	jle    403cdf <___pformat_xint+0x16f>
  403cd6:	8b 45 08             	mov    eax,DWORD PTR [ebp+0x8]
  403cd9:	f6 40 05 04          	test   BYTE PTR [eax+0x5],0x4
  403cdd:	74 71                	je     403d50 <___pformat_xint+0x1e0>
  403cdf:	3b 7d e0             	cmp    edi,DWORD PTR [ebp-0x20]
  403ce2:	76 25                	jbe    403d09 <___pformat_xint+0x199>
  403ce4:	89 75 e4             	mov    DWORD PTR [ebp-0x1c],esi
  403ce7:	8b 75 e0             	mov    esi,DWORD PTR [ebp-0x20]
  403cea:	89 5d e0             	mov    DWORD PTR [ebp-0x20],ebx
  403ced:	89 fb                	mov    ebx,edi
  403cef:	8b 7d 08             	mov    edi,DWORD PTR [ebp+0x8]
  403cf2:	83 eb 01             	sub    ebx,0x1
  403cf5:	0f be 03             	movsx  eax,BYTE PTR [ebx]
  403cf8:	89 fa                	mov    edx,edi
  403cfa:	e8 91 f9 ff ff       	call   403690 <___pformat_putc>
  403cff:	39 f3                	cmp    ebx,esi
  403d01:	75 ef                	jne    403cf2 <___pformat_xint+0x182>
  403d03:	8b 75 e4             	mov    esi,DWORD PTR [ebp-0x1c]
  403d06:	8b 5d e0             	mov    ebx,DWORD PTR [ebp-0x20]
  403d09:	85 f6                	test   esi,esi
  403d0b:	7e 19                	jle    403d26 <___pformat_xint+0x1b6>
  403d0d:	8b 75 08             	mov    esi,DWORD PTR [ebp+0x8]
  403d10:	b8 20 00 00 00       	mov    eax,0x20
  403d15:	83 eb 01             	sub    ebx,0x1
  403d18:	89 f2                	mov    edx,esi
  403d1a:	e8 71 f9 ff ff       	call   403690 <___pformat_putc>
  403d1f:	8d 43 01             	lea    eax,[ebx+0x1]
  403d22:	85 c0                	test   eax,eax
  403d24:	7f ea                	jg     403d10 <___pformat_xint+0x1a0>
  403d26:	8d 65 f4             	lea    esp,[ebp-0xc]
  403d29:	5b                   	pop    ebx
  403d2a:	5e                   	pop    esi
  403d2b:	5f                   	pop    edi
  403d2c:	5d                   	pop    ebp
  403d2d:	c3                   	ret    
  403d2e:	66 90                	xchg   ax,ax
  403d30:	8b 45 08             	mov    eax,DWORD PTR [ebp+0x8]
  403d33:	be ff ff ff ff       	mov    esi,0xffffffff
  403d38:	c7 45 e4 fe ff ff ff 	mov    DWORD PTR [ebp-0x1c],0xfffffffe
  403d3f:	c7 40 08 ff ff ff ff 	mov    DWORD PTR [eax+0x8],0xffffffff
  403d46:	e9 6f ff ff ff       	jmp    403cba <___pformat_xint+0x14a>
  403d4b:	90                   	nop
  403d4c:	8d 74 26 00          	lea    esi,[esi+eiz*1+0x0]
  403d50:	8b 5d e4             	mov    ebx,DWORD PTR [ebp-0x1c]
  403d53:	89 c6                	mov    esi,eax
  403d55:	b8 20 00 00 00       	mov    eax,0x20
  403d5a:	83 eb 01             	sub    ebx,0x1
  403d5d:	89 f2                	mov    edx,esi
  403d5f:	e8 2c f9 ff ff       	call   403690 <___pformat_putc>
  403d64:	8d 43 01             	lea    eax,[ebx+0x1]
  403d67:	85 c0                	test   eax,eax
  403d69:	7f ea                	jg     403d55 <___pformat_xint+0x1e5>
  403d6b:	8b 4d e4             	mov    ecx,DWORD PTR [ebp-0x1c]
  403d6e:	89 c8                	mov    eax,ecx
  403d70:	c1 f8 1f             	sar    eax,0x1f
  403d73:	f7 d0                	not    eax
  403d75:	8d 71 ff             	lea    esi,[ecx-0x1]
  403d78:	21 c8                	and    eax,ecx
  403d7a:	29 c6                	sub    esi,eax
  403d7c:	8d 5e ff             	lea    ebx,[esi-0x1]
  403d7f:	e9 5b ff ff ff       	jmp    403cdf <___pformat_xint+0x16f>
  403d84:	83 ee 03             	sub    esi,0x3
  403d87:	89 75 e4             	mov    DWORD PTR [ebp-0x1c],esi
  403d8a:	89 c6                	mov    esi,eax
  403d8c:	8d 74 26 00          	lea    esi,[esi+eiz*1+0x0]
  403d90:	0f b6 45 d8          	movzx  eax,BYTE PTR [ebp-0x28]
  403d94:	83 c7 02             	add    edi,0x2
  403d97:	c6 47 ff 30          	mov    BYTE PTR [edi-0x1],0x30
  403d9b:	8b 5d e4             	mov    ebx,DWORD PTR [ebp-0x1c]
  403d9e:	88 47 fe             	mov    BYTE PTR [edi-0x2],al
  403da1:	e9 2c ff ff ff       	jmp    403cd2 <___pformat_xint+0x162>
  403da6:	8d 46 fe             	lea    eax,[esi-0x2]
  403da9:	85 c0                	test   eax,eax
  403dab:	7e d7                	jle    403d84 <___pformat_xint+0x214>
  403dad:	89 c6                	mov    esi,eax
  403daf:	8b 45 08             	mov    eax,DWORD PTR [ebp+0x8]
  403db2:	8b 58 0c             	mov    ebx,DWORD PTR [eax+0xc]
  403db5:	85 db                	test   ebx,ebx
  403db7:	0f 89 f7 fe ff ff    	jns    403cb4 <___pformat_xint+0x144>
  403dbd:	8b 45 08             	mov    eax,DWORD PTR [ebp+0x8]
  403dc0:	8b 40 04             	mov    eax,DWORD PTR [eax+0x4]
  403dc3:	25 00 06 00 00       	and    eax,0x600
  403dc8:	3d 00 02 00 00       	cmp    eax,0x200
  403dcd:	0f 85 e1 fe ff ff    	jne    403cb4 <___pformat_xint+0x144>
  403dd3:	01 fe                	add    esi,edi
  403dd5:	83 c7 01             	add    edi,0x1
  403dd8:	39 f7                	cmp    edi,esi
  403dda:	c6 47 ff 30          	mov    BYTE PTR [edi-0x1],0x30
  403dde:	75 f5                	jne    403dd5 <___pformat_xint+0x265>
  403de0:	c7 45 e4 fe ff ff ff 	mov    DWORD PTR [ebp-0x1c],0xfffffffe
  403de7:	be ff ff ff ff       	mov    esi,0xffffffff
  403dec:	e9 c9 fe ff ff       	jmp    403cba <___pformat_xint+0x14a>
  403df1:	83 7d d8 6f          	cmp    DWORD PTR [ebp-0x28],0x6f
  403df5:	89 c7                	mov    edi,eax
  403df7:	0f 85 6e fe ff ff    	jne    403c6b <___pformat_xint+0xfb>
  403dfd:	8b 75 08             	mov    esi,DWORD PTR [ebp+0x8]
  403e00:	f6 46 05 08          	test   BYTE PTR [esi+0x5],0x8
  403e04:	0f 84 61 fe ff ff    	je     403c6b <___pformat_xint+0xfb>
  403e0a:	83 c7 01             	add    edi,0x1
  403e0d:	c6 00 30             	mov    BYTE PTR [eax],0x30
  403e10:	e9 56 fe ff ff       	jmp    403c6b <___pformat_xint+0xfb>
  403e15:	8b 45 08             	mov    eax,DWORD PTR [ebp+0x8]
  403e18:	8b 70 0c             	mov    esi,DWORD PTR [eax+0xc]
  403e1b:	85 f6                	test   esi,esi
  403e1d:	0f 84 51 fe ff ff    	je     403c74 <___pformat_xint+0x104>
  403e23:	c6 07 30             	mov    BYTE PTR [edi],0x30
  403e26:	83 c7 01             	add    edi,0x1
  403e29:	e9 46 fe ff ff       	jmp    403c74 <___pformat_xint+0x104>
  403e2e:	8b 45 08             	mov    eax,DWORD PTR [ebp+0x8]
  403e31:	8b 58 0c             	mov    ebx,DWORD PTR [eax+0xc]
  403e34:	8b 45 08             	mov    eax,DWORD PTR [ebp+0x8]
  403e37:	81 60 04 ff f7 ff ff 	and    DWORD PTR [eax+0x4],0xfffff7ff
  403e3e:	8b 45 e0             	mov    eax,DWORD PTR [ebp-0x20]
  403e41:	e9 fe fd ff ff       	jmp    403c44 <___pformat_xint+0xd4>
  403e46:	8d 76 00             	lea    esi,[esi+0x0]
  403e49:	8d bc 27 00 00 00 00 	lea    edi,[edi+eiz*1+0x0]

00403e50 <___pformat_emit_float>:
  403e50:	55                   	push   ebp
  403e51:	89 e5                	mov    ebp,esp
  403e53:	57                   	push   edi
  403e54:	56                   	push   esi
  403e55:	89 d6                	mov    esi,edx
  403e57:	53                   	push   ebx
  403e58:	89 cb                	mov    ebx,ecx
  403e5a:	83 ec 3c             	sub    esp,0x3c
  403e5d:	8b 7d 08             	mov    edi,DWORD PTR [ebp+0x8]
  403e60:	85 c9                	test   ecx,ecx
  403e62:	89 45 d4             	mov    DWORD PTR [ebp-0x2c],eax
  403e65:	8b 47 08             	mov    eax,DWORD PTR [edi+0x8]
  403e68:	0f 8e 7a 02 00 00    	jle    4040e8 <___pformat_emit_float+0x298>
  403e6e:	39 c1                	cmp    ecx,eax
  403e70:	0f 8d 3a 01 00 00    	jge    403fb0 <___pformat_emit_float+0x160>
  403e76:	29 c8                	sub    eax,ecx
  403e78:	89 47 08             	mov    DWORD PTR [edi+0x8],eax
  403e7b:	85 c0                	test   eax,eax
  403e7d:	0f 88 2d 01 00 00    	js     403fb0 <___pformat_emit_float+0x160>
  403e83:	8b 57 0c             	mov    edx,DWORD PTR [edi+0xc]
  403e86:	39 c2                	cmp    edx,eax
  403e88:	0f 8d 22 01 00 00    	jge    403fb0 <___pformat_emit_float+0x160>
  403e8e:	29 d0                	sub    eax,edx
  403e90:	85 c0                	test   eax,eax
  403e92:	89 47 08             	mov    DWORD PTR [edi+0x8],eax
  403e95:	0f 8e 1c 01 00 00    	jle    403fb7 <___pformat_emit_float+0x167>
  403e9b:	85 d2                	test   edx,edx
  403e9d:	0f 8e ad 02 00 00    	jle    404150 <___pformat_emit_float+0x300>
  403ea3:	83 e8 01             	sub    eax,0x1
  403ea6:	85 c0                	test   eax,eax
  403ea8:	89 47 08             	mov    DWORD PTR [edi+0x8],eax
  403eab:	0f 84 06 01 00 00    	je     403fb7 <___pformat_emit_float+0x167>
  403eb1:	8b 55 d4             	mov    edx,DWORD PTR [ebp-0x2c]
  403eb4:	85 d2                	test   edx,edx
  403eb6:	0f 85 ba 01 00 00    	jne    404076 <___pformat_emit_float+0x226>
  403ebc:	8b 57 04             	mov    edx,DWORD PTR [edi+0x4]
  403ebf:	f7 c2 c0 01 00 00    	test   edx,0x1c0
  403ec5:	0f 85 ab 01 00 00    	jne    404076 <___pformat_emit_float+0x226>
  403ecb:	80 e6 06             	and    dh,0x6
  403ece:	0f 85 e3 00 00 00    	jne    403fb7 <___pformat_emit_float+0x167>
  403ed4:	eb 0c                	jmp    403ee2 <___pformat_emit_float+0x92>
  403ed6:	89 fa                	mov    edx,edi
  403ed8:	b8 20 00 00 00       	mov    eax,0x20
  403edd:	e8 ae f7 ff ff       	call   403690 <___pformat_putc>
  403ee2:	8b 47 08             	mov    eax,DWORD PTR [edi+0x8]
  403ee5:	8d 50 ff             	lea    edx,[eax-0x1]
  403ee8:	85 c0                	test   eax,eax
  403eea:	89 57 08             	mov    DWORD PTR [edi+0x8],edx
  403eed:	7f e7                	jg     403ed6 <___pformat_emit_float+0x86>
  403eef:	8b 45 d4             	mov    eax,DWORD PTR [ebp-0x2c]
  403ef2:	85 c0                	test   eax,eax
  403ef4:	0f 84 c8 00 00 00    	je     403fc2 <___pformat_emit_float+0x172>
  403efa:	89 fa                	mov    edx,edi
  403efc:	b8 2d 00 00 00       	mov    eax,0x2d
  403f01:	e8 8a f7 ff ff       	call   403690 <___pformat_putc>
  403f06:	8b 57 08             	mov    edx,DWORD PTR [edi+0x8]
  403f09:	85 d2                	test   edx,edx
  403f0b:	7e 13                	jle    403f20 <___pformat_emit_float+0xd0>
  403f0d:	8b 47 04             	mov    eax,DWORD PTR [edi+0x4]
  403f10:	25 00 06 00 00       	and    eax,0x600
  403f15:	3d 00 02 00 00       	cmp    eax,0x200
  403f1a:	0f 84 f1 01 00 00    	je     404111 <___pformat_emit_float+0x2c1>
  403f20:	85 db                	test   ebx,ebx
  403f22:	0f 8e 10 02 00 00    	jle    404138 <___pformat_emit_float+0x2e8>
  403f28:	0f b6 16             	movzx  edx,BYTE PTR [esi]
  403f2b:	b8 30 00 00 00       	mov    eax,0x30
  403f30:	84 d2                	test   dl,dl
  403f32:	74 06                	je     403f3a <___pformat_emit_float+0xea>
  403f34:	83 c6 01             	add    esi,0x1
  403f37:	0f be c2             	movsx  eax,dl
  403f3a:	89 fa                	mov    edx,edi
  403f3c:	e8 4f f7 ff ff       	call   403690 <___pformat_putc>
  403f41:	83 eb 01             	sub    ebx,0x1
  403f44:	75 e2                	jne    403f28 <___pformat_emit_float+0xd8>
  403f46:	8b 47 0c             	mov    eax,DWORD PTR [edi+0xc]
  403f49:	85 c0                	test   eax,eax
  403f4b:	0f 8e 3f 01 00 00    	jle    404090 <___pformat_emit_float+0x240>
  403f51:	83 7f 10 fd          	cmp    DWORD PTR [edi+0x10],0xfffffffd
  403f55:	0f 84 49 01 00 00    	je     4040a4 <___pformat_emit_float+0x254>
  403f5b:	0f b7 57 14          	movzx  edx,WORD PTR [edi+0x14]
  403f5f:	66 85 d2             	test   dx,dx
  403f62:	0f 85 7f 00 00 00    	jne    403fe7 <___pformat_emit_float+0x197>
  403f68:	b8 2e 00 00 00       	mov    eax,0x2e
  403f6d:	89 fa                	mov    edx,edi
  403f6f:	e8 1c f7 ff ff       	call   403690 <___pformat_putc>
  403f74:	8b 47 0c             	mov    eax,DWORD PTR [edi+0xc]
  403f77:	85 db                	test   ebx,ebx
  403f79:	74 21                	je     403f9c <___pformat_emit_float+0x14c>
  403f7b:	e9 d8 00 00 00       	jmp    404058 <___pformat_emit_float+0x208>
  403f80:	0f b6 16             	movzx  edx,BYTE PTR [esi]
  403f83:	b8 30 00 00 00       	mov    eax,0x30
  403f88:	84 d2                	test   dl,dl
  403f8a:	74 06                	je     403f92 <___pformat_emit_float+0x142>
  403f8c:	83 c6 01             	add    esi,0x1
  403f8f:	0f be c2             	movsx  eax,dl
  403f92:	89 fa                	mov    edx,edi
  403f94:	e8 f7 f6 ff ff       	call   403690 <___pformat_putc>
  403f99:	8b 47 0c             	mov    eax,DWORD PTR [edi+0xc]
  403f9c:	8d 50 ff             	lea    edx,[eax-0x1]
  403f9f:	85 c0                	test   eax,eax
  403fa1:	89 57 0c             	mov    DWORD PTR [edi+0xc],edx
  403fa4:	7f da                	jg     403f80 <___pformat_emit_float+0x130>
  403fa6:	8d 65 f4             	lea    esp,[ebp-0xc]
  403fa9:	5b                   	pop    ebx
  403faa:	5e                   	pop    esi
  403fab:	5f                   	pop    edi
  403fac:	5d                   	pop    ebp
  403fad:	c3                   	ret    
  403fae:	66 90                	xchg   ax,ax
  403fb0:	c7 47 08 ff ff ff ff 	mov    DWORD PTR [edi+0x8],0xffffffff
  403fb7:	8b 45 d4             	mov    eax,DWORD PTR [ebp-0x2c]
  403fba:	85 c0                	test   eax,eax
  403fbc:	0f 85 38 ff ff ff    	jne    403efa <___pformat_emit_float+0xaa>
  403fc2:	8b 47 04             	mov    eax,DWORD PTR [edi+0x4]
  403fc5:	f6 c4 01             	test   ah,0x1
  403fc8:	0f 85 32 01 00 00    	jne    404100 <___pformat_emit_float+0x2b0>
  403fce:	a8 40                	test   al,0x40
  403fd0:	0f 84 30 ff ff ff    	je     403f06 <___pformat_emit_float+0xb6>
  403fd6:	89 fa                	mov    edx,edi
  403fd8:	b8 20 00 00 00       	mov    eax,0x20
  403fdd:	e8 ae f6 ff ff       	call   403690 <___pformat_putc>
  403fe2:	e9 1f ff ff ff       	jmp    403f06 <___pformat_emit_float+0xb6>
  403fe7:	8b 47 10             	mov    eax,DWORD PTR [edi+0x10]
  403fea:	89 65 d4             	mov    DWORD PTR [ebp-0x2c],esp
  403fed:	83 c0 0f             	add    eax,0xf
  403ff0:	83 e0 f0             	and    eax,0xfffffff0
  403ff3:	e8 28 df ff ff       	call   401f20 <___chkstk_ms>
  403ff8:	29 c4                	sub    esp,eax
  403ffa:	8d 4c 24 10          	lea    ecx,[esp+0x10]
  403ffe:	8d 45 e4             	lea    eax,[ebp-0x1c]
  404001:	c7 45 e4 00 00 00 00 	mov    DWORD PTR [ebp-0x1c],0x0
  404008:	89 44 24 08          	mov    DWORD PTR [esp+0x8],eax
  40400c:	89 54 24 04          	mov    DWORD PTR [esp+0x4],edx
  404010:	89 0c 24             	mov    DWORD PTR [esp],ecx
  404013:	89 4d d0             	mov    DWORD PTR [ebp-0x30],ecx
  404016:	e8 35 19 00 00       	call   405950 <_wcrtomb>
  40401b:	85 c0                	test   eax,eax
  40401d:	0f 8e 42 01 00 00    	jle    404165 <___pformat_emit_float+0x315>
  404023:	8b 4d d0             	mov    ecx,DWORD PTR [ebp-0x30]
  404026:	89 5d cc             	mov    DWORD PTR [ebp-0x34],ebx
  404029:	89 75 d0             	mov    DWORD PTR [ebp-0x30],esi
  40402c:	01 c8                	add    eax,ecx
  40402e:	89 cb                	mov    ebx,ecx
  404030:	89 c6                	mov    esi,eax
  404032:	83 c3 01             	add    ebx,0x1
  404035:	0f be 43 ff          	movsx  eax,BYTE PTR [ebx-0x1]
  404039:	89 fa                	mov    edx,edi
  40403b:	e8 50 f6 ff ff       	call   403690 <___pformat_putc>
  404040:	39 f3                	cmp    ebx,esi
  404042:	75 ee                	jne    404032 <___pformat_emit_float+0x1e2>
  404044:	8b 75 d0             	mov    esi,DWORD PTR [ebp-0x30]
  404047:	8b 5d cc             	mov    ebx,DWORD PTR [ebp-0x34]
  40404a:	85 db                	test   ebx,ebx
  40404c:	8b 65 d4             	mov    esp,DWORD PTR [ebp-0x2c]
  40404f:	8b 47 0c             	mov    eax,DWORD PTR [edi+0xc]
  404052:	0f 84 44 ff ff ff    	je     403f9c <___pformat_emit_float+0x14c>
  404058:	01 d8                	add    eax,ebx
  40405a:	89 47 0c             	mov    DWORD PTR [edi+0xc],eax
  40405d:	8d 76 00             	lea    esi,[esi+0x0]
  404060:	89 fa                	mov    edx,edi
  404062:	b8 30 00 00 00       	mov    eax,0x30
  404067:	e8 24 f6 ff ff       	call   403690 <___pformat_putc>
  40406c:	83 c3 01             	add    ebx,0x1
  40406f:	78 ef                	js     404060 <___pformat_emit_float+0x210>
  404071:	e9 23 ff ff ff       	jmp    403f99 <___pformat_emit_float+0x149>
  404076:	83 e8 01             	sub    eax,0x1
  404079:	85 c0                	test   eax,eax
  40407b:	89 47 08             	mov    DWORD PTR [edi+0x8],eax
  40407e:	0f 84 33 ff ff ff    	je     403fb7 <___pformat_emit_float+0x167>
  404084:	8b 57 04             	mov    edx,DWORD PTR [edi+0x4]
  404087:	e9 3f fe ff ff       	jmp    403ecb <___pformat_emit_float+0x7b>
  40408c:	8d 74 26 00          	lea    esi,[esi+eiz*1+0x0]
  404090:	f6 47 05 08          	test   BYTE PTR [edi+0x5],0x8
  404094:	0f 84 dd fe ff ff    	je     403f77 <___pformat_emit_float+0x127>
  40409a:	83 7f 10 fd          	cmp    DWORD PTR [edi+0x10],0xfffffffd
  40409e:	0f 85 b7 fe ff ff    	jne    403f5b <___pformat_emit_float+0x10b>
  4040a4:	c7 45 e4 00 00 00 00 	mov    DWORD PTR [ebp-0x1c],0x0
  4040ab:	e8 e0 3e 00 00       	call   407f90 <_localeconv>
  4040b0:	8d 55 e4             	lea    edx,[ebp-0x1c]
  4040b3:	89 54 24 0c          	mov    DWORD PTR [esp+0xc],edx
  4040b7:	c7 44 24 08 10 00 00 	mov    DWORD PTR [esp+0x8],0x10
  4040be:	00 
  4040bf:	8b 00                	mov    eax,DWORD PTR [eax]
  4040c1:	89 44 24 04          	mov    DWORD PTR [esp+0x4],eax
  4040c5:	8d 45 e2             	lea    eax,[ebp-0x1e]
  4040c8:	89 04 24             	mov    DWORD PTR [esp],eax
  4040cb:	e8 50 15 00 00       	call   405620 <_mbrtowc>
  4040d0:	85 c0                	test   eax,eax
  4040d2:	0f 8e 9e 00 00 00    	jle    404176 <___pformat_emit_float+0x326>
  4040d8:	0f b7 55 e2          	movzx  edx,WORD PTR [ebp-0x1e]
  4040dc:	66 89 57 14          	mov    WORD PTR [edi+0x14],dx
  4040e0:	89 47 10             	mov    DWORD PTR [edi+0x10],eax
  4040e3:	e9 77 fe ff ff       	jmp    403f5f <___pformat_emit_float+0x10f>
  4040e8:	85 c0                	test   eax,eax
  4040ea:	0f 8e 8b fd ff ff    	jle    403e7b <___pformat_emit_float+0x2b>
  4040f0:	83 e8 01             	sub    eax,0x1
  4040f3:	89 47 08             	mov    DWORD PTR [edi+0x8],eax
  4040f6:	e9 88 fd ff ff       	jmp    403e83 <___pformat_emit_float+0x33>
  4040fb:	90                   	nop
  4040fc:	8d 74 26 00          	lea    esi,[esi+eiz*1+0x0]
  404100:	89 fa                	mov    edx,edi
  404102:	b8 2b 00 00 00       	mov    eax,0x2b
  404107:	e8 84 f5 ff ff       	call   403690 <___pformat_putc>
  40410c:	e9 f5 fd ff ff       	jmp    403f06 <___pformat_emit_float+0xb6>
  404111:	83 ea 01             	sub    edx,0x1
  404114:	89 57 08             	mov    DWORD PTR [edi+0x8],edx
  404117:	89 fa                	mov    edx,edi
  404119:	b8 30 00 00 00       	mov    eax,0x30
  40411e:	e8 6d f5 ff ff       	call   403690 <___pformat_putc>
  404123:	8b 47 08             	mov    eax,DWORD PTR [edi+0x8]
  404126:	8d 50 ff             	lea    edx,[eax-0x1]
  404129:	85 c0                	test   eax,eax
  40412b:	89 57 08             	mov    DWORD PTR [edi+0x8],edx
  40412e:	7f e7                	jg     404117 <___pformat_emit_float+0x2c7>
  404130:	85 db                	test   ebx,ebx
  404132:	0f 8f f0 fd ff ff    	jg     403f28 <___pformat_emit_float+0xd8>
  404138:	89 fa                	mov    edx,edi
  40413a:	b8 30 00 00 00       	mov    eax,0x30
  40413f:	e8 4c f5 ff ff       	call   403690 <___pformat_putc>
  404144:	e9 fd fd ff ff       	jmp    403f46 <___pformat_emit_float+0xf6>
  404149:	8d b4 26 00 00 00 00 	lea    esi,[esi+eiz*1+0x0]
  404150:	f6 47 05 08          	test   BYTE PTR [edi+0x5],0x8
  404154:	0f 84 57 fd ff ff    	je     403eb1 <___pformat_emit_float+0x61>
  40415a:	8d b6 00 00 00 00    	lea    esi,[esi+0x0]
  404160:	e9 3e fd ff ff       	jmp    403ea3 <___pformat_emit_float+0x53>
  404165:	89 fa                	mov    edx,edi
  404167:	b8 2e 00 00 00       	mov    eax,0x2e
  40416c:	e8 1f f5 ff ff       	call   403690 <___pformat_putc>
  404171:	e9 d4 fe ff ff       	jmp    40404a <___pformat_emit_float+0x1fa>
  404176:	0f b7 57 14          	movzx  edx,WORD PTR [edi+0x14]
  40417a:	e9 61 ff ff ff       	jmp    4040e0 <___pformat_emit_float+0x290>
  40417f:	90                   	nop

00404180 <___pformat_emit_efloat>:
  404180:	55                   	push   ebp
  404181:	83 e9 01             	sub    ecx,0x1
  404184:	57                   	push   edi
  404185:	89 d5                	mov    ebp,edx
  404187:	56                   	push   esi
  404188:	be 01 00 00 00       	mov    esi,0x1
  40418d:	53                   	push   ebx
  40418e:	bb 67 66 66 66       	mov    ebx,0x66666667
  404193:	83 ec 1c             	sub    esp,0x1c
  404196:	89 44 24 04          	mov    DWORD PTR [esp+0x4],eax
  40419a:	89 c8                	mov    eax,ecx
  40419c:	8b 7c 24 30          	mov    edi,DWORD PTR [esp+0x30]
  4041a0:	c1 f8 1f             	sar    eax,0x1f
  4041a3:	89 44 24 0c          	mov    DWORD PTR [esp+0xc],eax
  4041a7:	89 c8                	mov    eax,ecx
  4041a9:	f7 eb                	imul   ebx
  4041ab:	89 4c 24 08          	mov    DWORD PTR [esp+0x8],ecx
  4041af:	c1 f9 1f             	sar    ecx,0x1f
  4041b2:	c1 fa 02             	sar    edx,0x2
  4041b5:	89 d3                	mov    ebx,edx
  4041b7:	29 cb                	sub    ebx,ecx
  4041b9:	74 18                	je     4041d3 <___pformat_emit_efloat+0x53>
  4041bb:	b9 67 66 66 66       	mov    ecx,0x66666667
  4041c0:	89 d8                	mov    eax,ebx
  4041c2:	83 c6 01             	add    esi,0x1
  4041c5:	f7 e9                	imul   ecx
  4041c7:	c1 fb 1f             	sar    ebx,0x1f
  4041ca:	c1 fa 02             	sar    edx,0x2
  4041cd:	29 da                	sub    edx,ebx
  4041cf:	89 d3                	mov    ebx,edx
  4041d1:	75 ed                	jne    4041c0 <___pformat_emit_efloat+0x40>
  4041d3:	8b 47 20             	mov    eax,DWORD PTR [edi+0x20]
  4041d6:	39 c6                	cmp    esi,eax
  4041d8:	7d 02                	jge    4041dc <___pformat_emit_efloat+0x5c>
  4041da:	89 c6                	mov    esi,eax
  4041dc:	8b 57 08             	mov    edx,DWORD PTR [edi+0x8]
  4041df:	8d 46 02             	lea    eax,[esi+0x2]
  4041e2:	39 c2                	cmp    edx,eax
  4041e4:	7f 5a                	jg     404240 <___pformat_emit_efloat+0xc0>
  4041e6:	c7 47 08 ff ff ff ff 	mov    DWORD PTR [edi+0x8],0xffffffff
  4041ed:	8b 44 24 04          	mov    eax,DWORD PTR [esp+0x4]
  4041f1:	b9 01 00 00 00       	mov    ecx,0x1
  4041f6:	89 ea                	mov    edx,ebp
  4041f8:	89 3c 24             	mov    DWORD PTR [esp],edi
  4041fb:	83 c6 01             	add    esi,0x1
  4041fe:	e8 4d fc ff ff       	call   403e50 <___pformat_emit_float>
  404203:	8b 47 20             	mov    eax,DWORD PTR [edi+0x20]
  404206:	89 47 0c             	mov    DWORD PTR [edi+0xc],eax
  404209:	8b 47 04             	mov    eax,DWORD PTR [edi+0x4]
  40420c:	89 c2                	mov    edx,eax
  40420e:	83 e0 20             	and    eax,0x20
  404211:	81 ca c0 01 00 00    	or     edx,0x1c0
  404217:	83 c8 45             	or     eax,0x45
  40421a:	89 57 04             	mov    DWORD PTR [edi+0x4],edx
  40421d:	89 fa                	mov    edx,edi
  40421f:	e8 6c f4 ff ff       	call   403690 <___pformat_putc>
  404224:	8b 44 24 08          	mov    eax,DWORD PTR [esp+0x8]
  404228:	89 f9                	mov    ecx,edi
  40422a:	01 77 08             	add    DWORD PTR [edi+0x8],esi
  40422d:	8b 54 24 0c          	mov    edx,DWORD PTR [esp+0xc]
  404231:	e8 0a f7 ff ff       	call   403940 <___pformat_int>
  404236:	83 c4 1c             	add    esp,0x1c
  404239:	5b                   	pop    ebx
  40423a:	5e                   	pop    esi
  40423b:	5f                   	pop    edi
  40423c:	5d                   	pop    ebp
  40423d:	c3                   	ret    
  40423e:	66 90                	xchg   ax,ax
  404240:	29 c2                	sub    edx,eax
  404242:	89 57 08             	mov    DWORD PTR [edi+0x8],edx
  404245:	eb a6                	jmp    4041ed <___pformat_emit_efloat+0x6d>
  404247:	89 f6                	mov    esi,esi
  404249:	8d bc 27 00 00 00 00 	lea    edi,[edi+eiz*1+0x0]

00404250 <___pformat_efloat>:
  404250:	56                   	push   esi
  404251:	53                   	push   ebx
  404252:	89 c3                	mov    ebx,eax
  404254:	83 ec 44             	sub    esp,0x44
  404257:	8b 40 0c             	mov    eax,DWORD PTR [eax+0xc]
  40425a:	85 c0                	test   eax,eax
  40425c:	78 72                	js     4042d0 <___pformat_efloat+0x80>
  40425e:	83 c0 01             	add    eax,0x1
  404261:	db 6c 24 50          	fld    TBYTE PTR [esp+0x50]
  404265:	89 44 24 10          	mov    DWORD PTR [esp+0x10],eax
  404269:	8d 54 24 28          	lea    edx,[esp+0x28]
  40426d:	db 7c 24 30          	fstp   TBYTE PTR [esp+0x30]
  404271:	8b 44 24 30          	mov    eax,DWORD PTR [esp+0x30]
  404275:	89 54 24 18          	mov    DWORD PTR [esp+0x18],edx
  404279:	8d 54 24 2c          	lea    edx,[esp+0x2c]
  40427d:	89 54 24 14          	mov    DWORD PTR [esp+0x14],edx
  404281:	89 04 24             	mov    DWORD PTR [esp],eax
  404284:	8b 44 24 34          	mov    eax,DWORD PTR [esp+0x34]
  404288:	89 44 24 04          	mov    DWORD PTR [esp+0x4],eax
  40428c:	8b 44 24 38          	mov    eax,DWORD PTR [esp+0x38]
  404290:	89 44 24 08          	mov    DWORD PTR [esp+0x8],eax
  404294:	8b 44 24 3c          	mov    eax,DWORD PTR [esp+0x3c]
  404298:	89 44 24 0c          	mov    DWORD PTR [esp+0xc],eax
  40429c:	b8 02 00 00 00       	mov    eax,0x2
  4042a1:	e8 ea f2 ff ff       	call   403590 <___pformat_cvt>
  4042a6:	8b 4c 24 2c          	mov    ecx,DWORD PTR [esp+0x2c]
  4042aa:	81 f9 00 80 ff ff    	cmp    ecx,0xffff8000
  4042b0:	89 c6                	mov    esi,eax
  4042b2:	74 2c                	je     4042e0 <___pformat_efloat+0x90>
  4042b4:	89 c2                	mov    edx,eax
  4042b6:	8b 44 24 28          	mov    eax,DWORD PTR [esp+0x28]
  4042ba:	89 1c 24             	mov    DWORD PTR [esp],ebx
  4042bd:	e8 be fe ff ff       	call   404180 <___pformat_emit_efloat>
  4042c2:	89 34 24             	mov    DWORD PTR [esp],esi
  4042c5:	e8 e6 2e 00 00       	call   4071b0 <___freedtoa>
  4042ca:	83 c4 44             	add    esp,0x44
  4042cd:	5b                   	pop    ebx
  4042ce:	5e                   	pop    esi
  4042cf:	c3                   	ret    
  4042d0:	c7 43 0c 06 00 00 00 	mov    DWORD PTR [ebx+0xc],0x6
  4042d7:	b8 07 00 00 00       	mov    eax,0x7
  4042dc:	eb 83                	jmp    404261 <___pformat_efloat+0x11>
  4042de:	66 90                	xchg   ax,ax
  4042e0:	89 c2                	mov    edx,eax
  4042e2:	8b 44 24 28          	mov    eax,DWORD PTR [esp+0x28]
  4042e6:	89 d9                	mov    ecx,ebx
  4042e8:	e8 c3 f5 ff ff       	call   4038b0 <___pformat_emit_inf_or_nan>
  4042ed:	89 34 24             	mov    DWORD PTR [esp],esi
  4042f0:	e8 bb 2e 00 00       	call   4071b0 <___freedtoa>
  4042f5:	83 c4 44             	add    esp,0x44
  4042f8:	5b                   	pop    ebx
  4042f9:	5e                   	pop    esi
  4042fa:	c3                   	ret    
  4042fb:	90                   	nop
  4042fc:	8d 74 26 00          	lea    esi,[esi+eiz*1+0x0]

00404300 <___pformat_float>:
  404300:	57                   	push   edi
  404301:	56                   	push   esi
  404302:	53                   	push   ebx
  404303:	89 c3                	mov    ebx,eax
  404305:	83 ec 40             	sub    esp,0x40
  404308:	8b 40 0c             	mov    eax,DWORD PTR [eax+0xc]
  40430b:	85 c0                	test   eax,eax
  40430d:	0f 88 9d 00 00 00    	js     4043b0 <___pformat_float+0xb0>
  404313:	db 6c 24 50          	fld    TBYTE PTR [esp+0x50]
  404317:	89 44 24 10          	mov    DWORD PTR [esp+0x10],eax
  40431b:	8d 54 24 28          	lea    edx,[esp+0x28]
  40431f:	db 7c 24 30          	fstp   TBYTE PTR [esp+0x30]
  404323:	8b 44 24 30          	mov    eax,DWORD PTR [esp+0x30]
  404327:	89 54 24 18          	mov    DWORD PTR [esp+0x18],edx
  40432b:	8d 54 24 2c          	lea    edx,[esp+0x2c]
  40432f:	89 54 24 14          	mov    DWORD PTR [esp+0x14],edx
  404333:	89 04 24             	mov    DWORD PTR [esp],eax
  404336:	8b 44 24 34          	mov    eax,DWORD PTR [esp+0x34]
  40433a:	89 44 24 04          	mov    DWORD PTR [esp+0x4],eax
  40433e:	8b 44 24 38          	mov    eax,DWORD PTR [esp+0x38]
  404342:	89 44 24 08          	mov    DWORD PTR [esp+0x8],eax
  404346:	8b 44 24 3c          	mov    eax,DWORD PTR [esp+0x3c]
  40434a:	89 44 24 0c          	mov    DWORD PTR [esp+0xc],eax
  40434e:	b8 03 00 00 00       	mov    eax,0x3
  404353:	e8 38 f2 ff ff       	call   403590 <___pformat_cvt>
  404358:	8b 4c 24 2c          	mov    ecx,DWORD PTR [esp+0x2c]
  40435c:	81 f9 00 80 ff ff    	cmp    ecx,0xffff8000
  404362:	89 c7                	mov    edi,eax
  404364:	74 5b                	je     4043c1 <___pformat_float+0xc1>
  404366:	89 c2                	mov    edx,eax
  404368:	8b 44 24 28          	mov    eax,DWORD PTR [esp+0x28]
  40436c:	89 1c 24             	mov    DWORD PTR [esp],ebx
  40436f:	e8 dc fa ff ff       	call   403e50 <___pformat_emit_float>
  404374:	8b 43 08             	mov    eax,DWORD PTR [ebx+0x8]
  404377:	8d 50 ff             	lea    edx,[eax-0x1]
  40437a:	85 c0                	test   eax,eax
  40437c:	89 53 08             	mov    DWORD PTR [ebx+0x8],edx
  40437f:	7e 19                	jle    40439a <___pformat_float+0x9a>
  404381:	89 da                	mov    edx,ebx
  404383:	b8 20 00 00 00       	mov    eax,0x20
  404388:	e8 03 f3 ff ff       	call   403690 <___pformat_putc>
  40438d:	8b 4b 08             	mov    ecx,DWORD PTR [ebx+0x8]
  404390:	8d 71 ff             	lea    esi,[ecx-0x1]
  404393:	85 c9                	test   ecx,ecx
  404395:	89 73 08             	mov    DWORD PTR [ebx+0x8],esi
  404398:	7f e7                	jg     404381 <___pformat_float+0x81>
  40439a:	89 3c 24             	mov    DWORD PTR [esp],edi
  40439d:	e8 0e 2e 00 00       	call   4071b0 <___freedtoa>
  4043a2:	83 c4 40             	add    esp,0x40
  4043a5:	5b                   	pop    ebx
  4043a6:	5e                   	pop    esi
  4043a7:	5f                   	pop    edi
  4043a8:	c3                   	ret    
  4043a9:	8d b4 26 00 00 00 00 	lea    esi,[esi+eiz*1+0x0]
  4043b0:	c7 43 0c 06 00 00 00 	mov    DWORD PTR [ebx+0xc],0x6
  4043b7:	b8 06 00 00 00       	mov    eax,0x6
  4043bc:	e9 52 ff ff ff       	jmp    404313 <___pformat_float+0x13>
  4043c1:	89 c2                	mov    edx,eax
  4043c3:	8b 44 24 28          	mov    eax,DWORD PTR [esp+0x28]
  4043c7:	89 d9                	mov    ecx,ebx
  4043c9:	e8 e2 f4 ff ff       	call   4038b0 <___pformat_emit_inf_or_nan>
  4043ce:	89 3c 24             	mov    DWORD PTR [esp],edi
  4043d1:	e8 da 2d 00 00       	call   4071b0 <___freedtoa>
  4043d6:	83 c4 40             	add    esp,0x40
  4043d9:	5b                   	pop    ebx
  4043da:	5e                   	pop    esi
  4043db:	5f                   	pop    edi
  4043dc:	c3                   	ret    
  4043dd:	8d 76 00             	lea    esi,[esi+0x0]

004043e0 <___pformat_gfloat>:
  4043e0:	57                   	push   edi
  4043e1:	56                   	push   esi
  4043e2:	53                   	push   ebx
  4043e3:	89 c3                	mov    ebx,eax
  4043e5:	83 ec 40             	sub    esp,0x40
  4043e8:	8b 40 0c             	mov    eax,DWORD PTR [eax+0xc]
  4043eb:	85 c0                	test   eax,eax
  4043ed:	0f 88 1d 01 00 00    	js     404510 <___pformat_gfloat+0x130>
  4043f3:	0f 84 fa 00 00 00    	je     4044f3 <___pformat_gfloat+0x113>
  4043f9:	db 6c 24 50          	fld    TBYTE PTR [esp+0x50]
  4043fd:	89 44 24 10          	mov    DWORD PTR [esp+0x10],eax
  404401:	8d 54 24 28          	lea    edx,[esp+0x28]
  404405:	db 7c 24 30          	fstp   TBYTE PTR [esp+0x30]
  404409:	8b 44 24 30          	mov    eax,DWORD PTR [esp+0x30]
  40440d:	89 54 24 18          	mov    DWORD PTR [esp+0x18],edx
  404411:	8d 54 24 2c          	lea    edx,[esp+0x2c]
  404415:	89 54 24 14          	mov    DWORD PTR [esp+0x14],edx
  404419:	89 04 24             	mov    DWORD PTR [esp],eax
  40441c:	8b 44 24 34          	mov    eax,DWORD PTR [esp+0x34]
  404420:	89 44 24 04          	mov    DWORD PTR [esp+0x4],eax
  404424:	8b 44 24 38          	mov    eax,DWORD PTR [esp+0x38]
  404428:	89 44 24 08          	mov    DWORD PTR [esp+0x8],eax
  40442c:	8b 44 24 3c          	mov    eax,DWORD PTR [esp+0x3c]
  404430:	89 44 24 0c          	mov    DWORD PTR [esp+0xc],eax
  404434:	b8 02 00 00 00       	mov    eax,0x2
  404439:	e8 52 f1 ff ff       	call   403590 <___pformat_cvt>
  40443e:	8b 74 24 2c          	mov    esi,DWORD PTR [esp+0x2c]
  404442:	81 fe 00 80 ff ff    	cmp    esi,0xffff8000
  404448:	89 c7                	mov    edi,eax
  40444a:	0f 84 e0 00 00 00    	je     404530 <___pformat_gfloat+0x150>
  404450:	83 fe fd             	cmp    esi,0xfffffffd
  404453:	7c 6b                	jl     4044c0 <___pformat_gfloat+0xe0>
  404455:	8b 43 0c             	mov    eax,DWORD PTR [ebx+0xc]
  404458:	39 c6                	cmp    esi,eax
  40445a:	7f 64                	jg     4044c0 <___pformat_gfloat+0xe0>
  40445c:	f6 43 05 08          	test   BYTE PTR [ebx+0x5],0x8
  404460:	0f 85 bb 00 00 00    	jne    404521 <___pformat_gfloat+0x141>
  404466:	89 3c 24             	mov    DWORD PTR [esp],edi
  404469:	e8 d2 3a 00 00       	call   407f40 <_strlen>
  40446e:	29 f0                	sub    eax,esi
  404470:	85 c0                	test   eax,eax
  404472:	89 43 0c             	mov    DWORD PTR [ebx+0xc],eax
  404475:	0f 88 c5 00 00 00    	js     404540 <___pformat_gfloat+0x160>
  40447b:	8b 44 24 28          	mov    eax,DWORD PTR [esp+0x28]
  40447f:	89 fa                	mov    edx,edi
  404481:	89 f1                	mov    ecx,esi
  404483:	89 1c 24             	mov    DWORD PTR [esp],ebx
  404486:	e8 c5 f9 ff ff       	call   403e50 <___pformat_emit_float>
  40448b:	8b 43 08             	mov    eax,DWORD PTR [ebx+0x8]
  40448e:	8d 50 ff             	lea    edx,[eax-0x1]
  404491:	85 c0                	test   eax,eax
  404493:	89 53 08             	mov    DWORD PTR [ebx+0x8],edx
  404496:	7e 4c                	jle    4044e4 <___pformat_gfloat+0x104>
  404498:	89 da                	mov    edx,ebx
  40449a:	b8 20 00 00 00       	mov    eax,0x20
  40449f:	e8 ec f1 ff ff       	call   403690 <___pformat_putc>
  4044a4:	8b 4b 08             	mov    ecx,DWORD PTR [ebx+0x8]
  4044a7:	8d 71 ff             	lea    esi,[ecx-0x1]
  4044aa:	85 c9                	test   ecx,ecx
  4044ac:	89 73 08             	mov    DWORD PTR [ebx+0x8],esi
  4044af:	7f e7                	jg     404498 <___pformat_gfloat+0xb8>
  4044b1:	89 3c 24             	mov    DWORD PTR [esp],edi
  4044b4:	e8 f7 2c 00 00       	call   4071b0 <___freedtoa>
  4044b9:	83 c4 40             	add    esp,0x40
  4044bc:	5b                   	pop    ebx
  4044bd:	5e                   	pop    esi
  4044be:	5f                   	pop    edi
  4044bf:	c3                   	ret    
  4044c0:	f6 43 05 08          	test   BYTE PTR [ebx+0x5],0x8
  4044c4:	75 3e                	jne    404504 <___pformat_gfloat+0x124>
  4044c6:	89 3c 24             	mov    DWORD PTR [esp],edi
  4044c9:	e8 72 3a 00 00       	call   407f40 <_strlen>
  4044ce:	83 e8 01             	sub    eax,0x1
  4044d1:	89 43 0c             	mov    DWORD PTR [ebx+0xc],eax
  4044d4:	8b 44 24 28          	mov    eax,DWORD PTR [esp+0x28]
  4044d8:	89 f1                	mov    ecx,esi
  4044da:	89 fa                	mov    edx,edi
  4044dc:	89 1c 24             	mov    DWORD PTR [esp],ebx
  4044df:	e8 9c fc ff ff       	call   404180 <___pformat_emit_efloat>
  4044e4:	89 3c 24             	mov    DWORD PTR [esp],edi
  4044e7:	e8 c4 2c 00 00       	call   4071b0 <___freedtoa>
  4044ec:	83 c4 40             	add    esp,0x40
  4044ef:	5b                   	pop    ebx
  4044f0:	5e                   	pop    esi
  4044f1:	5f                   	pop    edi
  4044f2:	c3                   	ret    
  4044f3:	c7 43 0c 01 00 00 00 	mov    DWORD PTR [ebx+0xc],0x1
  4044fa:	b8 01 00 00 00       	mov    eax,0x1
  4044ff:	e9 f5 fe ff ff       	jmp    4043f9 <___pformat_gfloat+0x19>
  404504:	83 6b 0c 01          	sub    DWORD PTR [ebx+0xc],0x1
  404508:	eb ca                	jmp    4044d4 <___pformat_gfloat+0xf4>
  40450a:	8d b6 00 00 00 00    	lea    esi,[esi+0x0]
  404510:	c7 43 0c 06 00 00 00 	mov    DWORD PTR [ebx+0xc],0x6
  404517:	b8 06 00 00 00       	mov    eax,0x6
  40451c:	e9 d8 fe ff ff       	jmp    4043f9 <___pformat_gfloat+0x19>
  404521:	29 f0                	sub    eax,esi
  404523:	89 43 0c             	mov    DWORD PTR [ebx+0xc],eax
  404526:	e9 50 ff ff ff       	jmp    40447b <___pformat_gfloat+0x9b>
  40452b:	90                   	nop
  40452c:	8d 74 26 00          	lea    esi,[esi+eiz*1+0x0]
  404530:	89 c2                	mov    edx,eax
  404532:	8b 44 24 28          	mov    eax,DWORD PTR [esp+0x28]
  404536:	89 d9                	mov    ecx,ebx
  404538:	e8 73 f3 ff ff       	call   4038b0 <___pformat_emit_inf_or_nan>
  40453d:	eb a5                	jmp    4044e4 <___pformat_gfloat+0x104>
  40453f:	90                   	nop
  404540:	8b 53 08             	mov    edx,DWORD PTR [ebx+0x8]
  404543:	85 d2                	test   edx,edx
  404545:	0f 8e 30 ff ff ff    	jle    40447b <___pformat_gfloat+0x9b>
  40454b:	01 d0                	add    eax,edx
  40454d:	89 43 08             	mov    DWORD PTR [ebx+0x8],eax
  404550:	e9 26 ff ff ff       	jmp    40447b <___pformat_gfloat+0x9b>
  404555:	8d 74 26 00          	lea    esi,[esi+eiz*1+0x0]
  404559:	8d bc 27 00 00 00 00 	lea    edi,[edi+eiz*1+0x0]

00404560 <___pformat_xldouble>:
  404560:	55                   	push   ebp
  404561:	89 e5                	mov    ebp,esp
  404563:	57                   	push   edi
  404564:	89 c7                	mov    edi,eax
  404566:	56                   	push   esi
  404567:	53                   	push   ebx
  404568:	83 ec 6c             	sub    esp,0x6c
  40456b:	db 6d 08             	fld    TBYTE PTR [ebp+0x8]
  40456e:	d9 c0                	fld    st(0)
  404570:	db 7d c0             	fstp   TBYTE PTR [ebp-0x40]
  404573:	d9 e5                	fxam   
  404575:	9b df e0             	fstsw  ax
  404578:	66 25 00 45          	and    ax,0x4500
  40457c:	66 3d 00 01          	cmp    ax,0x100
  404580:	0f 84 1f 05 00 00    	je     404aa5 <___pformat_xldouble+0x545>
  404586:	0f b7 55 c8          	movzx  edx,WORD PTR [ebp-0x38]
  40458a:	89 d3                	mov    ebx,edx
  40458c:	81 e3 00 80 00 00    	and    ebx,0x8000
  404592:	0f 85 48 01 00 00    	jne    4046e0 <___pformat_xldouble+0x180>
  404598:	d9 e5                	fxam   
  40459a:	9b df e0             	fstsw  ax
  40459d:	dd d8                	fstp   st(0)
  40459f:	66 25 00 45          	and    ax,0x4500
  4045a3:	66 3d 00 05          	cmp    ax,0x500
  4045a7:	0f 84 16 05 00 00    	je     404ac3 <___pformat_xldouble+0x563>
  4045ad:	66 81 e2 ff 7f       	and    dx,0x7fff
  4045b2:	0f 84 b8 01 00 00    	je     404770 <___pformat_xldouble+0x210>
  4045b8:	8d b2 01 c0 ff ff    	lea    esi,[edx-0x3fff]
  4045be:	8b 45 c0             	mov    eax,DWORD PTR [ebp-0x40]
  4045c1:	8b 55 c4             	mov    edx,DWORD PTR [ebp-0x3c]
  4045c4:	8b 5f 0c             	mov    ebx,DWORD PTR [edi+0xc]
  4045c7:	83 fb 0e             	cmp    ebx,0xe
  4045ca:	0f 86 26 01 00 00    	jbe    4046f6 <___pformat_xldouble+0x196>
  4045d0:	89 d1                	mov    ecx,edx
  4045d2:	09 c1                	or     ecx,eax
  4045d4:	0f 84 fc 04 00 00    	je     404ad6 <___pformat_xldouble+0x576>
  4045da:	8d 4d d6             	lea    ecx,[ebp-0x2a]
  4045dd:	89 4d a4             	mov    DWORD PTR [ebp-0x5c],ecx
  4045e0:	89 4d ac             	mov    DWORD PTR [ebp-0x54],ecx
  4045e3:	89 7d a8             	mov    DWORD PTR [ebp-0x58],edi
  4045e6:	eb 5e                	jmp    404646 <___pformat_xldouble+0xe6>
  4045e8:	8b 4d a8             	mov    ecx,DWORD PTR [ebp-0x58]
  4045eb:	8b 49 0c             	mov    ecx,DWORD PTR [ecx+0xc]
  4045ee:	85 c9                	test   ecx,ecx
  4045f0:	7e 09                	jle    4045fb <___pformat_xldouble+0x9b>
  4045f2:	8b 5d a8             	mov    ebx,DWORD PTR [ebp-0x58]
  4045f5:	83 e9 01             	sub    ecx,0x1
  4045f8:	89 4b 0c             	mov    DWORD PTR [ebx+0xc],ecx
  4045fb:	8b 4d ac             	mov    ecx,DWORD PTR [ebp-0x54]
  4045fe:	0f ac d0 04          	shrd   eax,edx,0x4
  404602:	c1 ea 04             	shr    edx,0x4
  404605:	85 ff                	test   edi,edi
  404607:	89 4d b0             	mov    DWORD PTR [ebp-0x50],ecx
  40460a:	0f 84 a8 00 00 00    	je     4046b8 <___pformat_xldouble+0x158>
  404610:	8b 4d b0             	mov    ecx,DWORD PTR [ebp-0x50]
  404613:	83 c1 01             	add    ecx,0x1
  404616:	83 ff 09             	cmp    edi,0x9
  404619:	89 4d ac             	mov    DWORD PTR [ebp-0x54],ecx
  40461c:	0f 8e b5 00 00 00    	jle    4046d7 <___pformat_xldouble+0x177>
  404622:	8d 4f 37             	lea    ecx,[edi+0x37]
  404625:	8b 7d a8             	mov    edi,DWORD PTR [ebp-0x58]
  404628:	8b 7f 04             	mov    edi,DWORD PTR [edi+0x4]
  40462b:	89 7d a0             	mov    DWORD PTR [ebp-0x60],edi
  40462e:	0f b6 5d a0          	movzx  ebx,BYTE PTR [ebp-0x60]
  404632:	83 e3 20             	and    ebx,0x20
  404635:	09 d9                	or     ecx,ebx
  404637:	8b 7d b0             	mov    edi,DWORD PTR [ebp-0x50]
  40463a:	88 0f                	mov    BYTE PTR [edi],cl
  40463c:	89 d7                	mov    edi,edx
  40463e:	09 c7                	or     edi,eax
  404640:	0f 84 60 01 00 00    	je     4047a6 <___pformat_xldouble+0x246>
  404646:	89 c7                	mov    edi,eax
  404648:	89 c1                	mov    ecx,eax
  40464a:	83 e7 0f             	and    edi,0xf
  40464d:	89 fb                	mov    ebx,edi
  40464f:	31 f9                	xor    ecx,edi
  404651:	c1 fb 1f             	sar    ebx,0x1f
  404654:	31 d3                	xor    ebx,edx
  404656:	09 cb                	or     ebx,ecx
  404658:	75 8e                	jne    4045e8 <___pformat_xldouble+0x88>
  40465a:	8b 4d a4             	mov    ecx,DWORD PTR [ebp-0x5c]
  40465d:	39 4d ac             	cmp    DWORD PTR [ebp-0x54],ecx
  404660:	77 1e                	ja     404680 <___pformat_xldouble+0x120>
  404662:	8b 4d a8             	mov    ecx,DWORD PTR [ebp-0x58]
  404665:	f6 41 05 08          	test   BYTE PTR [ecx+0x5],0x8
  404669:	75 15                	jne    404680 <___pformat_xldouble+0x120>
  40466b:	8b 4d ac             	mov    ecx,DWORD PTR [ebp-0x54]
  40466e:	89 4d b0             	mov    DWORD PTR [ebp-0x50],ecx
  404671:	8b 4d a8             	mov    ecx,DWORD PTR [ebp-0x58]
  404674:	8b 59 0c             	mov    ebx,DWORD PTR [ecx+0xc]
  404677:	85 db                	test   ebx,ebx
  404679:	7e 11                	jle    40468c <___pformat_xldouble+0x12c>
  40467b:	90                   	nop
  40467c:	8d 74 26 00          	lea    esi,[esi+eiz*1+0x0]
  404680:	8b 4d ac             	mov    ecx,DWORD PTR [ebp-0x54]
  404683:	8d 59 01             	lea    ebx,[ecx+0x1]
  404686:	89 5d b0             	mov    DWORD PTR [ebp-0x50],ebx
  404689:	c6 01 2e             	mov    BYTE PTR [ecx],0x2e
  40468c:	89 c1                	mov    ecx,eax
  40468e:	83 f1 01             	xor    ecx,0x1
  404691:	09 d1                	or     ecx,edx
  404693:	74 17                	je     4046ac <___pformat_xldouble+0x14c>
  404695:	8d 4e ff             	lea    ecx,[esi-0x1]
  404698:	0f ac d0 01          	shrd   eax,edx,0x1
  40469c:	89 ce                	mov    esi,ecx
  40469e:	89 c3                	mov    ebx,eax
  4046a0:	d1 ea                	shr    edx,1
  4046a2:	83 f3 01             	xor    ebx,0x1
  4046a5:	09 d3                	or     ebx,edx
  4046a7:	8d 4e ff             	lea    ecx,[esi-0x1]
  4046aa:	75 ec                	jne    404698 <___pformat_xldouble+0x138>
  4046ac:	31 c0                	xor    eax,eax
  4046ae:	31 d2                	xor    edx,edx
  4046b0:	85 ff                	test   edi,edi
  4046b2:	0f 85 58 ff ff ff    	jne    404610 <___pformat_xldouble+0xb0>
  4046b8:	8b 4d a4             	mov    ecx,DWORD PTR [ebp-0x5c]
  4046bb:	39 4d b0             	cmp    DWORD PTR [ebp-0x50],ecx
  4046be:	77 0e                	ja     4046ce <___pformat_xldouble+0x16e>
  4046c0:	8b 4d a8             	mov    ecx,DWORD PTR [ebp-0x58]
  4046c3:	8b 49 0c             	mov    ecx,DWORD PTR [ecx+0xc]
  4046c6:	85 c9                	test   ecx,ecx
  4046c8:	0f 88 b7 01 00 00    	js     404885 <___pformat_xldouble+0x325>
  4046ce:	8b 4d b0             	mov    ecx,DWORD PTR [ebp-0x50]
  4046d1:	83 c1 01             	add    ecx,0x1
  4046d4:	89 4d ac             	mov    DWORD PTR [ebp-0x54],ecx
  4046d7:	8d 4f 30             	lea    ecx,[edi+0x30]
  4046da:	e9 58 ff ff ff       	jmp    404637 <___pformat_xldouble+0xd7>
  4046df:	90                   	nop
  4046e0:	81 4f 04 80 00 00 00 	or     DWORD PTR [edi+0x4],0x80
  4046e7:	e9 ac fe ff ff       	jmp    404598 <___pformat_xldouble+0x38>
  4046ec:	8d 74 26 00          	lea    esi,[esi+eiz*1+0x0]
  4046f0:	0f a4 c2 01          	shld   edx,eax,0x1
  4046f4:	01 c0                	add    eax,eax
  4046f6:	85 d2                	test   edx,edx
  4046f8:	79 f6                	jns    4046f0 <___pformat_xldouble+0x190>
  4046fa:	b9 0e 00 00 00       	mov    ecx,0xe
  4046ff:	0f ac d0 01          	shrd   eax,edx,0x1
  404703:	29 d9                	sub    ecx,ebx
  404705:	d1 ea                	shr    edx,1
  404707:	c1 e1 02             	shl    ecx,0x2
  40470a:	89 45 b0             	mov    DWORD PTR [ebp-0x50],eax
  40470d:	b8 04 00 00 00       	mov    eax,0x4
  404712:	89 55 b4             	mov    DWORD PTR [ebp-0x4c],edx
  404715:	31 d2                	xor    edx,edx
  404717:	0f a5 c2             	shld   edx,eax,cl
  40471a:	d3 e0                	shl    eax,cl
  40471c:	f6 c1 20             	test   cl,0x20
  40471f:	74 04                	je     404725 <___pformat_xldouble+0x1c5>
  404721:	89 c2                	mov    edx,eax
  404723:	31 c0                	xor    eax,eax
  404725:	01 45 b0             	add    DWORD PTR [ebp-0x50],eax
  404728:	11 55 b4             	adc    DWORD PTR [ebp-0x4c],edx
  40472b:	8b 55 b4             	mov    edx,DWORD PTR [ebp-0x4c]
  40472e:	8b 45 b0             	mov    eax,DWORD PTR [ebp-0x50]
  404731:	85 d2                	test   edx,edx
  404733:	0f 88 64 03 00 00    	js     404a9d <___pformat_xldouble+0x53d>
  404739:	0f a4 c2 01          	shld   edx,eax,0x1
  40473d:	01 c0                	add    eax,eax
  40473f:	89 45 b0             	mov    DWORD PTR [ebp-0x50],eax
  404742:	89 55 b4             	mov    DWORD PTR [ebp-0x4c],edx
  404745:	8b 55 b4             	mov    edx,DWORD PTR [ebp-0x4c]
