
main.exe:     file format pei-i386


Disassembly of section .text:

00401000 <__gnu_exception_handler@4>:
  401000:	53                   	push   ebx
  401001:	83 ec 18             	sub    esp,0x18
  401004:	8b 44 24 20          	mov    eax,DWORD PTR [esp+0x20]
  401008:	8b 00                	mov    eax,DWORD PTR [eax]
  40100a:	8b 00                	mov    eax,DWORD PTR [eax]
  40100c:	3d 91 00 00 c0       	cmp    eax,0xc0000091
  401011:	77 4d                	ja     401060 <__gnu_exception_handler@4+0x60>
  401013:	3d 8d 00 00 c0       	cmp    eax,0xc000008d
  401018:	73 5b                	jae    401075 <__gnu_exception_handler@4+0x75>
  40101a:	3d 05 00 00 c0       	cmp    eax,0xc0000005
  40101f:	0f 85 8e 00 00 00    	jne    4010b3 <__gnu_exception_handler@4+0xb3>
  401025:	c7 44 24 04 00 00 00 	mov    DWORD PTR [esp+0x4],0x0
  40102c:	00 
  40102d:	c7 04 24 0b 00 00 00 	mov    DWORD PTR [esp],0xb
  401034:	e8 1f 6f 00 00       	call   407f58 <_signal>
  401039:	83 f8 01             	cmp    eax,0x1
  40103c:	0f 84 c1 00 00 00    	je     401103 <__gnu_exception_handler@4+0x103>
  401042:	85 c0                	test   eax,eax
  401044:	0f 85 a6 00 00 00    	jne    4010f0 <__gnu_exception_handler@4+0xf0>
  40104a:	8d b6 00 00 00 00    	lea    esi,[esi+0x0]
  401050:	31 c0                	xor    eax,eax
  401052:	83 c4 18             	add    esp,0x18
  401055:	5b                   	pop    ebx
  401056:	c2 04 00             	ret    0x4
  401059:	8d b4 26 00 00 00 00 	lea    esi,[esi+eiz*1+0x0]
  401060:	3d 94 00 00 c0       	cmp    eax,0xc0000094
  401065:	74 19                	je     401080 <__gnu_exception_handler@4+0x80>
  401067:	3d 96 00 00 c0       	cmp    eax,0xc0000096
  40106c:	74 4c                	je     4010ba <__gnu_exception_handler@4+0xba>
  40106e:	3d 93 00 00 c0       	cmp    eax,0xc0000093
  401073:	75 db                	jne    401050 <__gnu_exception_handler@4+0x50>
  401075:	bb 01 00 00 00       	mov    ebx,0x1
  40107a:	eb 06                	jmp    401082 <__gnu_exception_handler@4+0x82>
  40107c:	8d 74 26 00          	lea    esi,[esi+eiz*1+0x0]
  401080:	31 db                	xor    ebx,ebx
  401082:	c7 44 24 04 00 00 00 	mov    DWORD PTR [esp+0x4],0x0
  401089:	00 
  40108a:	c7 04 24 08 00 00 00 	mov    DWORD PTR [esp],0x8
  401091:	e8 c2 6e 00 00       	call   407f58 <_signal>
  401096:	83 f8 01             	cmp    eax,0x1
  401099:	0f 84 a1 00 00 00    	je     401140 <__gnu_exception_handler@4+0x140>
  40109f:	85 c0                	test   eax,eax
  4010a1:	74 ad                	je     401050 <__gnu_exception_handler@4+0x50>
  4010a3:	c7 04 24 08 00 00 00 	mov    DWORD PTR [esp],0x8
  4010aa:	ff d0                	call   eax
  4010ac:	b8 ff ff ff ff       	mov    eax,0xffffffff
  4010b1:	eb 9f                	jmp    401052 <__gnu_exception_handler@4+0x52>
  4010b3:	3d 1d 00 00 c0       	cmp    eax,0xc000001d
  4010b8:	75 96                	jne    401050 <__gnu_exception_handler@4+0x50>
  4010ba:	c7 44 24 04 00 00 00 	mov    DWORD PTR [esp+0x4],0x0
  4010c1:	00 
  4010c2:	c7 04 24 04 00 00 00 	mov    DWORD PTR [esp],0x4
  4010c9:	e8 8a 6e 00 00       	call   407f58 <_signal>
  4010ce:	83 f8 01             	cmp    eax,0x1
  4010d1:	74 4c                	je     40111f <__gnu_exception_handler@4+0x11f>
  4010d3:	85 c0                	test   eax,eax
  4010d5:	0f 84 75 ff ff ff    	je     401050 <__gnu_exception_handler@4+0x50>
  4010db:	c7 04 24 04 00 00 00 	mov    DWORD PTR [esp],0x4
  4010e2:	ff d0                	call   eax
  4010e4:	b8 ff ff ff ff       	mov    eax,0xffffffff
  4010e9:	e9 64 ff ff ff       	jmp    401052 <__gnu_exception_handler@4+0x52>
  4010ee:	66 90                	xchg   ax,ax
  4010f0:	c7 04 24 0b 00 00 00 	mov    DWORD PTR [esp],0xb
  4010f7:	ff d0                	call   eax
  4010f9:	b8 ff ff ff ff       	mov    eax,0xffffffff
  4010fe:	e9 4f ff ff ff       	jmp    401052 <__gnu_exception_handler@4+0x52>
  401103:	c7 44 24 04 01 00 00 	mov    DWORD PTR [esp+0x4],0x1
  40110a:	00 
  40110b:	c7 04 24 0b 00 00 00 	mov    DWORD PTR [esp],0xb
  401112:	e8 41 6e 00 00       	call   407f58 <_signal>
  401117:	83 c8 ff             	or     eax,0xffffffff
  40111a:	e9 33 ff ff ff       	jmp    401052 <__gnu_exception_handler@4+0x52>
  40111f:	c7 44 24 04 01 00 00 	mov    DWORD PTR [esp+0x4],0x1
  401126:	00 
  401127:	c7 04 24 04 00 00 00 	mov    DWORD PTR [esp],0x4
  40112e:	e8 25 6e 00 00       	call   407f58 <_signal>
  401133:	83 c8 ff             	or     eax,0xffffffff
  401136:	e9 17 ff ff ff       	jmp    401052 <__gnu_exception_handler@4+0x52>
  40113b:	90                   	nop
  40113c:	8d 74 26 00          	lea    esi,[esi+eiz*1+0x0]
  401140:	c7 44 24 04 01 00 00 	mov    DWORD PTR [esp+0x4],0x1
  401147:	00 
  401148:	c7 04 24 08 00 00 00 	mov    DWORD PTR [esp],0x8
  40114f:	e8 04 6e 00 00       	call   407f58 <_signal>
  401154:	85 db                	test   ebx,ebx
  401156:	b8 ff ff ff ff       	mov    eax,0xffffffff
  40115b:	0f 84 f1 fe ff ff    	je     401052 <__gnu_exception_handler@4+0x52>
  401161:	89 44 24 0c          	mov    DWORD PTR [esp+0xc],eax
  401165:	e8 b6 06 00 00       	call   401820 <__fpreset>
  40116a:	8b 44 24 0c          	mov    eax,DWORD PTR [esp+0xc]
  40116e:	e9 df fe ff ff       	jmp    401052 <__gnu_exception_handler@4+0x52>
  401173:	8d b6 00 00 00 00    	lea    esi,[esi+0x0]
  401179:	8d bc 27 00 00 00 00 	lea    edi,[edi+eiz*1+0x0]

00401180 <___mingw_CRTStartup>:
  401180:	55                   	push   ebp
  401181:	89 e5                	mov    ebp,esp
  401183:	53                   	push   ebx
  401184:	83 ec 14             	sub    esp,0x14
  401187:	a1 64 a0 40 00       	mov    eax,ds:0x40a064
  40118c:	85 c0                	test   eax,eax
  40118e:	74 1c                	je     4011ac <___mingw_CRTStartup+0x2c>
  401190:	c7 44 24 08 00 00 00 	mov    DWORD PTR [esp+0x8],0x0
  401197:	00 
  401198:	c7 44 24 04 02 00 00 	mov    DWORD PTR [esp+0x4],0x2
  40119f:	00 
  4011a0:	c7 04 24 00 00 00 00 	mov    DWORD PTR [esp],0x0
  4011a7:	ff d0                	call   eax
  4011a9:	83 ec 0c             	sub    esp,0xc
  4011ac:	c7 04 24 00 10 40 00 	mov    DWORD PTR [esp],0x401000
  4011b3:	e8 80 6e 00 00       	call   408038 <_SetUnhandledExceptionFilter@4>
  4011b8:	83 ec 04             	sub    esp,0x4
  4011bb:	e8 80 05 00 00       	call   401740 <___cpu_features_init>
  4011c0:	e8 5b 06 00 00       	call   401820 <__fpreset>
  4011c5:	e8 66 02 00 00       	call   401430 <__setargv>
  4011ca:	a1 20 d0 40 00       	mov    eax,ds:0x40d020
  4011cf:	85 c0                	test   eax,eax
  4011d1:	74 42                	je     401215 <___mingw_CRTStartup+0x95>
  4011d3:	8b 1d c8 e1 40 00    	mov    ebx,DWORD PTR ds:0x40e1c8
  4011d9:	a3 04 90 40 00       	mov    ds:0x409004,eax
  4011de:	89 44 24 04          	mov    DWORD PTR [esp+0x4],eax
  4011e2:	8b 43 10             	mov    eax,DWORD PTR [ebx+0x10]
  4011e5:	89 04 24             	mov    DWORD PTR [esp],eax
  4011e8:	e8 eb 6d 00 00       	call   407fd8 <__setmode>
  4011ed:	a1 20 d0 40 00       	mov    eax,ds:0x40d020
  4011f2:	89 44 24 04          	mov    DWORD PTR [esp+0x4],eax
  4011f6:	8b 43 30             	mov    eax,DWORD PTR [ebx+0x30]
  4011f9:	89 04 24             	mov    DWORD PTR [esp],eax
  4011fc:	e8 d7 6d 00 00       	call   407fd8 <__setmode>
  401201:	a1 20 d0 40 00       	mov    eax,ds:0x40d020
  401206:	89 44 24 04          	mov    DWORD PTR [esp+0x4],eax
  40120a:	8b 43 50             	mov    eax,DWORD PTR [ebx+0x50]
  40120d:	89 04 24             	mov    DWORD PTR [esp],eax
  401210:	e8 c3 6d 00 00       	call   407fd8 <__setmode>
  401215:	e8 de 6d 00 00       	call   407ff8 <___p__fmode>
  40121a:	8b 15 04 90 40 00    	mov    edx,DWORD PTR ds:0x409004
  401220:	89 10                	mov    DWORD PTR [eax],edx
  401222:	e8 19 0b 00 00       	call   401d40 <__pei386_runtime_relocator>
  401227:	83 e4 f0             	and    esp,0xfffffff0
  40122a:	e8 81 06 00 00       	call   4018b0 <___main>
  40122f:	e8 cc 6d 00 00       	call   408000 <___p__environ>
  401234:	8b 00                	mov    eax,DWORD PTR [eax]
  401236:	89 44 24 08          	mov    DWORD PTR [esp+0x8],eax
  40123a:	a1 00 d0 40 00       	mov    eax,ds:0x40d000
  40123f:	89 44 24 04          	mov    DWORD PTR [esp+0x4],eax
  401243:	a1 04 d0 40 00       	mov    eax,ds:0x40d004
  401248:	89 04 24             	mov    DWORD PTR [esp],eax
  40124b:	e8 90 01 00 00       	call   4013e0 <_main>
  401250:	89 c3                	mov    ebx,eax
  401252:	e8 99 6d 00 00       	call   407ff0 <__cexit>
  401257:	89 1c 24             	mov    DWORD PTR [esp],ebx
  40125a:	e8 41 6e 00 00       	call   4080a0 <_ExitProcess@4>
  40125f:	90                   	nop

00401260 <__mingw32_init_mainargs>:
  401260:	83 ec 3c             	sub    esp,0x3c
  401263:	8d 44 24 2c          	lea    eax,[esp+0x2c]
  401267:	89 44 24 10          	mov    DWORD PTR [esp+0x10],eax
  40126b:	a1 00 90 40 00       	mov    eax,ds:0x409000
  401270:	c7 44 24 04 00 d0 40 	mov    DWORD PTR [esp+0x4],0x40d000
  401277:	00 
  401278:	c7 04 24 04 d0 40 00 	mov    DWORD PTR [esp],0x40d004
  40127f:	c7 44 24 2c 00 00 00 	mov    DWORD PTR [esp+0x2c],0x0
  401286:	00 
  401287:	83 e0 01             	and    eax,0x1
  40128a:	89 44 24 0c          	mov    DWORD PTR [esp+0xc],eax
  40128e:	8d 44 24 28          	lea    eax,[esp+0x28]
  401292:	89 44 24 08          	mov    DWORD PTR [esp+0x8],eax
  401296:	e8 6d 6d 00 00       	call   408008 <___getmainargs>
  40129b:	83 c4 3c             	add    esp,0x3c
  40129e:	c3                   	ret    
  40129f:	90                   	nop

004012a0 <_mainCRTStartup>:
  4012a0:	83 ec 1c             	sub    esp,0x1c
  4012a3:	c7 04 24 01 00 00 00 	mov    DWORD PTR [esp],0x1
  4012aa:	ff 15 b8 e1 40 00    	call   DWORD PTR ds:0x40e1b8
  4012b0:	e8 cb fe ff ff       	call   401180 <___mingw_CRTStartup>
  4012b5:	8d 74 26 00          	lea    esi,[esi+eiz*1+0x0]
  4012b9:	8d bc 27 00 00 00 00 	lea    edi,[edi+eiz*1+0x0]

004012c0 <_WinMainCRTStartup>:
  4012c0:	83 ec 1c             	sub    esp,0x1c
  4012c3:	c7 04 24 02 00 00 00 	mov    DWORD PTR [esp],0x2
  4012ca:	ff 15 b8 e1 40 00    	call   DWORD PTR ds:0x40e1b8
  4012d0:	e8 ab fe ff ff       	call   401180 <___mingw_CRTStartup>
  4012d5:	8d 74 26 00          	lea    esi,[esi+eiz*1+0x0]
  4012d9:	8d bc 27 00 00 00 00 	lea    edi,[edi+eiz*1+0x0]

004012e0 <_atexit>:
  4012e0:	a1 d8 e1 40 00       	mov    eax,ds:0x40e1d8
  4012e5:	ff e0                	jmp    eax
  4012e7:	89 f6                	mov    esi,esi
  4012e9:	8d bc 27 00 00 00 00 	lea    edi,[edi+eiz*1+0x0]

004012f0 <__onexit>:
  4012f0:	a1 cc e1 40 00       	mov    eax,ds:0x40e1cc
  4012f5:	ff e0                	jmp    eax
  4012f7:	90                   	nop
  4012f8:	90                   	nop
  4012f9:	90                   	nop
  4012fa:	90                   	nop
  4012fb:	90                   	nop
  4012fc:	90                   	nop
  4012fd:	90                   	nop
  4012fe:	90                   	nop
  4012ff:	90                   	nop

00401300 <___gcc_register_frame>:
  401300:	55                   	push   ebp
  401301:	89 e5                	mov    ebp,esp
  401303:	83 ec 18             	sub    esp,0x18
  401306:	c7 04 24 00 a0 40 00 	mov    DWORD PTR [esp],0x40a000
  40130d:	e8 5e 6d 00 00       	call   408070 <_GetModuleHandleA@4>
  401312:	ba 00 00 00 00       	mov    edx,0x0
  401317:	83 ec 04             	sub    esp,0x4
  40131a:	85 c0                	test   eax,eax
  40131c:	74 15                	je     401333 <___gcc_register_frame+0x33>
  40131e:	c7 44 24 04 13 a0 40 	mov    DWORD PTR [esp+0x4],0x40a013
  401325:	00 
  401326:	89 04 24             	mov    DWORD PTR [esp],eax
  401329:	e8 3a 6d 00 00       	call   408068 <_GetProcAddress@8>
  40132e:	83 ec 08             	sub    esp,0x8
  401331:	89 c2                	mov    edx,eax
  401333:	85 d2                	test   edx,edx
  401335:	74 11                	je     401348 <___gcc_register_frame+0x48>
  401337:	c7 44 24 04 08 d0 40 	mov    DWORD PTR [esp+0x4],0x40d008
  40133e:	00 
  40133f:	c7 04 24 c0 b0 40 00 	mov    DWORD PTR [esp],0x40b0c0
  401346:	ff d2                	call   edx
  401348:	a1 24 90 40 00       	mov    eax,ds:0x409024
  40134d:	85 c0                	test   eax,eax
  40134f:	74 3a                	je     40138b <___gcc_register_frame+0x8b>
  401351:	c7 04 24 29 a0 40 00 	mov    DWORD PTR [esp],0x40a029
  401358:	e8 13 6d 00 00       	call   408070 <_GetModuleHandleA@4>
  40135d:	ba 00 00 00 00       	mov    edx,0x0
  401362:	83 ec 04             	sub    esp,0x4
  401365:	85 c0                	test   eax,eax
  401367:	74 15                	je     40137e <___gcc_register_frame+0x7e>
  401369:	c7 44 24 04 37 a0 40 	mov    DWORD PTR [esp+0x4],0x40a037
  401370:	00 
  401371:	89 04 24             	mov    DWORD PTR [esp],eax
  401374:	e8 ef 6c 00 00       	call   408068 <_GetProcAddress@8>
  401379:	83 ec 08             	sub    esp,0x8
  40137c:	89 c2                	mov    edx,eax
  40137e:	85 d2                	test   edx,edx
  401380:	74 09                	je     40138b <___gcc_register_frame+0x8b>
  401382:	c7 04 24 24 90 40 00 	mov    DWORD PTR [esp],0x409024
  401389:	ff d2                	call   edx
  40138b:	c9                   	leave  
  40138c:	c3                   	ret    
  40138d:	8d 76 00             	lea    esi,[esi+0x0]

00401390 <___gcc_deregister_frame>:
  401390:	55                   	push   ebp
  401391:	89 e5                	mov    ebp,esp
  401393:	83 ec 18             	sub    esp,0x18
  401396:	c7 04 24 00 a0 40 00 	mov    DWORD PTR [esp],0x40a000
  40139d:	e8 ce 6c 00 00       	call   408070 <_GetModuleHandleA@4>
  4013a2:	ba 00 00 00 00       	mov    edx,0x0
  4013a7:	83 ec 04             	sub    esp,0x4
  4013aa:	85 c0                	test   eax,eax
  4013ac:	74 15                	je     4013c3 <___gcc_deregister_frame+0x33>
  4013ae:	c7 44 24 04 4b a0 40 	mov    DWORD PTR [esp+0x4],0x40a04b
  4013b5:	00 
  4013b6:	89 04 24             	mov    DWORD PTR [esp],eax
  4013b9:	e8 aa 6c 00 00       	call   408068 <_GetProcAddress@8>
  4013be:	83 ec 08             	sub    esp,0x8
  4013c1:	89 c2                	mov    edx,eax
  4013c3:	85 d2                	test   edx,edx
  4013c5:	74 09                	je     4013d0 <___gcc_deregister_frame+0x40>
  4013c7:	c7 04 24 c0 b0 40 00 	mov    DWORD PTR [esp],0x40b0c0
  4013ce:	ff d2                	call   edx
  4013d0:	c9                   	leave  
  4013d1:	c3                   	ret    
  4013d2:	90                   	nop
  4013d3:	90                   	nop
  4013d4:	90                   	nop
  4013d5:	90                   	nop
  4013d6:	90                   	nop
  4013d7:	90                   	nop
  4013d8:	90                   	nop
  4013d9:	90                   	nop
  4013da:	90                   	nop
  4013db:	90                   	nop
  4013dc:	90                   	nop
  4013dd:	90                   	nop
  4013de:	90                   	nop
  4013df:	90                   	nop

004013e0 <_main>:
  4013e0:	55                   	push   ebp
  4013e1:	89 e5                	mov    ebp,esp
  4013e3:	83 e4 f0             	and    esp,0xfffffff0
  4013e6:	83 ec 30             	sub    esp,0x30
  4013e9:	e8 c2 04 00 00       	call   4018b0 <___main>
  4013ee:	8d 44 24 1c          	lea    eax,[esp+0x1c]
  4013f2:	c7 00 48 65 6c 6c    	mov    DWORD PTR [eax],0x6c6c6548
  4013f8:	c7 40 04 6f 2c 20 57 	mov    DWORD PTR [eax+0x4],0x57202c6f
  4013ff:	c7 40 08 6f 72 6c 64 	mov    DWORD PTR [eax+0x8],0x646c726f
  401406:	66 c7 40 0c 21 0a    	mov    WORD PTR [eax+0xc],0xa21
  40140c:	c6 40 0e 00          	mov    BYTE PTR [eax+0xe],0x0
  401410:	8d 44 24 1c          	lea    eax,[esp+0x1c]
  401414:	89 04 24             	mov    DWORD PTR [esp],eax
  401417:	e8 54 6b 00 00       	call   407f70 <_printf>
  40141c:	b8 00 00 00 00       	mov    eax,0x0
  401421:	c9                   	leave  
  401422:	c3                   	ret    
  401423:	90                   	nop

00401424 <.text>:
  401424:	66 90                	xchg   ax,ax
  401426:	66 90                	xchg   ax,ax
  401428:	66 90                	xchg   ax,ax
  40142a:	66 90                	xchg   ax,ax
  40142c:	66 90                	xchg   ax,ax
  40142e:	66 90                	xchg   ax,ax

00401430 <__setargv>:
  401430:	55                   	push   ebp
  401431:	89 e5                	mov    ebp,esp
  401433:	57                   	push   edi
  401434:	56                   	push   esi
  401435:	53                   	push   ebx
  401436:	83 ec 4c             	sub    esp,0x4c
  401439:	f6 05 00 90 40 00 02 	test   BYTE PTR ds:0x409000,0x2
  401440:	0f 84 ba 02 00 00    	je     401700 <__setargv+0x2d0>
  401446:	e8 35 6c 00 00       	call   408080 <_GetCommandLineA@0>
  40144b:	89 65 c0             	mov    DWORD PTR [ebp-0x40],esp
  40144e:	89 04 24             	mov    DWORD PTR [esp],eax
  401451:	89 c6                	mov    esi,eax
  401453:	e8 e8 6a 00 00       	call   407f40 <_strlen>
  401458:	8d 44 00 11          	lea    eax,[eax+eax*1+0x11]
  40145c:	83 e0 f0             	and    eax,0xfffffff0
  40145f:	e8 bc 0a 00 00       	call   401f20 <___chkstk_ms>
  401464:	29 c4                	sub    esp,eax
  401466:	8d 44 24 10          	lea    eax,[esp+0x10]
  40146a:	89 c2                	mov    edx,eax
  40146c:	89 45 c4             	mov    DWORD PTR [ebp-0x3c],eax
  40146f:	a1 00 90 40 00       	mov    eax,ds:0x409000
  401474:	c7 45 e4 00 00 00 00 	mov    DWORD PTR [ebp-0x1c],0x0
  40147b:	c7 45 d0 00 00 00 00 	mov    DWORD PTR [ebp-0x30],0x0
  401482:	c7 45 cc 00 00 00 00 	mov    DWORD PTR [ebp-0x34],0x0
  401489:	83 e0 40             	and    eax,0x40
  40148c:	83 f8 01             	cmp    eax,0x1
  40148f:	19 c0                	sbb    eax,eax
  401491:	89 45 c8             	mov    DWORD PTR [ebp-0x38],eax
  401494:	31 c0                	xor    eax,eax
  401496:	81 65 c8 00 c0 ff ff 	and    DWORD PTR [ebp-0x38],0xffffc000
  40149d:	81 45 c8 10 40 00 00 	add    DWORD PTR [ebp-0x38],0x4010
  4014a4:	89 55 d4             	mov    DWORD PTR [ebp-0x2c],edx
  4014a7:	83 c6 01             	add    esi,0x1
  4014aa:	0f b6 5e ff          	movzx  ebx,BYTE PTR [esi-0x1]
  4014ae:	0f be cb             	movsx  ecx,bl
  4014b1:	85 c9                	test   ecx,ecx
  4014b3:	74 7b                	je     401530 <__setargv+0x100>
  4014b5:	80 fb 3f             	cmp    bl,0x3f
  4014b8:	0f 84 13 01 00 00    	je     4015d1 <__setargv+0x1a1>
  4014be:	0f 8f ec 00 00 00    	jg     4015b0 <__setargv+0x180>
  4014c4:	80 fb 27             	cmp    bl,0x27
  4014c7:	0f 84 e3 01 00 00    	je     4016b0 <__setargv+0x280>
  4014cd:	80 fb 2a             	cmp    bl,0x2a
  4014d0:	0f 84 fb 00 00 00    	je     4015d1 <__setargv+0x1a1>
  4014d6:	80 fb 22             	cmp    bl,0x22
  4014d9:	0f 85 36 01 00 00    	jne    401615 <__setargv+0x1e5>
  4014df:	89 c3                	mov    ebx,eax
  4014e1:	d1 fb                	sar    ebx,1
  4014e3:	0f 84 3e 02 00 00    	je     401727 <__setargv+0x2f7>
  4014e9:	8b 55 d4             	mov    edx,DWORD PTR [ebp-0x2c]
  4014ec:	01 d3                	add    ebx,edx
  4014ee:	66 90                	xchg   ax,ax
  4014f0:	83 c2 01             	add    edx,0x1
  4014f3:	39 da                	cmp    edx,ebx
  4014f5:	c6 42 ff 5c          	mov    BYTE PTR [edx-0x1],0x5c
  4014f9:	75 f5                	jne    4014f0 <__setargv+0xc0>
  4014fb:	a8 01                	test   al,0x1
  4014fd:	0f 85 93 00 00 00    	jne    401596 <__setargv+0x166>
  401503:	83 7d d0 27          	cmp    DWORD PTR [ebp-0x30],0x27
  401507:	0f 84 89 00 00 00    	je     401596 <__setargv+0x166>
  40150d:	83 c6 01             	add    esi,0x1
  401510:	31 c0                	xor    eax,eax
  401512:	89 5d d4             	mov    DWORD PTR [ebp-0x2c],ebx
  401515:	0f b6 5e ff          	movzx  ebx,BYTE PTR [esi-0x1]
  401519:	31 4d d0             	xor    DWORD PTR [ebp-0x30],ecx
  40151c:	c7 45 cc 01 00 00 00 	mov    DWORD PTR [ebp-0x34],0x1
  401523:	0f be cb             	movsx  ecx,bl
  401526:	85 c9                	test   ecx,ecx
  401528:	75 8b                	jne    4014b5 <__setargv+0x85>
  40152a:	8d b6 00 00 00 00    	lea    esi,[esi+0x0]
  401530:	85 c0                	test   eax,eax
  401532:	8b 55 d4             	mov    edx,DWORD PTR [ebp-0x2c]
  401535:	0f 84 f4 01 00 00    	je     40172f <__setargv+0x2ff>
  40153b:	01 d0                	add    eax,edx
  40153d:	8d 76 00             	lea    esi,[esi+0x0]
  401540:	83 c2 01             	add    edx,0x1
  401543:	39 c2                	cmp    edx,eax
  401545:	c6 42 ff 5c          	mov    BYTE PTR [edx-0x1],0x5c
  401549:	75 f5                	jne    401540 <__setargv+0x110>
  40154b:	8b 55 cc             	mov    edx,DWORD PTR [ebp-0x34]
  40154e:	85 d2                	test   edx,edx
  401550:	75 05                	jne    401557 <__setargv+0x127>
  401552:	39 45 c4             	cmp    DWORD PTR [ebp-0x3c],eax
  401555:	73 24                	jae    40157b <__setargv+0x14b>
  401557:	c6 00 00             	mov    BYTE PTR [eax],0x0
  40155a:	8d 45 d8             	lea    eax,[ebp-0x28]
  40155d:	89 44 24 0c          	mov    DWORD PTR [esp+0xc],eax
  401561:	c7 44 24 08 00 00 00 	mov    DWORD PTR [esp+0x8],0x0
  401568:	00 
  401569:	8b 45 c8             	mov    eax,DWORD PTR [ebp-0x38]
  40156c:	89 44 24 04          	mov    DWORD PTR [esp+0x4],eax
  401570:	8b 45 c4             	mov    eax,DWORD PTR [ebp-0x3c]
  401573:	89 04 24             	mov    DWORD PTR [esp],eax
  401576:	e8 d5 15 00 00       	call   402b50 <___mingw_glob>
  40157b:	8b 45 dc             	mov    eax,DWORD PTR [ebp-0x24]
  40157e:	a3 04 d0 40 00       	mov    ds:0x40d004,eax
  401583:	8b 45 e0             	mov    eax,DWORD PTR [ebp-0x20]
  401586:	a3 00 d0 40 00       	mov    ds:0x40d000,eax
  40158b:	8b 65 c0             	mov    esp,DWORD PTR [ebp-0x40]
  40158e:	8d 65 f4             	lea    esp,[ebp-0xc]
  401591:	5b                   	pop    ebx
  401592:	5e                   	pop    esi
  401593:	5f                   	pop    edi
  401594:	5d                   	pop    ebp
  401595:	c3                   	ret    
  401596:	8d 43 01             	lea    eax,[ebx+0x1]
  401599:	89 45 d4             	mov    DWORD PTR [ebp-0x2c],eax
  40159c:	31 c0                	xor    eax,eax
  40159e:	c6 03 22             	mov    BYTE PTR [ebx],0x22
  4015a1:	c7 45 cc 01 00 00 00 	mov    DWORD PTR [ebp-0x34],0x1
  4015a8:	e9 fa fe ff ff       	jmp    4014a7 <__setargv+0x77>
  4015ad:	8d 76 00             	lea    esi,[esi+0x0]
  4015b0:	80 fb 5c             	cmp    bl,0x5c
  4015b3:	0f 84 3f 01 00 00    	je     4016f8 <__setargv+0x2c8>
  4015b9:	80 fb 7f             	cmp    bl,0x7f
  4015bc:	74 13                	je     4015d1 <__setargv+0x1a1>
  4015be:	80 fb 5b             	cmp    bl,0x5b
  4015c1:	75 52                	jne    401615 <__setargv+0x1e5>
  4015c3:	f6 05 00 90 40 00 20 	test   BYTE PTR ds:0x409000,0x20
  4015ca:	bf 01 00 00 00       	mov    edi,0x1
  4015cf:	74 0a                	je     4015db <__setargv+0x1ab>
  4015d1:	8b 55 d0             	mov    edx,DWORD PTR [ebp-0x30]
  4015d4:	85 d2                	test   edx,edx
  4015d6:	0f 95 c2             	setne  dl
  4015d9:	89 d7                	mov    edi,edx
  4015db:	85 c0                	test   eax,eax
  4015dd:	0f 84 34 01 00 00    	je     401717 <__setargv+0x2e7>
  4015e3:	8b 55 d4             	mov    edx,DWORD PTR [ebp-0x2c]
  4015e6:	01 d0                	add    eax,edx
  4015e8:	83 c2 01             	add    edx,0x1
  4015eb:	39 c2                	cmp    edx,eax
  4015ed:	c6 42 ff 5c          	mov    BYTE PTR [edx-0x1],0x5c
  4015f1:	75 f5                	jne    4015e8 <__setargv+0x1b8>
  4015f3:	89 fa                	mov    edx,edi
  4015f5:	84 d2                	test   dl,dl
  4015f7:	0f 85 a3 00 00 00    	jne    4016a0 <__setargv+0x270>
  4015fd:	83 f9 7f             	cmp    ecx,0x7f
  401600:	0f 84 9a 00 00 00    	je     4016a0 <__setargv+0x270>
  401606:	8d 48 01             	lea    ecx,[eax+0x1]
  401609:	88 18                	mov    BYTE PTR [eax],bl
  40160b:	31 c0                	xor    eax,eax
  40160d:	89 4d d4             	mov    DWORD PTR [ebp-0x2c],ecx
  401610:	e9 92 fe ff ff       	jmp    4014a7 <__setargv+0x77>
  401615:	8b 7d d4             	mov    edi,DWORD PTR [ebp-0x2c]
  401618:	8b 55 d4             	mov    edx,DWORD PTR [ebp-0x2c]
  40161b:	01 c7                	add    edi,eax
  40161d:	85 c0                	test   eax,eax
  40161f:	0f 84 fa 00 00 00    	je     40171f <__setargv+0x2ef>
  401625:	83 c2 01             	add    edx,0x1
  401628:	39 fa                	cmp    edx,edi
  40162a:	c6 42 ff 5c          	mov    BYTE PTR [edx-0x1],0x5c
  40162e:	75 f5                	jne    401625 <__setargv+0x1f5>
  401630:	8b 45 d0             	mov    eax,DWORD PTR [ebp-0x30]
  401633:	85 c0                	test   eax,eax
  401635:	75 59                	jne    401690 <__setargv+0x260>
  401637:	89 0c 24             	mov    DWORD PTR [esp],ecx
  40163a:	e8 59 69 00 00       	call   407f98 <_isspace>
  40163f:	85 c0                	test   eax,eax
  401641:	74 4d                	je     401690 <__setargv+0x260>
  401643:	8b 4d cc             	mov    ecx,DWORD PTR [ebp-0x34]
  401646:	85 c9                	test   ecx,ecx
  401648:	75 09                	jne    401653 <__setargv+0x223>
  40164a:	39 7d c4             	cmp    DWORD PTR [ebp-0x3c],edi
  40164d:	0f 83 ba 00 00 00    	jae    40170d <__setargv+0x2dd>
  401653:	8d 45 d8             	lea    eax,[ebp-0x28]
  401656:	c6 07 00             	mov    BYTE PTR [edi],0x0
  401659:	89 44 24 0c          	mov    DWORD PTR [esp+0xc],eax
  40165d:	c7 44 24 08 00 00 00 	mov    DWORD PTR [esp+0x8],0x0
  401664:	00 
  401665:	8b 45 c8             	mov    eax,DWORD PTR [ebp-0x38]
  401668:	89 44 24 04          	mov    DWORD PTR [esp+0x4],eax
  40166c:	8b 7d c4             	mov    edi,DWORD PTR [ebp-0x3c]
  40166f:	89 3c 24             	mov    DWORD PTR [esp],edi
  401672:	e8 d9 14 00 00       	call   402b50 <___mingw_glob>
  401677:	31 c0                	xor    eax,eax
  401679:	83 4d c8 01          	or     DWORD PTR [ebp-0x38],0x1
  40167d:	89 7d d4             	mov    DWORD PTR [ebp-0x2c],edi
  401680:	c7 45 cc 00 00 00 00 	mov    DWORD PTR [ebp-0x34],0x0
  401687:	e9 1b fe ff ff       	jmp    4014a7 <__setargv+0x77>
  40168c:	8d 74 26 00          	lea    esi,[esi+eiz*1+0x0]
  401690:	8d 47 01             	lea    eax,[edi+0x1]
  401693:	89 45 d4             	mov    DWORD PTR [ebp-0x2c],eax
  401696:	31 c0                	xor    eax,eax
  401698:	88 1f                	mov    BYTE PTR [edi],bl
  40169a:	e9 08 fe ff ff       	jmp    4014a7 <__setargv+0x77>
  40169f:	90                   	nop
  4016a0:	c6 00 7f             	mov    BYTE PTR [eax],0x7f
  4016a3:	83 c0 01             	add    eax,0x1
  4016a6:	e9 5b ff ff ff       	jmp    401606 <__setargv+0x1d6>
  4016ab:	90                   	nop
  4016ac:	8d 74 26 00          	lea    esi,[esi+eiz*1+0x0]
  4016b0:	f6 05 00 90 40 00 10 	test   BYTE PTR ds:0x409000,0x10
  4016b7:	0f 84 58 ff ff ff    	je     401615 <__setargv+0x1e5>
  4016bd:	89 c3                	mov    ebx,eax
  4016bf:	d1 fb                	sar    ebx,1
  4016c1:	74 73                	je     401736 <__setargv+0x306>
  4016c3:	8b 55 d4             	mov    edx,DWORD PTR [ebp-0x2c]
  4016c6:	01 d3                	add    ebx,edx
  4016c8:	83 c2 01             	add    edx,0x1
  4016cb:	39 da                	cmp    edx,ebx
  4016cd:	c6 42 ff 5c          	mov    BYTE PTR [edx-0x1],0x5c
  4016d1:	75 f5                	jne    4016c8 <__setargv+0x298>
  4016d3:	a8 01                	test   al,0x1
  4016d5:	75 0a                	jne    4016e1 <__setargv+0x2b1>
  4016d7:	83 7d d0 22          	cmp    DWORD PTR [ebp-0x30],0x22
  4016db:	0f 85 2c fe ff ff    	jne    40150d <__setargv+0xdd>
  4016e1:	8d 43 01             	lea    eax,[ebx+0x1]
  4016e4:	89 45 d4             	mov    DWORD PTR [ebp-0x2c],eax
  4016e7:	31 c0                	xor    eax,eax
  4016e9:	c6 03 27             	mov    BYTE PTR [ebx],0x27
  4016ec:	c7 45 cc 01 00 00 00 	mov    DWORD PTR [ebp-0x34],0x1
  4016f3:	e9 af fd ff ff       	jmp    4014a7 <__setargv+0x77>
  4016f8:	83 c0 01             	add    eax,0x1
  4016fb:	e9 a7 fd ff ff       	jmp    4014a7 <__setargv+0x77>
  401700:	e8 5b fb ff ff       	call   401260 <__mingw32_init_mainargs>
  401705:	8d 65 f4             	lea    esp,[ebp-0xc]
  401708:	5b                   	pop    ebx
  401709:	5e                   	pop    esi
  40170a:	5f                   	pop    edi
  40170b:	5d                   	pop    ebp
  40170c:	c3                   	ret    
  40170d:	89 7d d4             	mov    DWORD PTR [ebp-0x2c],edi
  401710:	31 c0                	xor    eax,eax
  401712:	e9 90 fd ff ff       	jmp    4014a7 <__setargv+0x77>
  401717:	8b 45 d4             	mov    eax,DWORD PTR [ebp-0x2c]
  40171a:	e9 d4 fe ff ff       	jmp    4015f3 <__setargv+0x1c3>
  40171f:	8b 7d d4             	mov    edi,DWORD PTR [ebp-0x2c]
  401722:	e9 09 ff ff ff       	jmp    401630 <__setargv+0x200>
  401727:	8b 5d d4             	mov    ebx,DWORD PTR [ebp-0x2c]
  40172a:	e9 cc fd ff ff       	jmp    4014fb <__setargv+0xcb>
  40172f:	89 d0                	mov    eax,edx
  401731:	e9 15 fe ff ff       	jmp    40154b <__setargv+0x11b>
  401736:	8b 5d d4             	mov    ebx,DWORD PTR [ebp-0x2c]
  401739:	eb 98                	jmp    4016d3 <__setargv+0x2a3>
  40173b:	90                   	nop
  40173c:	90                   	nop
  40173d:	90                   	nop
  40173e:	90                   	nop
  40173f:	90                   	nop

00401740 <___cpu_features_init>:
  401740:	9c                   	pushf  
  401741:	9c                   	pushf  
  401742:	58                   	pop    eax
  401743:	89 c2                	mov    edx,eax
  401745:	35 00 00 20 00       	xor    eax,0x200000
  40174a:	50                   	push   eax
  40174b:	9d                   	popf   
  40174c:	9c                   	pushf  
  40174d:	58                   	pop    eax
  40174e:	9d                   	popf   
  40174f:	31 d0                	xor    eax,edx
  401751:	a9 00 00 20 00       	test   eax,0x200000
  401756:	0f 84 a5 00 00 00    	je     401801 <___cpu_features_init+0xc1>
  40175c:	53                   	push   ebx
  40175d:	31 c0                	xor    eax,eax
  40175f:	0f a2                	cpuid  
  401761:	85 c0                	test   eax,eax
  401763:	0f 84 97 00 00 00    	je     401800 <___cpu_features_init+0xc0>
  401769:	b8 01 00 00 00       	mov    eax,0x1
  40176e:	0f a2                	cpuid  
  401770:	f6 c6 01             	test   dh,0x1
  401773:	74 07                	je     40177c <___cpu_features_init+0x3c>
  401775:	83 0d 24 d0 40 00 01 	or     DWORD PTR ds:0x40d024,0x1
  40177c:	f6 c6 80             	test   dh,0x80
  40177f:	74 07                	je     401788 <___cpu_features_init+0x48>
  401781:	83 0d 24 d0 40 00 02 	or     DWORD PTR ds:0x40d024,0x2
  401788:	f7 c2 00 00 80 00    	test   edx,0x800000
  40178e:	74 07                	je     401797 <___cpu_features_init+0x57>
  401790:	83 0d 24 d0 40 00 04 	or     DWORD PTR ds:0x40d024,0x4
  401797:	f7 c2 00 00 00 01    	test   edx,0x1000000
  40179d:	74 07                	je     4017a6 <___cpu_features_init+0x66>
  40179f:	83 0d 24 d0 40 00 08 	or     DWORD PTR ds:0x40d024,0x8
  4017a6:	f7 c2 00 00 00 02    	test   edx,0x2000000
  4017ac:	74 07                	je     4017b5 <___cpu_features_init+0x75>
  4017ae:	83 0d 24 d0 40 00 10 	or     DWORD PTR ds:0x40d024,0x10
  4017b5:	81 e2 00 00 00 04    	and    edx,0x4000000
  4017bb:	74 07                	je     4017c4 <___cpu_features_init+0x84>
  4017bd:	83 0d 24 d0 40 00 20 	or     DWORD PTR ds:0x40d024,0x20
  4017c4:	f6 c1 01             	test   cl,0x1
  4017c7:	74 07                	je     4017d0 <___cpu_features_init+0x90>
  4017c9:	83 0d 24 d0 40 00 40 	or     DWORD PTR ds:0x40d024,0x40
  4017d0:	80 e5 20             	and    ch,0x20
  4017d3:	75 2e                	jne    401803 <___cpu_features_init+0xc3>
  4017d5:	b8 00 00 00 80       	mov    eax,0x80000000
  4017da:	0f a2                	cpuid  
  4017dc:	3d 00 00 00 80       	cmp    eax,0x80000000
  4017e1:	76 1d                	jbe    401800 <___cpu_features_init+0xc0>
  4017e3:	b8 01 00 00 80       	mov    eax,0x80000001
  4017e8:	0f a2                	cpuid  
  4017ea:	85 d2                	test   edx,edx
  4017ec:	78 22                	js     401810 <___cpu_features_init+0xd0>
  4017ee:	81 e2 00 00 00 40    	and    edx,0x40000000
  4017f4:	74 0a                	je     401800 <___cpu_features_init+0xc0>
  4017f6:	81 0d 24 d0 40 00 00 	or     DWORD PTR ds:0x40d024,0x200
  4017fd:	02 00 00 
  401800:	5b                   	pop    ebx
  401801:	f3 c3                	repz ret 
  401803:	81 0d 24 d0 40 00 80 	or     DWORD PTR ds:0x40d024,0x80
  40180a:	00 00 00 
  40180d:	eb c6                	jmp    4017d5 <___cpu_features_init+0x95>
  40180f:	90                   	nop
  401810:	81 0d 24 d0 40 00 00 	or     DWORD PTR ds:0x40d024,0x100
  401817:	01 00 00 
  40181a:	eb d2                	jmp    4017ee <___cpu_features_init+0xae>
  40181c:	90                   	nop
  40181d:	90                   	nop
  40181e:	90                   	nop
  40181f:	90                   	nop

00401820 <__fpreset>:
  401820:	db e3                	fninit 
  401822:	c3                   	ret    
  401823:	90                   	nop
  401824:	90                   	nop
  401825:	90                   	nop
  401826:	90                   	nop
  401827:	90                   	nop
  401828:	90                   	nop
  401829:	90                   	nop
  40182a:	90                   	nop
  40182b:	90                   	nop
  40182c:	90                   	nop
  40182d:	90                   	nop
  40182e:	90                   	nop
  40182f:	90                   	nop

00401830 <___do_global_dtors>:
  401830:	a1 08 90 40 00       	mov    eax,ds:0x409008
  401835:	8b 00                	mov    eax,DWORD PTR [eax]
  401837:	85 c0                	test   eax,eax
  401839:	74 1f                	je     40185a <___do_global_dtors+0x2a>
  40183b:	83 ec 0c             	sub    esp,0xc
  40183e:	66 90                	xchg   ax,ax
  401840:	ff d0                	call   eax
  401842:	a1 08 90 40 00       	mov    eax,ds:0x409008
  401847:	8d 50 04             	lea    edx,[eax+0x4]
  40184a:	8b 40 04             	mov    eax,DWORD PTR [eax+0x4]
  40184d:	89 15 08 90 40 00    	mov    DWORD PTR ds:0x409008,edx
  401853:	85 c0                	test   eax,eax
  401855:	75 e9                	jne    401840 <___do_global_dtors+0x10>
  401857:	83 c4 0c             	add    esp,0xc
  40185a:	f3 c3                	repz ret 
  40185c:	8d 74 26 00          	lea    esi,[esi+eiz*1+0x0]

00401860 <___do_global_ctors>:
  401860:	53                   	push   ebx
  401861:	83 ec 18             	sub    esp,0x18
  401864:	8b 1d 50 83 40 00    	mov    ebx,DWORD PTR ds:0x408350
  40186a:	83 fb ff             	cmp    ebx,0xffffffff
  40186d:	74 24                	je     401893 <___do_global_ctors+0x33>
  40186f:	85 db                	test   ebx,ebx
  401871:	74 0f                	je     401882 <___do_global_ctors+0x22>
  401873:	ff 14 9d 50 83 40 00 	call   DWORD PTR [ebx*4+0x408350]
  40187a:	83 eb 01             	sub    ebx,0x1
  40187d:	8d 76 00             	lea    esi,[esi+0x0]
  401880:	75 f1                	jne    401873 <___do_global_ctors+0x13>
  401882:	c7 04 24 30 18 40 00 	mov    DWORD PTR [esp],0x401830
  401889:	e8 52 fa ff ff       	call   4012e0 <_atexit>
  40188e:	83 c4 18             	add    esp,0x18
  401891:	5b                   	pop    ebx
  401892:	c3                   	ret    
  401893:	31 db                	xor    ebx,ebx
  401895:	eb 02                	jmp    401899 <___do_global_ctors+0x39>
  401897:	89 c3                	mov    ebx,eax
  401899:	8d 43 01             	lea    eax,[ebx+0x1]
  40189c:	8b 14 85 50 83 40 00 	mov    edx,DWORD PTR [eax*4+0x408350]
  4018a3:	85 d2                	test   edx,edx
  4018a5:	75 f0                	jne    401897 <___do_global_ctors+0x37>
  4018a7:	eb c6                	jmp    40186f <___do_global_ctors+0xf>
  4018a9:	8d b4 26 00 00 00 00 	lea    esi,[esi+eiz*1+0x0]

004018b0 <___main>:
  4018b0:	8b 0d 28 d0 40 00    	mov    ecx,DWORD PTR ds:0x40d028
  4018b6:	85 c9                	test   ecx,ecx
  4018b8:	74 06                	je     4018c0 <___main+0x10>
  4018ba:	f3 c3                	repz ret 
  4018bc:	8d 74 26 00          	lea    esi,[esi+eiz*1+0x0]
  4018c0:	c7 05 28 d0 40 00 01 	mov    DWORD PTR ds:0x40d028,0x1
  4018c7:	00 00 00 
  4018ca:	eb 94                	jmp    401860 <___do_global_ctors>
  4018cc:	90                   	nop
  4018cd:	90                   	nop
  4018ce:	90                   	nop
  4018cf:	90                   	nop

004018d0 <___dyn_tls_dtor@12>:
  4018d0:	83 ec 1c             	sub    esp,0x1c
  4018d3:	8b 44 24 24          	mov    eax,DWORD PTR [esp+0x24]
  4018d7:	85 c0                	test   eax,eax
  4018d9:	74 15                	je     4018f0 <___dyn_tls_dtor@12+0x20>
  4018db:	83 f8 03             	cmp    eax,0x3
  4018de:	74 10                	je     4018f0 <___dyn_tls_dtor@12+0x20>
  4018e0:	b8 01 00 00 00       	mov    eax,0x1
  4018e5:	83 c4 1c             	add    esp,0x1c
  4018e8:	c2 0c 00             	ret    0xc
  4018eb:	90                   	nop
  4018ec:	8d 74 26 00          	lea    esi,[esi+eiz*1+0x0]
  4018f0:	8b 54 24 28          	mov    edx,DWORD PTR [esp+0x28]
  4018f4:	89 44 24 04          	mov    DWORD PTR [esp+0x4],eax
  4018f8:	8b 44 24 20          	mov    eax,DWORD PTR [esp+0x20]
  4018fc:	89 54 24 08          	mov    DWORD PTR [esp+0x8],edx
  401900:	89 04 24             	mov    DWORD PTR [esp],eax
  401903:	e8 58 02 00 00       	call   401b60 <___mingw_TLScallback>
  401908:	b8 01 00 00 00       	mov    eax,0x1
  40190d:	83 c4 1c             	add    esp,0x1c
  401910:	c2 0c 00             	ret    0xc
  401913:	8d b6 00 00 00 00    	lea    esi,[esi+0x0]
  401919:	8d bc 27 00 00 00 00 	lea    edi,[edi+eiz*1+0x0]

00401920 <___dyn_tls_init@12>:
  401920:	56                   	push   esi
  401921:	53                   	push   ebx
  401922:	83 ec 14             	sub    esp,0x14
  401925:	83 3d 64 d0 40 00 02 	cmp    DWORD PTR ds:0x40d064,0x2
  40192c:	8b 44 24 24          	mov    eax,DWORD PTR [esp+0x24]
  401930:	74 0a                	je     40193c <___dyn_tls_init@12+0x1c>
  401932:	c7 05 64 d0 40 00 02 	mov    DWORD PTR ds:0x40d064,0x2
  401939:	00 00 00 
  40193c:	83 f8 02             	cmp    eax,0x2
  40193f:	74 12                	je     401953 <___dyn_tls_init@12+0x33>
  401941:	83 f8 01             	cmp    eax,0x1
  401944:	74 42                	je     401988 <___dyn_tls_init@12+0x68>
  401946:	83 c4 14             	add    esp,0x14
  401949:	b8 01 00 00 00       	mov    eax,0x1
  40194e:	5b                   	pop    ebx
  40194f:	5e                   	pop    esi
  401950:	c2 0c 00             	ret    0xc
  401953:	be 14 f0 40 00       	mov    esi,0x40f014
  401958:	81 ee 14 f0 40 00    	sub    esi,0x40f014
  40195e:	c1 fe 02             	sar    esi,0x2
  401961:	85 f6                	test   esi,esi
  401963:	7e e1                	jle    401946 <___dyn_tls_init@12+0x26>
  401965:	31 db                	xor    ebx,ebx
  401967:	8b 04 9d 14 f0 40 00 	mov    eax,DWORD PTR [ebx*4+0x40f014]
  40196e:	85 c0                	test   eax,eax
  401970:	74 02                	je     401974 <___dyn_tls_init@12+0x54>
  401972:	ff d0                	call   eax
  401974:	83 c3 01             	add    ebx,0x1
  401977:	39 f3                	cmp    ebx,esi
  401979:	75 ec                	jne    401967 <___dyn_tls_init@12+0x47>
  40197b:	83 c4 14             	add    esp,0x14
  40197e:	b8 01 00 00 00       	mov    eax,0x1
  401983:	5b                   	pop    ebx
  401984:	5e                   	pop    esi
  401985:	c2 0c 00             	ret    0xc
  401988:	8b 44 24 28          	mov    eax,DWORD PTR [esp+0x28]
  40198c:	c7 44 24 04 01 00 00 	mov    DWORD PTR [esp+0x4],0x1
  401993:	00 
  401994:	89 44 24 08          	mov    DWORD PTR [esp+0x8],eax
  401998:	8b 44 24 20          	mov    eax,DWORD PTR [esp+0x20]
  40199c:	89 04 24             	mov    DWORD PTR [esp],eax
  40199f:	e8 bc 01 00 00       	call   401b60 <___mingw_TLScallback>
  4019a4:	eb a0                	jmp    401946 <___dyn_tls_init@12+0x26>
  4019a6:	8d 76 00             	lea    esi,[esi+0x0]
  4019a9:	8d bc 27 00 00 00 00 	lea    edi,[edi+eiz*1+0x0]

004019b0 <___tlregdtor>:
  4019b0:	31 c0                	xor    eax,eax
  4019b2:	c3                   	ret    
  4019b3:	90                   	nop
  4019b4:	90                   	nop
  4019b5:	90                   	nop
  4019b6:	90                   	nop
  4019b7:	90                   	nop
  4019b8:	90                   	nop
  4019b9:	90                   	nop
  4019ba:	90                   	nop
  4019bb:	90                   	nop
  4019bc:	90                   	nop
  4019bd:	90                   	nop
  4019be:	90                   	nop
  4019bf:	90                   	nop

004019c0 <___mingwthr_run_key_dtors.part.0>:
  4019c0:	55                   	push   ebp
  4019c1:	89 e5                	mov    ebp,esp
  4019c3:	56                   	push   esi
  4019c4:	53                   	push   ebx
  4019c5:	83 ec 10             	sub    esp,0x10
  4019c8:	c7 04 24 44 d0 40 00 	mov    DWORD PTR [esp],0x40d044
  4019cf:	e8 d4 66 00 00       	call   4080a8 <_EnterCriticalSection@4>
  4019d4:	8b 1d 3c d0 40 00    	mov    ebx,DWORD PTR ds:0x40d03c
  4019da:	83 ec 04             	sub    esp,0x4
  4019dd:	85 db                	test   ebx,ebx
  4019df:	74 2b                	je     401a0c <___mingwthr_run_key_dtors.part.0+0x4c>
  4019e1:	8b 03                	mov    eax,DWORD PTR [ebx]
  4019e3:	89 04 24             	mov    DWORD PTR [esp],eax
  4019e6:	e8 3d 66 00 00       	call   408028 <_TlsGetValue@4>
  4019eb:	83 ec 04             	sub    esp,0x4
  4019ee:	89 c6                	mov    esi,eax
  4019f0:	e8 83 66 00 00       	call   408078 <_GetLastError@0>
  4019f5:	85 c0                	test   eax,eax
  4019f7:	75 0c                	jne    401a05 <___mingwthr_run_key_dtors.part.0+0x45>
  4019f9:	85 f6                	test   esi,esi
  4019fb:	74 08                	je     401a05 <___mingwthr_run_key_dtors.part.0+0x45>
  4019fd:	8b 43 04             	mov    eax,DWORD PTR [ebx+0x4]
  401a00:	89 34 24             	mov    DWORD PTR [esp],esi
  401a03:	ff d0                	call   eax
  401a05:	8b 5b 08             	mov    ebx,DWORD PTR [ebx+0x8]
  401a08:	85 db                	test   ebx,ebx
  401a0a:	75 d5                	jne    4019e1 <___mingwthr_run_key_dtors.part.0+0x21>
  401a0c:	c7 04 24 44 d0 40 00 	mov    DWORD PTR [esp],0x40d044
  401a13:	e8 30 66 00 00       	call   408048 <_LeaveCriticalSection@4>
  401a18:	83 ec 04             	sub    esp,0x4
  401a1b:	8d 65 f8             	lea    esp,[ebp-0x8]
  401a1e:	5b                   	pop    ebx
  401a1f:	5e                   	pop    esi
  401a20:	5d                   	pop    ebp
  401a21:	c3                   	ret    
  401a22:	8d b4 26 00 00 00 00 	lea    esi,[esi+eiz*1+0x0]
  401a29:	8d bc 27 00 00 00 00 	lea    edi,[edi+eiz*1+0x0]

00401a30 <____w64_mingwthr_add_key_dtor>:
  401a30:	55                   	push   ebp
  401a31:	89 e5                	mov    ebp,esp
  401a33:	56                   	push   esi
  401a34:	31 f6                	xor    esi,esi
  401a36:	53                   	push   ebx
  401a37:	83 ec 10             	sub    esp,0x10
  401a3a:	a1 40 d0 40 00       	mov    eax,ds:0x40d040
  401a3f:	85 c0                	test   eax,eax
  401a41:	75 0d                	jne    401a50 <____w64_mingwthr_add_key_dtor+0x20>
  401a43:	8d 65 f8             	lea    esp,[ebp-0x8]
  401a46:	89 f0                	mov    eax,esi
  401a48:	5b                   	pop    ebx
  401a49:	5e                   	pop    esi
  401a4a:	5d                   	pop    ebp
  401a4b:	c3                   	ret    
  401a4c:	8d 74 26 00          	lea    esi,[esi+eiz*1+0x0]
  401a50:	c7 44 24 04 0c 00 00 	mov    DWORD PTR [esp+0x4],0xc
  401a57:	00 
  401a58:	c7 04 24 01 00 00 00 	mov    DWORD PTR [esp],0x1
  401a5f:	e8 5c 65 00 00       	call   407fc0 <_calloc>
  401a64:	85 c0                	test   eax,eax
  401a66:	89 c3                	mov    ebx,eax
  401a68:	74 40                	je     401aaa <____w64_mingwthr_add_key_dtor+0x7a>
  401a6a:	8b 45 08             	mov    eax,DWORD PTR [ebp+0x8]
  401a6d:	c7 04 24 44 d0 40 00 	mov    DWORD PTR [esp],0x40d044
  401a74:	89 03                	mov    DWORD PTR [ebx],eax
  401a76:	8b 45 0c             	mov    eax,DWORD PTR [ebp+0xc]
  401a79:	89 43 04             	mov    DWORD PTR [ebx+0x4],eax
  401a7c:	e8 27 66 00 00       	call   4080a8 <_EnterCriticalSection@4>
  401a81:	a1 3c d0 40 00       	mov    eax,ds:0x40d03c
  401a86:	89 1d 3c d0 40 00    	mov    DWORD PTR ds:0x40d03c,ebx
  401a8c:	89 43 08             	mov    DWORD PTR [ebx+0x8],eax
  401a8f:	83 ec 04             	sub    esp,0x4
  401a92:	c7 04 24 44 d0 40 00 	mov    DWORD PTR [esp],0x40d044
  401a99:	e8 aa 65 00 00       	call   408048 <_LeaveCriticalSection@4>
  401a9e:	89 f0                	mov    eax,esi
  401aa0:	83 ec 04             	sub    esp,0x4
  401aa3:	8d 65 f8             	lea    esp,[ebp-0x8]
  401aa6:	5b                   	pop    ebx
  401aa7:	5e                   	pop    esi
  401aa8:	5d                   	pop    ebp
  401aa9:	c3                   	ret    
  401aaa:	be ff ff ff ff       	mov    esi,0xffffffff
  401aaf:	eb 92                	jmp    401a43 <____w64_mingwthr_add_key_dtor+0x13>
  401ab1:	eb 0d                	jmp    401ac0 <____w64_mingwthr_remove_key_dtor>
  401ab3:	90                   	nop
  401ab4:	90                   	nop
  401ab5:	90                   	nop
  401ab6:	90                   	nop
  401ab7:	90                   	nop
  401ab8:	90                   	nop
  401ab9:	90                   	nop
  401aba:	90                   	nop
  401abb:	90                   	nop
  401abc:	90                   	nop
  401abd:	90                   	nop
  401abe:	90                   	nop
  401abf:	90                   	nop

00401ac0 <____w64_mingwthr_remove_key_dtor>:
  401ac0:	55                   	push   ebp
  401ac1:	89 e5                	mov    ebp,esp
  401ac3:	53                   	push   ebx
  401ac4:	83 ec 14             	sub    esp,0x14
  401ac7:	a1 40 d0 40 00       	mov    eax,ds:0x40d040
  401acc:	8b 5d 08             	mov    ebx,DWORD PTR [ebp+0x8]
  401acf:	85 c0                	test   eax,eax
  401ad1:	75 0d                	jne    401ae0 <____w64_mingwthr_remove_key_dtor+0x20>
  401ad3:	31 c0                	xor    eax,eax
  401ad5:	8b 5d fc             	mov    ebx,DWORD PTR [ebp-0x4]
  401ad8:	c9                   	leave  
  401ad9:	c3                   	ret    
  401ada:	8d b6 00 00 00 00    	lea    esi,[esi+0x0]
  401ae0:	c7 04 24 44 d0 40 00 	mov    DWORD PTR [esp],0x40d044
  401ae7:	e8 bc 65 00 00       	call   4080a8 <_EnterCriticalSection@4>
  401aec:	8b 15 3c d0 40 00    	mov    edx,DWORD PTR ds:0x40d03c
  401af2:	83 ec 04             	sub    esp,0x4
  401af5:	85 d2                	test   edx,edx
  401af7:	74 17                	je     401b10 <____w64_mingwthr_remove_key_dtor+0x50>
  401af9:	8b 02                	mov    eax,DWORD PTR [edx]
  401afb:	39 d8                	cmp    eax,ebx
  401afd:	75 0a                	jne    401b09 <____w64_mingwthr_remove_key_dtor+0x49>
  401aff:	eb 44                	jmp    401b45 <____w64_mingwthr_remove_key_dtor+0x85>
  401b01:	8b 08                	mov    ecx,DWORD PTR [eax]
  401b03:	39 d9                	cmp    ecx,ebx
  401b05:	74 1f                	je     401b26 <____w64_mingwthr_remove_key_dtor+0x66>
  401b07:	89 c2                	mov    edx,eax
  401b09:	8b 42 08             	mov    eax,DWORD PTR [edx+0x8]
  401b0c:	85 c0                	test   eax,eax
  401b0e:	75 f1                	jne    401b01 <____w64_mingwthr_remove_key_dtor+0x41>
  401b10:	c7 04 24 44 d0 40 00 	mov    DWORD PTR [esp],0x40d044
  401b17:	e8 2c 65 00 00       	call   408048 <_LeaveCriticalSection@4>
  401b1c:	83 ec 04             	sub    esp,0x4
  401b1f:	31 c0                	xor    eax,eax
  401b21:	8b 5d fc             	mov    ebx,DWORD PTR [ebp-0x4]
  401b24:	c9                   	leave  
  401b25:	c3                   	ret    
  401b26:	8b 48 08             	mov    ecx,DWORD PTR [eax+0x8]
  401b29:	89 4a 08             	mov    DWORD PTR [edx+0x8],ecx
  401b2c:	89 04 24             	mov    DWORD PTR [esp],eax
  401b2f:	e8 7c 64 00 00       	call   407fb0 <_free>
  401b34:	c7 04 24 44 d0 40 00 	mov    DWORD PTR [esp],0x40d044
  401b3b:	e8 08 65 00 00       	call   408048 <_LeaveCriticalSection@4>
  401b40:	83 ec 04             	sub    esp,0x4
  401b43:	eb da                	jmp    401b1f <____w64_mingwthr_remove_key_dtor+0x5f>
  401b45:	8b 42 08             	mov    eax,DWORD PTR [edx+0x8]
  401b48:	a3 3c d0 40 00       	mov    ds:0x40d03c,eax
  401b4d:	89 d0                	mov    eax,edx
  401b4f:	eb db                	jmp    401b2c <____w64_mingwthr_remove_key_dtor+0x6c>
  401b51:	eb 0d                	jmp    401b60 <___mingw_TLScallback>
  401b53:	90                   	nop
  401b54:	90                   	nop
  401b55:	90                   	nop
  401b56:	90                   	nop
  401b57:	90                   	nop
  401b58:	90                   	nop
  401b59:	90                   	nop
  401b5a:	90                   	nop
  401b5b:	90                   	nop
  401b5c:	90                   	nop
  401b5d:	90                   	nop
  401b5e:	90                   	nop
  401b5f:	90                   	nop

00401b60 <___mingw_TLScallback>:
  401b60:	55                   	push   ebp
  401b61:	89 e5                	mov    ebp,esp
  401b63:	83 ec 18             	sub    esp,0x18
  401b66:	8b 45 0c             	mov    eax,DWORD PTR [ebp+0xc]
  401b69:	83 f8 01             	cmp    eax,0x1
  401b6c:	74 45                	je     401bb3 <___mingw_TLScallback+0x53>
  401b6e:	72 15                	jb     401b85 <___mingw_TLScallback+0x25>
  401b70:	83 f8 03             	cmp    eax,0x3
  401b73:	75 09                	jne    401b7e <___mingw_TLScallback+0x1e>
  401b75:	a1 40 d0 40 00       	mov    eax,ds:0x40d040
  401b7a:	85 c0                	test   eax,eax
  401b7c:	75 63                	jne    401be1 <___mingw_TLScallback+0x81>
  401b7e:	b8 01 00 00 00       	mov    eax,0x1
  401b83:	c9                   	leave  
  401b84:	c3                   	ret    
  401b85:	a1 40 d0 40 00       	mov    eax,ds:0x40d040
  401b8a:	85 c0                	test   eax,eax
  401b8c:	75 5a                	jne    401be8 <___mingw_TLScallback+0x88>
  401b8e:	a1 40 d0 40 00       	mov    eax,ds:0x40d040
  401b93:	83 f8 01             	cmp    eax,0x1
  401b96:	75 e6                	jne    401b7e <___mingw_TLScallback+0x1e>
  401b98:	c7 04 24 44 d0 40 00 	mov    DWORD PTR [esp],0x40d044
  401b9f:	c7 05 40 d0 40 00 00 	mov    DWORD PTR ds:0x40d040,0x0
  401ba6:	00 00 00 
  401ba9:	e8 02 65 00 00       	call   4080b0 <_DeleteCriticalSection@4>
  401bae:	83 ec 04             	sub    esp,0x4
  401bb1:	eb cb                	jmp    401b7e <___mingw_TLScallback+0x1e>
  401bb3:	a1 40 d0 40 00       	mov    eax,ds:0x40d040
  401bb8:	85 c0                	test   eax,eax
  401bba:	74 14                	je     401bd0 <___mingw_TLScallback+0x70>
  401bbc:	c7 05 40 d0 40 00 01 	mov    DWORD PTR ds:0x40d040,0x1
  401bc3:	00 00 00 
  401bc6:	b8 01 00 00 00       	mov    eax,0x1
  401bcb:	c9                   	leave  
  401bcc:	c3                   	ret    
  401bcd:	8d 76 00             	lea    esi,[esi+0x0]
  401bd0:	c7 04 24 44 d0 40 00 	mov    DWORD PTR [esp],0x40d044
  401bd7:	e8 84 64 00 00       	call   408060 <_InitializeCriticalSection@4>
  401bdc:	83 ec 04             	sub    esp,0x4
  401bdf:	eb db                	jmp    401bbc <___mingw_TLScallback+0x5c>
  401be1:	e8 da fd ff ff       	call   4019c0 <___mingwthr_run_key_dtors.part.0>
  401be6:	eb 96                	jmp    401b7e <___mingw_TLScallback+0x1e>
  401be8:	90                   	nop
  401be9:	8d b4 26 00 00 00 00 	lea    esi,[esi+eiz*1+0x0]
  401bf0:	e8 cb fd ff ff       	call   4019c0 <___mingwthr_run_key_dtors.part.0>
  401bf5:	eb 97                	jmp    401b8e <___mingw_TLScallback+0x2e>
  401bf7:	90                   	nop
  401bf8:	90                   	nop
  401bf9:	90                   	nop
  401bfa:	90                   	nop
  401bfb:	90                   	nop
  401bfc:	90                   	nop
  401bfd:	90                   	nop
  401bfe:	90                   	nop
  401bff:	90                   	nop

00401c00 <___report_error>:
  401c00:	56                   	push   esi
  401c01:	53                   	push   ebx
  401c02:	83 ec 14             	sub    esp,0x14
  401c05:	a1 c8 e1 40 00       	mov    eax,ds:0x40e1c8
  401c0a:	c7 44 24 08 17 00 00 	mov    DWORD PTR [esp+0x8],0x17
  401c11:	00 
  401c12:	8d 74 24 24          	lea    esi,[esp+0x24]
  401c16:	c7 44 24 04 01 00 00 	mov    DWORD PTR [esp+0x4],0x1
  401c1d:	00 
  401c1e:	c7 04 24 68 a0 40 00 	mov    DWORD PTR [esp],0x40a068
  401c25:	8d 58 40             	lea    ebx,[eax+0x40]
  401c28:	89 5c 24 0c          	mov    DWORD PTR [esp+0xc],ebx
  401c2c:	e8 77 63 00 00       	call   407fa8 <_fwrite>
  401c31:	8b 44 24 20          	mov    eax,DWORD PTR [esp+0x20]
  401c35:	89 74 24 08          	mov    DWORD PTR [esp+0x8],esi
  401c39:	89 1c 24             	mov    DWORD PTR [esp],ebx
  401c3c:	89 44 24 04          	mov    DWORD PTR [esp+0x4],eax
  401c40:	e8 eb 62 00 00       	call   407f30 <_vfprintf>
  401c45:	e8 86 63 00 00       	call   407fd0 <_abort>
  401c4a:	8d b6 00 00 00 00    	lea    esi,[esi+0x0]

00401c50 <___write_memory.part.0>:
  401c50:	55                   	push   ebp
  401c51:	89 e5                	mov    ebp,esp
  401c53:	57                   	push   edi
  401c54:	89 cf                	mov    edi,ecx
  401c56:	56                   	push   esi
  401c57:	89 d6                	mov    esi,edx
  401c59:	53                   	push   ebx
  401c5a:	89 c3                	mov    ebx,eax
  401c5c:	83 ec 4c             	sub    esp,0x4c
  401c5f:	8d 45 cc             	lea    eax,[ebp-0x34]
  401c62:	c7 44 24 08 1c 00 00 	mov    DWORD PTR [esp+0x8],0x1c
  401c69:	00 
  401c6a:	89 44 24 04          	mov    DWORD PTR [esp+0x4],eax
  401c6e:	89 1c 24             	mov    DWORD PTR [esp],ebx
  401c71:	e8 a2 63 00 00       	call   408018 <_VirtualQuery@12>
  401c76:	83 ec 0c             	sub    esp,0xc
  401c79:	85 c0                	test   eax,eax
  401c7b:	0f 84 9a 00 00 00    	je     401d1b <___write_memory.part.0+0xcb>
  401c81:	8b 45 e0             	mov    eax,DWORD PTR [ebp-0x20]
  401c84:	83 f8 04             	cmp    eax,0x4
  401c87:	75 18                	jne    401ca1 <___write_memory.part.0+0x51>
  401c89:	89 7c 24 08          	mov    DWORD PTR [esp+0x8],edi
  401c8d:	89 74 24 04          	mov    DWORD PTR [esp+0x4],esi
  401c91:	89 1c 24             	mov    DWORD PTR [esp],ebx
  401c94:	e8 df 62 00 00       	call   407f78 <_memcpy>
  401c99:	8d 65 f4             	lea    esp,[ebp-0xc]
  401c9c:	5b                   	pop    ebx
  401c9d:	5e                   	pop    esi
  401c9e:	5f                   	pop    edi
  401c9f:	5d                   	pop    ebp
  401ca0:	c3                   	ret    
  401ca1:	83 f8 40             	cmp    eax,0x40
  401ca4:	74 e3                	je     401c89 <___write_memory.part.0+0x39>
  401ca6:	8b 45 d8             	mov    eax,DWORD PTR [ebp-0x28]
  401ca9:	8d 55 c8             	lea    edx,[ebp-0x38]
  401cac:	89 54 24 0c          	mov    DWORD PTR [esp+0xc],edx
  401cb0:	c7 44 24 08 40 00 00 	mov    DWORD PTR [esp+0x8],0x40
  401cb7:	00 
  401cb8:	89 55 c4             	mov    DWORD PTR [ebp-0x3c],edx
  401cbb:	89 44 24 04          	mov    DWORD PTR [esp+0x4],eax
  401cbf:	8b 45 cc             	mov    eax,DWORD PTR [ebp-0x34]
  401cc2:	89 04 24             	mov    DWORD PTR [esp],eax
  401cc5:	e8 56 63 00 00       	call   408020 <_VirtualProtect@16>
  401cca:	8b 4d e0             	mov    ecx,DWORD PTR [ebp-0x20]
  401ccd:	89 4d c0             	mov    DWORD PTR [ebp-0x40],ecx
  401cd0:	83 ec 10             	sub    esp,0x10
  401cd3:	89 7c 24 08          	mov    DWORD PTR [esp+0x8],edi
  401cd7:	89 74 24 04          	mov    DWORD PTR [esp+0x4],esi
  401cdb:	89 1c 24             	mov    DWORD PTR [esp],ebx
  401cde:	e8 95 62 00 00       	call   407f78 <_memcpy>
  401ce3:	8b 4d c0             	mov    ecx,DWORD PTR [ebp-0x40]
  401ce6:	83 f9 04             	cmp    ecx,0x4
  401ce9:	74 ae                	je     401c99 <___write_memory.part.0+0x49>
  401ceb:	83 f9 40             	cmp    ecx,0x40
  401cee:	74 a9                	je     401c99 <___write_memory.part.0+0x49>
  401cf0:	8b 45 c8             	mov    eax,DWORD PTR [ebp-0x38]
  401cf3:	8b 55 c4             	mov    edx,DWORD PTR [ebp-0x3c]
  401cf6:	89 44 24 08          	mov    DWORD PTR [esp+0x8],eax
  401cfa:	8b 45 d8             	mov    eax,DWORD PTR [ebp-0x28]
  401cfd:	89 54 24 0c          	mov    DWORD PTR [esp+0xc],edx
  401d01:	89 44 24 04          	mov    DWORD PTR [esp+0x4],eax
  401d05:	8b 45 cc             	mov    eax,DWORD PTR [ebp-0x34]
  401d08:	89 04 24             	mov    DWORD PTR [esp],eax
  401d0b:	e8 10 63 00 00       	call   408020 <_VirtualProtect@16>
  401d10:	83 ec 10             	sub    esp,0x10
  401d13:	8d 65 f4             	lea    esp,[ebp-0xc]
  401d16:	5b                   	pop    ebx
  401d17:	5e                   	pop    esi
  401d18:	5f                   	pop    edi
  401d19:	5d                   	pop    ebp
  401d1a:	c3                   	ret    
  401d1b:	89 5c 24 08          	mov    DWORD PTR [esp+0x8],ebx
  401d1f:	c7 44 24 04 1c 00 00 	mov    DWORD PTR [esp+0x4],0x1c
  401d26:	00 
  401d27:	c7 04 24 80 a0 40 00 	mov    DWORD PTR [esp],0x40a080
  401d2e:	e8 cd fe ff ff       	call   401c00 <___report_error>
  401d33:	8d b6 00 00 00 00    	lea    esi,[esi+0x0]
  401d39:	8d bc 27 00 00 00 00 	lea    edi,[edi+eiz*1+0x0]

00401d40 <__pei386_runtime_relocator>:
  401d40:	a1 5c d0 40 00       	mov    eax,ds:0x40d05c
  401d45:	85 c0                	test   eax,eax
  401d47:	74 07                	je     401d50 <__pei386_runtime_relocator+0x10>
  401d49:	c3                   	ret    
  401d4a:	8d b6 00 00 00 00    	lea    esi,[esi+0x0]
  401d50:	b8 20 a7 40 00       	mov    eax,0x40a720
  401d55:	2d 20 a7 40 00       	sub    eax,0x40a720
  401d5a:	83 f8 07             	cmp    eax,0x7
  401d5d:	c7 05 5c d0 40 00 01 	mov    DWORD PTR ds:0x40d05c,0x1
  401d64:	00 00 00 
  401d67:	7e e0                	jle    401d49 <__pei386_runtime_relocator+0x9>
  401d69:	57                   	push   edi
  401d6a:	56                   	push   esi
  401d6b:	53                   	push   ebx
  401d6c:	83 ec 20             	sub    esp,0x20
  401d6f:	83 f8 0b             	cmp    eax,0xb
  401d72:	0f 8e de 00 00 00    	jle    401e56 <__pei386_runtime_relocator+0x116>
  401d78:	8b 35 20 a7 40 00    	mov    esi,DWORD PTR ds:0x40a720
  401d7e:	85 f6                	test   esi,esi
  401d80:	0f 85 8a 00 00 00    	jne    401e10 <__pei386_runtime_relocator+0xd0>
  401d86:	8b 1d 24 a7 40 00    	mov    ebx,DWORD PTR ds:0x40a724
  401d8c:	85 db                	test   ebx,ebx
  401d8e:	0f 85 7c 00 00 00    	jne    401e10 <__pei386_runtime_relocator+0xd0>
  401d94:	8b 0d 28 a7 40 00    	mov    ecx,DWORD PTR ds:0x40a728
  401d9a:	bb 2c a7 40 00       	mov    ebx,0x40a72c
  401d9f:	85 c9                	test   ecx,ecx
  401da1:	0f 84 b4 00 00 00    	je     401e5b <__pei386_runtime_relocator+0x11b>
  401da7:	bb 20 a7 40 00       	mov    ebx,0x40a720
  401dac:	8b 43 08             	mov    eax,DWORD PTR [ebx+0x8]
  401daf:	83 f8 01             	cmp    eax,0x1
  401db2:	0f 85 49 01 00 00    	jne    401f01 <__pei386_runtime_relocator+0x1c1>
  401db8:	83 c3 0c             	add    ebx,0xc
  401dbb:	81 fb 20 a7 40 00    	cmp    ebx,0x40a720
  401dc1:	0f 83 88 00 00 00    	jae    401e4f <__pei386_runtime_relocator+0x10f>
  401dc7:	0f b6 53 08          	movzx  edx,BYTE PTR [ebx+0x8]
  401dcb:	8b 73 04             	mov    esi,DWORD PTR [ebx+0x4]
  401dce:	8b 0b                	mov    ecx,DWORD PTR [ebx]
  401dd0:	83 fa 10             	cmp    edx,0x10
  401dd3:	8d 86 00 00 40 00    	lea    eax,[esi+0x400000]
  401dd9:	8b b9 00 00 40 00    	mov    edi,DWORD PTR [ecx+0x400000]
  401ddf:	0f 84 8b 00 00 00    	je     401e70 <__pei386_runtime_relocator+0x130>
  401de5:	83 fa 20             	cmp    edx,0x20
  401de8:	0f 84 f2 00 00 00    	je     401ee0 <__pei386_runtime_relocator+0x1a0>
  401dee:	83 fa 08             	cmp    edx,0x8
  401df1:	0f 84 af 00 00 00    	je     401ea6 <__pei386_runtime_relocator+0x166>
  401df7:	89 54 24 04          	mov    DWORD PTR [esp+0x4],edx
  401dfb:	c7 04 24 e8 a0 40 00 	mov    DWORD PTR [esp],0x40a0e8
  401e02:	c7 44 24 1c 00 00 00 	mov    DWORD PTR [esp+0x1c],0x0
  401e09:	00 
  401e0a:	e8 f1 fd ff ff       	call   401c00 <___report_error>
  401e0f:	90                   	nop
  401e10:	bb 20 a7 40 00       	mov    ebx,0x40a720
  401e15:	81 fb 20 a7 40 00    	cmp    ebx,0x40a720
  401e1b:	73 32                	jae    401e4f <__pei386_runtime_relocator+0x10f>
  401e1d:	8d 76 00             	lea    esi,[esi+0x0]
  401e20:	8b 53 04             	mov    edx,DWORD PTR [ebx+0x4]
  401e23:	b9 04 00 00 00       	mov    ecx,0x4
  401e28:	83 c3 08             	add    ebx,0x8
  401e2b:	8d 82 00 00 40 00    	lea    eax,[edx+0x400000]
  401e31:	8b 92 00 00 40 00    	mov    edx,DWORD PTR [edx+0x400000]
  401e37:	03 53 f8             	add    edx,DWORD PTR [ebx-0x8]
  401e3a:	89 54 24 1c          	mov    DWORD PTR [esp+0x1c],edx
  401e3e:	8d 54 24 1c          	lea    edx,[esp+0x1c]
  401e42:	e8 09 fe ff ff       	call   401c50 <___write_memory.part.0>
  401e47:	81 fb 20 a7 40 00    	cmp    ebx,0x40a720
  401e4d:	72 d1                	jb     401e20 <__pei386_runtime_relocator+0xe0>
  401e4f:	83 c4 20             	add    esp,0x20
  401e52:	5b                   	pop    ebx
  401e53:	5e                   	pop    esi
  401e54:	5f                   	pop    edi
  401e55:	c3                   	ret    
  401e56:	bb 20 a7 40 00       	mov    ebx,0x40a720
  401e5b:	8b 13                	mov    edx,DWORD PTR [ebx]
  401e5d:	85 d2                	test   edx,edx
  401e5f:	75 b4                	jne    401e15 <__pei386_runtime_relocator+0xd5>
  401e61:	8b 43 04             	mov    eax,DWORD PTR [ebx+0x4]
  401e64:	85 c0                	test   eax,eax
  401e66:	0f 84 40 ff ff ff    	je     401dac <__pei386_runtime_relocator+0x6c>
  401e6c:	eb a7                	jmp    401e15 <__pei386_runtime_relocator+0xd5>
  401e6e:	66 90                	xchg   ax,ax
  401e70:	0f b7 b6 00 00 40 00 	movzx  esi,WORD PTR [esi+0x400000]
  401e77:	66 85 f6             	test   si,si
  401e7a:	0f b7 d6             	movzx  edx,si
  401e7d:	79 06                	jns    401e85 <__pei386_runtime_relocator+0x145>
  401e7f:	81 ca 00 00 ff ff    	or     edx,0xffff0000
  401e85:	29 ca                	sub    edx,ecx
  401e87:	b9 02 00 00 00       	mov    ecx,0x2
  401e8c:	81 ea 00 00 40 00    	sub    edx,0x400000
  401e92:	01 fa                	add    edx,edi
  401e94:	89 54 24 1c          	mov    DWORD PTR [esp+0x1c],edx
  401e98:	8d 54 24 1c          	lea    edx,[esp+0x1c]
  401e9c:	e8 af fd ff ff       	call   401c50 <___write_memory.part.0>
  401ea1:	e9 12 ff ff ff       	jmp    401db8 <__pei386_runtime_relocator+0x78>
  401ea6:	0f b6 10             	movzx  edx,BYTE PTR [eax]
  401ea9:	84 d2                	test   dl,dl
  401eab:	0f b6 f2             	movzx  esi,dl
  401eae:	79 06                	jns    401eb6 <__pei386_runtime_relocator+0x176>
  401eb0:	81 ce 00 ff ff ff    	or     esi,0xffffff00
  401eb6:	81 ee 00 00 40 00    	sub    esi,0x400000
  401ebc:	89 f2                	mov    edx,esi
  401ebe:	29 ca                	sub    edx,ecx
  401ec0:	b9 01 00 00 00       	mov    ecx,0x1
  401ec5:	01 fa                	add    edx,edi
  401ec7:	89 54 24 1c          	mov    DWORD PTR [esp+0x1c],edx
  401ecb:	8d 54 24 1c          	lea    edx,[esp+0x1c]
  401ecf:	e8 7c fd ff ff       	call   401c50 <___write_memory.part.0>
  401ed4:	e9 df fe ff ff       	jmp    401db8 <__pei386_runtime_relocator+0x78>
  401ed9:	8d b4 26 00 00 00 00 	lea    esi,[esi+eiz*1+0x0]
  401ee0:	81 c1 00 00 40 00    	add    ecx,0x400000
  401ee6:	29 cf                	sub    edi,ecx
  401ee8:	b9 04 00 00 00       	mov    ecx,0x4
  401eed:	03 38                	add    edi,DWORD PTR [eax]
  401eef:	8d 54 24 1c          	lea    edx,[esp+0x1c]
  401ef3:	89 7c 24 1c          	mov    DWORD PTR [esp+0x1c],edi
  401ef7:	e8 54 fd ff ff       	call   401c50 <___write_memory.part.0>
  401efc:	e9 b7 fe ff ff       	jmp    401db8 <__pei386_runtime_relocator+0x78>
  401f01:	89 44 24 04          	mov    DWORD PTR [esp+0x4],eax
  401f05:	c7 04 24 b4 a0 40 00 	mov    DWORD PTR [esp],0x40a0b4
  401f0c:	e8 ef fc ff ff       	call   401c00 <___report_error>
  401f11:	90                   	nop
  401f12:	90                   	nop
  401f13:	90                   	nop
  401f14:	90                   	nop
  401f15:	90                   	nop
  401f16:	90                   	nop
  401f17:	90                   	nop
  401f18:	90                   	nop
  401f19:	90                   	nop
  401f1a:	90                   	nop
  401f1b:	90                   	nop
  401f1c:	90                   	nop
  401f1d:	90                   	nop
  401f1e:	90                   	nop
  401f1f:	90                   	nop

00401f20 <___chkstk_ms>:
  401f20:	51                   	push   ecx
  401f21:	50                   	push   eax
  401f22:	3d 00 10 00 00       	cmp    eax,0x1000
  401f27:	8d 4c 24 0c          	lea    ecx,[esp+0xc]
  401f2b:	72 15                	jb     401f42 <___chkstk_ms+0x22>
  401f2d:	81 e9 00 10 00 00    	sub    ecx,0x1000
  401f33:	83 09 00             	or     DWORD PTR [ecx],0x0
  401f36:	2d 00 10 00 00       	sub    eax,0x1000
  401f3b:	3d 00 10 00 00       	cmp    eax,0x1000
  401f40:	77 eb                	ja     401f2d <___chkstk_ms+0xd>
  401f42:	29 c1                	sub    ecx,eax
  401f44:	83 09 00             	or     DWORD PTR [ecx],0x0
  401f47:	58                   	pop    eax
  401f48:	59                   	pop    ecx
  401f49:	c3                   	ret    
  401f4a:	90                   	nop
  401f4b:	90                   	nop

00401f4c <.text>:
  401f4c:	66 90                	xchg   ax,ax
  401f4e:	66 90                	xchg   ax,ax

00401f50 <_is_glob_pattern>:
  401f50:	57                   	push   edi
  401f51:	85 c0                	test   eax,eax
  401f53:	56                   	push   esi
  401f54:	53                   	push   ebx
  401f55:	89 c3                	mov    ebx,eax
  401f57:	74 44                	je     401f9d <_is_glob_pattern+0x4d>
  401f59:	0f be 0b             	movsx  ecx,BYTE PTR [ebx]
  401f5c:	89 d6                	mov    esi,edx
  401f5e:	31 c0                	xor    eax,eax
  401f60:	83 e6 20             	and    esi,0x20
  401f63:	8d 53 01             	lea    edx,[ebx+0x1]
  401f66:	85 c9                	test   ecx,ecx
  401f68:	74 33                	je     401f9d <_is_glob_pattern+0x4d>
  401f6a:	8d b6 00 00 00 00    	lea    esi,[esi+0x0]
  401f70:	85 f6                	test   esi,esi
  401f72:	89 f7                	mov    edi,esi
  401f74:	75 05                	jne    401f7b <_is_glob_pattern+0x2b>
  401f76:	83 f9 7f             	cmp    ecx,0x7f
  401f79:	74 45                	je     401fc0 <_is_glob_pattern+0x70>
  401f7b:	85 c0                	test   eax,eax
  401f7d:	75 26                	jne    401fa5 <_is_glob_pattern+0x55>
  401f7f:	83 f9 3f             	cmp    ecx,0x3f
  401f82:	74 51                	je     401fd5 <_is_glob_pattern+0x85>
  401f84:	83 f9 2a             	cmp    ecx,0x2a
  401f87:	74 4c                	je     401fd5 <_is_glob_pattern+0x85>
  401f89:	31 c0                	xor    eax,eax
  401f8b:	83 f9 5b             	cmp    ecx,0x5b
  401f8e:	0f 94 c0             	sete   al
  401f91:	89 d3                	mov    ebx,edx
  401f93:	0f be 0b             	movsx  ecx,BYTE PTR [ebx]
  401f96:	8d 53 01             	lea    edx,[ebx+0x1]
  401f99:	85 c9                	test   ecx,ecx
  401f9b:	75 d3                	jne    401f70 <_is_glob_pattern+0x20>
  401f9d:	31 ff                	xor    edi,edi
  401f9f:	89 f8                	mov    eax,edi
  401fa1:	5b                   	pop    ebx
  401fa2:	5e                   	pop    esi
  401fa3:	5f                   	pop    edi
  401fa4:	c3                   	ret    
  401fa5:	83 f9 5d             	cmp    ecx,0x5d
  401fa8:	74 26                	je     401fd0 <_is_glob_pattern+0x80>
  401faa:	83 f9 21             	cmp    ecx,0x21
  401fad:	89 d3                	mov    ebx,edx
  401faf:	0f 95 c1             	setne  cl
  401fb2:	0f b6 c9             	movzx  ecx,cl
  401fb5:	01 c8                	add    eax,ecx
  401fb7:	eb da                	jmp    401f93 <_is_glob_pattern+0x43>
  401fb9:	8d b4 26 00 00 00 00 	lea    esi,[esi+eiz*1+0x0]
  401fc0:	80 7b 01 00          	cmp    BYTE PTR [ebx+0x1],0x0
  401fc4:	8d 53 02             	lea    edx,[ebx+0x2]
  401fc7:	75 b2                	jne    401f7b <_is_glob_pattern+0x2b>
  401fc9:	eb d4                	jmp    401f9f <_is_glob_pattern+0x4f>
  401fcb:	90                   	nop
  401fcc:	8d 74 26 00          	lea    esi,[esi+eiz*1+0x0]
  401fd0:	83 f8 01             	cmp    eax,0x1
  401fd3:	7e d5                	jle    401faa <_is_glob_pattern+0x5a>
  401fd5:	bf 01 00 00 00       	mov    edi,0x1
  401fda:	89 f8                	mov    eax,edi
  401fdc:	5b                   	pop    ebx
  401fdd:	5e                   	pop    esi
  401fde:	5f                   	pop    edi
  401fdf:	c3                   	ret    

00401fe0 <_glob_in_set>:
  401fe0:	55                   	push   ebp
  401fe1:	57                   	push   edi
  401fe2:	56                   	push   esi
  401fe3:	53                   	push   ebx
  401fe4:	83 ec 04             	sub    esp,0x4
  401fe7:	0f b6 18             	movzx  ebx,BYTE PTR [eax]
  401fea:	89 0c 24             	mov    DWORD PTR [esp],ecx
  401fed:	0f be fb             	movsx  edi,bl
  401ff0:	83 ff 5d             	cmp    edi,0x5d
  401ff3:	0f 84 d7 00 00 00    	je     4020d0 <_glob_in_set+0xf0>
  401ff9:	83 ff 2d             	cmp    edi,0x2d
  401ffc:	89 d9                	mov    ecx,ebx
  401ffe:	75 2e                	jne    40202e <_glob_in_set+0x4e>
  402000:	e9 cb 00 00 00       	jmp    4020d0 <_glob_in_set+0xf0>
  402005:	85 db                	test   ebx,ebx
  402007:	0f 84 b3 00 00 00    	je     4020c0 <_glob_in_set+0xe0>
  40200d:	83 fb 5c             	cmp    ebx,0x5c
  402010:	0f 84 aa 00 00 00    	je     4020c0 <_glob_in_set+0xe0>
  402016:	83 fb 2f             	cmp    ebx,0x2f
  402019:	0f 84 a1 00 00 00    	je     4020c0 <_glob_in_set+0xe0>
  40201f:	89 df                	mov    edi,ebx
  402021:	0f b6 0e             	movzx  ecx,BYTE PTR [esi]
  402024:	89 f0                	mov    eax,esi
  402026:	39 d7                	cmp    edi,edx
  402028:	0f 84 ca 00 00 00    	je     4020f8 <_glob_in_set+0x118>
  40202e:	0f be d9             	movsx  ebx,cl
  402031:	83 fb 5d             	cmp    ebx,0x5d
  402034:	8d 70 01             	lea    esi,[eax+0x1]
  402037:	0f 84 83 00 00 00    	je     4020c0 <_glob_in_set+0xe0>
  40203d:	83 fb 2d             	cmp    ebx,0x2d
  402040:	75 c3                	jne    402005 <_glob_in_set+0x25>
  402042:	0f b6 58 01          	movzx  ebx,BYTE PTR [eax+0x1]
  402046:	80 fb 5d             	cmp    bl,0x5d
  402049:	0f 84 95 00 00 00    	je     4020e4 <_glob_in_set+0x104>
  40204f:	0f be eb             	movsx  ebp,bl
  402052:	85 ed                	test   ebp,ebp
  402054:	89 eb                	mov    ebx,ebp
  402056:	74 68                	je     4020c0 <_glob_in_set+0xe0>
  402058:	39 ef                	cmp    edi,ebp
  40205a:	8d 70 02             	lea    esi,[eax+0x2]
  40205d:	0f 8d 85 01 00 00    	jge    4021e8 <_glob_in_set+0x208>
  402063:	39 d7                	cmp    edi,edx
  402065:	8d 47 01             	lea    eax,[edi+0x1]
  402068:	75 14                	jne    40207e <_glob_in_set+0x9e>
  40206a:	e9 c1 00 00 00       	jmp    402130 <_glob_in_set+0x150>
  40206f:	90                   	nop
  402070:	83 c0 01             	add    eax,0x1
  402073:	8d 78 ff             	lea    edi,[eax-0x1]
  402076:	39 fa                	cmp    edx,edi
  402078:	0f 84 b2 00 00 00    	je     402130 <_glob_in_set+0x150>
  40207e:	39 c5                	cmp    ebp,eax
  402080:	7f ee                	jg     402070 <_glob_in_set+0x90>
  402082:	39 c5                	cmp    ebp,eax
  402084:	7d 87                	jge    40200d <_glob_in_set+0x2d>
  402086:	39 c2                	cmp    edx,eax
  402088:	74 15                	je     40209f <_glob_in_set+0xbf>
  40208a:	83 c5 01             	add    ebp,0x1
  40208d:	8d 76 00             	lea    esi,[esi+0x0]
  402090:	39 e8                	cmp    eax,ebp
  402092:	0f 84 75 ff ff ff    	je     40200d <_glob_in_set+0x2d>
  402098:	83 e8 01             	sub    eax,0x1
  40209b:	39 c2                	cmp    edx,eax
  40209d:	75 f1                	jne    402090 <_glob_in_set+0xb0>
  40209f:	8b 0c 24             	mov    ecx,DWORD PTR [esp]
  4020a2:	83 e1 20             	and    ecx,0x20
  4020a5:	0f b6 06             	movzx  eax,BYTE PTR [esi]
  4020a8:	3c 5d                	cmp    al,0x5d
  4020aa:	0f 84 a3 00 00 00    	je     402153 <_glob_in_set+0x173>
  4020b0:	3c 7f                	cmp    al,0x7f
  4020b2:	0f 84 bd 00 00 00    	je     402175 <_glob_in_set+0x195>
  4020b8:	83 c6 01             	add    esi,0x1
  4020bb:	84 c0                	test   al,al
  4020bd:	75 e6                	jne    4020a5 <_glob_in_set+0xc5>
  4020bf:	90                   	nop
  4020c0:	83 c4 04             	add    esp,0x4
  4020c3:	31 c0                	xor    eax,eax
  4020c5:	5b                   	pop    ebx
  4020c6:	5e                   	pop    esi
  4020c7:	5f                   	pop    edi
  4020c8:	5d                   	pop    ebp
  4020c9:	c3                   	ret    
  4020ca:	8d b6 00 00 00 00    	lea    esi,[esi+0x0]
  4020d0:	39 d7                	cmp    edi,edx
  4020d2:	0f 84 b8 00 00 00    	je     402190 <_glob_in_set+0x1b0>
  4020d8:	0f b6 48 01          	movzx  ecx,BYTE PTR [eax+0x1]
  4020dc:	83 c0 01             	add    eax,0x1
  4020df:	e9 4a ff ff ff       	jmp    40202e <_glob_in_set+0x4e>
  4020e4:	bf 2d 00 00 00       	mov    edi,0x2d
  4020e9:	89 f0                	mov    eax,esi
  4020eb:	39 d7                	cmp    edi,edx
  4020ed:	b9 5d 00 00 00       	mov    ecx,0x5d
  4020f2:	0f 85 36 ff ff ff    	jne    40202e <_glob_in_set+0x4e>
  4020f8:	8b 14 24             	mov    edx,DWORD PTR [esp]
  4020fb:	83 e2 20             	and    edx,0x20
  4020fe:	eb 0a                	jmp    40210a <_glob_in_set+0x12a>
  402100:	83 c0 01             	add    eax,0x1
  402103:	84 c9                	test   cl,cl
  402105:	74 b9                	je     4020c0 <_glob_in_set+0xe0>
  402107:	0f b6 08             	movzx  ecx,BYTE PTR [eax]
  40210a:	80 f9 5d             	cmp    cl,0x5d
  40210d:	0f 84 c2 00 00 00    	je     4021d5 <_glob_in_set+0x1f5>
  402113:	80 f9 7f             	cmp    cl,0x7f
  402116:	75 e8                	jne    402100 <_glob_in_set+0x120>
  402118:	85 d2                	test   edx,edx
  40211a:	0f 85 c0 00 00 00    	jne    4021e0 <_glob_in_set+0x200>
  402120:	0f b6 48 01          	movzx  ecx,BYTE PTR [eax+0x1]
  402124:	83 c0 01             	add    eax,0x1
  402127:	eb d7                	jmp    402100 <_glob_in_set+0x120>
  402129:	8d b4 26 00 00 00 00 	lea    esi,[esi+eiz*1+0x0]
  402130:	8b 0c 24             	mov    ecx,DWORD PTR [esp]
  402133:	83 e1 20             	and    ecx,0x20
  402136:	0f b6 06             	movzx  eax,BYTE PTR [esi]
  402139:	3c 5d                	cmp    al,0x5d
  40213b:	74 16                	je     402153 <_glob_in_set+0x173>
  40213d:	3c 7f                	cmp    al,0x7f
  40213f:	74 1f                	je     402160 <_glob_in_set+0x180>
  402141:	83 c6 01             	add    esi,0x1
  402144:	84 c0                	test   al,al
  402146:	0f 84 74 ff ff ff    	je     4020c0 <_glob_in_set+0xe0>
  40214c:	0f b6 06             	movzx  eax,BYTE PTR [esi]
  40214f:	3c 5d                	cmp    al,0x5d
  402151:	75 ea                	jne    40213d <_glob_in_set+0x15d>
  402153:	83 c4 04             	add    esp,0x4
  402156:	5b                   	pop    ebx
  402157:	8d 46 01             	lea    eax,[esi+0x1]
  40215a:	5e                   	pop    esi
  40215b:	5f                   	pop    edi
  40215c:	5d                   	pop    ebp
  40215d:	c3                   	ret    
  40215e:	66 90                	xchg   ax,ax
  402160:	85 c9                	test   ecx,ecx
  402162:	75 0c                	jne    402170 <_glob_in_set+0x190>
  402164:	0f b6 46 01          	movzx  eax,BYTE PTR [esi+0x1]
  402168:	83 c6 01             	add    esi,0x1
  40216b:	eb d4                	jmp    402141 <_glob_in_set+0x161>
  40216d:	8d 76 00             	lea    esi,[esi+0x0]
  402170:	83 c6 01             	add    esi,0x1
  402173:	eb c1                	jmp    402136 <_glob_in_set+0x156>
  402175:	85 c9                	test   ecx,ecx
  402177:	75 0c                	jne    402185 <_glob_in_set+0x1a5>
  402179:	0f b6 46 01          	movzx  eax,BYTE PTR [esi+0x1]
  40217d:	83 c6 01             	add    esi,0x1
  402180:	e9 33 ff ff ff       	jmp    4020b8 <_glob_in_set+0xd8>
  402185:	83 c6 01             	add    esi,0x1
  402188:	e9 18 ff ff ff       	jmp    4020a5 <_glob_in_set+0xc5>
  40218d:	8d 76 00             	lea    esi,[esi+0x0]
  402190:	8b 0c 24             	mov    ecx,DWORD PTR [esp]
  402193:	83 c0 01             	add    eax,0x1
  402196:	83 e1 20             	and    ecx,0x20
  402199:	8d b4 26 00 00 00 00 	lea    esi,[esi+eiz*1+0x0]
  4021a0:	0f b6 10             	movzx  edx,BYTE PTR [eax]
  4021a3:	80 fa 5d             	cmp    dl,0x5d
  4021a6:	74 2d                	je     4021d5 <_glob_in_set+0x1f5>
  4021a8:	80 fa 7f             	cmp    dl,0x7f
  4021ab:	74 13                	je     4021c0 <_glob_in_set+0x1e0>
  4021ad:	83 c0 01             	add    eax,0x1
  4021b0:	84 d2                	test   dl,dl
  4021b2:	75 ec                	jne    4021a0 <_glob_in_set+0x1c0>
  4021b4:	e9 07 ff ff ff       	jmp    4020c0 <_glob_in_set+0xe0>
  4021b9:	8d b4 26 00 00 00 00 	lea    esi,[esi+eiz*1+0x0]
  4021c0:	85 c9                	test   ecx,ecx
  4021c2:	75 0c                	jne    4021d0 <_glob_in_set+0x1f0>
  4021c4:	0f b6 50 01          	movzx  edx,BYTE PTR [eax+0x1]
  4021c8:	83 c0 01             	add    eax,0x1
  4021cb:	eb e0                	jmp    4021ad <_glob_in_set+0x1cd>
  4021cd:	8d 76 00             	lea    esi,[esi+0x0]
  4021d0:	83 c0 01             	add    eax,0x1
  4021d3:	eb cb                	jmp    4021a0 <_glob_in_set+0x1c0>
  4021d5:	83 c4 04             	add    esp,0x4
  4021d8:	83 c0 01             	add    eax,0x1
  4021db:	5b                   	pop    ebx
  4021dc:	5e                   	pop    esi
  4021dd:	5f                   	pop    edi
  4021de:	5d                   	pop    ebp
  4021df:	c3                   	ret    
  4021e0:	83 c0 01             	add    eax,0x1
  4021e3:	e9 1f ff ff ff       	jmp    402107 <_glob_in_set+0x127>
  4021e8:	89 f8                	mov    eax,edi
  4021ea:	e9 93 fe ff ff       	jmp    402082 <_glob_in_set+0xa2>
  4021ef:	90                   	nop

004021f0 <_glob_initialise>:
  4021f0:	55                   	push   ebp
  4021f1:	57                   	push   edi
  4021f2:	56                   	push   esi
  4021f3:	89 c6                	mov    esi,eax
  4021f5:	53                   	push   ebx
  4021f6:	83 ec 1c             	sub    esp,0x1c
  4021f9:	85 c0                	test   eax,eax
  4021fb:	74 47                	je     402244 <_glob_initialise+0x54>
  4021fd:	8b 40 0c             	mov    eax,DWORD PTR [eax+0xc]
  402200:	8d 78 01             	lea    edi,[eax+0x1]
  402203:	8d 2c bd 00 00 00 00 	lea    ebp,[edi*4+0x0]
  40220a:	89 2c 24             	mov    DWORD PTR [esp],ebp
  40220d:	e8 76 5d 00 00       	call   407f88 <_malloc>
  402212:	89 c3                	mov    ebx,eax
  402214:	85 db                	test   ebx,ebx
  402216:	89 46 08             	mov    DWORD PTR [esi+0x8],eax
  402219:	b8 03 00 00 00       	mov    eax,0x3
  40221e:	74 26                	je     402246 <_glob_initialise+0x56>
  402220:	85 ff                	test   edi,edi
  402222:	89 fa                	mov    edx,edi
  402224:	c7 46 04 00 00 00 00 	mov    DWORD PTR [esi+0x4],0x0
  40222b:	7e 17                	jle    402244 <_glob_initialise+0x54>
  40222d:	8d 4d fc             	lea    ecx,[ebp-0x4]
  402230:	eb 03                	jmp    402235 <_glob_initialise+0x45>
  402232:	8b 5e 08             	mov    ebx,DWORD PTR [esi+0x8]
  402235:	c7 04 0b 00 00 00 00 	mov    DWORD PTR [ebx+ecx*1],0x0
  40223c:	83 e9 04             	sub    ecx,0x4
  40223f:	83 ea 01             	sub    edx,0x1
  402242:	75 ee                	jne    402232 <_glob_initialise+0x42>
  402244:	31 c0                	xor    eax,eax
  402246:	83 c4 1c             	add    esp,0x1c
  402249:	5b                   	pop    ebx
  40224a:	5e                   	pop    esi
  40224b:	5f                   	pop    edi
  40224c:	5d                   	pop    ebp
  40224d:	c3                   	ret    
  40224e:	66 90                	xchg   ax,ax

00402250 <_glob_strcmp>:
  402250:	55                   	push   ebp
  402251:	57                   	push   edi
  402252:	89 c7                	mov    edi,eax
  402254:	56                   	push   esi
  402255:	53                   	push   ebx
  402256:	83 ec 2c             	sub    esp,0x2c
  402259:	80 3a 2e             	cmp    BYTE PTR [edx],0x2e
  40225c:	89 4c 24 10          	mov    DWORD PTR [esp+0x10],ecx
  402260:	0f 84 5a 01 00 00    	je     4023c0 <_glob_strcmp+0x170>
  402266:	0f b6 08             	movzx  ecx,BYTE PTR [eax]
  402269:	8b 74 24 10          	mov    esi,DWORD PTR [esp+0x10]
  40226d:	8d 6a 01             	lea    ebp,[edx+0x1]
  402270:	89 f0                	mov    eax,esi
  402272:	83 e0 20             	and    eax,0x20
  402275:	89 44 24 14          	mov    DWORD PTR [esp+0x14],eax
  402279:	89 f0                	mov    eax,esi
  40227b:	25 00 40 00 00       	and    eax,0x4000
  402280:	89 44 24 18          	mov    DWORD PTR [esp+0x18],eax
  402284:	0f be d1             	movsx  edx,cl
  402287:	85 d2                	test   edx,edx
  402289:	8d 75 ff             	lea    esi,[ebp-0x1]
  40228c:	8d 47 01             	lea    eax,[edi+0x1]
  40228f:	0f 84 70 01 00 00    	je     402405 <_glob_strcmp+0x1b5>
  402295:	80 f9 3f             	cmp    cl,0x3f
  402298:	0f 84 e4 00 00 00    	je     402382 <_glob_strcmp+0x132>
  40229e:	80 f9 5b             	cmp    cl,0x5b
  4022a1:	0f 84 ab 00 00 00    	je     402352 <_glob_strcmp+0x102>
  4022a7:	80 f9 2a             	cmp    cl,0x2a
  4022aa:	74 5c                	je     402308 <_glob_strcmp+0xb8>
  4022ac:	8b 4c 24 14          	mov    ecx,DWORD PTR [esp+0x14]
  4022b0:	85 c9                	test   ecx,ecx
  4022b2:	0f 84 d8 00 00 00    	je     402390 <_glob_strcmp+0x140>
  4022b8:	89 c7                	mov    edi,eax
  4022ba:	0f be 5d ff          	movsx  ebx,BYTE PTR [ebp-0x1]
  4022be:	84 db                	test   bl,bl
  4022c0:	0f 84 92 01 00 00    	je     402458 <_glob_strcmp+0x208>
  4022c6:	8b 44 24 18          	mov    eax,DWORD PTR [esp+0x18]
  4022ca:	85 c0                	test   eax,eax
  4022cc:	0f 85 de 00 00 00    	jne    4023b0 <_glob_strcmp+0x160>
  4022d2:	89 14 24             	mov    DWORD PTR [esp],edx
  4022d5:	89 54 24 1c          	mov    DWORD PTR [esp+0x1c],edx
  4022d9:	e8 5a 5c 00 00       	call   407f38 <_tolower>
  4022de:	89 1c 24             	mov    DWORD PTR [esp],ebx
  4022e1:	89 c6                	mov    esi,eax
  4022e3:	e8 50 5c 00 00       	call   407f38 <_tolower>
  4022e8:	8b 54 24 1c          	mov    edx,DWORD PTR [esp+0x1c]
  4022ec:	29 c6                	sub    esi,eax
  4022ee:	85 f6                	test   esi,esi
  4022f0:	0f 84 81 00 00 00    	je     402377 <_glob_strcmp+0x127>
  4022f6:	89 d0                	mov    eax,edx
  4022f8:	29 d8                	sub    eax,ebx
  4022fa:	8d b6 00 00 00 00    	lea    esi,[esi+0x0]
  402300:	83 c4 2c             	add    esp,0x2c
  402303:	5b                   	pop    ebx
  402304:	5e                   	pop    esi
  402305:	5f                   	pop    edi
  402306:	5d                   	pop    ebp
  402307:	c3                   	ret    
  402308:	0f b6 57 01          	movzx  edx,BYTE PTR [edi+0x1]
  40230c:	89 c3                	mov    ebx,eax
  40230e:	80 fa 2a             	cmp    dl,0x2a
  402311:	75 0b                	jne    40231e <_glob_strcmp+0xce>
  402313:	83 c3 01             	add    ebx,0x1
  402316:	0f b6 13             	movzx  edx,BYTE PTR [ebx]
  402319:	80 fa 2a             	cmp    dl,0x2a
  40231c:	74 f5                	je     402313 <_glob_strcmp+0xc3>
  40231e:	31 c0                	xor    eax,eax
  402320:	84 d2                	test   dl,dl
  402322:	74 dc                	je     402300 <_glob_strcmp+0xb0>
  402324:	8b 7c 24 10          	mov    edi,DWORD PTR [esp+0x10]
  402328:	81 cf 00 00 01 00    	or     edi,0x10000
  40232e:	eb 09                	jmp    402339 <_glob_strcmp+0xe9>
  402330:	83 c6 01             	add    esi,0x1
  402333:	80 7e ff 00          	cmp    BYTE PTR [esi-0x1],0x0
  402337:	74 c7                	je     402300 <_glob_strcmp+0xb0>
  402339:	89 f9                	mov    ecx,edi
  40233b:	89 f2                	mov    edx,esi
  40233d:	89 d8                	mov    eax,ebx
  40233f:	e8 0c ff ff ff       	call   402250 <_glob_strcmp>
  402344:	85 c0                	test   eax,eax
  402346:	75 e8                	jne    402330 <_glob_strcmp+0xe0>
  402348:	83 c4 2c             	add    esp,0x2c
  40234b:	31 c0                	xor    eax,eax
  40234d:	5b                   	pop    ebx
  40234e:	5e                   	pop    esi
  40234f:	5f                   	pop    edi
  402350:	5d                   	pop    ebp
  402351:	c3                   	ret    
  402352:	0f be 55 ff          	movsx  edx,BYTE PTR [ebp-0x1]
  402356:	85 d2                	test   edx,edx
  402358:	0f 84 0b 01 00 00    	je     402469 <_glob_strcmp+0x219>
  40235e:	80 7f 01 21          	cmp    BYTE PTR [edi+0x1],0x21
  402362:	74 7c                	je     4023e0 <_glob_strcmp+0x190>
  402364:	8b 4c 24 10          	mov    ecx,DWORD PTR [esp+0x10]
  402368:	e8 73 fc ff ff       	call   401fe0 <_glob_in_set>
  40236d:	85 c0                	test   eax,eax
  40236f:	89 c7                	mov    edi,eax
  402371:	0f 84 d7 00 00 00    	je     40244e <_glob_strcmp+0x1fe>
  402377:	0f b6 0f             	movzx  ecx,BYTE PTR [edi]
  40237a:	83 c5 01             	add    ebp,0x1
  40237d:	e9 02 ff ff ff       	jmp    402284 <_glob_strcmp+0x34>
  402382:	80 7d ff 00          	cmp    BYTE PTR [ebp-0x1],0x0
  402386:	0f 84 d3 00 00 00    	je     40245f <_glob_strcmp+0x20f>
  40238c:	89 c7                	mov    edi,eax
  40238e:	eb e7                	jmp    402377 <_glob_strcmp+0x127>
  402390:	83 fa 7f             	cmp    edx,0x7f
  402393:	0f 85 1f ff ff ff    	jne    4022b8 <_glob_strcmp+0x68>
  402399:	0f be 57 01          	movsx  edx,BYTE PTR [edi+0x1]
  40239d:	83 c7 02             	add    edi,0x2
  4023a0:	85 d2                	test   edx,edx
  4023a2:	0f 85 12 ff ff ff    	jne    4022ba <_glob_strcmp+0x6a>
  4023a8:	e9 0b ff ff ff       	jmp    4022b8 <_glob_strcmp+0x68>
  4023ad:	8d 76 00             	lea    esi,[esi+0x0]
  4023b0:	89 d6                	mov    esi,edx
  4023b2:	29 de                	sub    esi,ebx
  4023b4:	e9 35 ff ff ff       	jmp    4022ee <_glob_strcmp+0x9e>
  4023b9:	8d b4 26 00 00 00 00 	lea    esi,[esi+eiz*1+0x0]
  4023c0:	0f be 00             	movsx  eax,BYTE PTR [eax]
  4023c3:	3c 2e                	cmp    al,0x2e
  4023c5:	74 32                	je     4023f9 <_glob_strcmp+0x1a9>
  4023c7:	89 c1                	mov    ecx,eax
  4023c9:	83 e8 2e             	sub    eax,0x2e
  4023cc:	f7 44 24 10 00 00 01 	test   DWORD PTR [esp+0x10],0x10000
  4023d3:	00 
  4023d4:	0f 85 8f fe ff ff    	jne    402269 <_glob_strcmp+0x19>
  4023da:	e9 21 ff ff ff       	jmp    402300 <_glob_strcmp+0xb0>
  4023df:	90                   	nop
  4023e0:	8b 4c 24 10          	mov    ecx,DWORD PTR [esp+0x10]
  4023e4:	8d 5f 02             	lea    ebx,[edi+0x2]
  4023e7:	89 d8                	mov    eax,ebx
  4023e9:	e8 f2 fb ff ff       	call   401fe0 <_glob_in_set>
  4023ee:	85 c0                	test   eax,eax
  4023f0:	74 1d                	je     40240f <_glob_strcmp+0x1bf>
  4023f2:	89 df                	mov    edi,ebx
  4023f4:	e9 7e ff ff ff       	jmp    402377 <_glob_strcmp+0x127>
  4023f9:	b9 2e 00 00 00       	mov    ecx,0x2e
  4023fe:	66 90                	xchg   ax,ax
  402400:	e9 64 fe ff ff       	jmp    402269 <_glob_strcmp+0x19>
  402405:	0f be 06             	movsx  eax,BYTE PTR [esi]
  402408:	f7 d8                	neg    eax
  40240a:	e9 f1 fe ff ff       	jmp    402300 <_glob_strcmp+0xb0>
  40240f:	0f b6 47 02          	movzx  eax,BYTE PTR [edi+0x2]
  402413:	8b 54 24 14          	mov    edx,DWORD PTR [esp+0x14]
  402417:	3c 5d                	cmp    al,0x5d
  402419:	75 0f                	jne    40242a <_glob_strcmp+0x1da>
  40241b:	eb 56                	jmp    402473 <_glob_strcmp+0x223>
  40241d:	8d 76 00             	lea    esi,[esi+0x0]
  402420:	83 c3 01             	add    ebx,0x1
  402423:	84 c0                	test   al,al
  402425:	74 27                	je     40244e <_glob_strcmp+0x1fe>
  402427:	0f b6 03             	movzx  eax,BYTE PTR [ebx]
  40242a:	3c 5d                	cmp    al,0x5d
  40242c:	74 16                	je     402444 <_glob_strcmp+0x1f4>
  40242e:	3c 7f                	cmp    al,0x7f
  402430:	75 ee                	jne    402420 <_glob_strcmp+0x1d0>
  402432:	85 d2                	test   edx,edx
  402434:	75 09                	jne    40243f <_glob_strcmp+0x1ef>
  402436:	0f b6 43 01          	movzx  eax,BYTE PTR [ebx+0x1]
  40243a:	83 c3 01             	add    ebx,0x1
  40243d:	eb e1                	jmp    402420 <_glob_strcmp+0x1d0>
  40243f:	83 c3 01             	add    ebx,0x1
  402442:	eb e3                	jmp    402427 <_glob_strcmp+0x1d7>
  402444:	83 c3 01             	add    ebx,0x1
  402447:	89 df                	mov    edi,ebx
  402449:	e9 29 ff ff ff       	jmp    402377 <_glob_strcmp+0x127>
  40244e:	b8 5d 00 00 00       	mov    eax,0x5d
  402453:	e9 a8 fe ff ff       	jmp    402300 <_glob_strcmp+0xb0>
  402458:	31 db                	xor    ebx,ebx
  40245a:	e9 97 fe ff ff       	jmp    4022f6 <_glob_strcmp+0xa6>
  40245f:	b8 3f 00 00 00       	mov    eax,0x3f
  402464:	e9 97 fe ff ff       	jmp    402300 <_glob_strcmp+0xb0>
  402469:	b8 5b 00 00 00       	mov    eax,0x5b
  40246e:	e9 8d fe ff ff       	jmp    402300 <_glob_strcmp+0xb0>
  402473:	8d 5f 03             	lea    ebx,[edi+0x3]
  402476:	0f b6 47 03          	movzx  eax,BYTE PTR [edi+0x3]
  40247a:	8b 54 24 14          	mov    edx,DWORD PTR [esp+0x14]
  40247e:	eb aa                	jmp    40242a <_glob_strcmp+0x1da>

00402480 <_glob_registry.part.1>:
  402480:	57                   	push   edi
  402481:	89 c7                	mov    edi,eax
  402483:	56                   	push   esi
  402484:	53                   	push   ebx
  402485:	83 ec 10             	sub    esp,0x10
  402488:	8b 40 04             	mov    eax,DWORD PTR [eax+0x4]
  40248b:	8b 4f 0c             	mov    ecx,DWORD PTR [edi+0xc]
  40248e:	85 c0                	test   eax,eax
  402490:	8d 70 ff             	lea    esi,[eax-0x1]
  402493:	8d 1c 8d 00 00 00 00 	lea    ebx,[ecx*4+0x0]
  40249a:	7e 1d                	jle    4024b9 <_glob_registry.part.1+0x39>
  40249c:	8d 74 26 00          	lea    esi,[esi+eiz*1+0x0]
  4024a0:	8b 57 08             	mov    edx,DWORD PTR [edi+0x8]
  4024a3:	83 ee 01             	sub    esi,0x1
  4024a6:	8b 14 1a             	mov    edx,DWORD PTR [edx+ebx*1]
  4024a9:	83 c3 04             	add    ebx,0x4
  4024ac:	89 14 24             	mov    DWORD PTR [esp],edx
  4024af:	e8 fc 5a 00 00       	call   407fb0 <_free>
  4024b4:	83 fe ff             	cmp    esi,0xffffffff
  4024b7:	75 e7                	jne    4024a0 <_glob_registry.part.1+0x20>
  4024b9:	8b 47 08             	mov    eax,DWORD PTR [edi+0x8]
  4024bc:	89 04 24             	mov    DWORD PTR [esp],eax
  4024bf:	e8 ec 5a 00 00       	call   407fb0 <_free>
  4024c4:	83 c4 10             	add    esp,0x10
  4024c7:	31 c0                	xor    eax,eax
  4024c9:	5b                   	pop    ebx
  4024ca:	5e                   	pop    esi
  4024cb:	5f                   	pop    edi
  4024cc:	c3                   	ret    
  4024cd:	8d 76 00             	lea    esi,[esi+0x0]

004024d0 <_glob_store_entry.part.2>:
  4024d0:	57                   	push   edi
  4024d1:	56                   	push   esi
  4024d2:	89 c6                	mov    esi,eax
  4024d4:	53                   	push   ebx
  4024d5:	89 d3                	mov    ebx,edx
  4024d7:	83 ec 10             	sub    esp,0x10
  4024da:	8b 52 04             	mov    edx,DWORD PTR [edx+0x4]
  4024dd:	03 53 0c             	add    edx,DWORD PTR [ebx+0xc]
  4024e0:	8d 04 95 08 00 00 00 	lea    eax,[edx*4+0x8]
  4024e7:	89 44 24 04          	mov    DWORD PTR [esp+0x4],eax
  4024eb:	8b 43 08             	mov    eax,DWORD PTR [ebx+0x8]
  4024ee:	89 04 24             	mov    DWORD PTR [esp],eax
  4024f1:	e8 72 5a 00 00       	call   407f68 <_realloc>
  4024f6:	85 c0                	test   eax,eax
  4024f8:	89 c2                	mov    edx,eax
  4024fa:	74 29                	je     402525 <_glob_store_entry.part.2+0x55>
  4024fc:	8b 7b 04             	mov    edi,DWORD PTR [ebx+0x4]
  4024ff:	89 43 08             	mov    DWORD PTR [ebx+0x8],eax
  402502:	8b 43 0c             	mov    eax,DWORD PTR [ebx+0xc]
  402505:	8d 4f 01             	lea    ecx,[edi+0x1]
  402508:	01 c7                	add    edi,eax
  40250a:	01 c8                	add    eax,ecx
  40250c:	89 4b 04             	mov    DWORD PTR [ebx+0x4],ecx
  40250f:	89 34 ba             	mov    DWORD PTR [edx+edi*4],esi
  402512:	8b 53 08             	mov    edx,DWORD PTR [ebx+0x8]
  402515:	c7 04 82 00 00 00 00 	mov    DWORD PTR [edx+eax*4],0x0
  40251c:	83 c4 10             	add    esp,0x10
  40251f:	31 c0                	xor    eax,eax
  402521:	5b                   	pop    ebx
  402522:	5e                   	pop    esi
  402523:	5f                   	pop    edi
  402524:	c3                   	ret    
  402525:	83 c4 10             	add    esp,0x10
  402528:	b8 01 00 00 00       	mov    eax,0x1
  40252d:	5b                   	pop    ebx
  40252e:	5e                   	pop    esi
  40252f:	5f                   	pop    edi
  402530:	c3                   	ret    
  402531:	eb 0d                	jmp    402540 <_glob_store_entry>
  402533:	90                   	nop
  402534:	90                   	nop
  402535:	90                   	nop
  402536:	90                   	nop
  402537:	90                   	nop
  402538:	90                   	nop
  402539:	90                   	nop
  40253a:	90                   	nop
  40253b:	90                   	nop
  40253c:	90                   	nop
  40253d:	90                   	nop
  40253e:	90                   	nop
  40253f:	90                   	nop

00402540 <_glob_store_entry>:
  402540:	85 c0                	test   eax,eax
  402542:	75 0c                	jne    402550 <_glob_store_entry+0x10>
  402544:	b8 01 00 00 00       	mov    eax,0x1
  402549:	c3                   	ret    
  40254a:	8d b6 00 00 00 00    	lea    esi,[esi+0x0]
  402550:	85 d2                	test   edx,edx
  402552:	74 f0                	je     402544 <_glob_store_entry+0x4>
  402554:	e9 77 ff ff ff       	jmp    4024d0 <_glob_store_entry.part.2>
  402559:	8d b4 26 00 00 00 00 	lea    esi,[esi+eiz*1+0x0]

00402560 <_glob_store_collated_entries>:
  402560:	56                   	push   esi
  402561:	89 d6                	mov    esi,edx
  402563:	53                   	push   ebx
  402564:	89 c3                	mov    ebx,eax
  402566:	83 ec 14             	sub    esp,0x14
  402569:	8b 00                	mov    eax,DWORD PTR [eax]
  40256b:	85 c0                	test   eax,eax
  40256d:	74 05                	je     402574 <_glob_store_collated_entries+0x14>
  40256f:	e8 ec ff ff ff       	call   402560 <_glob_store_collated_entries>
  402574:	8b 43 08             	mov    eax,DWORD PTR [ebx+0x8]
  402577:	89 f2                	mov    edx,esi
  402579:	e8 c2 ff ff ff       	call   402540 <_glob_store_entry>
  40257e:	8b 43 04             	mov    eax,DWORD PTR [ebx+0x4]
  402581:	85 c0                	test   eax,eax
  402583:	74 07                	je     40258c <_glob_store_collated_entries+0x2c>
  402585:	89 f2                	mov    edx,esi
  402587:	e8 d4 ff ff ff       	call   402560 <_glob_store_collated_entries>
  40258c:	89 1c 24             	mov    DWORD PTR [esp],ebx
  40258f:	e8 1c 5a 00 00       	call   407fb0 <_free>
  402594:	83 c4 14             	add    esp,0x14
  402597:	5b                   	pop    ebx
  402598:	5e                   	pop    esi
  402599:	c3                   	ret    
  40259a:	8d b6 00 00 00 00    	lea    esi,[esi+0x0]

004025a0 <_glob_match>:
  4025a0:	55                   	push   ebp
  4025a1:	89 e5                	mov    ebp,esp
  4025a3:	57                   	push   edi
  4025a4:	56                   	push   esi
  4025a5:	53                   	push   ebx
  4025a6:	89 c3                	mov    ebx,eax
  4025a8:	83 ec 6c             	sub    esp,0x6c
  4025ab:	89 55 cc             	mov    DWORD PTR [ebp-0x34],edx
  4025ae:	89 4d a4             	mov    DWORD PTR [ebp-0x5c],ecx
  4025b1:	89 04 24             	mov    DWORD PTR [esp],eax
  4025b4:	e8 87 59 00 00       	call   407f40 <_strlen>
  4025b9:	8d 50 01             	lea    edx,[eax+0x1]
  4025bc:	83 c0 10             	add    eax,0x10
  4025bf:	83 e0 f0             	and    eax,0xfffffff0
  4025c2:	e8 59 f9 ff ff       	call   401f20 <___chkstk_ms>
  4025c7:	29 c4                	sub    esp,eax
  4025c9:	8d 44 24 0c          	lea    eax,[esp+0xc]
  4025cd:	89 54 24 08          	mov    DWORD PTR [esp+0x8],edx
  4025d1:	89 5c 24 04          	mov    DWORD PTR [esp+0x4],ebx
  4025d5:	89 04 24             	mov    DWORD PTR [esp],eax
  4025d8:	e8 9b 59 00 00       	call   407f78 <_memcpy>
  4025dd:	89 04 24             	mov    DWORD PTR [esp],eax
  4025e0:	e8 4b 06 00 00       	call   402c30 <___mingw_dirname>
  4025e5:	c7 45 e4 00 00 00 00 	mov    DWORD PTR [ebp-0x1c],0x0
  4025ec:	89 45 b8             	mov    DWORD PTR [ebp-0x48],eax
  4025ef:	8d 45 d8             	lea    eax,[ebp-0x28]
  4025f2:	e8 f9 fb ff ff       	call   4021f0 <_glob_initialise>
  4025f7:	85 c0                	test   eax,eax
  4025f9:	74 08                	je     402603 <_glob_match+0x63>
  4025fb:	8d 65 f4             	lea    esp,[ebp-0xc]
  4025fe:	5b                   	pop    ebx
  4025ff:	5e                   	pop    esi
  402600:	5f                   	pop    edi
  402601:	5d                   	pop    ebp
  402602:	c3                   	ret    
  402603:	8b 55 cc             	mov    edx,DWORD PTR [ebp-0x34]
  402606:	8b 45 b8             	mov    eax,DWORD PTR [ebp-0x48]
  402609:	e8 42 f9 ff ff       	call   401f50 <_is_glob_pattern>
  40260e:	85 c0                	test   eax,eax
  402610:	0f 84 5a 02 00 00    	je     402870 <_glob_match+0x2d0>
  402616:	8b 55 cc             	mov    edx,DWORD PTR [ebp-0x34]
  402619:	8d 45 d8             	lea    eax,[ebp-0x28]
  40261c:	89 04 24             	mov    DWORD PTR [esp],eax
  40261f:	8b 4d a4             	mov    ecx,DWORD PTR [ebp-0x5c]
  402622:	8b 45 b8             	mov    eax,DWORD PTR [ebp-0x48]
  402625:	80 ce 80             	or     dh,0x80
  402628:	e8 73 ff ff ff       	call   4025a0 <_glob_match>
  40262d:	85 c0                	test   eax,eax
  40262f:	75 ca                	jne    4025fb <_glob_match+0x5b>
  402631:	0f b6 43 01          	movzx  eax,BYTE PTR [ebx+0x1]
  402635:	3c 5c                	cmp    al,0x5c
  402637:	0f 84 5b 03 00 00    	je     402998 <_glob_match+0x3f8>
  40263d:	3c 2f                	cmp    al,0x2f
  40263f:	0f 84 53 03 00 00    	je     402998 <_glob_match+0x3f8>
  402645:	8b 75 b8             	mov    esi,DWORD PTR [ebp-0x48]
  402648:	bf 14 a1 40 00       	mov    edi,0x40a114
  40264d:	b9 02 00 00 00       	mov    ecx,0x2
  402652:	f3 a6                	repz cmps BYTE PTR ds:[esi],BYTE PTR es:[edi]
  402654:	0f 85 3e 03 00 00    	jne    402998 <_glob_match+0x3f8>
  40265a:	c6 45 a3 5c          	mov    BYTE PTR [ebp-0x5d],0x5c
  40265e:	f6 45 cc 10          	test   BYTE PTR [ebp-0x34],0x10
  402662:	89 5d c0             	mov    DWORD PTR [ebp-0x40],ebx
  402665:	c7 45 b8 00 00 00 00 	mov    DWORD PTR [ebp-0x48],0x0
  40266c:	0f 85 33 04 00 00    	jne    402aa5 <_glob_match+0x505>
  402672:	8b 45 e0             	mov    eax,DWORD PTR [ebp-0x20]
  402675:	89 45 c8             	mov    DWORD PTR [ebp-0x38],eax
  402678:	8b 00                	mov    eax,DWORD PTR [eax]
  40267a:	85 c0                	test   eax,eax
  40267c:	0f 84 71 04 00 00    	je     402af3 <_glob_match+0x553>
  402682:	8b 4d cc             	mov    ecx,DWORD PTR [ebp-0x34]
  402685:	c7 45 c4 02 00 00 00 	mov    DWORD PTR [ebp-0x3c],0x2
  40268c:	89 cf                	mov    edi,ecx
  40268e:	83 e7 04             	and    edi,0x4
  402691:	89 7d 98             	mov    DWORD PTR [ebp-0x68],edi
  402694:	89 cf                	mov    edi,ecx
  402696:	81 e7 00 80 00 00    	and    edi,0x8000
  40269c:	89 7d d0             	mov    DWORD PTR [ebp-0x30],edi
  40269f:	90                   	nop
  4026a0:	83 7d c4 01          	cmp    DWORD PTR [ebp-0x3c],0x1
  4026a4:	0f 84 58 02 00 00    	je     402902 <_glob_match+0x362>
  4026aa:	89 04 24             	mov    DWORD PTR [esp],eax
  4026ad:	e8 ee 0a 00 00       	call   4031a0 <___mingw_opendir>
  4026b2:	85 c0                	test   eax,eax
  4026b4:	89 45 d4             	mov    DWORD PTR [ebp-0x2c],eax
  4026b7:	0f 84 76 03 00 00    	je     402a33 <_glob_match+0x493>
  4026bd:	8b 45 b8             	mov    eax,DWORD PTR [ebp-0x48]
  4026c0:	85 c0                	test   eax,eax
  4026c2:	0f 84 bd 03 00 00    	je     402a85 <_glob_match+0x4e5>
  4026c8:	8b 45 c8             	mov    eax,DWORD PTR [ebp-0x38]
  4026cb:	8b 00                	mov    eax,DWORD PTR [eax]
  4026cd:	89 04 24             	mov    DWORD PTR [esp],eax
  4026d0:	e8 6b 58 00 00       	call   407f40 <_strlen>
  4026d5:	89 45 b4             	mov    DWORD PTR [ebp-0x4c],eax
  4026d8:	8b 45 cc             	mov    eax,DWORD PTR [ebp-0x34]
  4026db:	c7 45 bc 00 00 00 00 	mov    DWORD PTR [ebp-0x44],0x0
  4026e2:	83 e0 40             	and    eax,0x40
  4026e5:	89 45 a8             	mov    DWORD PTR [ebp-0x58],eax
  4026e8:	8b 45 d4             	mov    eax,DWORD PTR [ebp-0x2c]
  4026eb:	89 04 24             	mov    DWORD PTR [esp],eax
  4026ee:	e8 4d 0c 00 00       	call   403340 <___mingw_readdir>
  4026f3:	85 c0                	test   eax,eax
  4026f5:	89 c6                	mov    esi,eax
  4026f7:	0f 84 e8 01 00 00    	je     4028e5 <_glob_match+0x345>
  4026fd:	8b 45 d0             	mov    eax,DWORD PTR [ebp-0x30]
  402700:	85 c0                	test   eax,eax
  402702:	74 06                	je     40270a <_glob_match+0x16a>
  402704:	83 7e 08 10          	cmp    DWORD PTR [esi+0x8],0x10
  402708:	75 de                	jne    4026e8 <_glob_match+0x148>
  40270a:	8b 4d cc             	mov    ecx,DWORD PTR [ebp-0x34]
  40270d:	8d 5e 0c             	lea    ebx,[esi+0xc]
  402710:	8b 45 c0             	mov    eax,DWORD PTR [ebp-0x40]
  402713:	89 da                	mov    edx,ebx
  402715:	e8 36 fb ff ff       	call   402250 <_glob_strcmp>
  40271a:	85 c0                	test   eax,eax
  40271c:	75 ca                	jne    4026e8 <_glob_match+0x148>
  40271e:	0f b7 56 06          	movzx  edx,WORD PTR [esi+0x6]
  402722:	8b 4d b4             	mov    ecx,DWORD PTR [ebp-0x4c]
  402725:	89 65 b0             	mov    DWORD PTR [ebp-0x50],esp
  402728:	8d 44 11 11          	lea    eax,[ecx+edx*1+0x11]
  40272c:	83 e0 f0             	and    eax,0xfffffff0
  40272f:	e8 ec f7 ff ff       	call   401f20 <___chkstk_ms>
  402734:	29 c4                	sub    esp,eax
  402736:	31 c0                	xor    eax,eax
  402738:	8d 7c 24 0c          	lea    edi,[esp+0xc]
  40273c:	85 c9                	test   ecx,ecx
  40273e:	89 7d ac             	mov    DWORD PTR [ebp-0x54],edi
  402741:	0f 85 ed 01 00 00    	jne    402934 <_glob_match+0x394>
  402747:	83 c2 01             	add    edx,0x1
  40274a:	01 f8                	add    eax,edi
  40274c:	89 54 24 08          	mov    DWORD PTR [esp+0x8],edx
  402750:	89 5c 24 04          	mov    DWORD PTR [esp+0x4],ebx
  402754:	89 e3                	mov    ebx,esp
  402756:	89 04 24             	mov    DWORD PTR [esp],eax
  402759:	e8 1a 58 00 00       	call   407f78 <_memcpy>
  40275e:	89 3c 24             	mov    DWORD PTR [esp],edi
  402761:	e8 da 57 00 00       	call   407f40 <_strlen>
  402766:	83 c0 10             	add    eax,0x10
  402769:	83 e0 f0             	and    eax,0xfffffff0
  40276c:	e8 af f7 ff ff       	call   401f20 <___chkstk_ms>
  402771:	8b 75 ac             	mov    esi,DWORD PTR [ebp-0x54]
  402774:	29 c4                	sub    esp,eax
  402776:	8d 4c 24 0c          	lea    ecx,[esp+0xc]
  40277a:	89 ca                	mov    edx,ecx
  40277c:	eb 0f                	jmp    40278d <_glob_match+0x1ed>
  40277e:	66 90                	xchg   ax,ax
  402780:	83 c2 01             	add    edx,0x1
  402783:	83 c6 01             	add    esi,0x1
  402786:	84 c0                	test   al,al
  402788:	88 42 ff             	mov    BYTE PTR [edx-0x1],al
  40278b:	74 1b                	je     4027a8 <_glob_match+0x208>
  40278d:	0f b6 06             	movzx  eax,BYTE PTR [esi]
  402790:	3c 7f                	cmp    al,0x7f
  402792:	75 ec                	jne    402780 <_glob_match+0x1e0>
  402794:	0f b6 46 01          	movzx  eax,BYTE PTR [esi+0x1]
  402798:	83 c6 01             	add    esi,0x1
  40279b:	83 c2 01             	add    edx,0x1
  40279e:	83 c6 01             	add    esi,0x1
  4027a1:	84 c0                	test   al,al
  4027a3:	88 42 ff             	mov    BYTE PTR [edx-0x1],al
  4027a6:	75 e5                	jne    40278d <_glob_match+0x1ed>
  4027a8:	89 0c 24             	mov    DWORD PTR [esp],ecx
  4027ab:	e8 78 5b 00 00       	call   408328 <_strdup>
  4027b0:	89 dc                	mov    esp,ebx
  4027b2:	85 c0                	test   eax,eax
  4027b4:	89 c6                	mov    esi,eax
  4027b6:	0f 84 c6 01 00 00    	je     402982 <_glob_match+0x3e2>
  4027bc:	31 c0                	xor    eax,eax
  4027be:	83 7d c4 02          	cmp    DWORD PTR [ebp-0x3c],0x2
  4027c2:	0f 94 c0             	sete   al
  4027c5:	83 e8 01             	sub    eax,0x1
  4027c8:	21 45 c4             	and    DWORD PTR [ebp-0x3c],eax
  4027cb:	8b 45 a8             	mov    eax,DWORD PTR [ebp-0x58]
  4027ce:	85 c0                	test   eax,eax
  4027d0:	0f 85 9d 01 00 00    	jne    402973 <_glob_match+0x3d3>
  4027d6:	8b 5d bc             	mov    ebx,DWORD PTR [ebp-0x44]
  4027d9:	85 db                	test   ebx,ebx
  4027db:	0f 84 bb 02 00 00    	je     402a9c <_glob_match+0x4fc>
  4027e1:	8b 7d cc             	mov    edi,DWORD PTR [ebp-0x34]
  4027e4:	81 e7 00 40 00 00    	and    edi,0x4000
  4027ea:	eb 18                	jmp    402804 <_glob_match+0x264>
  4027ec:	8d 74 26 00          	lea    esi,[esi+eiz*1+0x0]
  4027f0:	e8 53 57 00 00       	call   407f48 <_strcoll>
  4027f5:	8b 0b                	mov    ecx,DWORD PTR [ebx]
  4027f7:	8b 53 04             	mov    edx,DWORD PTR [ebx+0x4]
  4027fa:	85 c0                	test   eax,eax
  4027fc:	7e 22                	jle    402820 <_glob_match+0x280>
  4027fe:	85 d2                	test   edx,edx
  402800:	74 24                	je     402826 <_glob_match+0x286>
  402802:	89 d3                	mov    ebx,edx
  402804:	8b 43 08             	mov    eax,DWORD PTR [ebx+0x8]
  402807:	85 ff                	test   edi,edi
  402809:	89 34 24             	mov    DWORD PTR [esp],esi
  40280c:	89 44 24 04          	mov    DWORD PTR [esp+0x4],eax
  402810:	75 de                	jne    4027f0 <_glob_match+0x250>
  402812:	e8 09 5b 00 00       	call   408320 <_stricoll>
  402817:	8b 0b                	mov    ecx,DWORD PTR [ebx]
  402819:	8b 53 04             	mov    edx,DWORD PTR [ebx+0x4]
  40281c:	85 c0                	test   eax,eax
  40281e:	7f de                	jg     4027fe <_glob_match+0x25e>
  402820:	89 ca                	mov    edx,ecx
  402822:	85 d2                	test   edx,edx
  402824:	75 dc                	jne    402802 <_glob_match+0x262>
  402826:	89 c1                	mov    ecx,eax
  402828:	89 4d ac             	mov    DWORD PTR [ebp-0x54],ecx
  40282b:	c7 04 24 0c 00 00 00 	mov    DWORD PTR [esp],0xc
  402832:	e8 51 57 00 00       	call   407f88 <_malloc>
  402837:	85 c0                	test   eax,eax
  402839:	74 22                	je     40285d <_glob_match+0x2bd>
  40283b:	85 db                	test   ebx,ebx
  40283d:	89 70 08             	mov    DWORD PTR [eax+0x8],esi
  402840:	c7 40 04 00 00 00 00 	mov    DWORD PTR [eax+0x4],0x0
  402847:	c7 00 00 00 00 00    	mov    DWORD PTR [eax],0x0
  40284d:	74 0e                	je     40285d <_glob_match+0x2bd>
  40284f:	8b 4d ac             	mov    ecx,DWORD PTR [ebp-0x54]
  402852:	85 c9                	test   ecx,ecx
  402854:	0f 8e 16 02 00 00    	jle    402a70 <_glob_match+0x4d0>
  40285a:	89 43 04             	mov    DWORD PTR [ebx+0x4],eax
  40285d:	8b 7d bc             	mov    edi,DWORD PTR [ebp-0x44]
  402860:	85 ff                	test   edi,edi
  402862:	0f 84 15 02 00 00    	je     402a7d <_glob_match+0x4dd>
  402868:	8b 65 b0             	mov    esp,DWORD PTR [ebp-0x50]
  40286b:	e9 78 fe ff ff       	jmp    4026e8 <_glob_match+0x148>
  402870:	8b 45 b8             	mov    eax,DWORD PTR [ebp-0x48]
  402873:	89 e6                	mov    esi,esp
  402875:	89 04 24             	mov    DWORD PTR [esp],eax
  402878:	e8 c3 56 00 00       	call   407f40 <_strlen>
  40287d:	83 c0 10             	add    eax,0x10
  402880:	83 e0 f0             	and    eax,0xfffffff0
  402883:	e8 98 f6 ff ff       	call   401f20 <___chkstk_ms>
  402888:	8b 55 b8             	mov    edx,DWORD PTR [ebp-0x48]
  40288b:	29 c4                	sub    esp,eax
  40288d:	8d 7c 24 0c          	lea    edi,[esp+0xc]
  402891:	89 f9                	mov    ecx,edi
  402893:	eb 0d                	jmp    4028a2 <_glob_match+0x302>
  402895:	83 c1 01             	add    ecx,0x1
  402898:	83 c2 01             	add    edx,0x1
  40289b:	84 c0                	test   al,al
  40289d:	88 41 ff             	mov    BYTE PTR [ecx-0x1],al
  4028a0:	74 1b                	je     4028bd <_glob_match+0x31d>
  4028a2:	0f b6 02             	movzx  eax,BYTE PTR [edx]
  4028a5:	3c 7f                	cmp    al,0x7f
  4028a7:	75 ec                	jne    402895 <_glob_match+0x2f5>
  4028a9:	0f b6 42 01          	movzx  eax,BYTE PTR [edx+0x1]
  4028ad:	83 c2 01             	add    edx,0x1
  4028b0:	83 c1 01             	add    ecx,0x1
  4028b3:	83 c2 01             	add    edx,0x1
  4028b6:	84 c0                	test   al,al
  4028b8:	88 41 ff             	mov    BYTE PTR [ecx-0x1],al
  4028bb:	75 e5                	jne    4028a2 <_glob_match+0x302>
  4028bd:	89 3c 24             	mov    DWORD PTR [esp],edi
  4028c0:	e8 63 5a 00 00       	call   408328 <_strdup>
  4028c5:	89 f4                	mov    esp,esi
  4028c7:	89 c1                	mov    ecx,eax
  4028c9:	b8 01 00 00 00       	mov    eax,0x1
  4028ce:	85 c9                	test   ecx,ecx
  4028d0:	0f 84 25 fd ff ff    	je     4025fb <_glob_match+0x5b>
  4028d6:	8d 55 d8             	lea    edx,[ebp-0x28]
  4028d9:	89 c8                	mov    eax,ecx
  4028db:	e8 f0 fb ff ff       	call   4024d0 <_glob_store_entry.part.2>
  4028e0:	e9 48 fd ff ff       	jmp    40262d <_glob_match+0x8d>
  4028e5:	8b 45 d4             	mov    eax,DWORD PTR [ebp-0x2c]
  4028e8:	89 04 24             	mov    DWORD PTR [esp],eax
  4028eb:	e8 a0 0a 00 00       	call   403390 <___mingw_closedir>
  4028f0:	8b 75 bc             	mov    esi,DWORD PTR [ebp-0x44]
  4028f3:	85 f6                	test   esi,esi
  4028f5:	74 0b                	je     402902 <_glob_match+0x362>
  4028f7:	8b 55 08             	mov    edx,DWORD PTR [ebp+0x8]
  4028fa:	8b 45 bc             	mov    eax,DWORD PTR [ebp-0x44]
  4028fd:	e8 5e fc ff ff       	call   402560 <_glob_store_collated_entries>
  402902:	83 45 c8 04          	add    DWORD PTR [ebp-0x38],0x4
  402906:	8b 7d c8             	mov    edi,DWORD PTR [ebp-0x38]
  402909:	8b 47 fc             	mov    eax,DWORD PTR [edi-0x4]
  40290c:	89 04 24             	mov    DWORD PTR [esp],eax
  40290f:	e8 9c 56 00 00       	call   407fb0 <_free>
  402914:	8b 07                	mov    eax,DWORD PTR [edi]
  402916:	85 c0                	test   eax,eax
  402918:	0f 85 82 fd ff ff    	jne    4026a0 <_glob_match+0x100>
  40291e:	8b 45 e0             	mov    eax,DWORD PTR [ebp-0x20]
  402921:	89 04 24             	mov    DWORD PTR [esp],eax
  402924:	e8 87 56 00 00       	call   407fb0 <_free>
  402929:	8b 45 c4             	mov    eax,DWORD PTR [ebp-0x3c]
  40292c:	8d 65 f4             	lea    esp,[ebp-0xc]
  40292f:	5b                   	pop    ebx
  402930:	5e                   	pop    esi
  402931:	5f                   	pop    edi
  402932:	5d                   	pop    ebp
  402933:	c3                   	ret    
  402934:	8b 45 c8             	mov    eax,DWORD PTR [ebp-0x38]
  402937:	8b 75 b4             	mov    esi,DWORD PTR [ebp-0x4c]
  40293a:	89 55 9c             	mov    DWORD PTR [ebp-0x64],edx
  40293d:	8b 00                	mov    eax,DWORD PTR [eax]
  40293f:	89 74 24 08          	mov    DWORD PTR [esp+0x8],esi
  402943:	89 3c 24             	mov    DWORD PTR [esp],edi
  402946:	89 44 24 04          	mov    DWORD PTR [esp+0x4],eax
  40294a:	e8 29 56 00 00       	call   407f78 <_memcpy>
  40294f:	0f b6 44 34 0b       	movzx  eax,BYTE PTR [esp+esi*1+0xb]
  402954:	8b 55 9c             	mov    edx,DWORD PTR [ebp-0x64]
  402957:	3c 5c                	cmp    al,0x5c
  402959:	74 35                	je     402990 <_glob_match+0x3f0>
  40295b:	3c 2f                	cmp    al,0x2f
  40295d:	74 31                	je     402990 <_glob_match+0x3f0>
  40295f:	8b 75 b4             	mov    esi,DWORD PTR [ebp-0x4c]
  402962:	0f b6 4d a3          	movzx  ecx,BYTE PTR [ebp-0x5d]
  402966:	89 f0                	mov    eax,esi
  402968:	83 c0 01             	add    eax,0x1
  40296b:	88 0c 37             	mov    BYTE PTR [edi+esi*1],cl
  40296e:	e9 d4 fd ff ff       	jmp    402747 <_glob_match+0x1a7>
  402973:	8b 55 08             	mov    edx,DWORD PTR [ebp+0x8]
  402976:	89 f0                	mov    eax,esi
  402978:	e8 c3 fb ff ff       	call   402540 <_glob_store_entry>
  40297d:	e9 e6 fe ff ff       	jmp    402868 <_glob_match+0x2c8>
  402982:	c7 45 c4 03 00 00 00 	mov    DWORD PTR [ebp-0x3c],0x3
  402989:	e9 da fe ff ff       	jmp    402868 <_glob_match+0x2c8>
  40298e:	66 90                	xchg   ax,ax
  402990:	8b 45 b4             	mov    eax,DWORD PTR [ebp-0x4c]
  402993:	e9 af fd ff ff       	jmp    402747 <_glob_match+0x1a7>
  402998:	8b 45 b8             	mov    eax,DWORD PTR [ebp-0x48]
  40299b:	89 04 24             	mov    DWORD PTR [esp],eax
  40299e:	e8 9d 55 00 00       	call   407f40 <_strlen>
  4029a3:	01 d8                	add    eax,ebx
  4029a5:	39 c3                	cmp    ebx,eax
  4029a7:	0f 83 94 01 00 00    	jae    402b41 <_glob_match+0x5a1>
  4029ad:	0f b6 10             	movzx  edx,BYTE PTR [eax]
  4029b0:	80 fa 2f             	cmp    dl,0x2f
  4029b3:	0f 84 7d 01 00 00    	je     402b36 <_glob_match+0x596>
  4029b9:	80 fa 5c             	cmp    dl,0x5c
  4029bc:	75 1d                	jne    4029db <_glob_match+0x43b>
  4029be:	66 90                	xchg   ax,ax
  4029c0:	e9 71 01 00 00       	jmp    402b36 <_glob_match+0x596>
  4029c5:	0f b6 40 ff          	movzx  eax,BYTE PTR [eax-0x1]
  4029c9:	3c 5c                	cmp    al,0x5c
  4029cb:	0f 84 c0 00 00 00    	je     402a91 <_glob_match+0x4f1>
  4029d1:	3c 2f                	cmp    al,0x2f
  4029d3:	0f 84 b8 00 00 00    	je     402a91 <_glob_match+0x4f1>
  4029d9:	89 d0                	mov    eax,edx
  4029db:	8d 50 ff             	lea    edx,[eax-0x1]
  4029de:	39 da                	cmp    edx,ebx
  4029e0:	75 e3                	jne    4029c5 <_glob_match+0x425>
  4029e2:	0f b6 40 ff          	movzx  eax,BYTE PTR [eax-0x1]
  4029e6:	89 55 c0             	mov    DWORD PTR [ebp-0x40],edx
  4029e9:	88 45 a3             	mov    BYTE PTR [ebp-0x5d],al
  4029ec:	80 7d a3 5c          	cmp    BYTE PTR [ebp-0x5d],0x5c
  4029f0:	0f 85 0c 01 00 00    	jne    402b02 <_glob_match+0x562>
  4029f6:	8b 45 c0             	mov    eax,DWORD PTR [ebp-0x40]
  4029f9:	0f b6 4d a3          	movzx  ecx,BYTE PTR [ebp-0x5d]
  4029fd:	83 c0 01             	add    eax,0x1
  402a00:	0f b6 10             	movzx  edx,BYTE PTR [eax]
  402a03:	80 fa 5c             	cmp    dl,0x5c
  402a06:	75 0d                	jne    402a15 <_glob_match+0x475>
  402a08:	83 c0 01             	add    eax,0x1
  402a0b:	89 d1                	mov    ecx,edx
  402a0d:	0f b6 10             	movzx  edx,BYTE PTR [eax]
  402a10:	80 fa 5c             	cmp    dl,0x5c
  402a13:	74 f3                	je     402a08 <_glob_match+0x468>
  402a15:	80 fa 2f             	cmp    dl,0x2f
  402a18:	74 ee                	je     402a08 <_glob_match+0x468>
  402a1a:	89 45 c0             	mov    DWORD PTR [ebp-0x40],eax
  402a1d:	88 4d a3             	mov    BYTE PTR [ebp-0x5d],cl
  402a20:	8b 45 b8             	mov    eax,DWORD PTR [ebp-0x48]
  402a23:	85 c0                	test   eax,eax
  402a25:	0f 85 47 fc ff ff    	jne    402672 <_glob_match+0xd2>
  402a2b:	8b 5d c0             	mov    ebx,DWORD PTR [ebp-0x40]
  402a2e:	e9 2b fc ff ff       	jmp    40265e <_glob_match+0xbe>
  402a33:	8b 5d 98             	mov    ebx,DWORD PTR [ebp-0x68]
  402a36:	85 db                	test   ebx,ebx
  402a38:	75 28                	jne    402a62 <_glob_match+0x4c2>
  402a3a:	8b 7d a4             	mov    edi,DWORD PTR [ebp-0x5c]
  402a3d:	85 ff                	test   edi,edi
  402a3f:	0f 84 bd fe ff ff    	je     402902 <_glob_match+0x362>
  402a45:	e8 9e 55 00 00       	call   407fe8 <__errno>
  402a4a:	8b 00                	mov    eax,DWORD PTR [eax]
  402a4c:	89 44 24 04          	mov    DWORD PTR [esp+0x4],eax
  402a50:	8b 45 c8             	mov    eax,DWORD PTR [ebp-0x38]
  402a53:	8b 00                	mov    eax,DWORD PTR [eax]
  402a55:	89 04 24             	mov    DWORD PTR [esp],eax
  402a58:	ff d7                	call   edi
  402a5a:	85 c0                	test   eax,eax
  402a5c:	0f 84 a0 fe ff ff    	je     402902 <_glob_match+0x362>
  402a62:	c7 45 c4 01 00 00 00 	mov    DWORD PTR [ebp-0x3c],0x1
  402a69:	e9 94 fe ff ff       	jmp    402902 <_glob_match+0x362>
  402a6e:	66 90                	xchg   ax,ax
  402a70:	8b 7d bc             	mov    edi,DWORD PTR [ebp-0x44]
  402a73:	89 03                	mov    DWORD PTR [ebx],eax
  402a75:	85 ff                	test   edi,edi
  402a77:	0f 85 eb fd ff ff    	jne    402868 <_glob_match+0x2c8>
  402a7d:	89 45 bc             	mov    DWORD PTR [ebp-0x44],eax
  402a80:	e9 e3 fd ff ff       	jmp    402868 <_glob_match+0x2c8>
  402a85:	c7 45 b4 00 00 00 00 	mov    DWORD PTR [ebp-0x4c],0x0
  402a8c:	e9 47 fc ff ff       	jmp    4026d8 <_glob_match+0x138>
  402a91:	89 55 c0             	mov    DWORD PTR [ebp-0x40],edx
  402a94:	88 45 a3             	mov    BYTE PTR [ebp-0x5d],al
  402a97:	e9 50 ff ff ff       	jmp    4029ec <_glob_match+0x44c>
  402a9c:	31 db                	xor    ebx,ebx
  402a9e:	31 c9                	xor    ecx,ecx
  402aa0:	e9 83 fd ff ff       	jmp    402828 <_glob_match+0x288>
  402aa5:	8b 55 cc             	mov    edx,DWORD PTR [ebp-0x34]
  402aa8:	89 d8                	mov    eax,ebx
  402aaa:	e8 a1 f4 ff ff       	call   401f50 <_is_glob_pattern>
  402aaf:	85 c0                	test   eax,eax
  402ab1:	0f 85 bb fb ff ff    	jne    402672 <_glob_match+0xd2>
  402ab7:	89 1c 24             	mov    DWORD PTR [esp],ebx
  402aba:	89 e6                	mov    esi,esp
  402abc:	e8 7f 54 00 00       	call   407f40 <_strlen>
  402ac1:	83 c0 10             	add    eax,0x10
  402ac4:	83 e0 f0             	and    eax,0xfffffff0
  402ac7:	e8 54 f4 ff ff       	call   401f20 <___chkstk_ms>
  402acc:	29 c4                	sub    esp,eax
  402ace:	8d 4c 24 0c          	lea    ecx,[esp+0xc]
  402ad2:	89 ca                	mov    edx,ecx
  402ad4:	eb 0d                	jmp    402ae3 <_glob_match+0x543>
  402ad6:	83 c2 01             	add    edx,0x1
  402ad9:	83 c3 01             	add    ebx,0x1
  402adc:	84 c0                	test   al,al
  402ade:	88 42 ff             	mov    BYTE PTR [edx-0x1],al
  402ae1:	74 32                	je     402b15 <_glob_match+0x575>
  402ae3:	0f b6 03             	movzx  eax,BYTE PTR [ebx]
  402ae6:	3c 7f                	cmp    al,0x7f
  402ae8:	75 ec                	jne    402ad6 <_glob_match+0x536>
  402aea:	0f b6 43 01          	movzx  eax,BYTE PTR [ebx+0x1]
  402aee:	83 c3 01             	add    ebx,0x1
  402af1:	eb e3                	jmp    402ad6 <_glob_match+0x536>
  402af3:	8b 45 c8             	mov    eax,DWORD PTR [ebp-0x38]
  402af6:	c7 45 c4 02 00 00 00 	mov    DWORD PTR [ebp-0x3c],0x2
  402afd:	e9 1f fe ff ff       	jmp    402921 <_glob_match+0x381>
  402b02:	80 7d a3 2f          	cmp    BYTE PTR [ebp-0x5d],0x2f
  402b06:	0f 84 ea fe ff ff    	je     4029f6 <_glob_match+0x456>
  402b0c:	c6 45 a3 5c          	mov    BYTE PTR [ebp-0x5d],0x5c
  402b10:	e9 0b ff ff ff       	jmp    402a20 <_glob_match+0x480>
  402b15:	89 0c 24             	mov    DWORD PTR [esp],ecx
  402b18:	e8 0b 58 00 00       	call   408328 <_strdup>
  402b1d:	8b 55 08             	mov    edx,DWORD PTR [ebp+0x8]
  402b20:	89 f4                	mov    esp,esi
  402b22:	e8 19 fa ff ff       	call   402540 <_glob_store_entry>
  402b27:	8b 45 e0             	mov    eax,DWORD PTR [ebp-0x20]
  402b2a:	c7 45 c4 00 00 00 00 	mov    DWORD PTR [ebp-0x3c],0x0
  402b31:	e9 eb fd ff ff       	jmp    402921 <_glob_match+0x381>
  402b36:	88 55 a3             	mov    BYTE PTR [ebp-0x5d],dl
  402b39:	89 45 c0             	mov    DWORD PTR [ebp-0x40],eax
  402b3c:	e9 ab fe ff ff       	jmp    4029ec <_glob_match+0x44c>
  402b41:	0f b6 08             	movzx  ecx,BYTE PTR [eax]
  402b44:	89 45 c0             	mov    DWORD PTR [ebp-0x40],eax
  402b47:	88 4d a3             	mov    BYTE PTR [ebp-0x5d],cl
  402b4a:	e9 9d fe ff ff       	jmp    4029ec <_glob_match+0x44c>
  402b4f:	90                   	nop

00402b50 <___mingw_glob>:
  402b50:	55                   	push   ebp
  402b51:	89 e5                	mov    ebp,esp
  402b53:	57                   	push   edi
  402b54:	56                   	push   esi
  402b55:	53                   	push   ebx
  402b56:	83 ec 1c             	sub    esp,0x1c
  402b59:	8b 75 14             	mov    esi,DWORD PTR [ebp+0x14]
  402b5c:	8b 5d 08             	mov    ebx,DWORD PTR [ebp+0x8]
  402b5f:	81 3e 16 a1 40 00    	cmp    DWORD PTR [esi],0x40a116
  402b65:	74 0d                	je     402b74 <___mingw_glob+0x24>
  402b67:	89 f0                	mov    eax,esi
  402b69:	e8 82 f6 ff ff       	call   4021f0 <_glob_initialise>
  402b6e:	c7 06 16 a1 40 00    	mov    DWORD PTR [esi],0x40a116
  402b74:	89 34 24             	mov    DWORD PTR [esp],esi
  402b77:	8b 4d 10             	mov    ecx,DWORD PTR [ebp+0x10]
  402b7a:	89 d8                	mov    eax,ebx
  402b7c:	8b 55 0c             	mov    edx,DWORD PTR [ebp+0xc]
  402b7f:	e8 1c fa ff ff       	call   4025a0 <_glob_match>
  402b84:	83 f8 02             	cmp    eax,0x2
  402b87:	89 c7                	mov    edi,eax
  402b89:	74 0a                	je     402b95 <___mingw_glob+0x45>
  402b8b:	8d 65 f4             	lea    esp,[ebp-0xc]
  402b8e:	89 f8                	mov    eax,edi
  402b90:	5b                   	pop    ebx
  402b91:	5e                   	pop    esi
  402b92:	5f                   	pop    edi
  402b93:	5d                   	pop    ebp
  402b94:	c3                   	ret    
  402b95:	f6 45 0c 10          	test   BYTE PTR [ebp+0xc],0x10
  402b99:	74 f0                	je     402b8b <___mingw_glob+0x3b>
  402b9b:	89 65 e4             	mov    DWORD PTR [ebp-0x1c],esp
  402b9e:	89 1c 24             	mov    DWORD PTR [esp],ebx
  402ba1:	e8 9a 53 00 00       	call   407f40 <_strlen>
  402ba6:	83 c0 10             	add    eax,0x10
  402ba9:	83 e0 f0             	and    eax,0xfffffff0
  402bac:	e8 6f f3 ff ff       	call   401f20 <___chkstk_ms>
  402bb1:	29 c4                	sub    esp,eax
  402bb3:	8d 4c 24 04          	lea    ecx,[esp+0x4]
  402bb7:	89 ca                	mov    edx,ecx
  402bb9:	eb 12                	jmp    402bcd <___mingw_glob+0x7d>
  402bbb:	90                   	nop
  402bbc:	8d 74 26 00          	lea    esi,[esi+eiz*1+0x0]
  402bc0:	83 c2 01             	add    edx,0x1
  402bc3:	83 c3 01             	add    ebx,0x1
  402bc6:	84 c0                	test   al,al
  402bc8:	88 42 ff             	mov    BYTE PTR [edx-0x1],al
  402bcb:	74 1b                	je     402be8 <___mingw_glob+0x98>
  402bcd:	0f b6 03             	movzx  eax,BYTE PTR [ebx]
  402bd0:	3c 7f                	cmp    al,0x7f
  402bd2:	75 ec                	jne    402bc0 <___mingw_glob+0x70>
  402bd4:	0f b6 43 01          	movzx  eax,BYTE PTR [ebx+0x1]
  402bd8:	83 c3 01             	add    ebx,0x1
  402bdb:	83 c2 01             	add    edx,0x1
  402bde:	83 c3 01             	add    ebx,0x1
  402be1:	84 c0                	test   al,al
  402be3:	88 42 ff             	mov    BYTE PTR [edx-0x1],al
  402be6:	75 e5                	jne    402bcd <___mingw_glob+0x7d>
  402be8:	89 0c 24             	mov    DWORD PTR [esp],ecx
  402beb:	e8 38 57 00 00       	call   408328 <_strdup>
  402bf0:	8b 65 e4             	mov    esp,DWORD PTR [ebp-0x1c]
  402bf3:	89 f2                	mov    edx,esi
  402bf5:	e8 46 f9 ff ff       	call   402540 <_glob_store_entry>
  402bfa:	8d 65 f4             	lea    esp,[ebp-0xc]
  402bfd:	89 f8                	mov    eax,edi
  402bff:	5b                   	pop    ebx
  402c00:	5e                   	pop    esi
  402c01:	5f                   	pop    edi
  402c02:	5d                   	pop    ebp
  402c03:	c3                   	ret    
  402c04:	8d b6 00 00 00 00    	lea    esi,[esi+0x0]
  402c0a:	8d bf 00 00 00 00    	lea    edi,[edi+0x0]

00402c10 <___mingw_globfree>:
  402c10:	8b 44 24 04          	mov    eax,DWORD PTR [esp+0x4]
  402c14:	81 38 16 a1 40 00    	cmp    DWORD PTR [eax],0x40a116
  402c1a:	74 04                	je     402c20 <___mingw_globfree+0x10>
  402c1c:	f3 c3                	repz ret 
  402c1e:	66 90                	xchg   ax,ax
  402c20:	e9 5b f8 ff ff       	jmp    402480 <_glob_registry.part.1>
  402c25:	90                   	nop
  402c26:	90                   	nop
  402c27:	90                   	nop
  402c28:	90                   	nop
  402c29:	90                   	nop
  402c2a:	90                   	nop
  402c2b:	90                   	nop
  402c2c:	90                   	nop
  402c2d:	90                   	nop
  402c2e:	90                   	nop
  402c2f:	90                   	nop

00402c30 <___mingw_dirname>:
  402c30:	55                   	push   ebp
  402c31:	89 e5                	mov    ebp,esp
  402c33:	57                   	push   edi
  402c34:	56                   	push   esi
  402c35:	53                   	push   ebx
  402c36:	83 ec 3c             	sub    esp,0x3c
  402c39:	8b 75 08             	mov    esi,DWORD PTR [ebp+0x8]
  402c3c:	c7 44 24 04 00 00 00 	mov    DWORD PTR [esp+0x4],0x0
  402c43:	00 
  402c44:	c7 04 24 02 00 00 00 	mov    DWORD PTR [esp],0x2
  402c4b:	e8 10 53 00 00       	call   407f60 <_setlocale>
  402c50:	85 c0                	test   eax,eax
  402c52:	89 c3                	mov    ebx,eax
  402c54:	74 0a                	je     402c60 <___mingw_dirname+0x30>
  402c56:	89 04 24             	mov    DWORD PTR [esp],eax
  402c59:	e8 ca 56 00 00       	call   408328 <_strdup>
  402c5e:	89 c3                	mov    ebx,eax
  402c60:	c7 44 24 04 28 a1 40 	mov    DWORD PTR [esp+0x4],0x40a128
  402c67:	00 
  402c68:	c7 04 24 02 00 00 00 	mov    DWORD PTR [esp],0x2
  402c6f:	e8 ec 52 00 00       	call   407f60 <_setlocale>
  402c74:	85 f6                	test   esi,esi
  402c76:	74 05                	je     402c7d <___mingw_dirname+0x4d>
  402c78:	80 3e 00             	cmp    BYTE PTR [esi],0x0
  402c7b:	75 73                	jne    402cf0 <___mingw_dirname+0xc0>
  402c7d:	c7 44 24 08 00 00 00 	mov    DWORD PTR [esp+0x8],0x0
  402c84:	00 
  402c85:	c7 44 24 04 2a a1 40 	mov    DWORD PTR [esp+0x4],0x40a12a
  402c8c:	00 
  402c8d:	c7 04 24 00 00 00 00 	mov    DWORD PTR [esp],0x0
  402c94:	e8 87 52 00 00       	call   407f20 <_wcstombs>
  402c99:	8d 70 01             	lea    esi,[eax+0x1]
  402c9c:	89 74 24 04          	mov    DWORD PTR [esp+0x4],esi
  402ca0:	a1 68 d0 40 00       	mov    eax,ds:0x40d068
  402ca5:	89 04 24             	mov    DWORD PTR [esp],eax
  402ca8:	e8 bb 52 00 00       	call   407f68 <_realloc>
  402cad:	a3 68 d0 40 00       	mov    ds:0x40d068,eax
  402cb2:	89 74 24 08          	mov    DWORD PTR [esp+0x8],esi
  402cb6:	c7 44 24 04 2a a1 40 	mov    DWORD PTR [esp+0x4],0x40a12a
  402cbd:	00 
  402cbe:	89 04 24             	mov    DWORD PTR [esp],eax
  402cc1:	e8 5a 52 00 00       	call   407f20 <_wcstombs>
  402cc6:	89 5c 24 04          	mov    DWORD PTR [esp+0x4],ebx
  402cca:	c7 04 24 02 00 00 00 	mov    DWORD PTR [esp],0x2
  402cd1:	e8 8a 52 00 00       	call   407f60 <_setlocale>
  402cd6:	89 1c 24             	mov    DWORD PTR [esp],ebx
  402cd9:	e8 d2 52 00 00       	call   407fb0 <_free>
  402cde:	a1 68 d0 40 00       	mov    eax,ds:0x40d068
  402ce3:	8d 65 f4             	lea    esp,[ebp-0xc]
  402ce6:	5b                   	pop    ebx
  402ce7:	5e                   	pop    esi
  402ce8:	5f                   	pop    edi
  402ce9:	5d                   	pop    ebp
  402cea:	c3                   	ret    
  402ceb:	90                   	nop
  402cec:	8d 74 26 00          	lea    esi,[esi+eiz*1+0x0]
  402cf0:	89 65 d4             	mov    DWORD PTR [ebp-0x2c],esp
  402cf3:	c7 44 24 08 00 00 00 	mov    DWORD PTR [esp+0x8],0x0
  402cfa:	00 
  402cfb:	89 74 24 04          	mov    DWORD PTR [esp+0x4],esi
  402cff:	c7 04 24 00 00 00 00 	mov    DWORD PTR [esp],0x0
  402d06:	e8 75 52 00 00       	call   407f80 <_mbstowcs>
  402d0b:	89 c2                	mov    edx,eax
  402d0d:	8d 44 00 12          	lea    eax,[eax+eax*1+0x12]
  402d11:	83 e0 f0             	and    eax,0xfffffff0
  402d14:	e8 07 f2 ff ff       	call   401f20 <___chkstk_ms>
  402d19:	29 c4                	sub    esp,eax
  402d1b:	8d 44 24 0d          	lea    eax,[esp+0xd]
  402d1f:	89 45 e4             	mov    DWORD PTR [ebp-0x1c],eax
  402d22:	d1 6d e4             	shr    DWORD PTR [ebp-0x1c],1
  402d25:	8b 45 e4             	mov    eax,DWORD PTR [ebp-0x1c]
  402d28:	01 c0                	add    eax,eax
  402d2a:	89 45 e0             	mov    DWORD PTR [ebp-0x20],eax
  402d2d:	89 c7                	mov    edi,eax
  402d2f:	89 54 24 08          	mov    DWORD PTR [esp+0x8],edx
  402d33:	89 74 24 04          	mov    DWORD PTR [esp+0x4],esi
  402d37:	89 04 24             	mov    DWORD PTR [esp],eax
  402d3a:	e8 41 52 00 00       	call   407f80 <_mbstowcs>
  402d3f:	31 c9                	xor    ecx,ecx
  402d41:	66 89 0c 47          	mov    WORD PTR [edi+eax*2],cx
  402d45:	83 f8 01             	cmp    eax,0x1
  402d48:	89 45 d0             	mov    DWORD PTR [ebp-0x30],eax
  402d4b:	8b 45 e4             	mov    eax,DWORD PTR [ebp-0x1c]
  402d4e:	0f b7 04 00          	movzx  eax,WORD PTR [eax+eax*1]
  402d52:	66 89 45 da          	mov    WORD PTR [ebp-0x26],ax
  402d56:	0f 86 f2 00 00 00    	jbe    402e4e <___mingw_dirname+0x21e>
  402d5c:	66 83 f8 5c          	cmp    ax,0x5c
  402d60:	74 0a                	je     402d6c <___mingw_dirname+0x13c>
  402d62:	66 83 f8 2f          	cmp    ax,0x2f
  402d66:	0f 85 0a 01 00 00    	jne    402e76 <___mingw_dirname+0x246>
  402d6c:	8b 7d e0             	mov    edi,DWORD PTR [ebp-0x20]
  402d6f:	89 7d dc             	mov    DWORD PTR [ebp-0x24],edi
  402d72:	8b 7d e4             	mov    edi,DWORD PTR [ebp-0x1c]
  402d75:	66 3b 44 3f 02       	cmp    ax,WORD PTR [edi+edi*1+0x2]
  402d7a:	0f 84 4f 02 00 00    	je     402fcf <___mingw_dirname+0x39f>
  402d80:	0f b7 45 da          	movzx  eax,WORD PTR [ebp-0x26]
  402d84:	66 85 c0             	test   ax,ax
  402d87:	0f 84 fa 01 00 00    	je     402f87 <___mingw_dirname+0x357>
  402d8d:	8b 55 dc             	mov    edx,DWORD PTR [ebp-0x24]
  402d90:	89 d7                	mov    edi,edx
  402d92:	eb 14                	jmp    402da8 <___mingw_dirname+0x178>
  402d94:	66 83 f8 2f          	cmp    ax,0x2f
  402d98:	74 20                	je     402dba <___mingw_dirname+0x18a>
  402d9a:	0f b7 42 02          	movzx  eax,WORD PTR [edx+0x2]
  402d9e:	8d 4a 02             	lea    ecx,[edx+0x2]
  402da1:	66 85 c0             	test   ax,ax
  402da4:	74 36                	je     402ddc <___mingw_dirname+0x1ac>
  402da6:	89 ca                	mov    edx,ecx
  402da8:	66 83 f8 5c          	cmp    ax,0x5c
  402dac:	75 e6                	jne    402d94 <___mingw_dirname+0x164>
  402dae:	0f b7 02             	movzx  eax,WORD PTR [edx]
  402db1:	66 83 f8 5c          	cmp    ax,0x5c
  402db5:	75 0c                	jne    402dc3 <___mingw_dirname+0x193>
  402db7:	83 c2 02             	add    edx,0x2
  402dba:	0f b7 02             	movzx  eax,WORD PTR [edx]
  402dbd:	66 83 f8 5c          	cmp    ax,0x5c
  402dc1:	74 f4                	je     402db7 <___mingw_dirname+0x187>
  402dc3:	66 83 f8 2f          	cmp    ax,0x2f
  402dc7:	74 ee                	je     402db7 <___mingw_dirname+0x187>
  402dc9:	66 85 c0             	test   ax,ax
  402dcc:	74 0e                	je     402ddc <___mingw_dirname+0x1ac>
  402dce:	0f b7 42 02          	movzx  eax,WORD PTR [edx+0x2]
  402dd2:	89 d7                	mov    edi,edx
  402dd4:	8d 4a 02             	lea    ecx,[edx+0x2]
  402dd7:	66 85 c0             	test   ax,ax
  402dda:	75 ca                	jne    402da6 <___mingw_dirname+0x176>
  402ddc:	8b 4d dc             	mov    ecx,DWORD PTR [ebp-0x24]
  402ddf:	39 f9                	cmp    ecx,edi
  402de1:	72 7e                	jb     402e61 <___mingw_dirname+0x231>
  402de3:	66 83 7d da 5c       	cmp    WORD PTR [ebp-0x26],0x5c
  402de8:	74 0b                	je     402df5 <___mingw_dirname+0x1c5>
  402dea:	66 83 7d da 2f       	cmp    WORD PTR [ebp-0x26],0x2f
  402def:	0f 85 ba 01 00 00    	jne    402faf <___mingw_dirname+0x37f>
  402df5:	8b 45 dc             	mov    eax,DWORD PTR [ebp-0x24]
  402df8:	83 c0 02             	add    eax,0x2
  402dfb:	31 d2                	xor    edx,edx
  402dfd:	66 89 10             	mov    WORD PTR [eax],dx
  402e00:	c7 44 24 08 00 00 00 	mov    DWORD PTR [esp+0x8],0x0
  402e07:	00 
  402e08:	8b 45 e0             	mov    eax,DWORD PTR [ebp-0x20]
  402e0b:	c7 04 24 00 00 00 00 	mov    DWORD PTR [esp],0x0
  402e12:	89 44 24 04          	mov    DWORD PTR [esp+0x4],eax
  402e16:	e8 05 51 00 00       	call   407f20 <_wcstombs>
  402e1b:	8d 78 01             	lea    edi,[eax+0x1]
  402e1e:	89 7c 24 04          	mov    DWORD PTR [esp+0x4],edi
  402e22:	a1 68 d0 40 00       	mov    eax,ds:0x40d068
  402e27:	89 04 24             	mov    DWORD PTR [esp],eax
  402e2a:	e8 39 51 00 00       	call   407f68 <_realloc>
  402e2f:	a3 68 d0 40 00       	mov    ds:0x40d068,eax
  402e34:	89 c6                	mov    esi,eax
  402e36:	89 7c 24 08          	mov    DWORD PTR [esp+0x8],edi
  402e3a:	8b 45 e0             	mov    eax,DWORD PTR [ebp-0x20]
  402e3d:	89 34 24             	mov    DWORD PTR [esp],esi
  402e40:	89 44 24 04          	mov    DWORD PTR [esp+0x4],eax
  402e44:	e8 d7 50 00 00       	call   407f20 <_wcstombs>
  402e49:	e9 e9 00 00 00       	jmp    402f37 <___mingw_dirname+0x307>
  402e4e:	8b 45 e0             	mov    eax,DWORD PTR [ebp-0x20]
  402e51:	89 45 dc             	mov    DWORD PTR [ebp-0x24],eax
  402e54:	e9 27 ff ff ff       	jmp    402d80 <___mingw_dirname+0x150>
  402e59:	66 83 fa 2f          	cmp    dx,0x2f
  402e5d:	75 46                	jne    402ea5 <___mingw_dirname+0x275>
  402e5f:	89 c7                	mov    edi,eax
  402e61:	8d 47 fe             	lea    eax,[edi-0x2]
  402e64:	39 c1                	cmp    ecx,eax
  402e66:	73 3d                	jae    402ea5 <___mingw_dirname+0x275>
  402e68:	0f b7 57 fe          	movzx  edx,WORD PTR [edi-0x2]
  402e6c:	66 83 fa 5c          	cmp    dx,0x5c
  402e70:	75 e7                	jne    402e59 <___mingw_dirname+0x229>
  402e72:	89 c7                	mov    edi,eax
  402e74:	eb eb                	jmp    402e61 <___mingw_dirname+0x231>
  402e76:	8b 45 e0             	mov    eax,DWORD PTR [ebp-0x20]
  402e79:	89 45 dc             	mov    DWORD PTR [ebp-0x24],eax
  402e7c:	8b 45 e4             	mov    eax,DWORD PTR [ebp-0x1c]
  402e7f:	66 83 7c 00 02 3a    	cmp    WORD PTR [eax+eax*1+0x2],0x3a
  402e85:	0f 85 f5 fe ff ff    	jne    402d80 <___mingw_dirname+0x150>
  402e8b:	8b 45 e0             	mov    eax,DWORD PTR [ebp-0x20]
  402e8e:	83 c0 04             	add    eax,0x4
  402e91:	89 45 dc             	mov    DWORD PTR [ebp-0x24],eax
  402e94:	8b 45 e4             	mov    eax,DWORD PTR [ebp-0x1c]
  402e97:	0f b7 44 00 04       	movzx  eax,WORD PTR [eax+eax*1+0x4]
  402e9c:	66 89 45 da          	mov    WORD PTR [ebp-0x26],ax
  402ea0:	e9 db fe ff ff       	jmp    402d80 <___mingw_dirname+0x150>
  402ea5:	39 45 dc             	cmp    DWORD PTR [ebp-0x24],eax
  402ea8:	0f 84 37 01 00 00    	je     402fe5 <___mingw_dirname+0x3b5>
  402eae:	31 d2                	xor    edx,edx
  402eb0:	66 89 50 02          	mov    WORD PTR [eax+0x2],dx
  402eb4:	8b 45 e4             	mov    eax,DWORD PTR [ebp-0x1c]
  402eb7:	0f b7 14 00          	movzx  edx,WORD PTR [eax+eax*1]
  402ebb:	8b 45 e0             	mov    eax,DWORD PTR [ebp-0x20]
  402ebe:	66 83 fa 5c          	cmp    dx,0x5c
  402ec2:	0f 85 c7 00 00 00    	jne    402f8f <___mingw_dirname+0x35f>
  402ec8:	83 c0 02             	add    eax,0x2
  402ecb:	0f b7 08             	movzx  ecx,WORD PTR [eax]
  402ece:	66 83 f9 5c          	cmp    cx,0x5c
  402ed2:	74 f4                	je     402ec8 <___mingw_dirname+0x298>
  402ed4:	66 83 f9 2f          	cmp    cx,0x2f
  402ed8:	74 ee                	je     402ec8 <___mingw_dirname+0x298>
  402eda:	89 c1                	mov    ecx,eax
  402edc:	2b 4d e0             	sub    ecx,DWORD PTR [ebp-0x20]
  402edf:	83 f9 05             	cmp    ecx,0x5
  402ee2:	0f 8e b1 00 00 00    	jle    402f99 <___mingw_dirname+0x369>
  402ee8:	8b 45 e0             	mov    eax,DWORD PTR [ebp-0x20]
  402eeb:	89 c1                	mov    ecx,eax
  402eed:	66 85 d2             	test   dx,dx
  402ef0:	74 21                	je     402f13 <___mingw_dirname+0x2e3>
  402ef2:	83 c1 02             	add    ecx,0x2
  402ef5:	66 83 fa 2f          	cmp    dx,0x2f
  402ef9:	66 89 51 fe          	mov    WORD PTR [ecx-0x2],dx
  402efd:	74 63                	je     402f62 <___mingw_dirname+0x332>
  402eff:	66 83 38 5c          	cmp    WORD PTR [eax],0x5c
  402f03:	8d 78 02             	lea    edi,[eax+0x2]
  402f06:	74 58                	je     402f60 <___mingw_dirname+0x330>
  402f08:	0f b7 50 02          	movzx  edx,WORD PTR [eax+0x2]
  402f0c:	89 f8                	mov    eax,edi
  402f0e:	66 85 d2             	test   dx,dx
  402f11:	75 df                	jne    402ef2 <___mingw_dirname+0x2c2>
  402f13:	8b 45 d0             	mov    eax,DWORD PTR [ebp-0x30]
  402f16:	31 ff                	xor    edi,edi
  402f18:	66 89 39             	mov    WORD PTR [ecx],di
  402f1b:	89 44 24 08          	mov    DWORD PTR [esp+0x8],eax
  402f1f:	8b 45 e0             	mov    eax,DWORD PTR [ebp-0x20]
  402f22:	89 34 24             	mov    DWORD PTR [esp],esi
  402f25:	89 44 24 04          	mov    DWORD PTR [esp+0x4],eax
  402f29:	e8 f2 4f 00 00       	call   407f20 <_wcstombs>
  402f2e:	83 f8 ff             	cmp    eax,0xffffffff
  402f31:	74 04                	je     402f37 <___mingw_dirname+0x307>
  402f33:	c6 04 06 00          	mov    BYTE PTR [esi+eax*1],0x0
  402f37:	89 5c 24 04          	mov    DWORD PTR [esp+0x4],ebx
  402f3b:	c7 04 24 02 00 00 00 	mov    DWORD PTR [esp],0x2
  402f42:	e8 19 50 00 00       	call   407f60 <_setlocale>
  402f47:	89 1c 24             	mov    DWORD PTR [esp],ebx
  402f4a:	e8 61 50 00 00       	call   407fb0 <_free>
  402f4f:	8b 65 d4             	mov    esp,DWORD PTR [ebp-0x2c]
  402f52:	8d 65 f4             	lea    esp,[ebp-0xc]
  402f55:	5b                   	pop    ebx
  402f56:	89 f0                	mov    eax,esi
  402f58:	5e                   	pop    esi
  402f59:	5f                   	pop    edi
  402f5a:	5d                   	pop    ebp
  402f5b:	c3                   	ret    
  402f5c:	8d 74 26 00          	lea    esi,[esi+eiz*1+0x0]
  402f60:	89 f8                	mov    eax,edi
  402f62:	0f b7 10             	movzx  edx,WORD PTR [eax]
  402f65:	66 83 fa 2f          	cmp    dx,0x2f
  402f69:	75 59                	jne    402fc4 <___mingw_dirname+0x394>
  402f6b:	90                   	nop
  402f6c:	8d 74 26 00          	lea    esi,[esi+eiz*1+0x0]
  402f70:	83 c0 02             	add    eax,0x2
  402f73:	0f b7 10             	movzx  edx,WORD PTR [eax]
  402f76:	66 83 fa 5c          	cmp    dx,0x5c
  402f7a:	74 f4                	je     402f70 <___mingw_dirname+0x340>
  402f7c:	66 83 fa 2f          	cmp    dx,0x2f
  402f80:	74 ee                	je     402f70 <___mingw_dirname+0x340>
  402f82:	e9 66 ff ff ff       	jmp    402eed <___mingw_dirname+0x2bd>
  402f87:	8b 65 d4             	mov    esp,DWORD PTR [ebp-0x2c]
  402f8a:	e9 ee fc ff ff       	jmp    402c7d <___mingw_dirname+0x4d>
  402f8f:	66 83 fa 2f          	cmp    dx,0x2f
  402f93:	0f 84 2f ff ff ff    	je     402ec8 <___mingw_dirname+0x298>
  402f99:	8b 7d e4             	mov    edi,DWORD PTR [ebp-0x1c]
  402f9c:	66 39 54 3f 02       	cmp    WORD PTR [edi+edi*1+0x2],dx
  402fa1:	0f 85 41 ff ff ff    	jne    402ee8 <___mingw_dirname+0x2b8>
  402fa7:	0f b7 10             	movzx  edx,WORD PTR [eax]
  402faa:	e9 3c ff ff ff       	jmp    402eeb <___mingw_dirname+0x2bb>
  402faf:	8b 7d dc             	mov    edi,DWORD PTR [ebp-0x24]
  402fb2:	b9 2e 00 00 00       	mov    ecx,0x2e
  402fb7:	89 f8                	mov    eax,edi
  402fb9:	83 c0 02             	add    eax,0x2
  402fbc:	66 89 0f             	mov    WORD PTR [edi],cx
  402fbf:	e9 37 fe ff ff       	jmp    402dfb <___mingw_dirname+0x1cb>
  402fc4:	66 83 fa 5c          	cmp    dx,0x5c
  402fc8:	74 a6                	je     402f70 <___mingw_dirname+0x340>
  402fca:	e9 1e ff ff ff       	jmp    402eed <___mingw_dirname+0x2bd>
  402fcf:	66 83 7c 3f 04 00    	cmp    WORD PTR [edi+edi*1+0x4],0x0
  402fd5:	0f 85 a5 fd ff ff    	jne    402d80 <___mingw_dirname+0x150>
  402fdb:	90                   	nop
  402fdc:	8d 74 26 00          	lea    esi,[esi+eiz*1+0x0]
  402fe0:	e9 52 ff ff ff       	jmp    402f37 <___mingw_dirname+0x307>
  402fe5:	66 83 7d da 5c       	cmp    WORD PTR [ebp-0x26],0x5c
  402fea:	74 0e                	je     402ffa <___mingw_dirname+0x3ca>
  402fec:	66 83 7d da 2f       	cmp    WORD PTR [ebp-0x26],0x2f
  402ff1:	8b 45 dc             	mov    eax,DWORD PTR [ebp-0x24]
  402ff4:	0f 85 b4 fe ff ff    	jne    402eae <___mingw_dirname+0x27e>
  402ffa:	8b 45 dc             	mov    eax,DWORD PTR [ebp-0x24]
  402ffd:	0f b7 4d da          	movzx  ecx,WORD PTR [ebp-0x26]
  403001:	66 39 48 02          	cmp    WORD PTR [eax+0x2],cx
  403005:	0f 85 a3 fe ff ff    	jne    402eae <___mingw_dirname+0x27e>
  40300b:	0f b7 50 04          	movzx  edx,WORD PTR [eax+0x4]
  40300f:	66 83 fa 2f          	cmp    dx,0x2f
  403013:	0f 84 95 fe ff ff    	je     402eae <___mingw_dirname+0x27e>
  403019:	66 83 fa 5c          	cmp    dx,0x5c
  40301d:	89 f8                	mov    eax,edi
  40301f:	0f 85 89 fe ff ff    	jne    402eae <___mingw_dirname+0x27e>
  403025:	8b 45 dc             	mov    eax,DWORD PTR [ebp-0x24]
  403028:	e9 81 fe ff ff       	jmp    402eae <___mingw_dirname+0x27e>
  40302d:	90                   	nop
  40302e:	90                   	nop
  40302f:	90                   	nop

00403030 <_dirent_findnext>:
  403030:	55                   	push   ebp
  403031:	89 e5                	mov    ebp,esp
  403033:	56                   	push   esi
  403034:	89 d6                	mov    esi,edx
  403036:	53                   	push   ebx
  403037:	81 ec 50 01 00 00    	sub    esp,0x150
  40303d:	8d 95 b8 fe ff ff    	lea    edx,[ebp-0x148]
  403043:	89 54 24 04          	mov    DWORD PTR [esp+0x4],edx
  403047:	89 04 24             	mov    DWORD PTR [esp],eax
  40304a:	e8 39 50 00 00       	call   408088 <_FindNextFileA@8>
  40304f:	83 ec 08             	sub    esp,0x8
  403052:	85 c0                	test   eax,eax
  403054:	89 c3                	mov    ebx,eax
  403056:	75 20                	jne    403078 <_dirent_findnext+0x48>
  403058:	e8 1b 50 00 00       	call   408078 <_GetLastError@0>
  40305d:	31 db                	xor    ebx,ebx
  40305f:	83 f8 12             	cmp    eax,0x12
  403062:	74 0b                	je     40306f <_dirent_findnext+0x3f>
  403064:	e8 7f 4f 00 00       	call   407fe8 <__errno>
  403069:	c7 00 02 00 00 00    	mov    DWORD PTR [eax],0x2
  40306f:	8d 65 f8             	lea    esp,[ebp-0x8]
  403072:	89 d8                	mov    eax,ebx
  403074:	5b                   	pop    ebx
  403075:	5e                   	pop    esi
  403076:	5d                   	pop    ebp
  403077:	c3                   	ret    
  403078:	8d 85 e4 fe ff ff    	lea    eax,[ebp-0x11c]
  40307e:	89 44 24 0c          	mov    DWORD PTR [esp+0xc],eax
  403082:	8d 46 0c             	lea    eax,[esi+0xc]
  403085:	c7 44 24 08 30 a1 40 	mov    DWORD PTR [esp+0x8],0x40a130
  40308c:	00 
  40308d:	c7 44 24 04 04 01 00 	mov    DWORD PTR [esp+0x4],0x104
  403094:	00 
  403095:	89 04 24             	mov    DWORD PTR [esp],eax
  403098:	e8 43 04 00 00       	call   4034e0 <___mingw_snprintf>
  40309d:	66 89 46 06          	mov    WORD PTR [esi+0x6],ax
  4030a1:	8b 85 b8 fe ff ff    	mov    eax,DWORD PTR [ebp-0x148]
  4030a7:	24 58                	and    al,0x58
  4030a9:	83 f8 10             	cmp    eax,0x10
  4030ac:	76 12                	jbe    4030c0 <_dirent_findnext+0x90>
  4030ae:	c7 46 08 18 00 00 00 	mov    DWORD PTR [esi+0x8],0x18
  4030b5:	8d 65 f8             	lea    esp,[ebp-0x8]
  4030b8:	89 d8                	mov    eax,ebx
  4030ba:	5b                   	pop    ebx
  4030bb:	5e                   	pop    esi
  4030bc:	5d                   	pop    ebp
  4030bd:	c3                   	ret    
  4030be:	66 90                	xchg   ax,ax
  4030c0:	89 46 08             	mov    DWORD PTR [esi+0x8],eax
  4030c3:	8d 65 f8             	lea    esp,[ebp-0x8]
  4030c6:	89 d8                	mov    eax,ebx
  4030c8:	5b                   	pop    ebx
  4030c9:	5e                   	pop    esi
  4030ca:	5d                   	pop    ebp
  4030cb:	c3                   	ret    
  4030cc:	8d 74 26 00          	lea    esi,[esi+eiz*1+0x0]

004030d0 <_dirent_findfirst>:
  4030d0:	55                   	push   ebp
  4030d1:	89 e5                	mov    ebp,esp
  4030d3:	56                   	push   esi
  4030d4:	53                   	push   ebx
  4030d5:	89 d3                	mov    ebx,edx
  4030d7:	81 ec 50 01 00 00    	sub    esp,0x150
  4030dd:	8d 95 b8 fe ff ff    	lea    edx,[ebp-0x148]
  4030e3:	89 54 24 04          	mov    DWORD PTR [esp+0x4],edx
  4030e7:	89 04 24             	mov    DWORD PTR [esp],eax
  4030ea:	e8 a1 4f 00 00       	call   408090 <_FindFirstFileA@8>
  4030ef:	83 ec 08             	sub    esp,0x8
  4030f2:	83 f8 ff             	cmp    eax,0xffffffff
  4030f5:	89 c6                	mov    esi,eax
  4030f7:	74 4a                	je     403143 <_dirent_findfirst+0x73>
  4030f9:	8d 85 e4 fe ff ff    	lea    eax,[ebp-0x11c]
  4030ff:	89 44 24 0c          	mov    DWORD PTR [esp+0xc],eax
  403103:	8d 43 0c             	lea    eax,[ebx+0xc]
  403106:	c7 44 24 08 30 a1 40 	mov    DWORD PTR [esp+0x8],0x40a130
  40310d:	00 
  40310e:	c7 44 24 04 04 01 00 	mov    DWORD PTR [esp+0x4],0x104
  403115:	00 
  403116:	89 04 24             	mov    DWORD PTR [esp],eax
  403119:	e8 c2 03 00 00       	call   4034e0 <___mingw_snprintf>
  40311e:	8b 8d b8 fe ff ff    	mov    ecx,DWORD PTR [ebp-0x148]
  403124:	80 e1 58             	and    cl,0x58
  403127:	83 f9 10             	cmp    ecx,0x10
  40312a:	66 89 43 06          	mov    WORD PTR [ebx+0x6],ax
  40312e:	89 4b 08             	mov    DWORD PTR [ebx+0x8],ecx
  403131:	76 07                	jbe    40313a <_dirent_findfirst+0x6a>
  403133:	c7 43 08 18 00 00 00 	mov    DWORD PTR [ebx+0x8],0x18
  40313a:	8d 65 f8             	lea    esp,[ebp-0x8]
  40313d:	89 f0                	mov    eax,esi
  40313f:	5b                   	pop    ebx
  403140:	5e                   	pop    esi
  403141:	5d                   	pop    ebp
  403142:	c3                   	ret    
  403143:	e8 a0 4e 00 00       	call   407fe8 <__errno>
  403148:	89 c3                	mov    ebx,eax
  40314a:	e8 29 4f 00 00       	call   408078 <_GetLastError@0>
  40314f:	83 f8 03             	cmp    eax,0x3
  403152:	89 03                	mov    DWORD PTR [ebx],eax
  403154:	74 2a                	je     403180 <_dirent_findfirst+0xb0>
  403156:	e8 8d 4e 00 00       	call   407fe8 <__errno>
  40315b:	81 38 0b 01 00 00    	cmp    DWORD PTR [eax],0x10b
  403161:	74 2d                	je     403190 <_dirent_findfirst+0xc0>
  403163:	e8 80 4e 00 00       	call   407fe8 <__errno>
  403168:	83 38 02             	cmp    DWORD PTR [eax],0x2
  40316b:	74 cd                	je     40313a <_dirent_findfirst+0x6a>
  40316d:	8d 76 00             	lea    esi,[esi+0x0]
  403170:	e8 73 4e 00 00       	call   407fe8 <__errno>
  403175:	c7 00 16 00 00 00    	mov    DWORD PTR [eax],0x16
  40317b:	eb bd                	jmp    40313a <_dirent_findfirst+0x6a>
  40317d:	8d 76 00             	lea    esi,[esi+0x0]
  403180:	e8 63 4e 00 00       	call   407fe8 <__errno>
  403185:	c7 00 02 00 00 00    	mov    DWORD PTR [eax],0x2
  40318b:	eb ad                	jmp    40313a <_dirent_findfirst+0x6a>
  40318d:	8d 76 00             	lea    esi,[esi+0x0]
  403190:	e8 53 4e 00 00       	call   407fe8 <__errno>
  403195:	c7 00 14 00 00 00    	mov    DWORD PTR [eax],0x14
  40319b:	eb 9d                	jmp    40313a <_dirent_findfirst+0x6a>
  40319d:	8d 76 00             	lea    esi,[esi+0x0]

004031a0 <___mingw_opendir>:
  4031a0:	55                   	push   ebp
  4031a1:	57                   	push   edi
  4031a2:	56                   	push   esi
  4031a3:	53                   	push   ebx
  4031a4:	81 ec 2c 01 00 00    	sub    esp,0x12c
  4031aa:	8b 84 24 40 01 00 00 	mov    eax,DWORD PTR [esp+0x140]
  4031b1:	85 c0                	test   eax,eax
  4031b3:	0f 84 67 01 00 00    	je     403320 <___mingw_opendir+0x180>
  4031b9:	80 38 00             	cmp    BYTE PTR [eax],0x0
  4031bc:	0f 84 40 01 00 00    	je     403302 <___mingw_opendir+0x162>
  4031c2:	8d 7c 24 1c          	lea    edi,[esp+0x1c]
  4031c6:	c7 44 24 08 04 01 00 	mov    DWORD PTR [esp+0x8],0x104
  4031cd:	00 
  4031ce:	89 fb                	mov    ebx,edi
  4031d0:	89 44 24 04          	mov    DWORD PTR [esp+0x4],eax
  4031d4:	89 3c 24             	mov    DWORD PTR [esp],edi
  4031d7:	e8 04 4e 00 00       	call   407fe0 <__fullpath>
  4031dc:	80 7c 24 1c 00       	cmp    BYTE PTR [esp+0x1c],0x0
  4031e1:	74 5d                	je     403240 <___mingw_opendir+0xa0>
  4031e3:	8b 13                	mov    edx,DWORD PTR [ebx]
  4031e5:	83 c3 04             	add    ebx,0x4
  4031e8:	8d 82 ff fe fe fe    	lea    eax,[edx-0x1010101]
  4031ee:	f7 d2                	not    edx
  4031f0:	21 d0                	and    eax,edx
  4031f2:	25 80 80 80 80       	and    eax,0x80808080
  4031f7:	74 ea                	je     4031e3 <___mingw_opendir+0x43>
  4031f9:	a9 80 80 00 00       	test   eax,0x8080
  4031fe:	0f 84 df 00 00 00    	je     4032e3 <___mingw_opendir+0x143>
  403204:	00 c0                	add    al,al
  403206:	83 db 03             	sbb    ebx,0x3
  403209:	29 fb                	sub    ebx,edi
  40320b:	0f b6 44 1c 1b       	movzx  eax,BYTE PTR [esp+ebx*1+0x1b]
  403210:	3c 5c                	cmp    al,0x5c
  403212:	74 50                	je     403264 <___mingw_opendir+0xc4>
  403214:	3c 2f                	cmp    al,0x2f
  403216:	74 4c                	je     403264 <___mingw_opendir+0xc4>
  403218:	b9 5c 00 00 00       	mov    ecx,0x5c
  40321d:	66 89 0c 1f          	mov    WORD PTR [edi+ebx*1],cx
  403221:	89 fb                	mov    ebx,edi
  403223:	8b 13                	mov    edx,DWORD PTR [ebx]
  403225:	83 c3 04             	add    ebx,0x4
  403228:	8d 82 ff fe fe fe    	lea    eax,[edx-0x1010101]
  40322e:	f7 d2                	not    edx
  403230:	21 d0                	and    eax,edx
  403232:	25 80 80 80 80       	and    eax,0x80808080
  403237:	74 ea                	je     403223 <___mingw_opendir+0x83>
  403239:	eb 1b                	jmp    403256 <___mingw_opendir+0xb6>
  40323b:	90                   	nop
  40323c:	8d 74 26 00          	lea    esi,[esi+eiz*1+0x0]
  403240:	8b 13                	mov    edx,DWORD PTR [ebx]
  403242:	83 c3 04             	add    ebx,0x4
  403245:	8d 82 ff fe fe fe    	lea    eax,[edx-0x1010101]
  40324b:	f7 d2                	not    edx
  40324d:	21 d0                	and    eax,edx
  40324f:	25 80 80 80 80       	and    eax,0x80808080
  403254:	74 ea                	je     403240 <___mingw_opendir+0xa0>
  403256:	a9 80 80 00 00       	test   eax,0x8080
  40325b:	74 7b                	je     4032d8 <___mingw_opendir+0x138>
  40325d:	00 c0                	add    al,al
  40325f:	83 db 03             	sbb    ebx,0x3
  403262:	29 fb                	sub    ebx,edi
  403264:	ba 2a 00 00 00       	mov    edx,0x2a
  403269:	8d 83 1d 01 00 00    	lea    eax,[ebx+0x11d]
  40326f:	66 89 14 1f          	mov    WORD PTR [edi+ebx*1],dx
  403273:	89 04 24             	mov    DWORD PTR [esp],eax
  403276:	e8 0d 4d 00 00       	call   407f88 <_malloc>
  40327b:	85 c0                	test   eax,eax
  40327d:	89 c6                	mov    esi,eax
  40327f:	0f 84 8c 00 00 00    	je     403311 <___mingw_opendir+0x171>
  403285:	8d a8 18 01 00 00    	lea    ebp,[eax+0x118]
  40328b:	83 c3 02             	add    ebx,0x2
  40328e:	89 5c 24 08          	mov    DWORD PTR [esp+0x8],ebx
  403292:	89 7c 24 04          	mov    DWORD PTR [esp+0x4],edi
  403296:	89 2c 24             	mov    DWORD PTR [esp],ebp
  403299:	e8 da 4c 00 00       	call   407f78 <_memcpy>
  40329e:	89 f2                	mov    edx,esi
  4032a0:	89 e8                	mov    eax,ebp
  4032a2:	e8 29 fe ff ff       	call   4030d0 <_dirent_findfirst>
  4032a7:	83 f8 ff             	cmp    eax,0xffffffff
  4032aa:	89 86 10 01 00 00    	mov    DWORD PTR [esi+0x110],eax
  4032b0:	74 7d                	je     40332f <___mingw_opendir+0x18f>
  4032b2:	b8 10 01 00 00       	mov    eax,0x110
  4032b7:	66 89 46 04          	mov    WORD PTR [esi+0x4],ax
  4032bb:	89 f0                	mov    eax,esi
  4032bd:	c7 86 14 01 00 00 00 	mov    DWORD PTR [esi+0x114],0x0
  4032c4:	00 00 00 
  4032c7:	c7 06 00 00 00 00    	mov    DWORD PTR [esi],0x0
  4032cd:	81 c4 2c 01 00 00    	add    esp,0x12c
  4032d3:	5b                   	pop    ebx
  4032d4:	5e                   	pop    esi
  4032d5:	5f                   	pop    edi
  4032d6:	5d                   	pop    ebp
  4032d7:	c3                   	ret    
  4032d8:	c1 e8 10             	shr    eax,0x10
  4032db:	83 c3 02             	add    ebx,0x2
  4032de:	e9 7a ff ff ff       	jmp    40325d <___mingw_opendir+0xbd>
  4032e3:	c1 e8 10             	shr    eax,0x10
  4032e6:	83 c3 02             	add    ebx,0x2
  4032e9:	00 c0                	add    al,al
  4032eb:	83 db 03             	sbb    ebx,0x3
  4032ee:	29 fb                	sub    ebx,edi
  4032f0:	0f b6 44 1c 1b       	movzx  eax,BYTE PTR [esp+ebx*1+0x1b]
  4032f5:	3c 5c                	cmp    al,0x5c
  4032f7:	0f 84 67 ff ff ff    	je     403264 <___mingw_opendir+0xc4>
  4032fd:	e9 12 ff ff ff       	jmp    403214 <___mingw_opendir+0x74>
  403302:	e8 e1 4c 00 00       	call   407fe8 <__errno>
  403307:	c7 00 02 00 00 00    	mov    DWORD PTR [eax],0x2
  40330d:	31 c0                	xor    eax,eax
  40330f:	eb bc                	jmp    4032cd <___mingw_opendir+0x12d>
  403311:	e8 d2 4c 00 00       	call   407fe8 <__errno>
  403316:	c7 00 0c 00 00 00    	mov    DWORD PTR [eax],0xc
  40331c:	31 c0                	xor    eax,eax
  40331e:	eb ad                	jmp    4032cd <___mingw_opendir+0x12d>
  403320:	e8 c3 4c 00 00       	call   407fe8 <__errno>
  403325:	c7 00 16 00 00 00    	mov    DWORD PTR [eax],0x16
  40332b:	31 c0                	xor    eax,eax
  40332d:	eb 9e                	jmp    4032cd <___mingw_opendir+0x12d>
  40332f:	89 34 24             	mov    DWORD PTR [esp],esi
  403332:	e8 79 4c 00 00       	call   407fb0 <_free>
  403337:	31 c0                	xor    eax,eax
  403339:	eb 92                	jmp    4032cd <___mingw_opendir+0x12d>
  40333b:	90                   	nop
  40333c:	8d 74 26 00          	lea    esi,[esi+eiz*1+0x0]

00403340 <___mingw_readdir>:
  403340:	53                   	push   ebx
  403341:	83 ec 08             	sub    esp,0x8
  403344:	8b 5c 24 10          	mov    ebx,DWORD PTR [esp+0x10]
  403348:	85 db                	test   ebx,ebx
  40334a:	74 2b                	je     403377 <___mingw_readdir+0x37>
  40334c:	8b 83 14 01 00 00    	mov    eax,DWORD PTR [ebx+0x114]
  403352:	8d 50 01             	lea    edx,[eax+0x1]
  403355:	85 c0                	test   eax,eax
  403357:	89 93 14 01 00 00    	mov    DWORD PTR [ebx+0x114],edx
  40335d:	7e 11                	jle    403370 <___mingw_readdir+0x30>
  40335f:	8b 83 10 01 00 00    	mov    eax,DWORD PTR [ebx+0x110]
  403365:	89 da                	mov    edx,ebx
  403367:	e8 c4 fc ff ff       	call   403030 <_dirent_findnext>
  40336c:	85 c0                	test   eax,eax
  40336e:	74 02                	je     403372 <___mingw_readdir+0x32>
  403370:	89 d8                	mov    eax,ebx
  403372:	83 c4 08             	add    esp,0x8
  403375:	5b                   	pop    ebx
  403376:	c3                   	ret    
  403377:	e8 6c 4c 00 00       	call   407fe8 <__errno>
  40337c:	c7 00 09 00 00 00    	mov    DWORD PTR [eax],0x9
  403382:	31 c0                	xor    eax,eax
  403384:	eb ec                	jmp    403372 <___mingw_readdir+0x32>
  403386:	8d 76 00             	lea    esi,[esi+0x0]
  403389:	8d bc 27 00 00 00 00 	lea    edi,[edi+eiz*1+0x0]

00403390 <___mingw_closedir>:
  403390:	55                   	push   ebp
  403391:	89 e5                	mov    ebp,esp
  403393:	53                   	push   ebx
  403394:	83 ec 14             	sub    esp,0x14
  403397:	8b 5d 08             	mov    ebx,DWORD PTR [ebp+0x8]
  40339a:	85 db                	test   ebx,ebx
  40339c:	74 24                	je     4033c2 <___mingw_closedir+0x32>
  40339e:	8b 83 10 01 00 00    	mov    eax,DWORD PTR [ebx+0x110]
  4033a4:	89 04 24             	mov    DWORD PTR [esp],eax
  4033a7:	e8 ec 4c 00 00       	call   408098 <_FindClose@4>
  4033ac:	83 ec 04             	sub    esp,0x4
  4033af:	85 c0                	test   eax,eax
  4033b1:	74 0f                	je     4033c2 <___mingw_closedir+0x32>
  4033b3:	89 1c 24             	mov    DWORD PTR [esp],ebx
  4033b6:	e8 f5 4b 00 00       	call   407fb0 <_free>
  4033bb:	31 c0                	xor    eax,eax
  4033bd:	8b 5d fc             	mov    ebx,DWORD PTR [ebp-0x4]
  4033c0:	c9                   	leave  
  4033c1:	c3                   	ret    
  4033c2:	e8 21 4c 00 00       	call   407fe8 <__errno>
  4033c7:	c7 00 09 00 00 00    	mov    DWORD PTR [eax],0x9
  4033cd:	b8 ff ff ff ff       	mov    eax,0xffffffff
  4033d2:	eb e9                	jmp    4033bd <___mingw_closedir+0x2d>
  4033d4:	8d b6 00 00 00 00    	lea    esi,[esi+0x0]
  4033da:	8d bf 00 00 00 00    	lea    edi,[edi+0x0]

004033e0 <___mingw_rewinddir>:
  4033e0:	55                   	push   ebp
  4033e1:	89 e5                	mov    ebp,esp
  4033e3:	53                   	push   ebx
  4033e4:	83 ec 14             	sub    esp,0x14
  4033e7:	8b 5d 08             	mov    ebx,DWORD PTR [ebp+0x8]
  4033ea:	85 db                	test   ebx,ebx
  4033ec:	74 15                	je     403403 <___mingw_rewinddir+0x23>
  4033ee:	8b 83 10 01 00 00    	mov    eax,DWORD PTR [ebx+0x110]
  4033f4:	89 04 24             	mov    DWORD PTR [esp],eax
  4033f7:	e8 9c 4c 00 00       	call   408098 <_FindClose@4>
  4033fc:	83 ec 04             	sub    esp,0x4
  4033ff:	85 c0                	test   eax,eax
  403401:	75 10                	jne    403413 <___mingw_rewinddir+0x33>
  403403:	e8 e0 4b 00 00       	call   407fe8 <__errno>
  403408:	c7 00 09 00 00 00    	mov    DWORD PTR [eax],0x9
  40340e:	8b 5d fc             	mov    ebx,DWORD PTR [ebp-0x4]
  403411:	c9                   	leave  
  403412:	c3                   	ret    
  403413:	8d 83 18 01 00 00    	lea    eax,[ebx+0x118]
  403419:	89 da                	mov    edx,ebx
  40341b:	e8 b0 fc ff ff       	call   4030d0 <_dirent_findfirst>
  403420:	83 f8 ff             	cmp    eax,0xffffffff
  403423:	89 83 10 01 00 00    	mov    DWORD PTR [ebx+0x110],eax
  403429:	74 e3                	je     40340e <___mingw_rewinddir+0x2e>
  40342b:	c7 83 14 01 00 00 00 	mov    DWORD PTR [ebx+0x114],0x0
  403432:	00 00 00 
  403435:	8b 5d fc             	mov    ebx,DWORD PTR [ebp-0x4]
  403438:	c9                   	leave  
  403439:	c3                   	ret    
  40343a:	8d b6 00 00 00 00    	lea    esi,[esi+0x0]

00403440 <___mingw_telldir>:
  403440:	83 ec 0c             	sub    esp,0xc
  403443:	8b 44 24 10          	mov    eax,DWORD PTR [esp+0x10]
  403447:	85 c0                	test   eax,eax
  403449:	74 0a                	je     403455 <___mingw_telldir+0x15>
  40344b:	8b 80 14 01 00 00    	mov    eax,DWORD PTR [eax+0x114]
  403451:	83 c4 0c             	add    esp,0xc
  403454:	c3                   	ret    
  403455:	e8 8e 4b 00 00       	call   407fe8 <__errno>
  40345a:	c7 00 09 00 00 00    	mov    DWORD PTR [eax],0x9
  403460:	b8 ff ff ff ff       	mov    eax,0xffffffff
  403465:	eb ea                	jmp    403451 <___mingw_telldir+0x11>
  403467:	89 f6                	mov    esi,esi
  403469:	8d bc 27 00 00 00 00 	lea    edi,[edi+eiz*1+0x0]

00403470 <___mingw_seekdir>:
  403470:	56                   	push   esi
  403471:	53                   	push   ebx
  403472:	83 ec 14             	sub    esp,0x14
  403475:	8b 74 24 24          	mov    esi,DWORD PTR [esp+0x24]
  403479:	8b 5c 24 20          	mov    ebx,DWORD PTR [esp+0x20]
  40347d:	85 f6                	test   esi,esi
  40347f:	78 41                	js     4034c2 <___mingw_seekdir+0x52>
  403481:	89 1c 24             	mov    DWORD PTR [esp],ebx
  403484:	e8 57 ff ff ff       	call   4033e0 <___mingw_rewinddir>
  403489:	85 f6                	test   esi,esi
  40348b:	74 2f                	je     4034bc <___mingw_seekdir+0x4c>
  40348d:	83 bb 10 01 00 00 ff 	cmp    DWORD PTR [ebx+0x110],0xffffffff
  403494:	75 13                	jne    4034a9 <___mingw_seekdir+0x39>
  403496:	eb 24                	jmp    4034bc <___mingw_seekdir+0x4c>
  403498:	8b 83 10 01 00 00    	mov    eax,DWORD PTR [ebx+0x110]
  40349e:	89 da                	mov    edx,ebx
  4034a0:	e8 8b fb ff ff       	call   403030 <_dirent_findnext>
  4034a5:	85 c0                	test   eax,eax
  4034a7:	74 13                	je     4034bc <___mingw_seekdir+0x4c>
  4034a9:	8b 83 14 01 00 00    	mov    eax,DWORD PTR [ebx+0x114]
  4034af:	83 c0 01             	add    eax,0x1
  4034b2:	39 c6                	cmp    esi,eax
  4034b4:	89 83 14 01 00 00    	mov    DWORD PTR [ebx+0x114],eax
  4034ba:	7f dc                	jg     403498 <___mingw_seekdir+0x28>
  4034bc:	83 c4 14             	add    esp,0x14
  4034bf:	5b                   	pop    ebx
  4034c0:	5e                   	pop    esi
  4034c1:	c3                   	ret    
  4034c2:	e8 21 4b 00 00       	call   407fe8 <__errno>
  4034c7:	c7 00 16 00 00 00    	mov    DWORD PTR [eax],0x16
  4034cd:	83 c4 14             	add    esp,0x14
  4034d0:	5b                   	pop    ebx
  4034d1:	5e                   	pop    esi
  4034d2:	c3                   	ret    
  4034d3:	90                   	nop
  4034d4:	90                   	nop
  4034d5:	90                   	nop
  4034d6:	90                   	nop
  4034d7:	90                   	nop
  4034d8:	90                   	nop
  4034d9:	90                   	nop
  4034da:	90                   	nop
  4034db:	90                   	nop
  4034dc:	90                   	nop
  4034dd:	90                   	nop
  4034de:	90                   	nop
  4034df:	90                   	nop

004034e0 <___mingw_snprintf>:
  4034e0:	83 ec 1c             	sub    esp,0x1c
  4034e3:	8d 44 24 2c          	lea    eax,[esp+0x2c]
  4034e7:	89 44 24 0c          	mov    DWORD PTR [esp+0xc],eax
  4034eb:	8b 44 24 28          	mov    eax,DWORD PTR [esp+0x28]
  4034ef:	89 44 24 08          	mov    DWORD PTR [esp+0x8],eax
  4034f3:	8b 44 24 24          	mov    eax,DWORD PTR [esp+0x24]
  4034f7:	89 44 24 04          	mov    DWORD PTR [esp+0x4],eax
  4034fb:	8b 44 24 20          	mov    eax,DWORD PTR [esp+0x20]
  4034ff:	89 04 24             	mov    DWORD PTR [esp],eax
  403502:	e8 09 00 00 00       	call   403510 <___mingw_vsnprintf>
  403507:	83 c4 1c             	add    esp,0x1c
  40350a:	c3                   	ret    
  40350b:	90                   	nop
  40350c:	90                   	nop
  40350d:	90                   	nop
  40350e:	90                   	nop
  40350f:	90                   	nop

00403510 <___mingw_vsnprintf>:
  403510:	56                   	push   esi
  403511:	53                   	push   ebx
  403512:	83 ec 24             	sub    esp,0x24
  403515:	8b 44 24 34          	mov    eax,DWORD PTR [esp+0x34]
  403519:	8b 5c 24 30          	mov    ebx,DWORD PTR [esp+0x30]
  40351d:	8b 54 24 38          	mov    edx,DWORD PTR [esp+0x38]
  403521:	8b 4c 24 3c          	mov    ecx,DWORD PTR [esp+0x3c]
  403525:	85 c0                	test   eax,eax
  403527:	74 37                	je     403560 <___mingw_vsnprintf+0x50>
  403529:	8d 70 ff             	lea    esi,[eax-0x1]
  40352c:	89 54 24 0c          	mov    DWORD PTR [esp+0xc],edx
  403530:	89 4c 24 10          	mov    DWORD PTR [esp+0x10],ecx
  403534:	89 74 24 08          	mov    DWORD PTR [esp+0x8],esi
  403538:	89 5c 24 04          	mov    DWORD PTR [esp+0x4],ebx
  40353c:	c7 04 24 00 00 00 00 	mov    DWORD PTR [esp],0x0
  403543:	e8 e8 15 00 00       	call   404b30 <___mingw_pformat>
  403548:	39 f0                	cmp    eax,esi
  40354a:	89 c2                	mov    edx,eax
  40354c:	77 0a                	ja     403558 <___mingw_vsnprintf+0x48>
  40354e:	c6 04 13 00          	mov    BYTE PTR [ebx+edx*1],0x0
  403552:	83 c4 24             	add    esp,0x24
  403555:	5b                   	pop    ebx
  403556:	5e                   	pop    esi
  403557:	c3                   	ret    
  403558:	89 f2                	mov    edx,esi
  40355a:	eb f2                	jmp    40354e <___mingw_vsnprintf+0x3e>
  40355c:	8d 74 26 00          	lea    esi,[esi+eiz*1+0x0]
  403560:	89 5c 24 04          	mov    DWORD PTR [esp+0x4],ebx
  403564:	89 4c 24 10          	mov    DWORD PTR [esp+0x10],ecx
  403568:	89 54 24 0c          	mov    DWORD PTR [esp+0xc],edx
  40356c:	c7 44 24 08 00 00 00 	mov    DWORD PTR [esp+0x8],0x0
  403573:	00 
  403574:	c7 04 24 00 00 00 00 	mov    DWORD PTR [esp],0x0
  40357b:	e8 b0 15 00 00       	call   404b30 <___mingw_pformat>
  403580:	83 c4 24             	add    esp,0x24
  403583:	5b                   	pop    ebx
  403584:	5e                   	pop    esi
  403585:	c3                   	ret    
  403586:	90                   	nop
  403587:	90                   	nop
  403588:	90                   	nop
  403589:	90                   	nop
  40358a:	90                   	nop
  40358b:	90                   	nop
  40358c:	90                   	nop
  40358d:	90                   	nop
  40358e:	90                   	nop
  40358f:	90                   	nop

00403590 <___pformat_cvt>:
  403590:	53                   	push   ebx
  403591:	89 c1                	mov    ecx,eax
  403593:	83 ec 48             	sub    esp,0x48
  403596:	8b 44 24 50          	mov    eax,DWORD PTR [esp+0x50]
  40359a:	89 44 24 20          	mov    DWORD PTR [esp+0x20],eax
  40359e:	8b 44 24 54          	mov    eax,DWORD PTR [esp+0x54]
  4035a2:	89 44 24 24          	mov    DWORD PTR [esp+0x24],eax
  4035a6:	8b 44 24 58          	mov    eax,DWORD PTR [esp+0x58]
  4035aa:	89 44 24 28          	mov    DWORD PTR [esp+0x28],eax
  4035ae:	8b 44 24 5c          	mov    eax,DWORD PTR [esp+0x5c]
  4035b2:	db 6c 24 20          	fld    TBYTE PTR [esp+0x20]
  4035b6:	89 44 24 2c          	mov    DWORD PTR [esp+0x2c],eax
  4035ba:	d9 e5                	fxam   
  4035bc:	9b df e0             	fstsw  ax
  4035bf:	dd d8                	fstp   st(0)
  4035c1:	f6 c4 01             	test   ah,0x1
  4035c4:	74 1a                	je     4035e0 <___pformat_cvt+0x50>
  4035c6:	f6 c4 04             	test   ah,0x4
  4035c9:	0f 84 91 00 00 00    	je     403660 <___pformat_cvt+0xd0>
  4035cf:	c7 44 24 38 03 00 00 	mov    DWORD PTR [esp+0x38],0x3
  4035d6:	00 
  4035d7:	0f b7 54 24 28       	movzx  edx,WORD PTR [esp+0x28]
  4035dc:	31 c0                	xor    eax,eax
  4035de:	eb 14                	jmp    4035f4 <___pformat_cvt+0x64>
  4035e0:	f6 c4 04             	test   ah,0x4
  4035e3:	75 5c                	jne    403641 <___pformat_cvt+0xb1>
  4035e5:	0f b7 54 24 28       	movzx  edx,WORD PTR [esp+0x28]
  4035ea:	31 c0                	xor    eax,eax
  4035ec:	c7 44 24 38 00 00 00 	mov    DWORD PTR [esp+0x38],0x0
  4035f3:	00 
  4035f4:	81 e2 00 80 00 00    	and    edx,0x8000
  4035fa:	8b 5c 24 68          	mov    ebx,DWORD PTR [esp+0x68]
  4035fe:	89 13                	mov    DWORD PTR [ebx],edx
  403600:	8d 54 24 3c          	lea    edx,[esp+0x3c]
  403604:	89 54 24 1c          	mov    DWORD PTR [esp+0x1c],edx
  403608:	8b 54 24 64          	mov    edx,DWORD PTR [esp+0x64]
  40360c:	89 4c 24 10          	mov    DWORD PTR [esp+0x10],ecx
  403610:	89 44 24 04          	mov    DWORD PTR [esp+0x4],eax
  403614:	c7 04 24 0c 90 40 00 	mov    DWORD PTR [esp],0x40900c
  40361b:	89 54 24 18          	mov    DWORD PTR [esp+0x18],edx
  40361f:	8b 54 24 60          	mov    edx,DWORD PTR [esp+0x60]
  403623:	89 54 24 14          	mov    DWORD PTR [esp+0x14],edx
  403627:	8d 54 24 38          	lea    edx,[esp+0x38]
  40362b:	89 54 24 0c          	mov    DWORD PTR [esp+0xc],edx
  40362f:	8d 54 24 20          	lea    edx,[esp+0x20]
  403633:	89 54 24 08          	mov    DWORD PTR [esp+0x8],edx
  403637:	e8 e4 24 00 00       	call   405b20 <___gdtoa>
  40363c:	83 c4 48             	add    esp,0x48
  40363f:	5b                   	pop    ebx
  403640:	c3                   	ret    
  403641:	f6 c4 40             	test   ah,0x40
  403644:	74 2a                	je     403670 <___pformat_cvt+0xe0>
  403646:	c7 44 24 38 02 00 00 	mov    DWORD PTR [esp+0x38],0x2
  40364d:	00 
  40364e:	0f b7 54 24 28       	movzx  edx,WORD PTR [esp+0x28]
  403653:	b8 c3 bf ff ff       	mov    eax,0xffffbfc3
  403658:	eb 9a                	jmp    4035f4 <___pformat_cvt+0x64>
  40365a:	8d b6 00 00 00 00    	lea    esi,[esi+0x0]
  403660:	c7 44 24 38 04 00 00 	mov    DWORD PTR [esp+0x38],0x4
  403667:	00 
  403668:	31 c0                	xor    eax,eax
  40366a:	31 d2                	xor    edx,edx
  40366c:	eb 8c                	jmp    4035fa <___pformat_cvt+0x6a>
  40366e:	66 90                	xchg   ax,ax
  403670:	0f b7 54 24 28       	movzx  edx,WORD PTR [esp+0x28]
  403675:	c7 44 24 38 01 00 00 	mov    DWORD PTR [esp+0x38],0x1
  40367c:	00 
  40367d:	89 d0                	mov    eax,edx
  40367f:	25 ff 7f 00 00       	and    eax,0x7fff
  403684:	2d 3e 40 00 00       	sub    eax,0x403e
  403689:	e9 66 ff ff ff       	jmp    4035f4 <___pformat_cvt+0x64>
  40368e:	66 90                	xchg   ax,ax

00403690 <___pformat_putc>:
  403690:	53                   	push   ebx
  403691:	83 ec 18             	sub    esp,0x18
  403694:	8b 4a 04             	mov    ecx,DWORD PTR [edx+0x4]
  403697:	f6 c5 20             	test   ch,0x20
  40369a:	75 08                	jne    4036a4 <___pformat_putc+0x14>
  40369c:	8b 5a 18             	mov    ebx,DWORD PTR [edx+0x18]
  40369f:	39 5a 1c             	cmp    DWORD PTR [edx+0x1c],ebx
  4036a2:	7e 10                	jle    4036b4 <___pformat_putc+0x24>
  4036a4:	80 e5 10             	and    ch,0x10
  4036a7:	75 17                	jne    4036c0 <___pformat_putc+0x30>
  4036a9:	8b 1a                	mov    ebx,DWORD PTR [edx]
  4036ab:	8b 4a 18             	mov    ecx,DWORD PTR [edx+0x18]
  4036ae:	88 04 0b             	mov    BYTE PTR [ebx+ecx*1],al
  4036b1:	8b 5a 18             	mov    ebx,DWORD PTR [edx+0x18]
  4036b4:	83 c3 01             	add    ebx,0x1
  4036b7:	89 5a 18             	mov    DWORD PTR [edx+0x18],ebx
  4036ba:	83 c4 18             	add    esp,0x18
  4036bd:	5b                   	pop    ebx
  4036be:	c3                   	ret    
  4036bf:	90                   	nop
  4036c0:	8b 0a                	mov    ecx,DWORD PTR [edx]
  4036c2:	89 04 24             	mov    DWORD PTR [esp],eax
  4036c5:	89 54 24 0c          	mov    DWORD PTR [esp+0xc],edx
  4036c9:	89 4c 24 04          	mov    DWORD PTR [esp+0x4],ecx
  4036cd:	e8 e6 48 00 00       	call   407fb8 <_fputc>
  4036d2:	8b 54 24 0c          	mov    edx,DWORD PTR [esp+0xc]
  4036d6:	8b 5a 18             	mov    ebx,DWORD PTR [edx+0x18]
  4036d9:	83 c3 01             	add    ebx,0x1
  4036dc:	89 5a 18             	mov    DWORD PTR [edx+0x18],ebx
  4036df:	83 c4 18             	add    esp,0x18
  4036e2:	5b                   	pop    ebx
  4036e3:	c3                   	ret    
  4036e4:	8d b6 00 00 00 00    	lea    esi,[esi+0x0]
  4036ea:	8d bf 00 00 00 00    	lea    edi,[edi+0x0]

004036f0 <___pformat_wputchars>:
  4036f0:	55                   	push   ebp
  4036f1:	57                   	push   edi
  4036f2:	56                   	push   esi
  4036f3:	89 d6                	mov    esi,edx
  4036f5:	53                   	push   ebx
  4036f6:	89 cb                	mov    ebx,ecx
  4036f8:	83 ec 4c             	sub    esp,0x4c
  4036fb:	89 44 24 18          	mov    DWORD PTR [esp+0x18],eax
  4036ff:	8d 6c 24 30          	lea    ebp,[esp+0x30]
  403703:	8d 44 24 2c          	lea    eax,[esp+0x2c]
  403707:	89 44 24 08          	mov    DWORD PTR [esp+0x8],eax
  40370b:	c7 44 24 04 00 00 00 	mov    DWORD PTR [esp+0x4],0x0
  403712:	00 
  403713:	89 2c 24             	mov    DWORD PTR [esp],ebp
  403716:	e8 35 22 00 00       	call   405950 <_wcrtomb>
  40371b:	8b 43 0c             	mov    eax,DWORD PTR [ebx+0xc]
  40371e:	85 c0                	test   eax,eax
  403720:	78 08                	js     40372a <___pformat_wputchars+0x3a>
  403722:	39 c6                	cmp    esi,eax
  403724:	0f 8f c7 00 00 00    	jg     4037f1 <___pformat_wputchars+0x101>
  40372a:	8b 43 08             	mov    eax,DWORD PTR [ebx+0x8]
  40372d:	39 c6                	cmp    esi,eax
  40372f:	0f 8d 8c 00 00 00    	jge    4037c1 <___pformat_wputchars+0xd1>
  403735:	29 f0                	sub    eax,esi
  403737:	85 c0                	test   eax,eax
  403739:	89 43 08             	mov    DWORD PTR [ebx+0x8],eax
  40373c:	7e 0a                	jle    403748 <___pformat_wputchars+0x58>
  40373e:	f6 43 05 04          	test   BYTE PTR [ebx+0x5],0x4
  403742:	0f 84 85 00 00 00    	je     4037cd <___pformat_wputchars+0xdd>
  403748:	89 74 24 1c          	mov    DWORD PTR [esp+0x1c],esi
  40374c:	8d 74 26 00          	lea    esi,[esi+eiz*1+0x0]
  403750:	8b 44 24 1c          	mov    eax,DWORD PTR [esp+0x1c]
  403754:	85 c0                	test   eax,eax
  403756:	7e 54                	jle    4037ac <___pformat_wputchars+0xbc>
  403758:	83 44 24 18 02       	add    DWORD PTR [esp+0x18],0x2
  40375d:	8d 44 24 2c          	lea    eax,[esp+0x2c]
  403761:	89 44 24 08          	mov    DWORD PTR [esp+0x8],eax
  403765:	8b 44 24 18          	mov    eax,DWORD PTR [esp+0x18]
  403769:	0f b7 40 fe          	movzx  eax,WORD PTR [eax-0x2]
  40376d:	89 2c 24             	mov    DWORD PTR [esp],ebp
  403770:	89 44 24 04          	mov    DWORD PTR [esp+0x4],eax
  403774:	e8 d7 21 00 00       	call   405950 <_wcrtomb>
  403779:	85 c0                	test   eax,eax
  40377b:	7e 2f                	jle    4037ac <___pformat_wputchars+0xbc>
  40377d:	8d 74 05 00          	lea    esi,[ebp+eax*1+0x0]
  403781:	89 ef                	mov    edi,ebp
  403783:	83 c7 01             	add    edi,0x1
  403786:	0f be 47 ff          	movsx  eax,BYTE PTR [edi-0x1]
  40378a:	89 da                	mov    edx,ebx
  40378c:	e8 ff fe ff ff       	call   403690 <___pformat_putc>
  403791:	39 f7                	cmp    edi,esi
  403793:	75 ee                	jne    403783 <___pformat_wputchars+0x93>
  403795:	83 6c 24 1c 01       	sub    DWORD PTR [esp+0x1c],0x1
  40379a:	eb b4                	jmp    403750 <___pformat_wputchars+0x60>
  40379c:	8d 74 26 00          	lea    esi,[esi+eiz*1+0x0]
  4037a0:	89 da                	mov    edx,ebx
  4037a2:	b8 20 00 00 00       	mov    eax,0x20
  4037a7:	e8 e4 fe ff ff       	call   403690 <___pformat_putc>
  4037ac:	8b 43 08             	mov    eax,DWORD PTR [ebx+0x8]
  4037af:	8d 50 ff             	lea    edx,[eax-0x1]
  4037b2:	85 c0                	test   eax,eax
  4037b4:	89 53 08             	mov    DWORD PTR [ebx+0x8],edx
  4037b7:	7f e7                	jg     4037a0 <___pformat_wputchars+0xb0>
  4037b9:	83 c4 4c             	add    esp,0x4c
  4037bc:	5b                   	pop    ebx
  4037bd:	5e                   	pop    esi
  4037be:	5f                   	pop    edi
  4037bf:	5d                   	pop    ebp
  4037c0:	c3                   	ret    
  4037c1:	c7 43 08 ff ff ff ff 	mov    DWORD PTR [ebx+0x8],0xffffffff
  4037c8:	e9 7b ff ff ff       	jmp    403748 <___pformat_wputchars+0x58>
  4037cd:	83 e8 01             	sub    eax,0x1
  4037d0:	89 43 08             	mov    DWORD PTR [ebx+0x8],eax
  4037d3:	89 da                	mov    edx,ebx
  4037d5:	b8 20 00 00 00       	mov    eax,0x20
  4037da:	e8 b1 fe ff ff       	call   403690 <___pformat_putc>
  4037df:	8b 43 08             	mov    eax,DWORD PTR [ebx+0x8]
  4037e2:	8d 50 ff             	lea    edx,[eax-0x1]
  4037e5:	85 c0                	test   eax,eax
  4037e7:	89 53 08             	mov    DWORD PTR [ebx+0x8],edx
  4037ea:	75 e7                	jne    4037d3 <___pformat_wputchars+0xe3>
  4037ec:	e9 57 ff ff ff       	jmp    403748 <___pformat_wputchars+0x58>
  4037f1:	89 c6                	mov    esi,eax
  4037f3:	e9 32 ff ff ff       	jmp    40372a <___pformat_wputchars+0x3a>
  4037f8:	90                   	nop
  4037f9:	8d b4 26 00 00 00 00 	lea    esi,[esi+eiz*1+0x0]

00403800 <___pformat_putchars>:
  403800:	57                   	push   edi
  403801:	89 c7                	mov    edi,eax
  403803:	8b 41 0c             	mov    eax,DWORD PTR [ecx+0xc]
  403806:	56                   	push   esi
  403807:	89 d6                	mov    esi,edx
  403809:	53                   	push   ebx
  40380a:	89 cb                	mov    ebx,ecx
  40380c:	85 c0                	test   eax,eax
  40380e:	78 08                	js     403818 <___pformat_putchars+0x18>
  403810:	39 c2                	cmp    edx,eax
  403812:	0f 8f 88 00 00 00    	jg     4038a0 <___pformat_putchars+0xa0>
  403818:	8b 43 08             	mov    eax,DWORD PTR [ebx+0x8]
  40381b:	39 c6                	cmp    esi,eax
  40381d:	7d 71                	jge    403890 <___pformat_putchars+0x90>
  40381f:	29 f0                	sub    eax,esi
  403821:	85 c0                	test   eax,eax
  403823:	89 43 08             	mov    DWORD PTR [ebx+0x8],eax
  403826:	7e 25                	jle    40384d <___pformat_putchars+0x4d>
  403828:	f6 43 05 04          	test   BYTE PTR [ebx+0x5],0x4
  40382c:	75 1f                	jne    40384d <___pformat_putchars+0x4d>
  40382e:	83 e8 01             	sub    eax,0x1
  403831:	89 43 08             	mov    DWORD PTR [ebx+0x8],eax
  403834:	89 da                	mov    edx,ebx
  403836:	b8 20 00 00 00       	mov    eax,0x20
  40383b:	e8 50 fe ff ff       	call   403690 <___pformat_putc>
  403840:	8b 43 08             	mov    eax,DWORD PTR [ebx+0x8]
  403843:	8d 50 ff             	lea    edx,[eax-0x1]
  403846:	85 c0                	test   eax,eax
  403848:	89 53 08             	mov    DWORD PTR [ebx+0x8],edx
  40384b:	75 e7                	jne    403834 <___pformat_putchars+0x34>
  40384d:	85 f6                	test   esi,esi
  40384f:	74 2c                	je     40387d <___pformat_putchars+0x7d>
  403851:	83 c7 01             	add    edi,0x1
  403854:	0f be 47 ff          	movsx  eax,BYTE PTR [edi-0x1]
  403858:	89 da                	mov    edx,ebx
  40385a:	e8 31 fe ff ff       	call   403690 <___pformat_putc>
  40385f:	83 ee 01             	sub    esi,0x1
  403862:	75 ed                	jne    403851 <___pformat_putchars+0x51>
  403864:	8b 43 08             	mov    eax,DWORD PTR [ebx+0x8]
  403867:	8d 50 ff             	lea    edx,[eax-0x1]
  40386a:	85 c0                	test   eax,eax
  40386c:	89 53 08             	mov    DWORD PTR [ebx+0x8],edx
  40386f:	7e 19                	jle    40388a <___pformat_putchars+0x8a>
  403871:	89 da                	mov    edx,ebx
  403873:	b8 20 00 00 00       	mov    eax,0x20
  403878:	e8 13 fe ff ff       	call   403690 <___pformat_putc>
  40387d:	8b 43 08             	mov    eax,DWORD PTR [ebx+0x8]
  403880:	8d 50 ff             	lea    edx,[eax-0x1]
  403883:	85 c0                	test   eax,eax
  403885:	89 53 08             	mov    DWORD PTR [ebx+0x8],edx
  403888:	7f e7                	jg     403871 <___pformat_putchars+0x71>
  40388a:	5b                   	pop    ebx
  40388b:	5e                   	pop    esi
  40388c:	5f                   	pop    edi
  40388d:	c3                   	ret    
  40388e:	66 90                	xchg   ax,ax
  403890:	c7 43 08 ff ff ff ff 	mov    DWORD PTR [ebx+0x8],0xffffffff
  403897:	eb b4                	jmp    40384d <___pformat_putchars+0x4d>
  403899:	8d b4 26 00 00 00 00 	lea    esi,[esi+eiz*1+0x0]
  4038a0:	89 c6                	mov    esi,eax
  4038a2:	e9 71 ff ff ff       	jmp    403818 <___pformat_putchars+0x18>
  4038a7:	89 f6                	mov    esi,esi
  4038a9:	8d bc 27 00 00 00 00 	lea    edi,[edi+eiz*1+0x0]

004038b0 <___pformat_emit_inf_or_nan>:
  4038b0:	55                   	push   ebp
  4038b1:	57                   	push   edi
  4038b2:	56                   	push   esi
  4038b3:	53                   	push   ebx
  4038b4:	83 ec 1c             	sub    esp,0x1c
  4038b7:	85 c0                	test   eax,eax
  4038b9:	c7 41 0c ff ff ff ff 	mov    DWORD PTR [ecx+0xc],0xffffffff
  4038c0:	74 3e                	je     403900 <___pformat_emit_inf_or_nan+0x50>
  4038c2:	8b 69 04             	mov    ebp,DWORD PTR [ecx+0x4]
  4038c5:	8d 7c 24 0d          	lea    edi,[esp+0xd]
  4038c9:	c6 44 24 0c 2d       	mov    BYTE PTR [esp+0xc],0x2d
  4038ce:	8d 44 24 0c          	lea    eax,[esp+0xc]
  4038d2:	83 e5 20             	and    ebp,0x20
  4038d5:	31 f6                	xor    esi,esi
  4038d7:	0f b6 1c 32          	movzx  ebx,BYTE PTR [edx+esi*1]
  4038db:	83 e3 df             	and    ebx,0xffffffdf
  4038de:	09 eb                	or     ebx,ebp
  4038e0:	88 1c 37             	mov    BYTE PTR [edi+esi*1],bl
  4038e3:	83 c6 01             	add    esi,0x1
  4038e6:	83 fe 03             	cmp    esi,0x3
  4038e9:	75 ec                	jne    4038d7 <___pformat_emit_inf_or_nan+0x27>
  4038eb:	8d 57 03             	lea    edx,[edi+0x3]
  4038ee:	29 c2                	sub    edx,eax
  4038f0:	e8 0b ff ff ff       	call   403800 <___pformat_putchars>
  4038f5:	83 c4 1c             	add    esp,0x1c
  4038f8:	5b                   	pop    ebx
  4038f9:	5e                   	pop    esi
  4038fa:	5f                   	pop    edi
  4038fb:	5d                   	pop    ebp
  4038fc:	c3                   	ret    
  4038fd:	8d 76 00             	lea    esi,[esi+0x0]
  403900:	8b 69 04             	mov    ebp,DWORD PTR [ecx+0x4]
  403903:	f7 c5 00 01 00 00    	test   ebp,0x100
  403909:	74 15                	je     403920 <___pformat_emit_inf_or_nan+0x70>
  40390b:	c6 44 24 0c 2b       	mov    BYTE PTR [esp+0xc],0x2b
  403910:	8d 7c 24 0d          	lea    edi,[esp+0xd]
  403914:	8d 44 24 0c          	lea    eax,[esp+0xc]
  403918:	eb b8                	jmp    4038d2 <___pformat_emit_inf_or_nan+0x22>
  40391a:	8d b6 00 00 00 00    	lea    esi,[esi+0x0]
  403920:	f7 c5 40 00 00 00    	test   ebp,0x40
  403926:	74 0f                	je     403937 <___pformat_emit_inf_or_nan+0x87>
  403928:	c6 44 24 0c 20       	mov    BYTE PTR [esp+0xc],0x20
  40392d:	8d 7c 24 0d          	lea    edi,[esp+0xd]
  403931:	8d 44 24 0c          	lea    eax,[esp+0xc]
  403935:	eb 9b                	jmp    4038d2 <___pformat_emit_inf_or_nan+0x22>
  403937:	8d 44 24 0c          	lea    eax,[esp+0xc]
  40393b:	89 c7                	mov    edi,eax
  40393d:	eb 93                	jmp    4038d2 <___pformat_emit_inf_or_nan+0x22>
  40393f:	90                   	nop

00403940 <___pformat_int>:
  403940:	55                   	push   ebp
  403941:	89 e5                	mov    ebp,esp
  403943:	57                   	push   edi
  403944:	89 d7                	mov    edi,edx
  403946:	56                   	push   esi
  403947:	89 c6                	mov    esi,eax
  403949:	53                   	push   ebx
  40394a:	89 cb                	mov    ebx,ecx
  40394c:	83 ec 2c             	sub    esp,0x2c
  40394f:	89 55 dc             	mov    DWORD PTR [ebp-0x24],edx
  403952:	8b 51 0c             	mov    edx,DWORD PTR [ecx+0xc]
  403955:	89 45 d8             	mov    DWORD PTR [ebp-0x28],eax
  403958:	8b 49 08             	mov    ecx,DWORD PTR [ecx+0x8]
  40395b:	89 d0                	mov    eax,edx
  40395d:	c1 f8 1f             	sar    eax,0x1f
  403960:	f7 d0                	not    eax
  403962:	21 d0                	and    eax,edx
  403964:	83 c0 17             	add    eax,0x17
  403967:	39 c8                	cmp    eax,ecx
  403969:	7d 02                	jge    40396d <___pformat_int+0x2d>
  40396b:	89 c8                	mov    eax,ecx
  40396d:	83 c0 0f             	add    eax,0xf
  403970:	83 e0 f0             	and    eax,0xfffffff0
  403973:	e8 a8 e5 ff ff       	call   401f20 <___chkstk_ms>
  403978:	29 c4                	sub    esp,eax
  40397a:	8d 44 24 10          	lea    eax,[esp+0x10]
  40397e:	89 45 e4             	mov    DWORD PTR [ebp-0x1c],eax
  403981:	8b 43 04             	mov    eax,DWORD PTR [ebx+0x4]
  403984:	a8 80                	test   al,0x80
  403986:	74 0d                	je     403995 <___pformat_int+0x55>
  403988:	85 ff                	test   edi,edi
  40398a:	0f 88 b0 01 00 00    	js     403b40 <___pformat_int+0x200>
  403990:	24 7f                	and    al,0x7f
  403992:	89 43 04             	mov    DWORD PTR [ebx+0x4],eax
  403995:	8b 4d dc             	mov    ecx,DWORD PTR [ebp-0x24]
  403998:	8b 7d d8             	mov    edi,DWORD PTR [ebp-0x28]
  40399b:	8b 75 e4             	mov    esi,DWORD PTR [ebp-0x1c]
  40399e:	89 c8                	mov    eax,ecx
  4039a0:	09 f8                	or     eax,edi
  4039a2:	74 5d                	je     403a01 <___pformat_int+0xc1>
  4039a4:	89 5d d8             	mov    DWORD PTR [ebp-0x28],ebx
  4039a7:	89 cb                	mov    ebx,ecx
  4039a9:	8d b4 26 00 00 00 00 	lea    esi,[esi+eiz*1+0x0]
  4039b0:	89 3c 24             	mov    DWORD PTR [esp],edi
  4039b3:	83 c6 01             	add    esi,0x1
  4039b6:	89 5c 24 04          	mov    DWORD PTR [esp+0x4],ebx
  4039ba:	c7 44 24 08 0a 00 00 	mov    DWORD PTR [esp+0x8],0xa
  4039c1:	00 
  4039c2:	c7 44 24 0c 00 00 00 	mov    DWORD PTR [esp+0xc],0x0
  4039c9:	00 
  4039ca:	e8 01 48 00 00       	call   4081d0 <___umoddi3>
  4039cf:	83 c0 30             	add    eax,0x30
  4039d2:	88 46 ff             	mov    BYTE PTR [esi-0x1],al
  4039d5:	89 3c 24             	mov    DWORD PTR [esp],edi
  4039d8:	89 5c 24 04          	mov    DWORD PTR [esp+0x4],ebx
  4039dc:	c7 44 24 08 0a 00 00 	mov    DWORD PTR [esp+0x8],0xa
  4039e3:	00 
  4039e4:	c7 44 24 0c 00 00 00 	mov    DWORD PTR [esp+0xc],0x0
  4039eb:	00 
  4039ec:	e8 cf 46 00 00       	call   4080c0 <___udivdi3>
  4039f1:	89 c7                	mov    edi,eax
  4039f3:	89 d0                	mov    eax,edx
  4039f5:	09 f8                	or     eax,edi
  4039f7:	89 d3                	mov    ebx,edx
  4039f9:	75 b5                	jne    4039b0 <___pformat_int+0x70>
  4039fb:	8b 5d d8             	mov    ebx,DWORD PTR [ebp-0x28]
  4039fe:	8b 53 0c             	mov    edx,DWORD PTR [ebx+0xc]
  403a01:	85 d2                	test   edx,edx
  403a03:	89 f7                	mov    edi,esi
  403a05:	7e 19                	jle    403a20 <___pformat_int+0xe0>
  403a07:	8b 45 e4             	mov    eax,DWORD PTR [ebp-0x1c]
  403a0a:	29 f0                	sub    eax,esi
  403a0c:	01 c2                	add    edx,eax
  403a0e:	85 d2                	test   edx,edx
  403a10:	7e 0e                	jle    403a20 <___pformat_int+0xe0>
  403a12:	8d 3c 16             	lea    edi,[esi+edx*1]
  403a15:	83 c6 01             	add    esi,0x1
  403a18:	39 fe                	cmp    esi,edi
  403a1a:	c6 46 ff 30          	mov    BYTE PTR [esi-0x1],0x30
  403a1e:	75 f5                	jne    403a15 <___pformat_int+0xd5>
  403a20:	3b 7d e4             	cmp    edi,DWORD PTR [ebp-0x1c]
  403a23:	0f 84 29 01 00 00    	je     403b52 <___pformat_int+0x212>
  403a29:	8b 43 08             	mov    eax,DWORD PTR [ebx+0x8]
  403a2c:	85 c0                	test   eax,eax
  403a2e:	7e 59                	jle    403a89 <___pformat_int+0x149>
  403a30:	8b 55 e4             	mov    edx,DWORD PTR [ebp-0x1c]
  403a33:	29 fa                	sub    edx,edi
  403a35:	01 c2                	add    edx,eax
  403a37:	8b 43 04             	mov    eax,DWORD PTR [ebx+0x4]
  403a3a:	85 d2                	test   edx,edx
  403a3c:	89 53 08             	mov    DWORD PTR [ebx+0x8],edx
  403a3f:	7e 4b                	jle    403a8c <___pformat_int+0x14c>
  403a41:	a9 c0 01 00 00       	test   eax,0x1c0
  403a46:	74 06                	je     403a4e <___pformat_int+0x10e>
  403a48:	83 ea 01             	sub    edx,0x1
  403a4b:	89 53 08             	mov    DWORD PTR [ebx+0x8],edx
  403a4e:	8b 53 0c             	mov    edx,DWORD PTR [ebx+0xc]
  403a51:	85 d2                	test   edx,edx
  403a53:	0f 88 a7 00 00 00    	js     403b00 <___pformat_int+0x1c0>
  403a59:	f6 c4 04             	test   ah,0x4
  403a5c:	75 2e                	jne    403a8c <___pformat_int+0x14c>
  403a5e:	8b 53 08             	mov    edx,DWORD PTR [ebx+0x8]
  403a61:	8d 4a ff             	lea    ecx,[edx-0x1]
  403a64:	85 d2                	test   edx,edx
  403a66:	89 4b 08             	mov    DWORD PTR [ebx+0x8],ecx
  403a69:	7e 21                	jle    403a8c <___pformat_int+0x14c>
  403a6b:	90                   	nop
  403a6c:	8d 74 26 00          	lea    esi,[esi+eiz*1+0x0]
  403a70:	89 da                	mov    edx,ebx
  403a72:	b8 20 00 00 00       	mov    eax,0x20
  403a77:	e8 14 fc ff ff       	call   403690 <___pformat_putc>
  403a7c:	8b 43 08             	mov    eax,DWORD PTR [ebx+0x8]
  403a7f:	8d 50 ff             	lea    edx,[eax-0x1]
  403a82:	85 c0                	test   eax,eax
  403a84:	89 53 08             	mov    DWORD PTR [ebx+0x8],edx
  403a87:	7f e7                	jg     403a70 <___pformat_int+0x130>
  403a89:	8b 43 04             	mov    eax,DWORD PTR [ebx+0x4]
  403a8c:	a8 80                	test   al,0x80
  403a8e:	74 51                	je     403ae1 <___pformat_int+0x1a1>
  403a90:	8d 77 01             	lea    esi,[edi+0x1]
  403a93:	c6 07 2d             	mov    BYTE PTR [edi],0x2d
  403a96:	39 75 e4             	cmp    DWORD PTR [ebp-0x1c],esi
  403a99:	8b 7d e4             	mov    edi,DWORD PTR [ebp-0x1c]
  403a9c:	73 2e                	jae    403acc <___pformat_int+0x18c>
  403a9e:	66 90                	xchg   ax,ax
  403aa0:	83 ee 01             	sub    esi,0x1
  403aa3:	0f be 06             	movsx  eax,BYTE PTR [esi]
  403aa6:	89 da                	mov    edx,ebx
  403aa8:	e8 e3 fb ff ff       	call   403690 <___pformat_putc>
  403aad:	39 fe                	cmp    esi,edi
  403aaf:	75 ef                	jne    403aa0 <___pformat_int+0x160>
  403ab1:	8b 43 08             	mov    eax,DWORD PTR [ebx+0x8]
  403ab4:	8d 50 ff             	lea    edx,[eax-0x1]
  403ab7:	85 c0                	test   eax,eax
  403ab9:	89 53 08             	mov    DWORD PTR [ebx+0x8],edx
  403abc:	7e 1b                	jle    403ad9 <___pformat_int+0x199>
  403abe:	66 90                	xchg   ax,ax
  403ac0:	89 da                	mov    edx,ebx
  403ac2:	b8 20 00 00 00       	mov    eax,0x20
  403ac7:	e8 c4 fb ff ff       	call   403690 <___pformat_putc>
  403acc:	8b 43 08             	mov    eax,DWORD PTR [ebx+0x8]
  403acf:	8d 50 ff             	lea    edx,[eax-0x1]
  403ad2:	85 c0                	test   eax,eax
  403ad4:	89 53 08             	mov    DWORD PTR [ebx+0x8],edx
  403ad7:	7f e7                	jg     403ac0 <___pformat_int+0x180>
  403ad9:	8d 65 f4             	lea    esp,[ebp-0xc]
  403adc:	5b                   	pop    ebx
  403add:	5e                   	pop    esi
  403ade:	5f                   	pop    edi
  403adf:	5d                   	pop    ebp
  403ae0:	c3                   	ret    
  403ae1:	f6 c4 01             	test   ah,0x1
  403ae4:	74 0a                	je     403af0 <___pformat_int+0x1b0>
  403ae6:	8d 77 01             	lea    esi,[edi+0x1]
  403ae9:	c6 07 2b             	mov    BYTE PTR [edi],0x2b
  403aec:	eb a8                	jmp    403a96 <___pformat_int+0x156>
  403aee:	66 90                	xchg   ax,ax
  403af0:	a8 40                	test   al,0x40
  403af2:	89 fe                	mov    esi,edi
  403af4:	74 a0                	je     403a96 <___pformat_int+0x156>
  403af6:	83 c6 01             	add    esi,0x1
  403af9:	c6 07 20             	mov    BYTE PTR [edi],0x20
  403afc:	eb 98                	jmp    403a96 <___pformat_int+0x156>
  403afe:	66 90                	xchg   ax,ax
  403b00:	89 c2                	mov    edx,eax
  403b02:	81 e2 00 06 00 00    	and    edx,0x600
  403b08:	81 fa 00 02 00 00    	cmp    edx,0x200
  403b0e:	0f 85 45 ff ff ff    	jne    403a59 <___pformat_int+0x119>
  403b14:	8b 53 08             	mov    edx,DWORD PTR [ebx+0x8]
  403b17:	8d 4a ff             	lea    ecx,[edx-0x1]
  403b1a:	85 d2                	test   edx,edx
  403b1c:	89 4b 08             	mov    DWORD PTR [ebx+0x8],ecx
  403b1f:	0f 8e 67 ff ff ff    	jle    403a8c <___pformat_int+0x14c>
  403b25:	83 c7 01             	add    edi,0x1
  403b28:	c6 47 ff 30          	mov    BYTE PTR [edi-0x1],0x30
  403b2c:	8b 43 08             	mov    eax,DWORD PTR [ebx+0x8]
  403b2f:	8d 50 ff             	lea    edx,[eax-0x1]
  403b32:	85 c0                	test   eax,eax
  403b34:	89 53 08             	mov    DWORD PTR [ebx+0x8],edx
  403b37:	7f ec                	jg     403b25 <___pformat_int+0x1e5>
  403b39:	e9 4b ff ff ff       	jmp    403a89 <___pformat_int+0x149>
  403b3e:	66 90                	xchg   ax,ax
  403b40:	f7 de                	neg    esi
  403b42:	83 d7 00             	adc    edi,0x0
  403b45:	f7 df                	neg    edi
  403b47:	89 75 d8             	mov    DWORD PTR [ebp-0x28],esi
  403b4a:	89 7d dc             	mov    DWORD PTR [ebp-0x24],edi
  403b4d:	e9 43 fe ff ff       	jmp    403995 <___pformat_int+0x55>
  403b52:	8b 4b 0c             	mov    ecx,DWORD PTR [ebx+0xc]
  403b55:	85 c9                	test   ecx,ecx
  403b57:	0f 84 cc fe ff ff    	je     403a29 <___pformat_int+0xe9>
  403b5d:	c6 07 30             	mov    BYTE PTR [edi],0x30
  403b60:	83 c7 01             	add    edi,0x1
  403b63:	e9 c1 fe ff ff       	jmp    403a29 <___pformat_int+0xe9>
  403b68:	90                   	nop
  403b69:	8d b4 26 00 00 00 00 	lea    esi,[esi+eiz*1+0x0]

00403b70 <___pformat_xint>:
  403b70:	55                   	push   ebp
  403b71:	89 e5                	mov    ebp,esp
  403b73:	57                   	push   edi
  403b74:	89 cf                	mov    edi,ecx
  403b76:	56                   	push   esi
  403b77:	89 d6                	mov    esi,edx
  403b79:	53                   	push   ebx
  403b7a:	83 ec 2c             	sub    esp,0x2c
  403b7d:	89 55 dc             	mov    DWORD PTR [ebp-0x24],edx
  403b80:	31 d2                	xor    edx,edx
  403b82:	83 f8 6f             	cmp    eax,0x6f
  403b85:	0f 94 c2             	sete   dl
  403b88:	83 ea 01             	sub    edx,0x1
  403b8b:	83 e2 fa             	and    edx,0xfffffffa
  403b8e:	89 4d d4             	mov    DWORD PTR [ebp-0x2c],ecx
  403b91:	31 c9                	xor    ecx,ecx
  403b93:	83 f8 6f             	cmp    eax,0x6f
  403b96:	0f 95 c1             	setne  cl
  403b99:	89 45 d8             	mov    DWORD PTR [ebp-0x28],eax
  403b9c:	89 c8                	mov    eax,ecx
  403b9e:	89 45 e4             	mov    DWORD PTR [ebp-0x1c],eax
  403ba1:	8b 45 08             	mov    eax,DWORD PTR [ebp+0x8]
  403ba4:	8d 1c cd 07 00 00 00 	lea    ebx,[ecx*8+0x7]
  403bab:	89 5d d0             	mov    DWORD PTR [ebp-0x30],ebx
  403bae:	8b 4d 08             	mov    ecx,DWORD PTR [ebp+0x8]
  403bb1:	83 45 e4 03          	add    DWORD PTR [ebp-0x1c],0x3
  403bb5:	8b 58 0c             	mov    ebx,DWORD PTR [eax+0xc]
  403bb8:	8b 49 08             	mov    ecx,DWORD PTR [ecx+0x8]
  403bbb:	89 d8                	mov    eax,ebx
  403bbd:	c1 f8 1f             	sar    eax,0x1f
  403bc0:	f7 d0                	not    eax
  403bc2:	21 d8                	and    eax,ebx
  403bc4:	8d 44 02 18          	lea    eax,[edx+eax*1+0x18]
  403bc8:	39 c8                	cmp    eax,ecx
  403bca:	7d 02                	jge    403bce <___pformat_xint+0x5e>
  403bcc:	89 c8                	mov    eax,ecx
  403bce:	83 c0 0f             	add    eax,0xf
  403bd1:	83 e0 f0             	and    eax,0xfffffff0
  403bd4:	e8 47 e3 ff ff       	call   401f20 <___chkstk_ms>
  403bd9:	29 c4                	sub    esp,eax
  403bdb:	8b 45 d4             	mov    eax,DWORD PTR [ebp-0x2c]
  403bde:	0b 45 dc             	or     eax,DWORD PTR [ebp-0x24]
  403be1:	89 65 e0             	mov    DWORD PTR [ebp-0x20],esp
  403be4:	0f 84 4a 02 00 00    	je     403e34 <___pformat_xint+0x2c4>
  403bea:	0f b6 4d d8          	movzx  ecx,BYTE PTR [ebp-0x28]
  403bee:	89 e0                	mov    eax,esp
  403bf0:	0f b6 5d d0          	movzx  ebx,BYTE PTR [ebp-0x30]
  403bf4:	83 e1 20             	and    ecx,0x20
  403bf7:	88 4d dc             	mov    BYTE PTR [ebp-0x24],cl
  403bfa:	eb 1f                	jmp    403c1b <___pformat_xint+0xab>
  403bfc:	8d 74 26 00          	lea    esi,[esi+eiz*1+0x0]
  403c00:	88 48 ff             	mov    BYTE PTR [eax-0x1],cl
  403c03:	0f b6 4d e4          	movzx  ecx,BYTE PTR [ebp-0x1c]
  403c07:	0f ad fe             	shrd   esi,edi,cl
  403c0a:	d3 ef                	shr    edi,cl
  403c0c:	f6 c1 20             	test   cl,0x20
  403c0f:	74 04                	je     403c15 <___pformat_xint+0xa5>
  403c11:	89 fe                	mov    esi,edi
  403c13:	31 ff                	xor    edi,edi
  403c15:	89 f9                	mov    ecx,edi
  403c17:	09 f1                	or     ecx,esi
  403c19:	74 1a                	je     403c35 <___pformat_xint+0xc5>
  403c1b:	89 f2                	mov    edx,esi
  403c1d:	83 c0 01             	add    eax,0x1
  403c20:	21 da                	and    edx,ebx
  403c22:	8d 4a 30             	lea    ecx,[edx+0x30]
  403c25:	80 f9 39             	cmp    cl,0x39
  403c28:	7e d6                	jle    403c00 <___pformat_xint+0x90>
  403c2a:	83 c2 37             	add    edx,0x37
  403c2d:	0a 55 dc             	or     dl,BYTE PTR [ebp-0x24]
  403c30:	88 50 ff             	mov    BYTE PTR [eax-0x1],dl
  403c33:	eb ce                	jmp    403c03 <___pformat_xint+0x93>
  403c35:	39 45 e0             	cmp    DWORD PTR [ebp-0x20],eax
  403c38:	0f 84 f0 01 00 00    	je     403e2e <___pformat_xint+0x2be>
  403c3e:	8b 7d 08             	mov    edi,DWORD PTR [ebp+0x8]
  403c41:	8b 5f 0c             	mov    ebx,DWORD PTR [edi+0xc]
  403c44:	85 db                	test   ebx,ebx
  403c46:	0f 8e a5 01 00 00    	jle    403df1 <___pformat_xint+0x281>
  403c4c:	8b 4d e0             	mov    ecx,DWORD PTR [ebp-0x20]
  403c4f:	29 c1                	sub    ecx,eax
  403c51:	01 cb                	add    ebx,ecx
  403c53:	85 db                	test   ebx,ebx
  403c55:	0f 8e 96 01 00 00    	jle    403df1 <___pformat_xint+0x281>
  403c5b:	8d 3c 18             	lea    edi,[eax+ebx*1]
  403c5e:	66 90                	xchg   ax,ax
  403c60:	83 c0 01             	add    eax,0x1
  403c63:	39 f8                	cmp    eax,edi
  403c65:	c6 40 ff 30          	mov    BYTE PTR [eax-0x1],0x30
  403c69:	75 f5                	jne    403c60 <___pformat_xint+0xf0>
  403c6b:	3b 7d e0             	cmp    edi,DWORD PTR [ebp-0x20]
  403c6e:	0f 84 a1 01 00 00    	je     403e15 <___pformat_xint+0x2a5>
  403c74:	8b 45 08             	mov    eax,DWORD PTR [ebp+0x8]
  403c77:	8b 70 08             	mov    esi,DWORD PTR [eax+0x8]
  403c7a:	89 f8                	mov    eax,edi
  403c7c:	2b 45 e0             	sub    eax,DWORD PTR [ebp-0x20]
  403c7f:	39 c6                	cmp    esi,eax
  403c81:	0f 8e a9 00 00 00    	jle    403d30 <___pformat_xint+0x1c0>
  403c87:	29 c6                	sub    esi,eax
  403c89:	8b 45 08             	mov    eax,DWORD PTR [ebp+0x8]
  403c8c:	85 f6                	test   esi,esi
  403c8e:	89 70 08             	mov    DWORD PTR [eax+0x8],esi
  403c91:	7e 21                	jle    403cb4 <___pformat_xint+0x144>
  403c93:	83 7d d8 6f          	cmp    DWORD PTR [ebp-0x28],0x6f
  403c97:	74 0d                	je     403ca6 <___pformat_xint+0x136>
  403c99:	8b 45 08             	mov    eax,DWORD PTR [ebp+0x8]
  403c9c:	f6 40 05 08          	test   BYTE PTR [eax+0x5],0x8
  403ca0:	0f 85 00 01 00 00    	jne    403da6 <___pformat_xint+0x236>
  403ca6:	8b 45 08             	mov    eax,DWORD PTR [ebp+0x8]
  403ca9:	8b 58 0c             	mov    ebx,DWORD PTR [eax+0xc]
  403cac:	85 db                	test   ebx,ebx
  403cae:	0f 88 09 01 00 00    	js     403dbd <___pformat_xint+0x24d>
  403cb4:	8d 46 ff             	lea    eax,[esi-0x1]
  403cb7:	89 45 e4             	mov    DWORD PTR [ebp-0x1c],eax
  403cba:	8b 45 e4             	mov    eax,DWORD PTR [ebp-0x1c]
  403cbd:	83 7d d8 6f          	cmp    DWORD PTR [ebp-0x28],0x6f
  403cc1:	89 c3                	mov    ebx,eax
  403cc3:	74 0d                	je     403cd2 <___pformat_xint+0x162>
  403cc5:	8b 45 08             	mov    eax,DWORD PTR [ebp+0x8]
  403cc8:	f6 40 05 08          	test   BYTE PTR [eax+0x5],0x8
  403ccc:	0f 85 be 00 00 00    	jne    403d90 <___pformat_xint+0x220>
  403cd2:	85 f6                	test   esi,esi
  403cd4:	7e 09                	jle    403cdf <___pformat_xint+0x16f>
  403cd6:	8b 45 08             	mov    eax,DWORD PTR [ebp+0x8]
  403cd9:	f6 40 05 04          	test   BYTE PTR [eax+0x5],0x4
  403cdd:	74 71                	je     403d50 <___pformat_xint+0x1e0>
  403cdf:	3b 7d e0             	cmp    edi,DWORD PTR [ebp-0x20]
  403ce2:	76 25                	jbe    403d09 <___pformat_xint+0x199>
  403ce4:	89 75 e4             	mov    DWORD PTR [ebp-0x1c],esi
  403ce7:	8b 75 e0             	mov    esi,DWORD PTR [ebp-0x20]
  403cea:	89 5d e0             	mov    DWORD PTR [ebp-0x20],ebx
  403ced:	89 fb                	mov    ebx,edi
  403cef:	8b 7d 08             	mov    edi,DWORD PTR [ebp+0x8]
  403cf2:	83 eb 01             	sub    ebx,0x1
  403cf5:	0f be 03             	movsx  eax,BYTE PTR [ebx]
  403cf8:	89 fa                	mov    edx,edi
  403cfa:	e8 91 f9 ff ff       	call   403690 <___pformat_putc>
  403cff:	39 f3                	cmp    ebx,esi
  403d01:	75 ef                	jne    403cf2 <___pformat_xint+0x182>
  403d03:	8b 75 e4             	mov    esi,DWORD PTR [ebp-0x1c]
  403d06:	8b 5d e0             	mov    ebx,DWORD PTR [ebp-0x20]
  403d09:	85 f6                	test   esi,esi
  403d0b:	7e 19                	jle    403d26 <___pformat_xint+0x1b6>
  403d0d:	8b 75 08             	mov    esi,DWORD PTR [ebp+0x8]
  403d10:	b8 20 00 00 00       	mov    eax,0x20
  403d15:	83 eb 01             	sub    ebx,0x1
  403d18:	89 f2                	mov    edx,esi
  403d1a:	e8 71 f9 ff ff       	call   403690 <___pformat_putc>
  403d1f:	8d 43 01             	lea    eax,[ebx+0x1]
  403d22:	85 c0                	test   eax,eax
  403d24:	7f ea                	jg     403d10 <___pformat_xint+0x1a0>
  403d26:	8d 65 f4             	lea    esp,[ebp-0xc]
  403d29:	5b                   	pop    ebx
  403d2a:	5e                   	pop    esi
  403d2b:	5f                   	pop    edi
  403d2c:	5d                   	pop    ebp
  403d2d:	c3                   	ret    
  403d2e:	66 90                	xchg   ax,ax
  403d30:	8b 45 08             	mov    eax,DWORD PTR [ebp+0x8]
  403d33:	be ff ff ff ff       	mov    esi,0xffffffff
  403d38:	c7 45 e4 fe ff ff ff 	mov    DWORD PTR [ebp-0x1c],0xfffffffe
  403d3f:	c7 40 08 ff ff ff ff 	mov    DWORD PTR [eax+0x8],0xffffffff
  403d46:	e9 6f ff ff ff       	jmp    403cba <___pformat_xint+0x14a>
  403d4b:	90                   	nop
  403d4c:	8d 74 26 00          	lea    esi,[esi+eiz*1+0x0]
  403d50:	8b 5d e4             	mov    ebx,DWORD PTR [ebp-0x1c]
  403d53:	89 c6                	mov    esi,eax
  403d55:	b8 20 00 00 00       	mov    eax,0x20
  403d5a:	83 eb 01             	sub    ebx,0x1
  403d5d:	89 f2                	mov    edx,esi
  403d5f:	e8 2c f9 ff ff       	call   403690 <___pformat_putc>
  403d64:	8d 43 01             	lea    eax,[ebx+0x1]
  403d67:	85 c0                	test   eax,eax
  403d69:	7f ea                	jg     403d55 <___pformat_xint+0x1e5>
  403d6b:	8b 4d e4             	mov    ecx,DWORD PTR [ebp-0x1c]
  403d6e:	89 c8                	mov    eax,ecx
  403d70:	c1 f8 1f             	sar    eax,0x1f
  403d73:	f7 d0                	not    eax
  403d75:	8d 71 ff             	lea    esi,[ecx-0x1]
  403d78:	21 c8                	and    eax,ecx
  403d7a:	29 c6                	sub    esi,eax
  403d7c:	8d 5e ff             	lea    ebx,[esi-0x1]
  403d7f:	e9 5b ff ff ff       	jmp    403cdf <___pformat_xint+0x16f>
  403d84:	83 ee 03             	sub    esi,0x3
  403d87:	89 75 e4             	mov    DWORD PTR [ebp-0x1c],esi
  403d8a:	89 c6                	mov    esi,eax
  403d8c:	8d 74 26 00          	lea    esi,[esi+eiz*1+0x0]
  403d90:	0f b6 45 d8          	movzx  eax,BYTE PTR [ebp-0x28]
  403d94:	83 c7 02             	add    edi,0x2
  403d97:	c6 47 ff 30          	mov    BYTE PTR [edi-0x1],0x30
  403d9b:	8b 5d e4             	mov    ebx,DWORD PTR [ebp-0x1c]
  403d9e:	88 47 fe             	mov    BYTE PTR [edi-0x2],al
  403da1:	e9 2c ff ff ff       	jmp    403cd2 <___pformat_xint+0x162>
  403da6:	8d 46 fe             	lea    eax,[esi-0x2]
  403da9:	85 c0                	test   eax,eax
  403dab:	7e d7                	jle    403d84 <___pformat_xint+0x214>
  403dad:	89 c6                	mov    esi,eax
  403daf:	8b 45 08             	mov    eax,DWORD PTR [ebp+0x8]
  403db2:	8b 58 0c             	mov    ebx,DWORD PTR [eax+0xc]
  403db5:	85 db                	test   ebx,ebx
  403db7:	0f 89 f7 fe ff ff    	jns    403cb4 <___pformat_xint+0x144>
  403dbd:	8b 45 08             	mov    eax,DWORD PTR [ebp+0x8]
  403dc0:	8b 40 04             	mov    eax,DWORD PTR [eax+0x4]
  403dc3:	25 00 06 00 00       	and    eax,0x600
  403dc8:	3d 00 02 00 00       	cmp    eax,0x200
  403dcd:	0f 85 e1 fe ff ff    	jne    403cb4 <___pformat_xint+0x144>
  403dd3:	01 fe                	add    esi,edi
  403dd5:	83 c7 01             	add    edi,0x1
  403dd8:	39 f7                	cmp    edi,esi
  403dda:	c6 47 ff 30          	mov    BYTE PTR [edi-0x1],0x30
  403dde:	75 f5                	jne    403dd5 <___pformat_xint+0x265>
  403de0:	c7 45 e4 fe ff ff ff 	mov    DWORD PTR [ebp-0x1c],0xfffffffe
  403de7:	be ff ff ff ff       	mov    esi,0xffffffff
  403dec:	e9 c9 fe ff ff       	jmp    403cba <___pformat_xint+0x14a>
  403df1:	83 7d d8 6f          	cmp    DWORD PTR [ebp-0x28],0x6f
  403df5:	89 c7                	mov    edi,eax
  403df7:	0f 85 6e fe ff ff    	jne    403c6b <___pformat_xint+0xfb>
  403dfd:	8b 75 08             	mov    esi,DWORD PTR [ebp+0x8]
  403e00:	f6 46 05 08          	test   BYTE PTR [esi+0x5],0x8
  403e04:	0f 84 61 fe ff ff    	je     403c6b <___pformat_xint+0xfb>
  403e0a:	83 c7 01             	add    edi,0x1
  403e0d:	c6 00 30             	mov    BYTE PTR [eax],0x30
  403e10:	e9 56 fe ff ff       	jmp    403c6b <___pformat_xint+0xfb>
  403e15:	8b 45 08             	mov    eax,DWORD PTR [ebp+0x8]
  403e18:	8b 70 0c             	mov    esi,DWORD PTR [eax+0xc]
  403e1b:	85 f6                	test   esi,esi
  403e1d:	0f 84 51 fe ff ff    	je     403c74 <___pformat_xint+0x104>
  403e23:	c6 07 30             	mov    BYTE PTR [edi],0x30
  403e26:	83 c7 01             	add    edi,0x1
  403e29:	e9 46 fe ff ff       	jmp    403c74 <___pformat_xint+0x104>
  403e2e:	8b 45 08             	mov    eax,DWORD PTR [ebp+0x8]
  403e31:	8b 58 0c             	mov    ebx,DWORD PTR [eax+0xc]
  403e34:	8b 45 08             	mov    eax,DWORD PTR [ebp+0x8]
  403e37:	81 60 04 ff f7 ff ff 	and    DWORD PTR [eax+0x4],0xfffff7ff
  403e3e:	8b 45 e0             	mov    eax,DWORD PTR [ebp-0x20]
  403e41:	e9 fe fd ff ff       	jmp    403c44 <___pformat_xint+0xd4>
  403e46:	8d 76 00             	lea    esi,[esi+0x0]
  403e49:	8d bc 27 00 00 00 00 	lea    edi,[edi+eiz*1+0x0]

00403e50 <___pformat_emit_float>:
  403e50:	55                   	push   ebp
  403e51:	89 e5                	mov    ebp,esp
  403e53:	57                   	push   edi
  403e54:	56                   	push   esi
  403e55:	89 d6                	mov    esi,edx
  403e57:	53                   	push   ebx
  403e58:	89 cb                	mov    ebx,ecx
  403e5a:	83 ec 3c             	sub    esp,0x3c
  403e5d:	8b 7d 08             	mov    edi,DWORD PTR [ebp+0x8]
  403e60:	85 c9                	test   ecx,ecx
  403e62:	89 45 d4             	mov    DWORD PTR [ebp-0x2c],eax
  403e65:	8b 47 08             	mov    eax,DWORD PTR [edi+0x8]
  403e68:	0f 8e 7a 02 00 00    	jle    4040e8 <___pformat_emit_float+0x298>
  403e6e:	39 c1                	cmp    ecx,eax
  403e70:	0f 8d 3a 01 00 00    	jge    403fb0 <___pformat_emit_float+0x160>
  403e76:	29 c8                	sub    eax,ecx
  403e78:	89 47 08             	mov    DWORD PTR [edi+0x8],eax
  403e7b:	85 c0                	test   eax,eax
  403e7d:	0f 88 2d 01 00 00    	js     403fb0 <___pformat_emit_float+0x160>
  403e83:	8b 57 0c             	mov    edx,DWORD PTR [edi+0xc]
  403e86:	39 c2                	cmp    edx,eax
  403e88:	0f 8d 22 01 00 00    	jge    403fb0 <___pformat_emit_float+0x160>
  403e8e:	29 d0                	sub    eax,edx
  403e90:	85 c0                	test   eax,eax
  403e92:	89 47 08             	mov    DWORD PTR [edi+0x8],eax
  403e95:	0f 8e 1c 01 00 00    	jle    403fb7 <___pformat_emit_float+0x167>
  403e9b:	85 d2                	test   edx,edx
  403e9d:	0f 8e ad 02 00 00    	jle    404150 <___pformat_emit_float+0x300>
  403ea3:	83 e8 01             	sub    eax,0x1
  403ea6:	85 c0                	test   eax,eax
  403ea8:	89 47 08             	mov    DWORD PTR [edi+0x8],eax
  403eab:	0f 84 06 01 00 00    	je     403fb7 <___pformat_emit_float+0x167>
  403eb1:	8b 55 d4             	mov    edx,DWORD PTR [ebp-0x2c]
  403eb4:	85 d2                	test   edx,edx
  403eb6:	0f 85 ba 01 00 00    	jne    404076 <___pformat_emit_float+0x226>
  403ebc:	8b 57 04             	mov    edx,DWORD PTR [edi+0x4]
  403ebf:	f7 c2 c0 01 00 00    	test   edx,0x1c0
  403ec5:	0f 85 ab 01 00 00    	jne    404076 <___pformat_emit_float+0x226>
  403ecb:	80 e6 06             	and    dh,0x6
  403ece:	0f 85 e3 00 00 00    	jne    403fb7 <___pformat_emit_float+0x167>
  403ed4:	eb 0c                	jmp    403ee2 <___pformat_emit_float+0x92>
  403ed6:	89 fa                	mov    edx,edi
  403ed8:	b8 20 00 00 00       	mov    eax,0x20
  403edd:	e8 ae f7 ff ff       	call   403690 <___pformat_putc>
  403ee2:	8b 47 08             	mov    eax,DWORD PTR [edi+0x8]
  403ee5:	8d 50 ff             	lea    edx,[eax-0x1]
  403ee8:	85 c0                	test   eax,eax
  403eea:	89 57 08             	mov    DWORD PTR [edi+0x8],edx
  403eed:	7f e7                	jg     403ed6 <___pformat_emit_float+0x86>
  403eef:	8b 45 d4             	mov    eax,DWORD PTR [ebp-0x2c]
  403ef2:	85 c0                	test   eax,eax
  403ef4:	0f 84 c8 00 00 00    	je     403fc2 <___pformat_emit_float+0x172>
  403efa:	89 fa                	mov    edx,edi
  403efc:	b8 2d 00 00 00       	mov    eax,0x2d
  403f01:	e8 8a f7 ff ff       	call   403690 <___pformat_putc>
  403f06:	8b 57 08             	mov    edx,DWORD PTR [edi+0x8]
  403f09:	85 d2                	test   edx,edx
  403f0b:	7e 13                	jle    403f20 <___pformat_emit_float+0xd0>
  403f0d:	8b 47 04             	mov    eax,DWORD PTR [edi+0x4]
  403f10:	25 00 06 00 00       	and    eax,0x600
  403f15:	3d 00 02 00 00       	cmp    eax,0x200
  403f1a:	0f 84 f1 01 00 00    	je     404111 <___pformat_emit_float+0x2c1>
  403f20:	85 db                	test   ebx,ebx
  403f22:	0f 8e 10 02 00 00    	jle    404138 <___pformat_emit_float+0x2e8>
  403f28:	0f b6 16             	movzx  edx,BYTE PTR [esi]
  403f2b:	b8 30 00 00 00       	mov    eax,0x30
  403f30:	84 d2                	test   dl,dl
  403f32:	74 06                	je     403f3a <___pformat_emit_float+0xea>
  403f34:	83 c6 01             	add    esi,0x1
  403f37:	0f be c2             	movsx  eax,dl
  403f3a:	89 fa                	mov    edx,edi
  403f3c:	e8 4f f7 ff ff       	call   403690 <___pformat_putc>
  403f41:	83 eb 01             	sub    ebx,0x1
  403f44:	75 e2                	jne    403f28 <___pformat_emit_float+0xd8>
  403f46:	8b 47 0c             	mov    eax,DWORD PTR [edi+0xc]
  403f49:	85 c0                	test   eax,eax
  403f4b:	0f 8e 3f 01 00 00    	jle    404090 <___pformat_emit_float+0x240>
  403f51:	83 7f 10 fd          	cmp    DWORD PTR [edi+0x10],0xfffffffd
  403f55:	0f 84 49 01 00 00    	je     4040a4 <___pformat_emit_float+0x254>
  403f5b:	0f b7 57 14          	movzx  edx,WORD PTR [edi+0x14]
  403f5f:	66 85 d2             	test   dx,dx
  403f62:	0f 85 7f 00 00 00    	jne    403fe7 <___pformat_emit_float+0x197>
  403f68:	b8 2e 00 00 00       	mov    eax,0x2e
  403f6d:	89 fa                	mov    edx,edi
  403f6f:	e8 1c f7 ff ff       	call   403690 <___pformat_putc>
  403f74:	8b 47 0c             	mov    eax,DWORD PTR [edi+0xc]
  403f77:	85 db                	test   ebx,ebx
  403f79:	74 21                	je     403f9c <___pformat_emit_float+0x14c>
  403f7b:	e9 d8 00 00 00       	jmp    404058 <___pformat_emit_float+0x208>
  403f80:	0f b6 16             	movzx  edx,BYTE PTR [esi]
  403f83:	b8 30 00 00 00       	mov    eax,0x30
  403f88:	84 d2                	test   dl,dl
  403f8a:	74 06                	je     403f92 <___pformat_emit_float+0x142>
  403f8c:	83 c6 01             	add    esi,0x1
  403f8f:	0f be c2             	movsx  eax,dl
  403f92:	89 fa                	mov    edx,edi
  403f94:	e8 f7 f6 ff ff       	call   403690 <___pformat_putc>
  403f99:	8b 47 0c             	mov    eax,DWORD PTR [edi+0xc]
  403f9c:	8d 50 ff             	lea    edx,[eax-0x1]
  403f9f:	85 c0                	test   eax,eax
  403fa1:	89 57 0c             	mov    DWORD PTR [edi+0xc],edx
  403fa4:	7f da                	jg     403f80 <___pformat_emit_float+0x130>
  403fa6:	8d 65 f4             	lea    esp,[ebp-0xc]
  403fa9:	5b                   	pop    ebx
  403faa:	5e                   	pop    esi
  403fab:	5f                   	pop    edi
  403fac:	5d                   	pop    ebp
  403fad:	c3                   	ret    
  403fae:	66 90                	xchg   ax,ax
  403fb0:	c7 47 08 ff ff ff ff 	mov    DWORD PTR [edi+0x8],0xffffffff
  403fb7:	8b 45 d4             	mov    eax,DWORD PTR [ebp-0x2c]
  403fba:	85 c0                	test   eax,eax
  403fbc:	0f 85 38 ff ff ff    	jne    403efa <___pformat_emit_float+0xaa>
  403fc2:	8b 47 04             	mov    eax,DWORD PTR [edi+0x4]
  403fc5:	f6 c4 01             	test   ah,0x1
  403fc8:	0f 85 32 01 00 00    	jne    404100 <___pformat_emit_float+0x2b0>
  403fce:	a8 40                	test   al,0x40
  403fd0:	0f 84 30 ff ff ff    	je     403f06 <___pformat_emit_float+0xb6>
  403fd6:	89 fa                	mov    edx,edi
  403fd8:	b8 20 00 00 00       	mov    eax,0x20
  403fdd:	e8 ae f6 ff ff       	call   403690 <___pformat_putc>
  403fe2:	e9 1f ff ff ff       	jmp    403f06 <___pformat_emit_float+0xb6>
  403fe7:	8b 47 10             	mov    eax,DWORD PTR [edi+0x10]
  403fea:	89 65 d4             	mov    DWORD PTR [ebp-0x2c],esp
  403fed:	83 c0 0f             	add    eax,0xf
  403ff0:	83 e0 f0             	and    eax,0xfffffff0
  403ff3:	e8 28 df ff ff       	call   401f20 <___chkstk_ms>
  403ff8:	29 c4                	sub    esp,eax
  403ffa:	8d 4c 24 10          	lea    ecx,[esp+0x10]
  403ffe:	8d 45 e4             	lea    eax,[ebp-0x1c]
  404001:	c7 45 e4 00 00 00 00 	mov    DWORD PTR [ebp-0x1c],0x0
  404008:	89 44 24 08          	mov    DWORD PTR [esp+0x8],eax
  40400c:	89 54 24 04          	mov    DWORD PTR [esp+0x4],edx
  404010:	89 0c 24             	mov    DWORD PTR [esp],ecx
  404013:	89 4d d0             	mov    DWORD PTR [ebp-0x30],ecx
  404016:	e8 35 19 00 00       	call   405950 <_wcrtomb>
  40401b:	85 c0                	test   eax,eax
  40401d:	0f 8e 42 01 00 00    	jle    404165 <___pformat_emit_float+0x315>
  404023:	8b 4d d0             	mov    ecx,DWORD PTR [ebp-0x30]
  404026:	89 5d cc             	mov    DWORD PTR [ebp-0x34],ebx
  404029:	89 75 d0             	mov    DWORD PTR [ebp-0x30],esi
  40402c:	01 c8                	add    eax,ecx
  40402e:	89 cb                	mov    ebx,ecx
  404030:	89 c6                	mov    esi,eax
  404032:	83 c3 01             	add    ebx,0x1
  404035:	0f be 43 ff          	movsx  eax,BYTE PTR [ebx-0x1]
  404039:	89 fa                	mov    edx,edi
  40403b:	e8 50 f6 ff ff       	call   403690 <___pformat_putc>
  404040:	39 f3                	cmp    ebx,esi
  404042:	75 ee                	jne    404032 <___pformat_emit_float+0x1e2>
  404044:	8b 75 d0             	mov    esi,DWORD PTR [ebp-0x30]
  404047:	8b 5d cc             	mov    ebx,DWORD PTR [ebp-0x34]
  40404a:	85 db                	test   ebx,ebx
  40404c:	8b 65 d4             	mov    esp,DWORD PTR [ebp-0x2c]
  40404f:	8b 47 0c             	mov    eax,DWORD PTR [edi+0xc]
  404052:	0f 84 44 ff ff ff    	je     403f9c <___pformat_emit_float+0x14c>
  404058:	01 d8                	add    eax,ebx
  40405a:	89 47 0c             	mov    DWORD PTR [edi+0xc],eax
  40405d:	8d 76 00             	lea    esi,[esi+0x0]
  404060:	89 fa                	mov    edx,edi
  404062:	b8 30 00 00 00       	mov    eax,0x30
  404067:	e8 24 f6 ff ff       	call   403690 <___pformat_putc>
  40406c:	83 c3 01             	add    ebx,0x1
  40406f:	78 ef                	js     404060 <___pformat_emit_float+0x210>
  404071:	e9 23 ff ff ff       	jmp    403f99 <___pformat_emit_float+0x149>
  404076:	83 e8 01             	sub    eax,0x1
  404079:	85 c0                	test   eax,eax
  40407b:	89 47 08             	mov    DWORD PTR [edi+0x8],eax
  40407e:	0f 84 33 ff ff ff    	je     403fb7 <___pformat_emit_float+0x167>
  404084:	8b 57 04             	mov    edx,DWORD PTR [edi+0x4]
  404087:	e9 3f fe ff ff       	jmp    403ecb <___pformat_emit_float+0x7b>
  40408c:	8d 74 26 00          	lea    esi,[esi+eiz*1+0x0]
  404090:	f6 47 05 08          	test   BYTE PTR [edi+0x5],0x8
  404094:	0f 84 dd fe ff ff    	je     403f77 <___pformat_emit_float+0x127>
  40409a:	83 7f 10 fd          	cmp    DWORD PTR [edi+0x10],0xfffffffd
  40409e:	0f 85 b7 fe ff ff    	jne    403f5b <___pformat_emit_float+0x10b>
  4040a4:	c7 45 e4 00 00 00 00 	mov    DWORD PTR [ebp-0x1c],0x0
  4040ab:	e8 e0 3e 00 00       	call   407f90 <_localeconv>
  4040b0:	8d 55 e4             	lea    edx,[ebp-0x1c]
  4040b3:	89 54 24 0c          	mov    DWORD PTR [esp+0xc],edx
  4040b7:	c7 44 24 08 10 00 00 	mov    DWORD PTR [esp+0x8],0x10
  4040be:	00 
  4040bf:	8b 00                	mov    eax,DWORD PTR [eax]
  4040c1:	89 44 24 04          	mov    DWORD PTR [esp+0x4],eax
  4040c5:	8d 45 e2             	lea    eax,[ebp-0x1e]
  4040c8:	89 04 24             	mov    DWORD PTR [esp],eax
  4040cb:	e8 50 15 00 00       	call   405620 <_mbrtowc>
  4040d0:	85 c0                	test   eax,eax
  4040d2:	0f 8e 9e 00 00 00    	jle    404176 <___pformat_emit_float+0x326>
  4040d8:	0f b7 55 e2          	movzx  edx,WORD PTR [ebp-0x1e]
  4040dc:	66 89 57 14          	mov    WORD PTR [edi+0x14],dx
  4040e0:	89 47 10             	mov    DWORD PTR [edi+0x10],eax
  4040e3:	e9 77 fe ff ff       	jmp    403f5f <___pformat_emit_float+0x10f>
  4040e8:	85 c0                	test   eax,eax
  4040ea:	0f 8e 8b fd ff ff    	jle    403e7b <___pformat_emit_float+0x2b>
  4040f0:	83 e8 01             	sub    eax,0x1
  4040f3:	89 47 08             	mov    DWORD PTR [edi+0x8],eax
  4040f6:	e9 88 fd ff ff       	jmp    403e83 <___pformat_emit_float+0x33>
  4040fb:	90                   	nop
  4040fc:	8d 74 26 00          	lea    esi,[esi+eiz*1+0x0]
  404100:	89 fa                	mov    edx,edi
  404102:	b8 2b 00 00 00       	mov    eax,0x2b
  404107:	e8 84 f5 ff ff       	call   403690 <___pformat_putc>
  40410c:	e9 f5 fd ff ff       	jmp    403f06 <___pformat_emit_float+0xb6>
  404111:	83 ea 01             	sub    edx,0x1
  404114:	89 57 08             	mov    DWORD PTR [edi+0x8],edx
  404117:	89 fa                	mov    edx,edi
  404119:	b8 30 00 00 00       	mov    eax,0x30
  40411e:	e8 6d f5 ff ff       	call   403690 <___pformat_putc>
  404123:	8b 47 08             	mov    eax,DWORD PTR [edi+0x8]
  404126:	8d 50 ff             	lea    edx,[eax-0x1]
  404129:	85 c0                	test   eax,eax
  40412b:	89 57 08             	mov    DWORD PTR [edi+0x8],edx
  40412e:	7f e7                	jg     404117 <___pformat_emit_float+0x2c7>
  404130:	85 db                	test   ebx,ebx
  404132:	0f 8f f0 fd ff ff    	jg     403f28 <___pformat_emit_float+0xd8>
  404138:	89 fa                	mov    edx,edi
  40413a:	b8 30 00 00 00       	mov    eax,0x30
  40413f:	e8 4c f5 ff ff       	call   403690 <___pformat_putc>
  404144:	e9 fd fd ff ff       	jmp    403f46 <___pformat_emit_float+0xf6>
  404149:	8d b4 26 00 00 00 00 	lea    esi,[esi+eiz*1+0x0]
  404150:	f6 47 05 08          	test   BYTE PTR [edi+0x5],0x8
  404154:	0f 84 57 fd ff ff    	je     403eb1 <___pformat_emit_float+0x61>
  40415a:	8d b6 00 00 00 00    	lea    esi,[esi+0x0]
  404160:	e9 3e fd ff ff       	jmp    403ea3 <___pformat_emit_float+0x53>
  404165:	89 fa                	mov    edx,edi
  404167:	b8 2e 00 00 00       	mov    eax,0x2e
  40416c:	e8 1f f5 ff ff       	call   403690 <___pformat_putc>
  404171:	e9 d4 fe ff ff       	jmp    40404a <___pformat_emit_float+0x1fa>
  404176:	0f b7 57 14          	movzx  edx,WORD PTR [edi+0x14]
  40417a:	e9 61 ff ff ff       	jmp    4040e0 <___pformat_emit_float+0x290>
  40417f:	90                   	nop

00404180 <___pformat_emit_efloat>:
  404180:	55                   	push   ebp
  404181:	83 e9 01             	sub    ecx,0x1
  404184:	57                   	push   edi
  404185:	89 d5                	mov    ebp,edx
  404187:	56                   	push   esi
  404188:	be 01 00 00 00       	mov    esi,0x1
  40418d:	53                   	push   ebx
  40418e:	bb 67 66 66 66       	mov    ebx,0x66666667
  404193:	83 ec 1c             	sub    esp,0x1c
  404196:	89 44 24 04          	mov    DWORD PTR [esp+0x4],eax
  40419a:	89 c8                	mov    eax,ecx
  40419c:	8b 7c 24 30          	mov    edi,DWORD PTR [esp+0x30]
  4041a0:	c1 f8 1f             	sar    eax,0x1f
  4041a3:	89 44 24 0c          	mov    DWORD PTR [esp+0xc],eax
  4041a7:	89 c8                	mov    eax,ecx
  4041a9:	f7 eb                	imul   ebx
  4041ab:	89 4c 24 08          	mov    DWORD PTR [esp+0x8],ecx
  4041af:	c1 f9 1f             	sar    ecx,0x1f
  4041b2:	c1 fa 02             	sar    edx,0x2
  4041b5:	89 d3                	mov    ebx,edx
  4041b7:	29 cb                	sub    ebx,ecx
  4041b9:	74 18                	je     4041d3 <___pformat_emit_efloat+0x53>
  4041bb:	b9 67 66 66 66       	mov    ecx,0x66666667
  4041c0:	89 d8                	mov    eax,ebx
  4041c2:	83 c6 01             	add    esi,0x1
  4041c5:	f7 e9                	imul   ecx
  4041c7:	c1 fb 1f             	sar    ebx,0x1f
  4041ca:	c1 fa 02             	sar    edx,0x2
  4041cd:	29 da                	sub    edx,ebx
  4041cf:	89 d3                	mov    ebx,edx
  4041d1:	75 ed                	jne    4041c0 <___pformat_emit_efloat+0x40>
  4041d3:	8b 47 20             	mov    eax,DWORD PTR [edi+0x20]
  4041d6:	39 c6                	cmp    esi,eax
  4041d8:	7d 02                	jge    4041dc <___pformat_emit_efloat+0x5c>
  4041da:	89 c6                	mov    esi,eax
  4041dc:	8b 57 08             	mov    edx,DWORD PTR [edi+0x8]
  4041df:	8d 46 02             	lea    eax,[esi+0x2]
  4041e2:	39 c2                	cmp    edx,eax
  4041e4:	7f 5a                	jg     404240 <___pformat_emit_efloat+0xc0>
  4041e6:	c7 47 08 ff ff ff ff 	mov    DWORD PTR [edi+0x8],0xffffffff
  4041ed:	8b 44 24 04          	mov    eax,DWORD PTR [esp+0x4]
  4041f1:	b9 01 00 00 00       	mov    ecx,0x1
  4041f6:	89 ea                	mov    edx,ebp
  4041f8:	89 3c 24             	mov    DWORD PTR [esp],edi
  4041fb:	83 c6 01             	add    esi,0x1
  4041fe:	e8 4d fc ff ff       	call   403e50 <___pformat_emit_float>
  404203:	8b 47 20             	mov    eax,DWORD PTR [edi+0x20]
  404206:	89 47 0c             	mov    DWORD PTR [edi+0xc],eax
  404209:	8b 47 04             	mov    eax,DWORD PTR [edi+0x4]
  40420c:	89 c2                	mov    edx,eax
  40420e:	83 e0 20             	and    eax,0x20
  404211:	81 ca c0 01 00 00    	or     edx,0x1c0
  404217:	83 c8 45             	or     eax,0x45
  40421a:	89 57 04             	mov    DWORD PTR [edi+0x4],edx
  40421d:	89 fa                	mov    edx,edi
  40421f:	e8 6c f4 ff ff       	call   403690 <___pformat_putc>
  404224:	8b 44 24 08          	mov    eax,DWORD PTR [esp+0x8]
  404228:	89 f9                	mov    ecx,edi
  40422a:	01 77 08             	add    DWORD PTR [edi+0x8],esi
  40422d:	8b 54 24 0c          	mov    edx,DWORD PTR [esp+0xc]
  404231:	e8 0a f7 ff ff       	call   403940 <___pformat_int>
  404236:	83 c4 1c             	add    esp,0x1c
  404239:	5b                   	pop    ebx
  40423a:	5e                   	pop    esi
  40423b:	5f                   	pop    edi
  40423c:	5d                   	pop    ebp
  40423d:	c3                   	ret    
  40423e:	66 90                	xchg   ax,ax
  404240:	29 c2                	sub    edx,eax
  404242:	89 57 08             	mov    DWORD PTR [edi+0x8],edx
  404245:	eb a6                	jmp    4041ed <___pformat_emit_efloat+0x6d>
  404247:	89 f6                	mov    esi,esi
  404249:	8d bc 27 00 00 00 00 	lea    edi,[edi+eiz*1+0x0]

00404250 <___pformat_efloat>:
  404250:	56                   	push   esi
  404251:	53                   	push   ebx
  404252:	89 c3                	mov    ebx,eax
  404254:	83 ec 44             	sub    esp,0x44
  404257:	8b 40 0c             	mov    eax,DWORD PTR [eax+0xc]
  40425a:	85 c0                	test   eax,eax
  40425c:	78 72                	js     4042d0 <___pformat_efloat+0x80>
  40425e:	83 c0 01             	add    eax,0x1
  404261:	db 6c 24 50          	fld    TBYTE PTR [esp+0x50]
  404265:	89 44 24 10          	mov    DWORD PTR [esp+0x10],eax
  404269:	8d 54 24 28          	lea    edx,[esp+0x28]
  40426d:	db 7c 24 30          	fstp   TBYTE PTR [esp+0x30]
  404271:	8b 44 24 30          	mov    eax,DWORD PTR [esp+0x30]
  404275:	89 54 24 18          	mov    DWORD PTR [esp+0x18],edx
  404279:	8d 54 24 2c          	lea    edx,[esp+0x2c]
  40427d:	89 54 24 14          	mov    DWORD PTR [esp+0x14],edx
  404281:	89 04 24             	mov    DWORD PTR [esp],eax
  404284:	8b 44 24 34          	mov    eax,DWORD PTR [esp+0x34]
  404288:	89 44 24 04          	mov    DWORD PTR [esp+0x4],eax
  40428c:	8b 44 24 38          	mov    eax,DWORD PTR [esp+0x38]
  404290:	89 44 24 08          	mov    DWORD PTR [esp+0x8],eax
  404294:	8b 44 24 3c          	mov    eax,DWORD PTR [esp+0x3c]
  404298:	89 44 24 0c          	mov    DWORD PTR [esp+0xc],eax
  40429c:	b8 02 00 00 00       	mov    eax,0x2
  4042a1:	e8 ea f2 ff ff       	call   403590 <___pformat_cvt>
  4042a6:	8b 4c 24 2c          	mov    ecx,DWORD PTR [esp+0x2c]
  4042aa:	81 f9 00 80 ff ff    	cmp    ecx,0xffff8000
  4042b0:	89 c6                	mov    esi,eax
  4042b2:	74 2c                	je     4042e0 <___pformat_efloat+0x90>
  4042b4:	89 c2                	mov    edx,eax
  4042b6:	8b 44 24 28          	mov    eax,DWORD PTR [esp+0x28]
  4042ba:	89 1c 24             	mov    DWORD PTR [esp],ebx
  4042bd:	e8 be fe ff ff       	call   404180 <___pformat_emit_efloat>
  4042c2:	89 34 24             	mov    DWORD PTR [esp],esi
  4042c5:	e8 e6 2e 00 00       	call   4071b0 <___freedtoa>
  4042ca:	83 c4 44             	add    esp,0x44
  4042cd:	5b                   	pop    ebx
  4042ce:	5e                   	pop    esi
  4042cf:	c3                   	ret    
  4042d0:	c7 43 0c 06 00 00 00 	mov    DWORD PTR [ebx+0xc],0x6
  4042d7:	b8 07 00 00 00       	mov    eax,0x7
  4042dc:	eb 83                	jmp    404261 <___pformat_efloat+0x11>
  4042de:	66 90                	xchg   ax,ax
  4042e0:	89 c2                	mov    edx,eax
  4042e2:	8b 44 24 28          	mov    eax,DWORD PTR [esp+0x28]
  4042e6:	89 d9                	mov    ecx,ebx
  4042e8:	e8 c3 f5 ff ff       	call   4038b0 <___pformat_emit_inf_or_nan>
  4042ed:	89 34 24             	mov    DWORD PTR [esp],esi
  4042f0:	e8 bb 2e 00 00       	call   4071b0 <___freedtoa>
  4042f5:	83 c4 44             	add    esp,0x44
  4042f8:	5b                   	pop    ebx
  4042f9:	5e                   	pop    esi
  4042fa:	c3                   	ret    
  4042fb:	90                   	nop
  4042fc:	8d 74 26 00          	lea    esi,[esi+eiz*1+0x0]

00404300 <___pformat_float>:
  404300:	57                   	push   edi
  404301:	56                   	push   esi
  404302:	53                   	push   ebx
  404303:	89 c3                	mov    ebx,eax
  404305:	83 ec 40             	sub    esp,0x40
  404308:	8b 40 0c             	mov    eax,DWORD PTR [eax+0xc]
  40430b:	85 c0                	test   eax,eax
  40430d:	0f 88 9d 00 00 00    	js     4043b0 <___pformat_float+0xb0>
  404313:	db 6c 24 50          	fld    TBYTE PTR [esp+0x50]
  404317:	89 44 24 10          	mov    DWORD PTR [esp+0x10],eax
  40431b:	8d 54 24 28          	lea    edx,[esp+0x28]
  40431f:	db 7c 24 30          	fstp   TBYTE PTR [esp+0x30]
  404323:	8b 44 24 30          	mov    eax,DWORD PTR [esp+0x30]
  404327:	89 54 24 18          	mov    DWORD PTR [esp+0x18],edx
  40432b:	8d 54 24 2c          	lea    edx,[esp+0x2c]
  40432f:	89 54 24 14          	mov    DWORD PTR [esp+0x14],edx
  404333:	89 04 24             	mov    DWORD PTR [esp],eax
  404336:	8b 44 24 34          	mov    eax,DWORD PTR [esp+0x34]
  40433a:	89 44 24 04          	mov    DWORD PTR [esp+0x4],eax
  40433e:	8b 44 24 38          	mov    eax,DWORD PTR [esp+0x38]
  404342:	89 44 24 08          	mov    DWORD PTR [esp+0x8],eax
  404346:	8b 44 24 3c          	mov    eax,DWORD PTR [esp+0x3c]
  40434a:	89 44 24 0c          	mov    DWORD PTR [esp+0xc],eax
  40434e:	b8 03 00 00 00       	mov    eax,0x3
  404353:	e8 38 f2 ff ff       	call   403590 <___pformat_cvt>
  404358:	8b 4c 24 2c          	mov    ecx,DWORD PTR [esp+0x2c]
  40435c:	81 f9 00 80 ff ff    	cmp    ecx,0xffff8000
  404362:	89 c7                	mov    edi,eax
  404364:	74 5b                	je     4043c1 <___pformat_float+0xc1>
  404366:	89 c2                	mov    edx,eax
  404368:	8b 44 24 28          	mov    eax,DWORD PTR [esp+0x28]
  40436c:	89 1c 24             	mov    DWORD PTR [esp],ebx
  40436f:	e8 dc fa ff ff       	call   403e50 <___pformat_emit_float>
  404374:	8b 43 08             	mov    eax,DWORD PTR [ebx+0x8]
  404377:	8d 50 ff             	lea    edx,[eax-0x1]
  40437a:	85 c0                	test   eax,eax
  40437c:	89 53 08             	mov    DWORD PTR [ebx+0x8],edx
  40437f:	7e 19                	jle    40439a <___pformat_float+0x9a>
  404381:	89 da                	mov    edx,ebx
  404383:	b8 20 00 00 00       	mov    eax,0x20
  404388:	e8 03 f3 ff ff       	call   403690 <___pformat_putc>
  40438d:	8b 4b 08             	mov    ecx,DWORD PTR [ebx+0x8]
  404390:	8d 71 ff             	lea    esi,[ecx-0x1]
  404393:	85 c9                	test   ecx,ecx
  404395:	89 73 08             	mov    DWORD PTR [ebx+0x8],esi
  404398:	7f e7                	jg     404381 <___pformat_float+0x81>
  40439a:	89 3c 24             	mov    DWORD PTR [esp],edi
  40439d:	e8 0e 2e 00 00       	call   4071b0 <___freedtoa>
  4043a2:	83 c4 40             	add    esp,0x40
  4043a5:	5b                   	pop    ebx
  4043a6:	5e                   	pop    esi
  4043a7:	5f                   	pop    edi
  4043a8:	c3                   	ret    
  4043a9:	8d b4 26 00 00 00 00 	lea    esi,[esi+eiz*1+0x0]
  4043b0:	c7 43 0c 06 00 00 00 	mov    DWORD PTR [ebx+0xc],0x6
  4043b7:	b8 06 00 00 00       	mov    eax,0x6
  4043bc:	e9 52 ff ff ff       	jmp    404313 <___pformat_float+0x13>
  4043c1:	89 c2                	mov    edx,eax
  4043c3:	8b 44 24 28          	mov    eax,DWORD PTR [esp+0x28]
  4043c7:	89 d9                	mov    ecx,ebx
  4043c9:	e8 e2 f4 ff ff       	call   4038b0 <___pformat_emit_inf_or_nan>
  4043ce:	89 3c 24             	mov    DWORD PTR [esp],edi
  4043d1:	e8 da 2d 00 00       	call   4071b0 <___freedtoa>
  4043d6:	83 c4 40             	add    esp,0x40
  4043d9:	5b                   	pop    ebx
  4043da:	5e                   	pop    esi
  4043db:	5f                   	pop    edi
  4043dc:	c3                   	ret    
  4043dd:	8d 76 00             	lea    esi,[esi+0x0]

004043e0 <___pformat_gfloat>:
  4043e0:	57                   	push   edi
  4043e1:	56                   	push   esi
  4043e2:	53                   	push   ebx
  4043e3:	89 c3                	mov    ebx,eax
  4043e5:	83 ec 40             	sub    esp,0x40
  4043e8:	8b 40 0c             	mov    eax,DWORD PTR [eax+0xc]
  4043eb:	85 c0                	test   eax,eax
  4043ed:	0f 88 1d 01 00 00    	js     404510 <___pformat_gfloat+0x130>
  4043f3:	0f 84 fa 00 00 00    	je     4044f3 <___pformat_gfloat+0x113>
  4043f9:	db 6c 24 50          	fld    TBYTE PTR [esp+0x50]
  4043fd:	89 44 24 10          	mov    DWORD PTR [esp+0x10],eax
  404401:	8d 54 24 28          	lea    edx,[esp+0x28]
  404405:	db 7c 24 30          	fstp   TBYTE PTR [esp+0x30]
  404409:	8b 44 24 30          	mov    eax,DWORD PTR [esp+0x30]
  40440d:	89 54 24 18          	mov    DWORD PTR [esp+0x18],edx
  404411:	8d 54 24 2c          	lea    edx,[esp+0x2c]
  404415:	89 54 24 14          	mov    DWORD PTR [esp+0x14],edx
  404419:	89 04 24             	mov    DWORD PTR [esp],eax
  40441c:	8b 44 24 34          	mov    eax,DWORD PTR [esp+0x34]
  404420:	89 44 24 04          	mov    DWORD PTR [esp+0x4],eax
  404424:	8b 44 24 38          	mov    eax,DWORD PTR [esp+0x38]
  404428:	89 44 24 08          	mov    DWORD PTR [esp+0x8],eax
  40442c:	8b 44 24 3c          	mov    eax,DWORD PTR [esp+0x3c]
  404430:	89 44 24 0c          	mov    DWORD PTR [esp+0xc],eax
  404434:	b8 02 00 00 00       	mov    eax,0x2
  404439:	e8 52 f1 ff ff       	call   403590 <___pformat_cvt>
  40443e:	8b 74 24 2c          	mov    esi,DWORD PTR [esp+0x2c]
  404442:	81 fe 00 80 ff ff    	cmp    esi,0xffff8000
  404448:	89 c7                	mov    edi,eax
  40444a:	0f 84 e0 00 00 00    	je     404530 <___pformat_gfloat+0x150>
  404450:	83 fe fd             	cmp    esi,0xfffffffd
  404453:	7c 6b                	jl     4044c0 <___pformat_gfloat+0xe0>
  404455:	8b 43 0c             	mov    eax,DWORD PTR [ebx+0xc]
  404458:	39 c6                	cmp    esi,eax
  40445a:	7f 64                	jg     4044c0 <___pformat_gfloat+0xe0>
  40445c:	f6 43 05 08          	test   BYTE PTR [ebx+0x5],0x8
  404460:	0f 85 bb 00 00 00    	jne    404521 <___pformat_gfloat+0x141>
  404466:	89 3c 24             	mov    DWORD PTR [esp],edi
  404469:	e8 d2 3a 00 00       	call   407f40 <_strlen>
  40446e:	29 f0                	sub    eax,esi
  404470:	85 c0                	test   eax,eax
  404472:	89 43 0c             	mov    DWORD PTR [ebx+0xc],eax
  404475:	0f 88 c5 00 00 00    	js     404540 <___pformat_gfloat+0x160>
  40447b:	8b 44 24 28          	mov    eax,DWORD PTR [esp+0x28]
  40447f:	89 fa                	mov    edx,edi
  404481:	89 f1                	mov    ecx,esi
  404483:	89 1c 24             	mov    DWORD PTR [esp],ebx
  404486:	e8 c5 f9 ff ff       	call   403e50 <___pformat_emit_float>
  40448b:	8b 43 08             	mov    eax,DWORD PTR [ebx+0x8]
  40448e:	8d 50 ff             	lea    edx,[eax-0x1]
  404491:	85 c0                	test   eax,eax
  404493:	89 53 08             	mov    DWORD PTR [ebx+0x8],edx
  404496:	7e 4c                	jle    4044e4 <___pformat_gfloat+0x104>
  404498:	89 da                	mov    edx,ebx
  40449a:	b8 20 00 00 00       	mov    eax,0x20
  40449f:	e8 ec f1 ff ff       	call   403690 <___pformat_putc>
  4044a4:	8b 4b 08             	mov    ecx,DWORD PTR [ebx+0x8]
  4044a7:	8d 71 ff             	lea    esi,[ecx-0x1]
  4044aa:	85 c9                	test   ecx,ecx
  4044ac:	89 73 08             	mov    DWORD PTR [ebx+0x8],esi
  4044af:	7f e7                	jg     404498 <___pformat_gfloat+0xb8>
  4044b1:	89 3c 24             	mov    DWORD PTR [esp],edi
  4044b4:	e8 f7 2c 00 00       	call   4071b0 <___freedtoa>
  4044b9:	83 c4 40             	add    esp,0x40
  4044bc:	5b                   	pop    ebx
  4044bd:	5e                   	pop    esi
  4044be:	5f                   	pop    edi
  4044bf:	c3                   	ret    
  4044c0:	f6 43 05 08          	test   BYTE PTR [ebx+0x5],0x8
  4044c4:	75 3e                	jne    404504 <___pformat_gfloat+0x124>
  4044c6:	89 3c 24             	mov    DWORD PTR [esp],edi
  4044c9:	e8 72 3a 00 00       	call   407f40 <_strlen>
  4044ce:	83 e8 01             	sub    eax,0x1
  4044d1:	89 43 0c             	mov    DWORD PTR [ebx+0xc],eax
  4044d4:	8b 44 24 28          	mov    eax,DWORD PTR [esp+0x28]
  4044d8:	89 f1                	mov    ecx,esi
  4044da:	89 fa                	mov    edx,edi
  4044dc:	89 1c 24             	mov    DWORD PTR [esp],ebx
  4044df:	e8 9c fc ff ff       	call   404180 <___pformat_emit_efloat>
  4044e4:	89 3c 24             	mov    DWORD PTR [esp],edi
  4044e7:	e8 c4 2c 00 00       	call   4071b0 <___freedtoa>
  4044ec:	83 c4 40             	add    esp,0x40
  4044ef:	5b                   	pop    ebx
  4044f0:	5e                   	pop    esi
  4044f1:	5f                   	pop    edi
  4044f2:	c3                   	ret    
  4044f3:	c7 43 0c 01 00 00 00 	mov    DWORD PTR [ebx+0xc],0x1
  4044fa:	b8 01 00 00 00       	mov    eax,0x1
  4044ff:	e9 f5 fe ff ff       	jmp    4043f9 <___pformat_gfloat+0x19>
  404504:	83 6b 0c 01          	sub    DWORD PTR [ebx+0xc],0x1
  404508:	eb ca                	jmp    4044d4 <___pformat_gfloat+0xf4>
  40450a:	8d b6 00 00 00 00    	lea    esi,[esi+0x0]
  404510:	c7 43 0c 06 00 00 00 	mov    DWORD PTR [ebx+0xc],0x6
  404517:	b8 06 00 00 00       	mov    eax,0x6
  40451c:	e9 d8 fe ff ff       	jmp    4043f9 <___pformat_gfloat+0x19>
  404521:	29 f0                	sub    eax,esi
  404523:	89 43 0c             	mov    DWORD PTR [ebx+0xc],eax
  404526:	e9 50 ff ff ff       	jmp    40447b <___pformat_gfloat+0x9b>
  40452b:	90                   	nop
  40452c:	8d 74 26 00          	lea    esi,[esi+eiz*1+0x0]
  404530:	89 c2                	mov    edx,eax
  404532:	8b 44 24 28          	mov    eax,DWORD PTR [esp+0x28]
  404536:	89 d9                	mov    ecx,ebx
  404538:	e8 73 f3 ff ff       	call   4038b0 <___pformat_emit_inf_or_nan>
  40453d:	eb a5                	jmp    4044e4 <___pformat_gfloat+0x104>
  40453f:	90                   	nop
  404540:	8b 53 08             	mov    edx,DWORD PTR [ebx+0x8]
  404543:	85 d2                	test   edx,edx
  404545:	0f 8e 30 ff ff ff    	jle    40447b <___pformat_gfloat+0x9b>
  40454b:	01 d0                	add    eax,edx
  40454d:	89 43 08             	mov    DWORD PTR [ebx+0x8],eax
  404550:	e9 26 ff ff ff       	jmp    40447b <___pformat_gfloat+0x9b>
  404555:	8d 74 26 00          	lea    esi,[esi+eiz*1+0x0]
  404559:	8d bc 27 00 00 00 00 	lea    edi,[edi+eiz*1+0x0]

00404560 <___pformat_xldouble>:
  404560:	55                   	push   ebp
  404561:	89 e5                	mov    ebp,esp
  404563:	57                   	push   edi
  404564:	89 c7                	mov    edi,eax
  404566:	56                   	push   esi
  404567:	53                   	push   ebx
  404568:	83 ec 6c             	sub    esp,0x6c
  40456b:	db 6d 08             	fld    TBYTE PTR [ebp+0x8]
  40456e:	d9 c0                	fld    st(0)
  404570:	db 7d c0             	fstp   TBYTE PTR [ebp-0x40]
  404573:	d9 e5                	fxam   
  404575:	9b df e0             	fstsw  ax
  404578:	66 25 00 45          	and    ax,0x4500
  40457c:	66 3d 00 01          	cmp    ax,0x100
  404580:	0f 84 1f 05 00 00    	je     404aa5 <___pformat_xldouble+0x545>
  404586:	0f b7 55 c8          	movzx  edx,WORD PTR [ebp-0x38]
  40458a:	89 d3                	mov    ebx,edx
  40458c:	81 e3 00 80 00 00    	and    ebx,0x8000
  404592:	0f 85 48 01 00 00    	jne    4046e0 <___pformat_xldouble+0x180>
  404598:	d9 e5                	fxam   
  40459a:	9b df e0             	fstsw  ax
  40459d:	dd d8                	fstp   st(0)
  40459f:	66 25 00 45          	and    ax,0x4500
  4045a3:	66 3d 00 05          	cmp    ax,0x500
  4045a7:	0f 84 16 05 00 00    	je     404ac3 <___pformat_xldouble+0x563>
  4045ad:	66 81 e2 ff 7f       	and    dx,0x7fff
  4045b2:	0f 84 b8 01 00 00    	je     404770 <___pformat_xldouble+0x210>
  4045b8:	8d b2 01 c0 ff ff    	lea    esi,[edx-0x3fff]
  4045be:	8b 45 c0             	mov    eax,DWORD PTR [ebp-0x40]
  4045c1:	8b 55 c4             	mov    edx,DWORD PTR [ebp-0x3c]
  4045c4:	8b 5f 0c             	mov    ebx,DWORD PTR [edi+0xc]
  4045c7:	83 fb 0e             	cmp    ebx,0xe
  4045ca:	0f 86 26 01 00 00    	jbe    4046f6 <___pformat_xldouble+0x196>
  4045d0:	89 d1                	mov    ecx,edx
  4045d2:	09 c1                	or     ecx,eax
  4045d4:	0f 84 fc 04 00 00    	je     404ad6 <___pformat_xldouble+0x576>
  4045da:	8d 4d d6             	lea    ecx,[ebp-0x2a]
  4045dd:	89 4d a4             	mov    DWORD PTR [ebp-0x5c],ecx
  4045e0:	89 4d ac             	mov    DWORD PTR [ebp-0x54],ecx
  4045e3:	89 7d a8             	mov    DWORD PTR [ebp-0x58],edi
  4045e6:	eb 5e                	jmp    404646 <___pformat_xldouble+0xe6>
  4045e8:	8b 4d a8             	mov    ecx,DWORD PTR [ebp-0x58]
  4045eb:	8b 49 0c             	mov    ecx,DWORD PTR [ecx+0xc]
  4045ee:	85 c9                	test   ecx,ecx
  4045f0:	7e 09                	jle    4045fb <___pformat_xldouble+0x9b>
  4045f2:	8b 5d a8             	mov    ebx,DWORD PTR [ebp-0x58]
  4045f5:	83 e9 01             	sub    ecx,0x1
  4045f8:	89 4b 0c             	mov    DWORD PTR [ebx+0xc],ecx
  4045fb:	8b 4d ac             	mov    ecx,DWORD PTR [ebp-0x54]
  4045fe:	0f ac d0 04          	shrd   eax,edx,0x4
  404602:	c1 ea 04             	shr    edx,0x4
  404605:	85 ff                	test   edi,edi
  404607:	89 4d b0             	mov    DWORD PTR [ebp-0x50],ecx
  40460a:	0f 84 a8 00 00 00    	je     4046b8 <___pformat_xldouble+0x158>
  404610:	8b 4d b0             	mov    ecx,DWORD PTR [ebp-0x50]
  404613:	83 c1 01             	add    ecx,0x1
  404616:	83 ff 09             	cmp    edi,0x9
  404619:	89 4d ac             	mov    DWORD PTR [ebp-0x54],ecx
  40461c:	0f 8e b5 00 00 00    	jle    4046d7 <___pformat_xldouble+0x177>
  404622:	8d 4f 37             	lea    ecx,[edi+0x37]
  404625:	8b 7d a8             	mov    edi,DWORD PTR [ebp-0x58]
  404628:	8b 7f 04             	mov    edi,DWORD PTR [edi+0x4]
  40462b:	89 7d a0             	mov    DWORD PTR [ebp-0x60],edi
  40462e:	0f b6 5d a0          	movzx  ebx,BYTE PTR [ebp-0x60]
  404632:	83 e3 20             	and    ebx,0x20
  404635:	09 d9                	or     ecx,ebx
  404637:	8b 7d b0             	mov    edi,DWORD PTR [ebp-0x50]
  40463a:	88 0f                	mov    BYTE PTR [edi],cl
  40463c:	89 d7                	mov    edi,edx
  40463e:	09 c7                	or     edi,eax
  404640:	0f 84 60 01 00 00    	je     4047a6 <___pformat_xldouble+0x246>
  404646:	89 c7                	mov    edi,eax
  404648:	89 c1                	mov    ecx,eax
  40464a:	83 e7 0f             	and    edi,0xf
  40464d:	89 fb                	mov    ebx,edi
  40464f:	31 f9                	xor    ecx,edi
  404651:	c1 fb 1f             	sar    ebx,0x1f
  404654:	31 d3                	xor    ebx,edx
  404656:	09 cb                	or     ebx,ecx
  404658:	75 8e                	jne    4045e8 <___pformat_xldouble+0x88>
  40465a:	8b 4d a4             	mov    ecx,DWORD PTR [ebp-0x5c]
  40465d:	39 4d ac             	cmp    DWORD PTR [ebp-0x54],ecx
  404660:	77 1e                	ja     404680 <___pformat_xldouble+0x120>
  404662:	8b 4d a8             	mov    ecx,DWORD PTR [ebp-0x58]
  404665:	f6 41 05 08          	test   BYTE PTR [ecx+0x5],0x8
  404669:	75 15                	jne    404680 <___pformat_xldouble+0x120>
  40466b:	8b 4d ac             	mov    ecx,DWORD PTR [ebp-0x54]
  40466e:	89 4d b0             	mov    DWORD PTR [ebp-0x50],ecx
  404671:	8b 4d a8             	mov    ecx,DWORD PTR [ebp-0x58]
  404674:	8b 59 0c             	mov    ebx,DWORD PTR [ecx+0xc]
  404677:	85 db                	test   ebx,ebx
  404679:	7e 11                	jle    40468c <___pformat_xldouble+0x12c>
  40467b:	90                   	nop
  40467c:	8d 74 26 00          	lea    esi,[esi+eiz*1+0x0]
  404680:	8b 4d ac             	mov    ecx,DWORD PTR [ebp-0x54]
  404683:	8d 59 01             	lea    ebx,[ecx+0x1]
  404686:	89 5d b0             	mov    DWORD PTR [ebp-0x50],ebx
  404689:	c6 01 2e             	mov    BYTE PTR [ecx],0x2e
  40468c:	89 c1                	mov    ecx,eax
  40468e:	83 f1 01             	xor    ecx,0x1
  404691:	09 d1                	or     ecx,edx
  404693:	74 17                	je     4046ac <___pformat_xldouble+0x14c>
  404695:	8d 4e ff             	lea    ecx,[esi-0x1]
  404698:	0f ac d0 01          	shrd   eax,edx,0x1
  40469c:	89 ce                	mov    esi,ecx
  40469e:	89 c3                	mov    ebx,eax
  4046a0:	d1 ea                	shr    edx,1
  4046a2:	83 f3 01             	xor    ebx,0x1
  4046a5:	09 d3                	or     ebx,edx
  4046a7:	8d 4e ff             	lea    ecx,[esi-0x1]
  4046aa:	75 ec                	jne    404698 <___pformat_xldouble+0x138>
  4046ac:	31 c0                	xor    eax,eax
  4046ae:	31 d2                	xor    edx,edx
  4046b0:	85 ff                	test   edi,edi
  4046b2:	0f 85 58 ff ff ff    	jne    404610 <___pformat_xldouble+0xb0>
  4046b8:	8b 4d a4             	mov    ecx,DWORD PTR [ebp-0x5c]
  4046bb:	39 4d b0             	cmp    DWORD PTR [ebp-0x50],ecx
  4046be:	77 0e                	ja     4046ce <___pformat_xldouble+0x16e>
  4046c0:	8b 4d a8             	mov    ecx,DWORD PTR [ebp-0x58]
  4046c3:	8b 49 0c             	mov    ecx,DWORD PTR [ecx+0xc]
  4046c6:	85 c9                	test   ecx,ecx
  4046c8:	0f 88 b7 01 00 00    	js     404885 <___pformat_xldouble+0x325>
  4046ce:	8b 4d b0             	mov    ecx,DWORD PTR [ebp-0x50]
  4046d1:	83 c1 01             	add    ecx,0x1
  4046d4:	89 4d ac             	mov    DWORD PTR [ebp-0x54],ecx
  4046d7:	8d 4f 30             	lea    ecx,[edi+0x30]
  4046da:	e9 58 ff ff ff       	jmp    404637 <___pformat_xldouble+0xd7>
  4046df:	90                   	nop
  4046e0:	81 4f 04 80 00 00 00 	or     DWORD PTR [edi+0x4],0x80
  4046e7:	e9 ac fe ff ff       	jmp    404598 <___pformat_xldouble+0x38>
  4046ec:	8d 74 26 00          	lea    esi,[esi+eiz*1+0x0]
  4046f0:	0f a4 c2 01          	shld   edx,eax,0x1
  4046f4:	01 c0                	add    eax,eax
  4046f6:	85 d2                	test   edx,edx
  4046f8:	79 f6                	jns    4046f0 <___pformat_xldouble+0x190>
  4046fa:	b9 0e 00 00 00       	mov    ecx,0xe
  4046ff:	0f ac d0 01          	shrd   eax,edx,0x1
  404703:	29 d9                	sub    ecx,ebx
  404705:	d1 ea                	shr    edx,1
  404707:	c1 e1 02             	shl    ecx,0x2
  40470a:	89 45 b0             	mov    DWORD PTR [ebp-0x50],eax
  40470d:	b8 04 00 00 00       	mov    eax,0x4
  404712:	89 55 b4             	mov    DWORD PTR [ebp-0x4c],edx
  404715:	31 d2                	xor    edx,edx
  404717:	0f a5 c2             	shld   edx,eax,cl
  40471a:	d3 e0                	shl    eax,cl
  40471c:	f6 c1 20             	test   cl,0x20
  40471f:	74 04                	je     404725 <___pformat_xldouble+0x1c5>
  404721:	89 c2                	mov    edx,eax
  404723:	31 c0                	xor    eax,eax
  404725:	01 45 b0             	add    DWORD PTR [ebp-0x50],eax
  404728:	11 55 b4             	adc    DWORD PTR [ebp-0x4c],edx
  40472b:	8b 55 b4             	mov    edx,DWORD PTR [ebp-0x4c]
  40472e:	8b 45 b0             	mov    eax,DWORD PTR [ebp-0x50]
  404731:	85 d2                	test   edx,edx
  404733:	0f 88 64 03 00 00    	js     404a9d <___pformat_xldouble+0x53d>
  404739:	0f a4 c2 01          	shld   edx,eax,0x1
  40473d:	01 c0                	add    eax,eax
  40473f:	89 45 b0             	mov    DWORD PTR [ebp-0x50],eax
  404742:	89 55 b4             	mov    DWORD PTR [ebp-0x4c],edx
  404745:	8b 55 b4             	mov    edx,DWORD PTR [ebp-0x4c]
  404748:	b9 0f 00 00 00       	mov    ecx,0xf
  40474d:	8b 45 b0             	mov    eax,DWORD PTR [ebp-0x50]
  404750:	29 d9                	sub    ecx,ebx
  404752:	c1 e1 02             	shl    ecx,0x2
  404755:	0f ad d0             	shrd   eax,edx,cl
  404758:	d3 ea                	shr    edx,cl
  40475a:	f6 c1 20             	test   cl,0x20
  40475d:	0f 84 77 fe ff ff    	je     4045da <___pformat_xldouble+0x7a>
  404763:	89 d0                	mov    eax,edx
  404765:	31 d2                	xor    edx,edx
  404767:	e9 6e fe ff ff       	jmp    4045da <___pformat_xldouble+0x7a>
  40476c:	8d 74 26 00          	lea    esi,[esi+eiz*1+0x0]
  404770:	8b 55 c4             	mov    edx,DWORD PTR [ebp-0x3c]
  404773:	8b 45 c0             	mov    eax,DWORD PTR [ebp-0x40]
  404776:	89 d6                	mov    esi,edx
  404778:	09 c6                	or     esi,eax
  40477a:	0f 84 d7 02 00 00    	je     404a57 <___pformat_xldouble+0x4f7>
  404780:	85 d2                	test   edx,edx
  404782:	0f 88 84 03 00 00    	js     404b0c <___pformat_xldouble+0x5ac>
  404788:	b9 01 c0 ff ff       	mov    ecx,0xffffc001
  40478d:	8d 76 00             	lea    esi,[esi+0x0]
  404790:	0f a4 c2 01          	shld   edx,eax,0x1
  404794:	89 cb                	mov    ebx,ecx
  404796:	01 c0                	add    eax,eax
  404798:	83 e9 01             	sub    ecx,0x1
  40479b:	85 d2                	test   edx,edx
  40479d:	79 f1                	jns    404790 <___pformat_xldouble+0x230>
  40479f:	89 de                	mov    esi,ebx
  4047a1:	e9 1e fe ff ff       	jmp    4045c4 <___pformat_xldouble+0x64>
  4047a6:	8b 45 a4             	mov    eax,DWORD PTR [ebp-0x5c]
  4047a9:	39 45 ac             	cmp    DWORD PTR [ebp-0x54],eax
  4047ac:	8b 7d a8             	mov    edi,DWORD PTR [ebp-0x58]
  4047af:	0f 84 52 03 00 00    	je     404b07 <___pformat_xldouble+0x5a7>
  4047b5:	8b 47 04             	mov    eax,DWORD PTR [edi+0x4]
  4047b8:	89 45 b0             	mov    DWORD PTR [ebp-0x50],eax
  4047bb:	8b 47 08             	mov    eax,DWORD PTR [edi+0x8]
  4047be:	85 c0                	test   eax,eax
  4047c0:	89 45 a0             	mov    DWORD PTR [ebp-0x60],eax
  4047c3:	0f 8e 7c 02 00 00    	jle    404a45 <___pformat_xldouble+0x4e5>
  4047c9:	8b 57 0c             	mov    edx,DWORD PTR [edi+0xc]
  4047cc:	0f bf f6             	movsx  esi,si
  4047cf:	8b 45 ac             	mov    eax,DWORD PTR [ebp-0x54]
  4047d2:	2b 45 a4             	sub    eax,DWORD PTR [ebp-0x5c]
  4047d5:	89 75 a8             	mov    DWORD PTR [ebp-0x58],esi
  4047d8:	85 d2                	test   edx,edx
  4047da:	7e 02                	jle    4047de <___pformat_xldouble+0x27e>
  4047dc:	01 d0                	add    eax,edx
  4047de:	8b 55 b0             	mov    edx,DWORD PTR [ebp-0x50]
  4047e1:	81 e2 c0 01 00 00    	and    edx,0x1c0
  4047e7:	83 fa 01             	cmp    edx,0x1
  4047ea:	19 d2                	sbb    edx,edx
  4047ec:	8d 74 10 06          	lea    esi,[eax+edx*1+0x6]
  4047f0:	8b 45 a8             	mov    eax,DWORD PTR [ebp-0x58]
  4047f3:	ba 67 66 66 66       	mov    edx,0x66666667
  4047f8:	f7 ea                	imul   edx
  4047fa:	8b 45 a8             	mov    eax,DWORD PTR [ebp-0x58]
  4047fd:	c1 fa 02             	sar    edx,0x2
  404800:	c1 f8 1f             	sar    eax,0x1f
  404803:	29 c2                	sub    edx,eax
  404805:	89 d1                	mov    ecx,edx
  404807:	0f 84 ee 02 00 00    	je     404afb <___pformat_xldouble+0x59b>
  40480d:	bb 02 00 00 00       	mov    ebx,0x2
  404812:	b8 67 66 66 66       	mov    eax,0x66666667
  404817:	83 c6 01             	add    esi,0x1
  40481a:	f7 e9                	imul   ecx
  40481c:	83 c3 01             	add    ebx,0x1
  40481f:	c1 f9 1f             	sar    ecx,0x1f
  404822:	c1 fa 02             	sar    edx,0x2
  404825:	29 ca                	sub    edx,ecx
  404827:	89 d1                	mov    ecx,edx
  404829:	75 e7                	jne    404812 <___pformat_xldouble+0x2b2>
  40482b:	0f bf c3             	movsx  eax,bx
  40482e:	89 45 9c             	mov    DWORD PTR [ebp-0x64],eax
  404831:	39 75 a0             	cmp    DWORD PTR [ebp-0x60],esi
  404834:	7e 5a                	jle    404890 <___pformat_xldouble+0x330>
  404836:	8b 45 a0             	mov    eax,DWORD PTR [ebp-0x60]
  404839:	29 f0                	sub    eax,esi
  40483b:	f7 45 b0 00 06 00 00 	test   DWORD PTR [ebp-0x50],0x600
  404842:	0f 85 1a 02 00 00    	jne    404a62 <___pformat_xldouble+0x502>
  404848:	8d 50 ff             	lea    edx,[eax-0x1]
  40484b:	85 c0                	test   eax,eax
  40484d:	89 57 08             	mov    DWORD PTR [edi+0x8],edx
  404850:	7e 45                	jle    404897 <___pformat_xldouble+0x337>
  404852:	89 fa                	mov    edx,edi
  404854:	b8 20 00 00 00       	mov    eax,0x20
  404859:	e8 32 ee ff ff       	call   403690 <___pformat_putc>
  40485e:	8b 47 08             	mov    eax,DWORD PTR [edi+0x8]
  404861:	8d 50 ff             	lea    edx,[eax-0x1]
  404864:	85 c0                	test   eax,eax
  404866:	89 57 08             	mov    DWORD PTR [edi+0x8],edx
  404869:	7f e7                	jg     404852 <___pformat_xldouble+0x2f2>
  40486b:	8b 47 04             	mov    eax,DWORD PTR [edi+0x4]
  40486e:	89 45 b0             	mov    DWORD PTR [ebp-0x50],eax
  404871:	f6 45 b0 80          	test   BYTE PTR [ebp-0x50],0x80
  404875:	74 26                	je     40489d <___pformat_xldouble+0x33d>
  404877:	89 fa                	mov    edx,edi
  404879:	b8 2d 00 00 00       	mov    eax,0x2d
  40487e:	e8 0d ee ff ff       	call   403690 <___pformat_putc>
  404883:	eb 2f                	jmp    4048b4 <___pformat_xldouble+0x354>
  404885:	8b 7d b0             	mov    edi,DWORD PTR [ebp-0x50]
  404888:	89 7d ac             	mov    DWORD PTR [ebp-0x54],edi
  40488b:	e9 ac fd ff ff       	jmp    40463c <___pformat_xldouble+0xdc>
  404890:	c7 47 08 ff ff ff ff 	mov    DWORD PTR [edi+0x8],0xffffffff
  404897:	f6 45 b0 80          	test   BYTE PTR [ebp-0x50],0x80
  40489b:	75 da                	jne    404877 <___pformat_xldouble+0x317>
  40489d:	f7 45 b0 00 01 00 00 	test   DWORD PTR [ebp-0x50],0x100
  4048a4:	0f 85 c0 01 00 00    	jne    404a6a <___pformat_xldouble+0x50a>
  4048aa:	f6 45 b0 40          	test   BYTE PTR [ebp-0x50],0x40
  4048ae:	0f 85 d8 01 00 00    	jne    404a8c <___pformat_xldouble+0x52c>
  4048b4:	89 fa                	mov    edx,edi
  4048b6:	b8 30 00 00 00       	mov    eax,0x30
  4048bb:	e8 d0 ed ff ff       	call   403690 <___pformat_putc>
  4048c0:	8b 47 04             	mov    eax,DWORD PTR [edi+0x4]
  4048c3:	89 fa                	mov    edx,edi
  4048c5:	83 e0 20             	and    eax,0x20
  4048c8:	83 c8 58             	or     eax,0x58
  4048cb:	e8 c0 ed ff ff       	call   403690 <___pformat_putc>
  4048d0:	8b 47 08             	mov    eax,DWORD PTR [edi+0x8]
  4048d3:	85 c0                	test   eax,eax
  4048d5:	7e 25                	jle    4048fc <___pformat_xldouble+0x39c>
  4048d7:	f6 47 05 02          	test   BYTE PTR [edi+0x5],0x2
  4048db:	74 1f                	je     4048fc <___pformat_xldouble+0x39c>
  4048dd:	83 e8 01             	sub    eax,0x1
  4048e0:	89 47 08             	mov    DWORD PTR [edi+0x8],eax
  4048e3:	89 fa                	mov    edx,edi
  4048e5:	b8 30 00 00 00       	mov    eax,0x30
  4048ea:	e8 a1 ed ff ff       	call   403690 <___pformat_putc>
  4048ef:	8b 47 08             	mov    eax,DWORD PTR [edi+0x8]
  4048f2:	8d 50 ff             	lea    edx,[eax-0x1]
  4048f5:	85 c0                	test   eax,eax
  4048f7:	89 57 08             	mov    DWORD PTR [edi+0x8],edx
  4048fa:	7f e7                	jg     4048e3 <___pformat_xldouble+0x383>
  4048fc:	8b 45 a4             	mov    eax,DWORD PTR [ebp-0x5c]
  4048ff:	39 45 ac             	cmp    DWORD PTR [ebp-0x54],eax
  404902:	8b 5d ac             	mov    ebx,DWORD PTR [ebp-0x54]
  404905:	77 19                	ja     404920 <___pformat_xldouble+0x3c0>
  404907:	e9 a1 00 00 00       	jmp    4049ad <___pformat_xldouble+0x44d>
  40490c:	8d 74 26 00          	lea    esi,[esi+eiz*1+0x0]
  404910:	89 fa                	mov    edx,edi
  404912:	e8 79 ed ff ff       	call   403690 <___pformat_putc>
  404917:	3b 5d a4             	cmp    ebx,DWORD PTR [ebp-0x5c]
  40491a:	0f 84 8d 00 00 00    	je     4049ad <___pformat_xldouble+0x44d>
  404920:	83 eb 01             	sub    ebx,0x1
  404923:	0f be 03             	movsx  eax,BYTE PTR [ebx]
  404926:	83 f8 2e             	cmp    eax,0x2e
  404929:	75 e5                	jne    404910 <___pformat_xldouble+0x3b0>
  40492b:	83 7f 10 fd          	cmp    DWORD PTR [edi+0x10],0xfffffffd
  40492f:	0f 84 cc 00 00 00    	je     404a01 <___pformat_xldouble+0x4a1>
  404935:	0f b7 57 14          	movzx  edx,WORD PTR [edi+0x14]
  404939:	66 85 d2             	test   dx,dx
  40493c:	0f 84 ae 00 00 00    	je     4049f0 <___pformat_xldouble+0x490>
  404942:	8b 47 10             	mov    eax,DWORD PTR [edi+0x10]
  404945:	89 65 b0             	mov    DWORD PTR [ebp-0x50],esp
  404948:	83 c0 0f             	add    eax,0xf
  40494b:	83 e0 f0             	and    eax,0xfffffff0
  40494e:	e8 cd d5 ff ff       	call   401f20 <___chkstk_ms>
  404953:	29 c4                	sub    esp,eax
  404955:	8d 74 24 10          	lea    esi,[esp+0x10]
  404959:	8d 45 bc             	lea    eax,[ebp-0x44]
  40495c:	c7 45 bc 00 00 00 00 	mov    DWORD PTR [ebp-0x44],0x0
  404963:	89 44 24 08          	mov    DWORD PTR [esp+0x8],eax
  404967:	89 54 24 04          	mov    DWORD PTR [esp+0x4],edx
  40496b:	89 34 24             	mov    DWORD PTR [esp],esi
  40496e:	e8 dd 0f 00 00       	call   405950 <_wcrtomb>
  404973:	85 c0                	test   eax,eax
  404975:	0f 8e 00 01 00 00    	jle    404a7b <___pformat_xldouble+0x51b>
  40497b:	01 f0                	add    eax,esi
  40497d:	89 5d ac             	mov    DWORD PTR [ebp-0x54],ebx
  404980:	89 f3                	mov    ebx,esi
  404982:	89 c6                	mov    esi,eax
  404984:	83 c3 01             	add    ebx,0x1
  404987:	0f be 43 ff          	movsx  eax,BYTE PTR [ebx-0x1]
  40498b:	89 fa                	mov    edx,edi
  40498d:	e8 fe ec ff ff       	call   403690 <___pformat_putc>
  404992:	39 f3                	cmp    ebx,esi
  404994:	75 ee                	jne    404984 <___pformat_xldouble+0x424>
  404996:	8b 5d ac             	mov    ebx,DWORD PTR [ebp-0x54]
  404999:	8b 65 b0             	mov    esp,DWORD PTR [ebp-0x50]
  40499c:	e9 76 ff ff ff       	jmp    404917 <___pformat_xldouble+0x3b7>
  4049a1:	89 fa                	mov    edx,edi
  4049a3:	b8 30 00 00 00       	mov    eax,0x30
  4049a8:	e8 e3 ec ff ff       	call   403690 <___pformat_putc>
  4049ad:	8b 47 0c             	mov    eax,DWORD PTR [edi+0xc]
  4049b0:	8d 50 ff             	lea    edx,[eax-0x1]
  4049b3:	85 c0                	test   eax,eax
  4049b5:	89 57 0c             	mov    DWORD PTR [edi+0xc],edx
  4049b8:	7f e7                	jg     4049a1 <___pformat_xldouble+0x441>
  4049ba:	8b 47 04             	mov    eax,DWORD PTR [edi+0x4]
  4049bd:	89 fa                	mov    edx,edi
  4049bf:	83 e0 20             	and    eax,0x20
  4049c2:	83 c8 50             	or     eax,0x50
  4049c5:	e8 c6 ec ff ff       	call   403690 <___pformat_putc>
  4049ca:	8b 45 9c             	mov    eax,DWORD PTR [ebp-0x64]
  4049cd:	89 f9                	mov    ecx,edi
  4049cf:	01 47 08             	add    DWORD PTR [edi+0x8],eax
  4049d2:	8b 45 a8             	mov    eax,DWORD PTR [ebp-0x58]
  4049d5:	81 4f 04 c0 01 00 00 	or     DWORD PTR [edi+0x4],0x1c0
  4049dc:	99                   	cdq    
  4049dd:	e8 5e ef ff ff       	call   403940 <___pformat_int>
  4049e2:	8d 65 f4             	lea    esp,[ebp-0xc]
  4049e5:	5b                   	pop    ebx
  4049e6:	5e                   	pop    esi
  4049e7:	5f                   	pop    edi
  4049e8:	5d                   	pop    ebp
  4049e9:	c3                   	ret    
  4049ea:	8d b6 00 00 00 00    	lea    esi,[esi+0x0]
  4049f0:	89 fa                	mov    edx,edi
  4049f2:	b8 2e 00 00 00       	mov    eax,0x2e
  4049f7:	e8 94 ec ff ff       	call   403690 <___pformat_putc>
  4049fc:	e9 16 ff ff ff       	jmp    404917 <___pformat_xldouble+0x3b7>
  404a01:	c7 45 bc 00 00 00 00 	mov    DWORD PTR [ebp-0x44],0x0
  404a08:	8d 75 bc             	lea    esi,[ebp-0x44]
  404a0b:	e8 80 35 00 00       	call   407f90 <_localeconv>
  404a10:	89 74 24 0c          	mov    DWORD PTR [esp+0xc],esi
  404a14:	c7 44 24 08 10 00 00 	mov    DWORD PTR [esp+0x8],0x10
  404a1b:	00 
  404a1c:	8b 00                	mov    eax,DWORD PTR [eax]
  404a1e:	89 44 24 04          	mov    DWORD PTR [esp+0x4],eax
  404a22:	8d 45 ba             	lea    eax,[ebp-0x46]
  404a25:	89 04 24             	mov    DWORD PTR [esp],eax
  404a28:	e8 f3 0b 00 00       	call   405620 <_mbrtowc>
  404a2d:	85 c0                	test   eax,eax
  404a2f:	0f 8e 85 00 00 00    	jle    404aba <___pformat_xldouble+0x55a>
  404a35:	0f b7 55 ba          	movzx  edx,WORD PTR [ebp-0x46]
  404a39:	66 89 57 14          	mov    WORD PTR [edi+0x14],dx
  404a3d:	89 47 10             	mov    DWORD PTR [edi+0x10],eax
  404a40:	e9 f4 fe ff ff       	jmp    404939 <___pformat_xldouble+0x3d9>
  404a45:	0f bf c6             	movsx  eax,si
  404a48:	c7 45 9c 02 00 00 00 	mov    DWORD PTR [ebp-0x64],0x2
  404a4f:	89 45 a8             	mov    DWORD PTR [ebp-0x58],eax
  404a52:	e9 40 fe ff ff       	jmp    404897 <___pformat_xldouble+0x337>
  404a57:	31 f6                	xor    esi,esi
  404a59:	31 c0                	xor    eax,eax
  404a5b:	31 d2                	xor    edx,edx
  404a5d:	e9 62 fb ff ff       	jmp    4045c4 <___pformat_xldouble+0x64>
  404a62:	89 47 08             	mov    DWORD PTR [edi+0x8],eax
  404a65:	e9 2d fe ff ff       	jmp    404897 <___pformat_xldouble+0x337>
  404a6a:	89 fa                	mov    edx,edi
  404a6c:	b8 2b 00 00 00       	mov    eax,0x2b
  404a71:	e8 1a ec ff ff       	call   403690 <___pformat_putc>
  404a76:	e9 39 fe ff ff       	jmp    4048b4 <___pformat_xldouble+0x354>
  404a7b:	89 fa                	mov    edx,edi
  404a7d:	b8 2e 00 00 00       	mov    eax,0x2e
  404a82:	e8 09 ec ff ff       	call   403690 <___pformat_putc>
  404a87:	e9 0d ff ff ff       	jmp    404999 <___pformat_xldouble+0x439>
  404a8c:	89 fa                	mov    edx,edi
  404a8e:	b8 20 00 00 00       	mov    eax,0x20
  404a93:	e8 f8 eb ff ff       	call   403690 <___pformat_putc>
  404a98:	e9 17 fe ff ff       	jmp    4048b4 <___pformat_xldouble+0x354>
  404a9d:	83 c6 01             	add    esi,0x1
  404aa0:	e9 a0 fc ff ff       	jmp    404745 <___pformat_xldouble+0x1e5>
  404aa5:	dd d8                	fstp   st(0)
  404aa7:	89 f9                	mov    ecx,edi
  404aa9:	ba 34 a1 40 00       	mov    edx,0x40a134
  404aae:	31 c0                	xor    eax,eax
  404ab0:	e8 fb ed ff ff       	call   4038b0 <___pformat_emit_inf_or_nan>
  404ab5:	e9 28 ff ff ff       	jmp    4049e2 <___pformat_xldouble+0x482>
  404aba:	0f b7 57 14          	movzx  edx,WORD PTR [edi+0x14]
  404abe:	e9 7a ff ff ff       	jmp    404a3d <___pformat_xldouble+0x4dd>
  404ac3:	89 f9                	mov    ecx,edi
  404ac5:	ba 38 a1 40 00       	mov    edx,0x40a138
  404aca:	89 d8                	mov    eax,ebx
  404acc:	e8 df ed ff ff       	call   4038b0 <___pformat_emit_inf_or_nan>
  404ad1:	e9 0c ff ff ff       	jmp    4049e2 <___pformat_xldouble+0x482>
  404ad6:	8d 45 d6             	lea    eax,[ebp-0x2a]
  404ad9:	89 45 a4             	mov    DWORD PTR [ebp-0x5c],eax
  404adc:	85 db                	test   ebx,ebx
  404ade:	8b 47 04             	mov    eax,DWORD PTR [edi+0x4]
  404ae1:	7e 33                	jle    404b16 <___pformat_xldouble+0x5b6>
  404ae3:	89 45 b0             	mov    DWORD PTR [ebp-0x50],eax
  404ae6:	c6 45 d6 2e          	mov    BYTE PTR [ebp-0x2a],0x2e
  404aea:	8d 45 d7             	lea    eax,[ebp-0x29]
  404aed:	8d 50 01             	lea    edx,[eax+0x1]
  404af0:	89 55 ac             	mov    DWORD PTR [ebp-0x54],edx
  404af3:	c6 00 30             	mov    BYTE PTR [eax],0x30
  404af6:	e9 c0 fc ff ff       	jmp    4047bb <___pformat_xldouble+0x25b>
  404afb:	c7 45 9c 02 00 00 00 	mov    DWORD PTR [ebp-0x64],0x2
  404b02:	e9 2a fd ff ff       	jmp    404831 <___pformat_xldouble+0x2d1>
  404b07:	8b 5f 0c             	mov    ebx,DWORD PTR [edi+0xc]
  404b0a:	eb d0                	jmp    404adc <___pformat_xldouble+0x57c>
  404b0c:	be 02 c0 ff ff       	mov    esi,0xffffc002
  404b11:	e9 ae fa ff ff       	jmp    4045c4 <___pformat_xldouble+0x64>
  404b16:	89 c2                	mov    edx,eax
  404b18:	80 e6 08             	and    dh,0x8
  404b1b:	89 45 b0             	mov    DWORD PTR [ebp-0x50],eax
  404b1e:	8b 45 a4             	mov    eax,DWORD PTR [ebp-0x5c]
  404b21:	74 ca                	je     404aed <___pformat_xldouble+0x58d>
  404b23:	eb c1                	jmp    404ae6 <___pformat_xldouble+0x586>
  404b25:	8d 74 26 00          	lea    esi,[esi+eiz*1+0x0]
  404b29:	8d bc 27 00 00 00 00 	lea    edi,[edi+eiz*1+0x0]

00404b30 <___mingw_pformat>:
  404b30:	55                   	push   ebp
  404b31:	57                   	push   edi
  404b32:	56                   	push   esi
  404b33:	53                   	push   ebx
  404b34:	83 ec 5c             	sub    esp,0x5c
  404b37:	8b 44 24 74          	mov    eax,DWORD PTR [esp+0x74]
  404b3b:	81 64 24 70 00 30 00 	and    DWORD PTR [esp+0x70],0x3000
  404b42:	00 
  404b43:	8b 74 24 7c          	mov    esi,DWORD PTR [esp+0x7c]
  404b47:	c7 04 24 51 a1 40 00 	mov    DWORD PTR [esp],0x40a151
  404b4e:	8b ac 24 80 00 00 00 	mov    ebp,DWORD PTR [esp+0x80]
  404b55:	89 44 24 2c          	mov    DWORD PTR [esp+0x2c],eax
  404b59:	8b 44 24 70          	mov    eax,DWORD PTR [esp+0x70]
  404b5d:	c7 44 24 34 ff ff ff 	mov    DWORD PTR [esp+0x34],0xffffffff
  404b64:	ff 
  404b65:	c7 44 24 38 ff ff ff 	mov    DWORD PTR [esp+0x38],0xffffffff
  404b6c:	ff 
  404b6d:	c7 44 24 3c fd ff ff 	mov    DWORD PTR [esp+0x3c],0xfffffffd
  404b74:	ff 
  404b75:	89 44 24 30          	mov    DWORD PTR [esp+0x30],eax
  404b79:	31 c0                	xor    eax,eax
  404b7b:	66 89 44 24 40       	mov    WORD PTR [esp+0x40],ax
  404b80:	8b 44 24 78          	mov    eax,DWORD PTR [esp+0x78]
  404b84:	c7 44 24 44 00 00 00 	mov    DWORD PTR [esp+0x44],0x0
  404b8b:	00 
  404b8c:	89 44 24 48          	mov    DWORD PTR [esp+0x48],eax
  404b90:	e8 0b 34 00 00       	call   407fa0 <_getenv>
  404b95:	85 c0                	test   eax,eax
  404b97:	0f 84 d3 00 00 00    	je     404c70 <___mingw_pformat+0x140>
  404b9d:	0f be 00             	movsx  eax,BYTE PTR [eax]
  404ba0:	83 e8 30             	sub    eax,0x30
  404ba3:	83 f8 02             	cmp    eax,0x2
  404ba6:	0f 87 c4 00 00 00    	ja     404c70 <___mingw_pformat+0x140>
  404bac:	b8 02 00 00 00       	mov    eax,0x2
  404bb1:	89 44 24 4c          	mov    DWORD PTR [esp+0x4c],eax
  404bb5:	8b 44 24 70          	mov    eax,DWORD PTR [esp+0x70]
  404bb9:	80 cc 02             	or     ah,0x2
  404bbc:	89 44 24 1c          	mov    DWORD PTR [esp+0x1c],eax
  404bc0:	0f be 06             	movsx  eax,BYTE PTR [esi]
  404bc3:	8d 5e 01             	lea    ebx,[esi+0x1]
  404bc6:	89 d9                	mov    ecx,ebx
  404bc8:	85 c0                	test   eax,eax
  404bca:	0f 84 92 00 00 00    	je     404c62 <___mingw_pformat+0x132>
  404bd0:	83 f8 25             	cmp    eax,0x25
  404bd3:	0f 85 de 00 00 00    	jne    404cb7 <___mingw_pformat+0x187>
  404bd9:	8b 44 24 70          	mov    eax,DWORD PTR [esp+0x70]
  404bdd:	c7 44 24 38 ff ff ff 	mov    DWORD PTR [esp+0x38],0xffffffff
  404be4:	ff 
  404be5:	c7 44 24 34 ff ff ff 	mov    DWORD PTR [esp+0x34],0xffffffff
  404bec:	ff 
  404bed:	c7 44 24 14 00 00 00 	mov    DWORD PTR [esp+0x14],0x0
  404bf4:	00 
  404bf5:	89 44 24 30          	mov    DWORD PTR [esp+0x30],eax
  404bf9:	0f b6 56 01          	movzx  edx,BYTE PTR [esi+0x1]
  404bfd:	8d 44 24 34          	lea    eax,[esp+0x34]
  404c01:	89 44 24 18          	mov    DWORD PTR [esp+0x18],eax
  404c05:	c7 44 24 10 00 00 00 	mov    DWORD PTR [esp+0x10],0x0
  404c0c:	00 
  404c0d:	84 d2                	test   dl,dl
  404c0f:	74 3f                	je     404c50 <___mingw_pformat+0x120>
  404c11:	8d 42 e0             	lea    eax,[edx-0x20]
  404c14:	0f be fa             	movsx  edi,dl
  404c17:	3c 5a                	cmp    al,0x5a
  404c19:	8d 71 01             	lea    esi,[ecx+0x1]
  404c1c:	0f 87 70 04 00 00    	ja     405092 <___mingw_pformat+0x562>
  404c22:	0f b6 c0             	movzx  eax,al
  404c25:	ff 24 85 68 a1 40 00 	jmp    DWORD PTR [eax*4+0x40a168]
  404c2c:	8d 74 26 00          	lea    esi,[esi+eiz*1+0x0]
  404c30:	0f b6 51 01          	movzx  edx,BYTE PTR [ecx+0x1]
  404c34:	89 f1                	mov    ecx,esi
  404c36:	c7 44 24 14 02 00 00 	mov    DWORD PTR [esp+0x14],0x2
  404c3d:	00 
  404c3e:	c7 44 24 10 04 00 00 	mov    DWORD PTR [esp+0x10],0x4
  404c45:	00 
  404c46:	84 d2                	test   dl,dl
  404c48:	75 c7                	jne    404c11 <___mingw_pformat+0xe1>
  404c4a:	8d b6 00 00 00 00    	lea    esi,[esi+0x0]
  404c50:	89 ce                	mov    esi,ecx
  404c52:	0f be 06             	movsx  eax,BYTE PTR [esi]
  404c55:	8d 5e 01             	lea    ebx,[esi+0x1]
  404c58:	89 d9                	mov    ecx,ebx
  404c5a:	85 c0                	test   eax,eax
  404c5c:	0f 85 6e ff ff ff    	jne    404bd0 <___mingw_pformat+0xa0>
  404c62:	8b 44 24 44          	mov    eax,DWORD PTR [esp+0x44]
  404c66:	83 c4 5c             	add    esp,0x5c
  404c69:	5b                   	pop    ebx
  404c6a:	5e                   	pop    esi
  404c6b:	5f                   	pop    edi
  404c6c:	5d                   	pop    ebp
  404c6d:	c3                   	ret    
  404c6e:	66 90                	xchg   ax,ax
  404c70:	f6 05 6c d0 40 00 01 	test   BYTE PTR ds:0x40d06c,0x1
  404c77:	0f 85 2f ff ff ff    	jne    404bac <___mingw_pformat+0x7c>
  404c7d:	b8 03 00 00 00       	mov    eax,0x3
  404c82:	e9 2a ff ff ff       	jmp    404bb1 <___mingw_pformat+0x81>
  404c87:	80 79 01 6c          	cmp    BYTE PTR [ecx+0x1],0x6c
  404c8b:	c7 44 24 14 02 00 00 	mov    DWORD PTR [esp+0x14],0x2
  404c92:	00 
  404c93:	75 0b                	jne    404ca0 <___mingw_pformat+0x170>
  404c95:	8d 71 02             	lea    esi,[ecx+0x2]
  404c98:	c7 44 24 14 03 00 00 	mov    DWORD PTR [esp+0x14],0x3
  404c9f:	00 
  404ca0:	83 4c 24 30 04       	or     DWORD PTR [esp+0x30],0x4
  404ca5:	89 f1                	mov    ecx,esi
  404ca7:	0f b6 16             	movzx  edx,BYTE PTR [esi]
  404caa:	c7 44 24 10 04 00 00 	mov    DWORD PTR [esp+0x10],0x4
  404cb1:	00 
  404cb2:	e9 56 ff ff ff       	jmp    404c0d <___mingw_pformat+0xdd>
  404cb7:	8d 54 24 2c          	lea    edx,[esp+0x2c]
  404cbb:	89 de                	mov    esi,ebx
  404cbd:	e8 ce e9 ff ff       	call   403690 <___pformat_putc>
  404cc2:	e9 f9 fe ff ff       	jmp    404bc0 <___mingw_pformat+0x90>
  404cc7:	8b 54 24 14          	mov    edx,DWORD PTR [esp+0x14]
  404ccb:	89 e8                	mov    eax,ebp
  404ccd:	83 ea 02             	sub    edx,0x2
  404cd0:	83 fa 01             	cmp    edx,0x1
  404cd3:	0f 86 07 05 00 00    	jbe    4051e0 <___mingw_pformat+0x6b0>
  404cd9:	8b 18                	mov    ebx,DWORD PTR [eax]
  404cdb:	83 c5 04             	add    ebp,0x4
  404cde:	85 db                	test   ebx,ebx
  404ce0:	0f 84 89 06 00 00    	je     40536f <___mingw_pformat+0x83f>
  404ce6:	89 1c 24             	mov    DWORD PTR [esp],ebx
  404ce9:	e8 52 32 00 00       	call   407f40 <_strlen>
  404cee:	89 c2                	mov    edx,eax
  404cf0:	8d 4c 24 2c          	lea    ecx,[esp+0x2c]
  404cf4:	89 d8                	mov    eax,ebx
  404cf6:	e8 05 eb ff ff       	call   403800 <___pformat_putchars>
  404cfb:	e9 c0 fe ff ff       	jmp    404bc0 <___mingw_pformat+0x90>
  404d00:	8b 54 24 14          	mov    edx,DWORD PTR [esp+0x14]
  404d04:	89 e8                	mov    eax,ebp
  404d06:	c7 44 24 38 ff ff ff 	mov    DWORD PTR [esp+0x38],0xffffffff
  404d0d:	ff 
  404d0e:	83 ea 02             	sub    edx,0x2
  404d11:	83 fa 01             	cmp    edx,0x1
  404d14:	0f 86 23 03 00 00    	jbe    40503d <___mingw_pformat+0x50d>
  404d1a:	8b 00                	mov    eax,DWORD PTR [eax]
  404d1c:	8d 4c 24 2c          	lea    ecx,[esp+0x2c]
  404d20:	ba 01 00 00 00       	mov    edx,0x1
  404d25:	83 c5 04             	add    ebp,0x4
  404d28:	88 44 24 20          	mov    BYTE PTR [esp+0x20],al
  404d2c:	8d 44 24 20          	lea    eax,[esp+0x20]
  404d30:	e8 cb ea ff ff       	call   403800 <___pformat_putchars>
  404d35:	e9 86 fe ff ff       	jmp    404bc0 <___mingw_pformat+0x90>
  404d3a:	8d b6 00 00 00 00    	lea    esi,[esi+0x0]
  404d40:	83 7c 24 14 04       	cmp    DWORD PTR [esp+0x14],0x4
  404d45:	0f 84 f0 05 00 00    	je     40533b <___mingw_pformat+0x80b>
  404d4b:	83 7c 24 14 01       	cmp    DWORD PTR [esp+0x14],0x1
  404d50:	8b 45 00             	mov    eax,DWORD PTR [ebp+0x0]
  404d53:	8b 54 24 44          	mov    edx,DWORD PTR [esp+0x44]
  404d57:	0f 84 17 05 00 00    	je     405274 <___mingw_pformat+0x744>
  404d5d:	83 7c 24 14 02       	cmp    DWORD PTR [esp+0x14],0x2
  404d62:	0f 84 43 06 00 00    	je     4053ab <___mingw_pformat+0x87b>
  404d68:	83 7c 24 14 03       	cmp    DWORD PTR [esp+0x14],0x3
  404d6d:	89 10                	mov    DWORD PTR [eax],edx
  404d6f:	0f 84 a9 06 00 00    	je     40541e <___mingw_pformat+0x8ee>
  404d75:	83 c5 04             	add    ebp,0x4
  404d78:	e9 43 fe ff ff       	jmp    404bc0 <___mingw_pformat+0x90>
  404d7d:	8d 76 00             	lea    esi,[esi+0x0]
  404d80:	0f b6 51 01          	movzx  edx,BYTE PTR [ecx+0x1]
  404d84:	89 f1                	mov    ecx,esi
  404d86:	c7 44 24 14 03 00 00 	mov    DWORD PTR [esp+0x14],0x3
  404d8d:	00 
  404d8e:	c7 44 24 10 04 00 00 	mov    DWORD PTR [esp+0x10],0x4
  404d95:	00 
  404d96:	e9 72 fe ff ff       	jmp    404c0d <___mingw_pformat+0xdd>
  404d9b:	90                   	nop
  404d9c:	8d 74 26 00          	lea    esi,[esi+eiz*1+0x0]
  404da0:	0f b6 51 01          	movzx  edx,BYTE PTR [ecx+0x1]
  404da4:	80 fa 68             	cmp    dl,0x68
  404da7:	0f 84 4c 05 00 00    	je     4052f9 <___mingw_pformat+0x7c9>
  404dad:	89 f1                	mov    ecx,esi
  404daf:	c7 44 24 14 01 00 00 	mov    DWORD PTR [esp+0x14],0x1
  404db6:	00 
  404db7:	c7 44 24 10 04 00 00 	mov    DWORD PTR [esp+0x10],0x4
  404dbe:	00 
  404dbf:	e9 49 fe ff ff       	jmp    404c0d <___mingw_pformat+0xdd>
  404dc4:	8b 44 24 10          	mov    eax,DWORD PTR [esp+0x10]
  404dc8:	85 c0                	test   eax,eax
  404dca:	75 0e                	jne    404dda <___mingw_pformat+0x2aa>
  404dcc:	8b 44 24 70          	mov    eax,DWORD PTR [esp+0x70]
  404dd0:	39 44 24 30          	cmp    DWORD PTR [esp+0x30],eax
  404dd4:	0f 84 a4 05 00 00    	je     40537e <___mingw_pformat+0x84e>
  404dda:	8b 45 00             	mov    eax,DWORD PTR [ebp+0x0]
  404ddd:	8d 5d 04             	lea    ebx,[ebp+0x4]
  404de0:	c7 44 24 24 00 00 00 	mov    DWORD PTR [esp+0x24],0x0
  404de7:	00 
  404de8:	8b 4c 24 24          	mov    ecx,DWORD PTR [esp+0x24]
  404dec:	89 dd                	mov    ebp,ebx
  404dee:	89 44 24 20          	mov    DWORD PTR [esp+0x20],eax
  404df2:	8b 54 24 20          	mov    edx,DWORD PTR [esp+0x20]
  404df6:	8d 44 24 2c          	lea    eax,[esp+0x2c]
  404dfa:	89 04 24             	mov    DWORD PTR [esp],eax
  404dfd:	b8 78 00 00 00       	mov    eax,0x78
  404e02:	e8 69 ed ff ff       	call   403b70 <___pformat_xint>
  404e07:	e9 b4 fd ff ff       	jmp    404bc0 <___mingw_pformat+0x90>
  404e0c:	8d 74 26 00          	lea    esi,[esi+eiz*1+0x0]
  404e10:	8b 44 24 30          	mov    eax,DWORD PTR [esp+0x30]
  404e14:	83 c8 20             	or     eax,0x20
  404e17:	a8 04                	test   al,0x4
  404e19:	89 44 24 30          	mov    DWORD PTR [esp+0x30],eax
  404e1d:	0f 84 4a 02 00 00    	je     40506d <___mingw_pformat+0x53d>
  404e23:	db 6d 00             	fld    TBYTE PTR [ebp+0x0]
  404e26:	8d 5d 0c             	lea    ebx,[ebp+0xc]
  404e29:	db 3c 24             	fstp   TBYTE PTR [esp]
  404e2c:	89 dd                	mov    ebp,ebx
  404e2e:	8d 44 24 2c          	lea    eax,[esp+0x2c]
  404e32:	e8 29 f7 ff ff       	call   404560 <___pformat_xldouble>
  404e37:	e9 84 fd ff ff       	jmp    404bc0 <___mingw_pformat+0x90>
  404e3c:	8d 74 26 00          	lea    esi,[esi+eiz*1+0x0]
  404e40:	83 7c 24 14 03       	cmp    DWORD PTR [esp+0x14],0x3
  404e45:	89 f8                	mov    eax,edi
  404e47:	0f 84 80 04 00 00    	je     4052cd <___mingw_pformat+0x79d>
  404e4d:	83 7c 24 14 02       	cmp    DWORD PTR [esp+0x14],0x2
  404e52:	0f 84 27 04 00 00    	je     40527f <___mingw_pformat+0x74f>
  404e58:	8b 7d 00             	mov    edi,DWORD PTR [ebp+0x0]
  404e5b:	8d 55 04             	lea    edx,[ebp+0x4]
  404e5e:	83 7c 24 14 01       	cmp    DWORD PTR [esp+0x14],0x1
  404e63:	c7 44 24 24 00 00 00 	mov    DWORD PTR [esp+0x24],0x0
  404e6a:	00 
  404e6b:	89 7c 24 20          	mov    DWORD PTR [esp+0x20],edi
  404e6f:	0f 84 1e 05 00 00    	je     405393 <___mingw_pformat+0x863>
  404e75:	83 7c 24 14 04       	cmp    DWORD PTR [esp+0x14],0x4
  404e7a:	89 d5                	mov    ebp,edx
  404e7c:	0f 84 86 05 00 00    	je     405408 <___mingw_pformat+0x8d8>
  404e82:	83 f8 75             	cmp    eax,0x75
  404e85:	0f 84 ec 00 00 00    	je     404f77 <___mingw_pformat+0x447>
  404e8b:	8b 54 24 20          	mov    edx,DWORD PTR [esp+0x20]
  404e8f:	8d 7c 24 2c          	lea    edi,[esp+0x2c]
  404e93:	8b 4c 24 24          	mov    ecx,DWORD PTR [esp+0x24]
  404e97:	89 3c 24             	mov    DWORD PTR [esp],edi
  404e9a:	e8 d1 ec ff ff       	call   403b70 <___pformat_xint>
  404e9f:	e9 1c fd ff ff       	jmp    404bc0 <___mingw_pformat+0x90>
  404ea4:	8b 44 24 30          	mov    eax,DWORD PTR [esp+0x30]
  404ea8:	83 c8 20             	or     eax,0x20
  404eab:	a8 04                	test   al,0x4
  404ead:	89 44 24 30          	mov    DWORD PTR [esp+0x30],eax
  404eb1:	0f 84 15 01 00 00    	je     404fcc <___mingw_pformat+0x49c>
  404eb7:	db 6d 00             	fld    TBYTE PTR [ebp+0x0]
  404eba:	8d 5d 0c             	lea    ebx,[ebp+0xc]
  404ebd:	db 3c 24             	fstp   TBYTE PTR [esp]
  404ec0:	89 dd                	mov    ebp,ebx
  404ec2:	8d 44 24 2c          	lea    eax,[esp+0x2c]
  404ec6:	e8 15 f5 ff ff       	call   4043e0 <___pformat_gfloat>
  404ecb:	e9 f0 fc ff ff       	jmp    404bc0 <___mingw_pformat+0x90>
  404ed0:	8b 44 24 30          	mov    eax,DWORD PTR [esp+0x30]
  404ed4:	83 c8 20             	or     eax,0x20
  404ed7:	a8 04                	test   al,0x4
  404ed9:	89 44 24 30          	mov    DWORD PTR [esp+0x30],eax
  404edd:	0f 84 0e 01 00 00    	je     404ff1 <___mingw_pformat+0x4c1>
  404ee3:	db 6d 00             	fld    TBYTE PTR [ebp+0x0]
  404ee6:	8d 5d 0c             	lea    ebx,[ebp+0xc]
  404ee9:	db 3c 24             	fstp   TBYTE PTR [esp]
  404eec:	89 dd                	mov    ebp,ebx
  404eee:	8d 44 24 2c          	lea    eax,[esp+0x2c]
  404ef2:	e8 09 f4 ff ff       	call   404300 <___pformat_float>
  404ef7:	e9 c4 fc ff ff       	jmp    404bc0 <___mingw_pformat+0x90>
  404efc:	8d 74 26 00          	lea    esi,[esi+eiz*1+0x0]
  404f00:	8b 44 24 30          	mov    eax,DWORD PTR [esp+0x30]
  404f04:	83 c8 20             	or     eax,0x20
  404f07:	a8 04                	test   al,0x4
  404f09:	89 44 24 30          	mov    DWORD PTR [esp+0x30],eax
  404f0d:	0f 84 09 01 00 00    	je     40501c <___mingw_pformat+0x4ec>
  404f13:	db 6d 00             	fld    TBYTE PTR [ebp+0x0]
  404f16:	8d 5d 0c             	lea    ebx,[ebp+0xc]
  404f19:	db 3c 24             	fstp   TBYTE PTR [esp]
  404f1c:	89 dd                	mov    ebp,ebx
  404f1e:	8d 44 24 2c          	lea    eax,[esp+0x2c]
  404f22:	e8 29 f3 ff ff       	call   404250 <___pformat_efloat>
  404f27:	e9 94 fc ff ff       	jmp    404bc0 <___mingw_pformat+0x90>
  404f2c:	8d 74 26 00          	lea    esi,[esi+eiz*1+0x0]
  404f30:	81 4c 24 30 80 00 00 	or     DWORD PTR [esp+0x30],0x80
  404f37:	00 
  404f38:	83 7c 24 14 03       	cmp    DWORD PTR [esp+0x14],0x3
  404f3d:	0f 84 a0 03 00 00    	je     4052e3 <___mingw_pformat+0x7b3>
  404f43:	83 7c 24 14 02       	cmp    DWORD PTR [esp+0x14],0x2
  404f48:	0f 84 48 03 00 00    	je     405296 <___mingw_pformat+0x766>
  404f4e:	8b 45 00             	mov    eax,DWORD PTR [ebp+0x0]
  404f51:	8d 55 04             	lea    edx,[ebp+0x4]
  404f54:	89 44 24 20          	mov    DWORD PTR [esp+0x20],eax
  404f58:	c1 f8 1f             	sar    eax,0x1f
  404f5b:	83 7c 24 14 01       	cmp    DWORD PTR [esp+0x14],0x1
  404f60:	89 44 24 24          	mov    DWORD PTR [esp+0x24],eax
  404f64:	0f 84 4b 04 00 00    	je     4053b5 <___mingw_pformat+0x885>
  404f6a:	83 7c 24 14 04       	cmp    DWORD PTR [esp+0x14],0x4
  404f6f:	89 d5                	mov    ebp,edx
  404f71:	0f 84 7c 04 00 00    	je     4053f3 <___mingw_pformat+0x8c3>
  404f77:	8b 44 24 20          	mov    eax,DWORD PTR [esp+0x20]
  404f7b:	8d 4c 24 2c          	lea    ecx,[esp+0x2c]
  404f7f:	8b 54 24 24          	mov    edx,DWORD PTR [esp+0x24]
  404f83:	e8 b8 e9 ff ff       	call   403940 <___pformat_int>
  404f88:	e9 33 fc ff ff       	jmp    404bc0 <___mingw_pformat+0x90>
  404f8d:	8d 76 00             	lea    esi,[esi+0x0]
  404f90:	0f b6 51 01          	movzx  edx,BYTE PTR [ecx+0x1]
  404f94:	80 fa 36             	cmp    dl,0x36
  404f97:	0f 84 78 03 00 00    	je     405315 <___mingw_pformat+0x7e5>
  404f9d:	80 fa 33             	cmp    dl,0x33
  404fa0:	0f 84 a8 02 00 00    	je     40524e <___mingw_pformat+0x71e>
  404fa6:	89 f1                	mov    ecx,esi
  404fa8:	c7 44 24 14 02 00 00 	mov    DWORD PTR [esp+0x14],0x2
  404faf:	00 
  404fb0:	c7 44 24 10 04 00 00 	mov    DWORD PTR [esp+0x10],0x4
  404fb7:	00 
  404fb8:	e9 50 fc ff ff       	jmp    404c0d <___mingw_pformat+0xdd>
  404fbd:	8d 76 00             	lea    esi,[esi+0x0]
  404fc0:	8b 44 24 30          	mov    eax,DWORD PTR [esp+0x30]
  404fc4:	a8 04                	test   al,0x4
  404fc6:	0f 85 eb fe ff ff    	jne    404eb7 <___mingw_pformat+0x387>
  404fcc:	dd 45 00             	fld    QWORD PTR [ebp+0x0]
  404fcf:	8d 5d 08             	lea    ebx,[ebp+0x8]
  404fd2:	db 3c 24             	fstp   TBYTE PTR [esp]
  404fd5:	89 dd                	mov    ebp,ebx
  404fd7:	8d 44 24 2c          	lea    eax,[esp+0x2c]
  404fdb:	e8 00 f4 ff ff       	call   4043e0 <___pformat_gfloat>
  404fe0:	e9 db fb ff ff       	jmp    404bc0 <___mingw_pformat+0x90>
  404fe5:	8b 44 24 30          	mov    eax,DWORD PTR [esp+0x30]
  404fe9:	a8 04                	test   al,0x4
  404feb:	0f 85 f2 fe ff ff    	jne    404ee3 <___mingw_pformat+0x3b3>
  404ff1:	dd 45 00             	fld    QWORD PTR [ebp+0x0]
  404ff4:	8d 5d 08             	lea    ebx,[ebp+0x8]
  404ff7:	db 3c 24             	fstp   TBYTE PTR [esp]
  404ffa:	89 dd                	mov    ebp,ebx
  404ffc:	8d 44 24 2c          	lea    eax,[esp+0x2c]
  405000:	e8 fb f2 ff ff       	call   404300 <___pformat_float>
  405005:	e9 b6 fb ff ff       	jmp    404bc0 <___mingw_pformat+0x90>
  40500a:	8d b6 00 00 00 00    	lea    esi,[esi+0x0]
  405010:	8b 44 24 30          	mov    eax,DWORD PTR [esp+0x30]
  405014:	a8 04                	test   al,0x4
  405016:	0f 85 f7 fe ff ff    	jne    404f13 <___mingw_pformat+0x3e3>
  40501c:	dd 45 00             	fld    QWORD PTR [ebp+0x0]
  40501f:	8d 5d 08             	lea    ebx,[ebp+0x8]
  405022:	db 3c 24             	fstp   TBYTE PTR [esp]
  405025:	89 dd                	mov    ebp,ebx
  405027:	8d 44 24 2c          	lea    eax,[esp+0x2c]
  40502b:	e8 20 f2 ff ff       	call   404250 <___pformat_efloat>
  405030:	e9 8b fb ff ff       	jmp    404bc0 <___mingw_pformat+0x90>
  405035:	c7 44 24 38 ff ff ff 	mov    DWORD PTR [esp+0x38],0xffffffff
  40503c:	ff 
  40503d:	8b 45 00             	mov    eax,DWORD PTR [ebp+0x0]
  405040:	8d 5d 04             	lea    ebx,[ebp+0x4]
  405043:	ba 01 00 00 00       	mov    edx,0x1
  405048:	8d 4c 24 2c          	lea    ecx,[esp+0x2c]
  40504c:	89 dd                	mov    ebp,ebx
  40504e:	66 89 44 24 20       	mov    WORD PTR [esp+0x20],ax
  405053:	8d 44 24 20          	lea    eax,[esp+0x20]
  405057:	e8 94 e6 ff ff       	call   4036f0 <___pformat_wputchars>
  40505c:	e9 5f fb ff ff       	jmp    404bc0 <___mingw_pformat+0x90>
  405061:	8b 44 24 30          	mov    eax,DWORD PTR [esp+0x30]
  405065:	a8 04                	test   al,0x4
  405067:	0f 85 b6 fd ff ff    	jne    404e23 <___mingw_pformat+0x2f3>
  40506d:	dd 45 00             	fld    QWORD PTR [ebp+0x0]
  405070:	8d 5d 08             	lea    ebx,[ebp+0x8]
  405073:	db 3c 24             	fstp   TBYTE PTR [esp]
  405076:	89 dd                	mov    ebp,ebx
  405078:	8d 44 24 2c          	lea    eax,[esp+0x2c]
  40507c:	e8 df f4 ff ff       	call   404560 <___pformat_xldouble>
  405081:	e9 3a fb ff ff       	jmp    404bc0 <___mingw_pformat+0x90>
  405086:	8b 44 24 10          	mov    eax,DWORD PTR [esp+0x10]
  40508a:	85 c0                	test   eax,eax
  40508c:	0f 84 8e 01 00 00    	je     405220 <___mingw_pformat+0x6f0>
  405092:	8b 44 24 10          	mov    eax,DWORD PTR [esp+0x10]
  405096:	83 f8 04             	cmp    eax,0x4
  405099:	0f 84 c7 03 00 00    	je     405466 <___mingw_pformat+0x936>
  40509f:	83 ea 30             	sub    edx,0x30
  4050a2:	80 fa 09             	cmp    dl,0x9
  4050a5:	0f 87 bb 03 00 00    	ja     405466 <___mingw_pformat+0x936>
  4050ab:	85 c0                	test   eax,eax
  4050ad:	0f 84 5d 01 00 00    	je     405210 <___mingw_pformat+0x6e0>
  4050b3:	83 f8 02             	cmp    eax,0x2
  4050b6:	0f 84 f0 01 00 00    	je     4052ac <___mingw_pformat+0x77c>
  4050bc:	8b 44 24 18          	mov    eax,DWORD PTR [esp+0x18]
  4050c0:	85 c0                	test   eax,eax
  4050c2:	74 1b                	je     4050df <___mingw_pformat+0x5af>
  4050c4:	8b 44 24 18          	mov    eax,DWORD PTR [esp+0x18]
  4050c8:	8b 00                	mov    eax,DWORD PTR [eax]
  4050ca:	85 c0                	test   eax,eax
  4050cc:	0f 88 e7 01 00 00    	js     4052b9 <___mingw_pformat+0x789>
  4050d2:	8d 04 80             	lea    eax,[eax+eax*4]
  4050d5:	8d 44 47 d0          	lea    eax,[edi+eax*2-0x30]
  4050d9:	8b 7c 24 18          	mov    edi,DWORD PTR [esp+0x18]
  4050dd:	89 07                	mov    DWORD PTR [edi],eax
  4050df:	0f b6 51 01          	movzx  edx,BYTE PTR [ecx+0x1]
  4050e3:	89 f1                	mov    ecx,esi
  4050e5:	e9 23 fb ff ff       	jmp    404c0d <___mingw_pformat+0xdd>
  4050ea:	8d b6 00 00 00 00    	lea    esi,[esi+0x0]
  4050f0:	83 7c 24 10 01       	cmp    DWORD PTR [esp+0x10],0x1
  4050f5:	0f 86 51 02 00 00    	jbe    40534c <___mingw_pformat+0x81c>
  4050fb:	0f b6 51 01          	movzx  edx,BYTE PTR [ecx+0x1]
  4050ff:	89 f1                	mov    ecx,esi
  405101:	c7 44 24 10 04 00 00 	mov    DWORD PTR [esp+0x10],0x4
  405108:	00 
  405109:	e9 ff fa ff ff       	jmp    404c0d <___mingw_pformat+0xdd>
  40510e:	66 90                	xchg   ax,ax
  405110:	8b 44 24 10          	mov    eax,DWORD PTR [esp+0x10]
  405114:	85 c0                	test   eax,eax
  405116:	75 c7                	jne    4050df <___mingw_pformat+0x5af>
  405118:	81 4c 24 30 00 04 00 	or     DWORD PTR [esp+0x30],0x400
  40511f:	00 
  405120:	0f b6 51 01          	movzx  edx,BYTE PTR [ecx+0x1]
  405124:	89 f1                	mov    ecx,esi
  405126:	e9 e2 fa ff ff       	jmp    404c0d <___mingw_pformat+0xdd>
  40512b:	90                   	nop
  40512c:	8d 74 26 00          	lea    esi,[esi+eiz*1+0x0]
  405130:	8b 44 24 10          	mov    eax,DWORD PTR [esp+0x10]
  405134:	85 c0                	test   eax,eax
  405136:	75 a7                	jne    4050df <___mingw_pformat+0x5af>
  405138:	81 4c 24 30 00 01 00 	or     DWORD PTR [esp+0x30],0x100
  40513f:	00 
  405140:	0f b6 51 01          	movzx  edx,BYTE PTR [ecx+0x1]
  405144:	89 f1                	mov    ecx,esi
  405146:	e9 c2 fa ff ff       	jmp    404c0d <___mingw_pformat+0xdd>
  40514b:	90                   	nop
  40514c:	8d 74 26 00          	lea    esi,[esi+eiz*1+0x0]
  405150:	8b 7c 24 18          	mov    edi,DWORD PTR [esp+0x18]
  405154:	85 ff                	test   edi,edi
  405156:	74 a3                	je     4050fb <___mingw_pformat+0x5cb>
  405158:	f6 44 24 10 05       	test   BYTE PTR [esp+0x10],0x5
  40515d:	0f 85 d0 00 00 00    	jne    405233 <___mingw_pformat+0x703>
  405163:	8b 45 00             	mov    eax,DWORD PTR [ebp+0x0]
  405166:	8d 7d 04             	lea    edi,[ebp+0x4]
  405169:	8b 54 24 18          	mov    edx,DWORD PTR [esp+0x18]
  40516d:	85 c0                	test   eax,eax
  40516f:	89 02                	mov    DWORD PTR [edx],eax
  405171:	0f 88 5f 02 00 00    	js     4053d6 <___mingw_pformat+0x8a6>
  405177:	0f b6 51 01          	movzx  edx,BYTE PTR [ecx+0x1]
  40517b:	89 fd                	mov    ebp,edi
  40517d:	89 f1                	mov    ecx,esi
  40517f:	c7 44 24 18 00 00 00 	mov    DWORD PTR [esp+0x18],0x0
  405186:	00 
  405187:	e9 81 fa ff ff       	jmp    404c0d <___mingw_pformat+0xdd>
  40518c:	8d 74 26 00          	lea    esi,[esi+eiz*1+0x0]
  405190:	89 f8                	mov    eax,edi
  405192:	8d 54 24 2c          	lea    edx,[esp+0x2c]
  405196:	e8 f5 e4 ff ff       	call   403690 <___pformat_putc>
  40519b:	e9 20 fa ff ff       	jmp    404bc0 <___mingw_pformat+0x90>
  4051a0:	8b 44 24 10          	mov    eax,DWORD PTR [esp+0x10]
  4051a4:	85 c0                	test   eax,eax
  4051a6:	0f 85 33 ff ff ff    	jne    4050df <___mingw_pformat+0x5af>
  4051ac:	81 4c 24 30 00 08 00 	or     DWORD PTR [esp+0x30],0x800
  4051b3:	00 
  4051b4:	0f b6 51 01          	movzx  edx,BYTE PTR [ecx+0x1]
  4051b8:	89 f1                	mov    ecx,esi
  4051ba:	e9 4e fa ff ff       	jmp    404c0d <___mingw_pformat+0xdd>
  4051bf:	90                   	nop
  4051c0:	8b 44 24 10          	mov    eax,DWORD PTR [esp+0x10]
  4051c4:	85 c0                	test   eax,eax
  4051c6:	0f 85 13 ff ff ff    	jne    4050df <___mingw_pformat+0x5af>
  4051cc:	83 4c 24 30 40       	or     DWORD PTR [esp+0x30],0x40
  4051d1:	0f b6 51 01          	movzx  edx,BYTE PTR [ecx+0x1]
  4051d5:	89 f1                	mov    ecx,esi
  4051d7:	e9 31 fa ff ff       	jmp    404c0d <___mingw_pformat+0xdd>
  4051dc:	8d 74 26 00          	lea    esi,[esi+eiz*1+0x0]
  4051e0:	8b 5d 00             	mov    ebx,DWORD PTR [ebp+0x0]
  4051e3:	8d 7d 04             	lea    edi,[ebp+0x4]
  4051e6:	85 db                	test   ebx,ebx
  4051e8:	0f 84 de 01 00 00    	je     4053cc <___mingw_pformat+0x89c>
  4051ee:	89 1c 24             	mov    DWORD PTR [esp],ebx
  4051f1:	89 fd                	mov    ebp,edi
  4051f3:	e8 30 2d 00 00       	call   407f28 <_wcslen>
  4051f8:	8d 4c 24 2c          	lea    ecx,[esp+0x2c]
  4051fc:	89 c2                	mov    edx,eax
  4051fe:	89 d8                	mov    eax,ebx
  405200:	e8 eb e4 ff ff       	call   4036f0 <___pformat_wputchars>
  405205:	e9 b6 f9 ff ff       	jmp    404bc0 <___mingw_pformat+0x90>
  40520a:	8d b6 00 00 00 00    	lea    esi,[esi+0x0]
  405210:	c7 44 24 10 01 00 00 	mov    DWORD PTR [esp+0x10],0x1
  405217:	00 
  405218:	e9 9f fe ff ff       	jmp    4050bc <___mingw_pformat+0x58c>
  40521d:	8d 76 00             	lea    esi,[esi+0x0]
  405220:	81 4c 24 30 00 02 00 	or     DWORD PTR [esp+0x30],0x200
  405227:	00 
  405228:	0f b6 51 01          	movzx  edx,BYTE PTR [ecx+0x1]
  40522c:	89 f1                	mov    ecx,esi
  40522e:	e9 da f9 ff ff       	jmp    404c0d <___mingw_pformat+0xdd>
  405233:	0f b6 51 01          	movzx  edx,BYTE PTR [ecx+0x1]
  405237:	89 f1                	mov    ecx,esi
  405239:	c7 44 24 18 00 00 00 	mov    DWORD PTR [esp+0x18],0x0
  405240:	00 
  405241:	c7 44 24 10 04 00 00 	mov    DWORD PTR [esp+0x10],0x4
  405248:	00 
  405249:	e9 bf f9 ff ff       	jmp    404c0d <___mingw_pformat+0xdd>
  40524e:	80 79 02 32          	cmp    BYTE PTR [ecx+0x2],0x32
  405252:	0f 84 f2 01 00 00    	je     40544a <___mingw_pformat+0x91a>
  405258:	89 f1                	mov    ecx,esi
  40525a:	ba 33 00 00 00       	mov    edx,0x33
  40525f:	c7 44 24 14 02 00 00 	mov    DWORD PTR [esp+0x14],0x2
  405266:	00 
  405267:	c7 44 24 10 04 00 00 	mov    DWORD PTR [esp+0x10],0x4
  40526e:	00 
  40526f:	e9 9d f9 ff ff       	jmp    404c11 <___mingw_pformat+0xe1>
  405274:	66 89 10             	mov    WORD PTR [eax],dx
  405277:	83 c5 04             	add    ebp,0x4
  40527a:	e9 41 f9 ff ff       	jmp    404bc0 <___mingw_pformat+0x90>
  40527f:	8b 7d 00             	mov    edi,DWORD PTR [ebp+0x0]
  405282:	83 c5 04             	add    ebp,0x4
  405285:	c7 44 24 24 00 00 00 	mov    DWORD PTR [esp+0x24],0x0
  40528c:	00 
  40528d:	89 7c 24 20          	mov    DWORD PTR [esp+0x20],edi
  405291:	e9 ec fb ff ff       	jmp    404e82 <___mingw_pformat+0x352>
  405296:	8b 45 00             	mov    eax,DWORD PTR [ebp+0x0]
  405299:	83 c5 04             	add    ebp,0x4
  40529c:	89 44 24 20          	mov    DWORD PTR [esp+0x20],eax
  4052a0:	c1 f8 1f             	sar    eax,0x1f
  4052a3:	89 44 24 24          	mov    DWORD PTR [esp+0x24],eax
  4052a7:	e9 cb fc ff ff       	jmp    404f77 <___mingw_pformat+0x447>
  4052ac:	c7 44 24 10 03 00 00 	mov    DWORD PTR [esp+0x10],0x3
  4052b3:	00 
  4052b4:	e9 03 fe ff ff       	jmp    4050bc <___mingw_pformat+0x58c>
  4052b9:	8b 44 24 18          	mov    eax,DWORD PTR [esp+0x18]
  4052bd:	83 ef 30             	sub    edi,0x30
  4052c0:	89 38                	mov    DWORD PTR [eax],edi
  4052c2:	0f b6 51 01          	movzx  edx,BYTE PTR [ecx+0x1]
  4052c6:	89 f1                	mov    ecx,esi
  4052c8:	e9 40 f9 ff ff       	jmp    404c0d <___mingw_pformat+0xdd>
  4052cd:	8b 4d 00             	mov    ecx,DWORD PTR [ebp+0x0]
  4052d0:	83 c5 08             	add    ebp,0x8
  4052d3:	8b 5d fc             	mov    ebx,DWORD PTR [ebp-0x4]
  4052d6:	89 4c 24 20          	mov    DWORD PTR [esp+0x20],ecx
  4052da:	89 5c 24 24          	mov    DWORD PTR [esp+0x24],ebx
  4052de:	e9 9f fb ff ff       	jmp    404e82 <___mingw_pformat+0x352>
  4052e3:	8b 45 00             	mov    eax,DWORD PTR [ebp+0x0]
  4052e6:	83 c5 08             	add    ebp,0x8
  4052e9:	8b 55 fc             	mov    edx,DWORD PTR [ebp-0x4]
  4052ec:	89 44 24 20          	mov    DWORD PTR [esp+0x20],eax
  4052f0:	89 54 24 24          	mov    DWORD PTR [esp+0x24],edx
  4052f4:	e9 7e fc ff ff       	jmp    404f77 <___mingw_pformat+0x447>
  4052f9:	0f b6 51 02          	movzx  edx,BYTE PTR [ecx+0x2]
  4052fd:	83 c1 02             	add    ecx,0x2
  405300:	c7 44 24 14 04 00 00 	mov    DWORD PTR [esp+0x14],0x4
  405307:	00 
  405308:	c7 44 24 10 04 00 00 	mov    DWORD PTR [esp+0x10],0x4
  40530f:	00 
  405310:	e9 f8 f8 ff ff       	jmp    404c0d <___mingw_pformat+0xdd>
  405315:	80 79 02 34          	cmp    BYTE PTR [ecx+0x2],0x34
  405319:	0f 84 0f 01 00 00    	je     40542e <___mingw_pformat+0x8fe>
  40531f:	89 f1                	mov    ecx,esi
  405321:	ba 36 00 00 00       	mov    edx,0x36
  405326:	c7 44 24 14 02 00 00 	mov    DWORD PTR [esp+0x14],0x2
  40532d:	00 
  40532e:	c7 44 24 10 04 00 00 	mov    DWORD PTR [esp+0x10],0x4
  405335:	00 
  405336:	e9 d6 f8 ff ff       	jmp    404c11 <___mingw_pformat+0xe1>
  40533b:	8b 55 00             	mov    edx,DWORD PTR [ebp+0x0]
  40533e:	83 c5 04             	add    ebp,0x4
  405341:	8b 44 24 44          	mov    eax,DWORD PTR [esp+0x44]
  405345:	88 02                	mov    BYTE PTR [edx],al
  405347:	e9 74 f8 ff ff       	jmp    404bc0 <___mingw_pformat+0x90>
  40534c:	8d 44 24 38          	lea    eax,[esp+0x38]
  405350:	c7 44 24 38 00 00 00 	mov    DWORD PTR [esp+0x38],0x0
  405357:	00 
  405358:	0f b6 51 01          	movzx  edx,BYTE PTR [ecx+0x1]
  40535c:	89 f1                	mov    ecx,esi
  40535e:	89 44 24 18          	mov    DWORD PTR [esp+0x18],eax
  405362:	c7 44 24 10 02 00 00 	mov    DWORD PTR [esp+0x10],0x2
  405369:	00 
  40536a:	e9 9e f8 ff ff       	jmp    404c0d <___mingw_pformat+0xdd>
  40536f:	ba 06 00 00 00       	mov    edx,0x6
  405374:	bb 4a a1 40 00       	mov    ebx,0x40a14a
  405379:	e9 72 f9 ff ff       	jmp    404cf0 <___mingw_pformat+0x1c0>
  40537e:	8b 44 24 1c          	mov    eax,DWORD PTR [esp+0x1c]
  405382:	c7 44 24 38 08 00 00 	mov    DWORD PTR [esp+0x38],0x8
  405389:	00 
  40538a:	89 44 24 30          	mov    DWORD PTR [esp+0x30],eax
  40538e:	e9 47 fa ff ff       	jmp    404dda <___mingw_pformat+0x2aa>
  405393:	0f b7 4c 24 20       	movzx  ecx,WORD PTR [esp+0x20]
  405398:	89 d5                	mov    ebp,edx
  40539a:	c7 44 24 24 00 00 00 	mov    DWORD PTR [esp+0x24],0x0
  4053a1:	00 
  4053a2:	89 4c 24 20          	mov    DWORD PTR [esp+0x20],ecx
  4053a6:	e9 d7 fa ff ff       	jmp    404e82 <___mingw_pformat+0x352>
  4053ab:	89 10                	mov    DWORD PTR [eax],edx
  4053ad:	83 c5 04             	add    ebp,0x4
  4053b0:	e9 0b f8 ff ff       	jmp    404bc0 <___mingw_pformat+0x90>
  4053b5:	0f bf 44 24 20       	movsx  eax,WORD PTR [esp+0x20]
  4053ba:	89 d5                	mov    ebp,edx
  4053bc:	89 44 24 20          	mov    DWORD PTR [esp+0x20],eax
  4053c0:	c1 f8 1f             	sar    eax,0x1f
  4053c3:	89 44 24 24          	mov    DWORD PTR [esp+0x24],eax
  4053c7:	e9 ab fb ff ff       	jmp    404f77 <___mingw_pformat+0x447>
  4053cc:	bb 3c a1 40 00       	mov    ebx,0x40a13c
  4053d1:	e9 18 fe ff ff       	jmp    4051ee <___mingw_pformat+0x6be>
  4053d6:	8b 54 24 10          	mov    edx,DWORD PTR [esp+0x10]
  4053da:	85 d2                	test   edx,edx
  4053dc:	0f 85 99 00 00 00    	jne    40547b <___mingw_pformat+0x94b>
  4053e2:	81 4c 24 30 00 04 00 	or     DWORD PTR [esp+0x30],0x400
  4053e9:	00 
  4053ea:	f7 5c 24 34          	neg    DWORD PTR [esp+0x34]
  4053ee:	e9 84 fd ff ff       	jmp    405177 <___mingw_pformat+0x647>
  4053f3:	0f be 44 24 20       	movsx  eax,BYTE PTR [esp+0x20]
  4053f8:	89 44 24 20          	mov    DWORD PTR [esp+0x20],eax
  4053fc:	c1 f8 1f             	sar    eax,0x1f
  4053ff:	89 44 24 24          	mov    DWORD PTR [esp+0x24],eax
  405403:	e9 6f fb ff ff       	jmp    404f77 <___mingw_pformat+0x447>
  405408:	0f b6 54 24 20       	movzx  edx,BYTE PTR [esp+0x20]
  40540d:	c7 44 24 24 00 00 00 	mov    DWORD PTR [esp+0x24],0x0
  405414:	00 
  405415:	89 54 24 20          	mov    DWORD PTR [esp+0x20],edx
  405419:	e9 64 fa ff ff       	jmp    404e82 <___mingw_pformat+0x352>
  40541e:	89 d7                	mov    edi,edx
  405420:	83 c5 04             	add    ebp,0x4
  405423:	c1 ff 1f             	sar    edi,0x1f
  405426:	89 78 04             	mov    DWORD PTR [eax+0x4],edi
  405429:	e9 92 f7 ff ff       	jmp    404bc0 <___mingw_pformat+0x90>
  40542e:	0f b6 51 03          	movzx  edx,BYTE PTR [ecx+0x3]
  405432:	83 c1 03             	add    ecx,0x3
  405435:	c7 44 24 14 03 00 00 	mov    DWORD PTR [esp+0x14],0x3
  40543c:	00 
  40543d:	c7 44 24 10 04 00 00 	mov    DWORD PTR [esp+0x10],0x4
  405444:	00 
  405445:	e9 c3 f7 ff ff       	jmp    404c0d <___mingw_pformat+0xdd>
  40544a:	0f b6 51 03          	movzx  edx,BYTE PTR [ecx+0x3]
  40544e:	83 c1 03             	add    ecx,0x3
  405451:	c7 44 24 14 02 00 00 	mov    DWORD PTR [esp+0x14],0x2
  405458:	00 
  405459:	c7 44 24 10 04 00 00 	mov    DWORD PTR [esp+0x10],0x4
  405460:	00 
  405461:	e9 a7 f7 ff ff       	jmp    404c0d <___mingw_pformat+0xdd>
  405466:	8d 54 24 2c          	lea    edx,[esp+0x2c]
  40546a:	b8 25 00 00 00       	mov    eax,0x25
  40546f:	89 de                	mov    esi,ebx
  405471:	e8 1a e2 ff ff       	call   403690 <___pformat_putc>
  405476:	e9 45 f7 ff ff       	jmp    404bc0 <___mingw_pformat+0x90>
  40547b:	c7 44 24 38 ff ff ff 	mov    DWORD PTR [esp+0x38],0xffffffff
  405482:	ff 
  405483:	89 fd                	mov    ebp,edi
  405485:	0f b6 51 01          	movzx  edx,BYTE PTR [ecx+0x1]
  405489:	c7 44 24 18 00 00 00 	mov    DWORD PTR [esp+0x18],0x0
  405490:	00 
  405491:	89 f1                	mov    ecx,esi
  405493:	e9 75 f7 ff ff       	jmp    404c0d <___mingw_pformat+0xdd>
  405498:	90                   	nop
  405499:	90                   	nop
  40549a:	90                   	nop
  40549b:	90                   	nop
  40549c:	90                   	nop
  40549d:	90                   	nop
  40549e:	90                   	nop
  40549f:	90                   	nop

004054a0 <___mbrtowc_cp>:
  4054a0:	55                   	push   ebp
  4054a1:	89 e5                	mov    ebp,esp
  4054a3:	56                   	push   esi
  4054a4:	53                   	push   ebx
  4054a5:	83 ec 30             	sub    esp,0x30
  4054a8:	8b 5d 0c             	mov    ebx,DWORD PTR [ebp+0xc]
  4054ab:	8b 75 14             	mov    esi,DWORD PTR [ebp+0x14]
  4054ae:	85 db                	test   ebx,ebx
  4054b0:	0f 84 2d 01 00 00    	je     4055e3 <___mbrtowc_cp+0x143>
  4054b6:	8b 4d 10             	mov    ecx,DWORD PTR [ebp+0x10]
  4054b9:	85 c9                	test   ecx,ecx
  4054bb:	0f 84 2f 01 00 00    	je     4055f0 <___mbrtowc_cp+0x150>
  4054c1:	8b 06                	mov    eax,DWORD PTR [esi]
  4054c3:	c7 06 00 00 00 00    	mov    DWORD PTR [esi],0x0
  4054c9:	89 45 f4             	mov    DWORD PTR [ebp-0xc],eax
  4054cc:	0f b6 03             	movzx  eax,BYTE PTR [ebx]
  4054cf:	84 c0                	test   al,al
  4054d1:	0f 84 99 00 00 00    	je     405570 <___mbrtowc_cp+0xd0>
  4054d7:	83 7d 1c 01          	cmp    DWORD PTR [ebp+0x1c],0x1
  4054db:	76 73                	jbe    405550 <___mbrtowc_cp+0xb0>
  4054dd:	80 7d f4 00          	cmp    BYTE PTR [ebp-0xc],0x0
  4054e1:	0f 85 9a 00 00 00    	jne    405581 <___mbrtowc_cp+0xe1>
  4054e7:	89 44 24 04          	mov    DWORD PTR [esp+0x4],eax
  4054eb:	8b 45 18             	mov    eax,DWORD PTR [ebp+0x18]
  4054ee:	89 04 24             	mov    DWORD PTR [esp],eax
  4054f1:	e8 5a 2b 00 00       	call   408050 <_IsDBCSLeadByteEx@8>
  4054f6:	83 ec 08             	sub    esp,0x8
  4054f9:	85 c0                	test   eax,eax
  4054fb:	74 53                	je     405550 <___mbrtowc_cp+0xb0>
  4054fd:	83 7d 10 01          	cmp    DWORD PTR [ebp+0x10],0x1
  405501:	0f 86 05 01 00 00    	jbe    40560c <___mbrtowc_cp+0x16c>
  405507:	8b 45 08             	mov    eax,DWORD PTR [ebp+0x8]
  40550a:	c7 44 24 14 01 00 00 	mov    DWORD PTR [esp+0x14],0x1
  405511:	00 
  405512:	c7 44 24 0c 02 00 00 	mov    DWORD PTR [esp+0xc],0x2
  405519:	00 
  40551a:	89 5c 24 08          	mov    DWORD PTR [esp+0x8],ebx
  40551e:	89 44 24 10          	mov    DWORD PTR [esp+0x10],eax
  405522:	8b 45 18             	mov    eax,DWORD PTR [ebp+0x18]
  405525:	c7 44 24 04 08 00 00 	mov    DWORD PTR [esp+0x4],0x8
  40552c:	00 
  40552d:	89 04 24             	mov    DWORD PTR [esp],eax
  405530:	e8 0b 2b 00 00       	call   408040 <_MultiByteToWideChar@24>
  405535:	83 ec 18             	sub    esp,0x18
  405538:	85 c0                	test   eax,eax
  40553a:	0f 84 b7 00 00 00    	je     4055f7 <___mbrtowc_cp+0x157>
  405540:	8d 65 f8             	lea    esp,[ebp-0x8]
  405543:	b8 02 00 00 00       	mov    eax,0x2
  405548:	5b                   	pop    ebx
  405549:	5e                   	pop    esi
  40554a:	5d                   	pop    ebp
  40554b:	c3                   	ret    
  40554c:	8d 74 26 00          	lea    esi,[esi+eiz*1+0x0]
  405550:	8b 45 18             	mov    eax,DWORD PTR [ebp+0x18]
  405553:	85 c0                	test   eax,eax
  405555:	75 50                	jne    4055a7 <___mbrtowc_cp+0x107>
  405557:	0f b6 03             	movzx  eax,BYTE PTR [ebx]
  40555a:	8b 55 08             	mov    edx,DWORD PTR [ebp+0x8]
  40555d:	66 89 02             	mov    WORD PTR [edx],ax
  405560:	8d 65 f8             	lea    esp,[ebp-0x8]
  405563:	b8 01 00 00 00       	mov    eax,0x1
  405568:	5b                   	pop    ebx
  405569:	5e                   	pop    esi
  40556a:	5d                   	pop    ebp
  40556b:	c3                   	ret    
  40556c:	8d 74 26 00          	lea    esi,[esi+eiz*1+0x0]
  405570:	8b 45 08             	mov    eax,DWORD PTR [ebp+0x8]
  405573:	31 d2                	xor    edx,edx
  405575:	66 89 10             	mov    WORD PTR [eax],dx
  405578:	31 c0                	xor    eax,eax
  40557a:	8d 65 f8             	lea    esp,[ebp-0x8]
  40557d:	5b                   	pop    ebx
  40557e:	5e                   	pop    esi
  40557f:	5d                   	pop    ebp
  405580:	c3                   	ret    
  405581:	88 45 f5             	mov    BYTE PTR [ebp-0xb],al
  405584:	8b 45 08             	mov    eax,DWORD PTR [ebp+0x8]
  405587:	c7 44 24 14 01 00 00 	mov    DWORD PTR [esp+0x14],0x1
  40558e:	00 
  40558f:	c7 44 24 0c 02 00 00 	mov    DWORD PTR [esp+0xc],0x2
  405596:	00 
  405597:	89 44 24 10          	mov    DWORD PTR [esp+0x10],eax
  40559b:	8d 45 f4             	lea    eax,[ebp-0xc]
  40559e:	89 44 24 08          	mov    DWORD PTR [esp+0x8],eax
  4055a2:	e9 7b ff ff ff       	jmp    405522 <___mbrtowc_cp+0x82>
  4055a7:	8b 45 08             	mov    eax,DWORD PTR [ebp+0x8]
  4055aa:	c7 44 24 14 01 00 00 	mov    DWORD PTR [esp+0x14],0x1
  4055b1:	00 
  4055b2:	c7 44 24 0c 01 00 00 	mov    DWORD PTR [esp+0xc],0x1
  4055b9:	00 
  4055ba:	89 5c 24 08          	mov    DWORD PTR [esp+0x8],ebx
  4055be:	89 44 24 10          	mov    DWORD PTR [esp+0x10],eax
  4055c2:	8b 45 18             	mov    eax,DWORD PTR [ebp+0x18]
  4055c5:	c7 44 24 04 08 00 00 	mov    DWORD PTR [esp+0x4],0x8
  4055cc:	00 
  4055cd:	89 04 24             	mov    DWORD PTR [esp],eax
  4055d0:	e8 6b 2a 00 00       	call   408040 <_MultiByteToWideChar@24>
  4055d5:	83 ec 18             	sub    esp,0x18
  4055d8:	85 c0                	test   eax,eax
  4055da:	74 1b                	je     4055f7 <___mbrtowc_cp+0x157>
  4055dc:	b8 01 00 00 00       	mov    eax,0x1
  4055e1:	eb 97                	jmp    40557a <___mbrtowc_cp+0xda>
  4055e3:	8d 65 f8             	lea    esp,[ebp-0x8]
  4055e6:	31 c0                	xor    eax,eax
  4055e8:	5b                   	pop    ebx
  4055e9:	5e                   	pop    esi
  4055ea:	5d                   	pop    ebp
  4055eb:	c3                   	ret    
  4055ec:	8d 74 26 00          	lea    esi,[esi+eiz*1+0x0]
  4055f0:	b8 fe ff ff ff       	mov    eax,0xfffffffe
  4055f5:	eb 83                	jmp    40557a <___mbrtowc_cp+0xda>
  4055f7:	e8 ec 29 00 00       	call   407fe8 <__errno>
  4055fc:	c7 00 2a 00 00 00    	mov    DWORD PTR [eax],0x2a
  405602:	b8 ff ff ff ff       	mov    eax,0xffffffff
  405607:	e9 6e ff ff ff       	jmp    40557a <___mbrtowc_cp+0xda>
  40560c:	0f b6 03             	movzx  eax,BYTE PTR [ebx]
  40560f:	88 06                	mov    BYTE PTR [esi],al
  405611:	b8 fe ff ff ff       	mov    eax,0xfffffffe
  405616:	e9 5f ff ff ff       	jmp    40557a <___mbrtowc_cp+0xda>
  40561b:	90                   	nop
  40561c:	8d 74 26 00          	lea    esi,[esi+eiz*1+0x0]

00405620 <_mbrtowc>:
  405620:	56                   	push   esi
  405621:	31 f6                	xor    esi,esi
  405623:	53                   	push   ebx
  405624:	83 ec 34             	sub    esp,0x34
  405627:	8b 5c 24 40          	mov    ebx,DWORD PTR [esp+0x40]
  40562b:	66 89 74 24 2e       	mov    WORD PTR [esp+0x2e],si
  405630:	85 db                	test   ebx,ebx
  405632:	74 70                	je     4056a4 <_mbrtowc+0x84>
  405634:	a1 ac e1 40 00       	mov    eax,ds:0x40e1ac
  405639:	8b 30                	mov    esi,DWORD PTR [eax]
  40563b:	c7 44 24 04 00 00 00 	mov    DWORD PTR [esp+0x4],0x0
  405642:	00 
  405643:	c7 04 24 02 00 00 00 	mov    DWORD PTR [esp],0x2
  40564a:	e8 11 29 00 00       	call   407f60 <_setlocale>
  40564f:	c7 44 24 04 2e 00 00 	mov    DWORD PTR [esp+0x4],0x2e
  405656:	00 
  405657:	89 04 24             	mov    DWORD PTR [esp],eax
  40565a:	e8 f1 28 00 00       	call   407f50 <_strchr>
  40565f:	31 c9                	xor    ecx,ecx
  405661:	85 c0                	test   eax,eax
  405663:	74 0d                	je     405672 <_mbrtowc+0x52>
  405665:	83 c0 01             	add    eax,0x1
  405668:	89 04 24             	mov    DWORD PTR [esp],eax
  40566b:	e8 58 29 00 00       	call   407fc8 <_atoi>
  405670:	89 c1                	mov    ecx,eax
  405672:	8b 54 24 4c          	mov    edx,DWORD PTR [esp+0x4c]
  405676:	85 d2                	test   edx,edx
  405678:	74 36                	je     4056b0 <_mbrtowc+0x90>
  40567a:	8b 44 24 48          	mov    eax,DWORD PTR [esp+0x48]
  40567e:	89 74 24 14          	mov    DWORD PTR [esp+0x14],esi
  405682:	89 1c 24             	mov    DWORD PTR [esp],ebx
  405685:	89 4c 24 10          	mov    DWORD PTR [esp+0x10],ecx
  405689:	89 44 24 08          	mov    DWORD PTR [esp+0x8],eax
  40568d:	8b 44 24 44          	mov    eax,DWORD PTR [esp+0x44]
  405691:	89 54 24 0c          	mov    DWORD PTR [esp+0xc],edx
  405695:	89 44 24 04          	mov    DWORD PTR [esp+0x4],eax
  405699:	e8 02 fe ff ff       	call   4054a0 <___mbrtowc_cp>
  40569e:	83 c4 34             	add    esp,0x34
  4056a1:	5b                   	pop    ebx
  4056a2:	5e                   	pop    esi
  4056a3:	c3                   	ret    
  4056a4:	8d 5c 24 2e          	lea    ebx,[esp+0x2e]
  4056a8:	eb 8a                	jmp    405634 <_mbrtowc+0x14>
  4056aa:	8d b6 00 00 00 00    	lea    esi,[esi+0x0]
  4056b0:	ba 78 d0 40 00       	mov    edx,0x40d078
  4056b5:	eb c3                	jmp    40567a <_mbrtowc+0x5a>
  4056b7:	89 f6                	mov    esi,esi
  4056b9:	8d bc 27 00 00 00 00 	lea    edi,[edi+eiz*1+0x0]

004056c0 <_mbsrtowcs>:
  4056c0:	55                   	push   ebp
  4056c1:	57                   	push   edi
  4056c2:	56                   	push   esi
  4056c3:	53                   	push   ebx
  4056c4:	83 ec 3c             	sub    esp,0x3c
  4056c7:	8b 44 24 5c          	mov    eax,DWORD PTR [esp+0x5c]
  4056cb:	8b 5c 24 50          	mov    ebx,DWORD PTR [esp+0x50]
  4056cf:	8b 74 24 54          	mov    esi,DWORD PTR [esp+0x54]
  4056d3:	8b 7c 24 58          	mov    edi,DWORD PTR [esp+0x58]
  4056d7:	85 c0                	test   eax,eax
  4056d9:	0f 84 41 01 00 00    	je     405820 <_mbsrtowcs+0x160>
  4056df:	c7 44 24 04 00 00 00 	mov    DWORD PTR [esp+0x4],0x0
  4056e6:	00 
  4056e7:	c7 04 24 02 00 00 00 	mov    DWORD PTR [esp],0x2
  4056ee:	e8 6d 28 00 00       	call   407f60 <_setlocale>
  4056f3:	c7 44 24 04 2e 00 00 	mov    DWORD PTR [esp+0x4],0x2e
  4056fa:	00 
  4056fb:	89 04 24             	mov    DWORD PTR [esp],eax
  4056fe:	e8 4d 28 00 00       	call   407f50 <_strchr>
  405703:	c7 44 24 18 00 00 00 	mov    DWORD PTR [esp+0x18],0x0
  40570a:	00 
  40570b:	85 c0                	test   eax,eax
  40570d:	74 0f                	je     40571e <_mbsrtowcs+0x5e>
  40570f:	83 c0 01             	add    eax,0x1
  405712:	89 04 24             	mov    DWORD PTR [esp],eax
  405715:	e8 ae 28 00 00       	call   407fc8 <_atoi>
  40571a:	89 44 24 18          	mov    DWORD PTR [esp+0x18],eax
  40571e:	a1 ac e1 40 00       	mov    eax,ds:0x40e1ac
  405723:	85 f6                	test   esi,esi
  405725:	8b 00                	mov    eax,DWORD PTR [eax]
  405727:	89 44 24 1c          	mov    DWORD PTR [esp+0x1c],eax
  40572b:	0f 84 df 00 00 00    	je     405810 <_mbsrtowcs+0x150>
  405731:	8b 0e                	mov    ecx,DWORD PTR [esi]
  405733:	85 c9                	test   ecx,ecx
  405735:	0f 84 d5 00 00 00    	je     405810 <_mbsrtowcs+0x150>
  40573b:	85 db                	test   ebx,ebx
  40573d:	74 71                	je     4057b0 <_mbsrtowcs+0xf0>
  40573f:	85 ff                	test   edi,edi
  405741:	0f 84 c9 00 00 00    	je     405810 <_mbsrtowcs+0x150>
  405747:	89 74 24 54          	mov    DWORD PTR [esp+0x54],esi
  40574b:	31 ed                	xor    ebp,ebp
  40574d:	89 de                	mov    esi,ebx
  40574f:	8b 5c 24 54          	mov    ebx,DWORD PTR [esp+0x54]
  405753:	eb 0f                	jmp    405764 <_mbsrtowcs+0xa4>
  405755:	8b 0b                	mov    ecx,DWORD PTR [ebx]
  405757:	01 c5                	add    ebp,eax
  405759:	83 c6 02             	add    esi,0x2
  40575c:	01 c1                	add    ecx,eax
  40575e:	39 ef                	cmp    edi,ebp
  405760:	89 0b                	mov    DWORD PTR [ebx],ecx
  405762:	76 30                	jbe    405794 <_mbsrtowcs+0xd4>
  405764:	8b 44 24 1c          	mov    eax,DWORD PTR [esp+0x1c]
  405768:	89 4c 24 04          	mov    DWORD PTR [esp+0x4],ecx
  40576c:	89 34 24             	mov    DWORD PTR [esp],esi
  40576f:	89 44 24 14          	mov    DWORD PTR [esp+0x14],eax
  405773:	8b 44 24 18          	mov    eax,DWORD PTR [esp+0x18]
  405777:	89 44 24 10          	mov    DWORD PTR [esp+0x10],eax
  40577b:	8b 44 24 5c          	mov    eax,DWORD PTR [esp+0x5c]
  40577f:	89 44 24 0c          	mov    DWORD PTR [esp+0xc],eax
  405783:	89 f8                	mov    eax,edi
  405785:	29 e8                	sub    eax,ebp
  405787:	89 44 24 08          	mov    DWORD PTR [esp+0x8],eax
  40578b:	e8 10 fd ff ff       	call   4054a0 <___mbrtowc_cp>
  405790:	85 c0                	test   eax,eax
  405792:	7f c1                	jg     405755 <_mbsrtowcs+0x95>
  405794:	85 c0                	test   eax,eax
  405796:	75 6e                	jne    405806 <_mbsrtowcs+0x146>
  405798:	39 fd                	cmp    ebp,edi
  40579a:	73 6a                	jae    405806 <_mbsrtowcs+0x146>
  40579c:	c7 03 00 00 00 00    	mov    DWORD PTR [ebx],0x0
  4057a2:	83 c4 3c             	add    esp,0x3c
  4057a5:	89 e8                	mov    eax,ebp
  4057a7:	5b                   	pop    ebx
  4057a8:	5e                   	pop    esi
  4057a9:	5f                   	pop    edi
  4057aa:	5d                   	pop    ebp
  4057ab:	c3                   	ret    
  4057ac:	8d 74 26 00          	lea    esi,[esi+eiz*1+0x0]
  4057b0:	31 ed                	xor    ebp,ebp
  4057b2:	66 89 6c 24 2e       	mov    WORD PTR [esp+0x2e],bp
  4057b7:	31 ed                	xor    ebp,ebp
  4057b9:	85 ff                	test   edi,edi
  4057bb:	74 49                	je     405806 <_mbsrtowcs+0x146>
  4057bd:	89 7c 24 58          	mov    DWORD PTR [esp+0x58],edi
  4057c1:	8d 5c 24 2e          	lea    ebx,[esp+0x2e]
  4057c5:	89 f7                	mov    edi,esi
  4057c7:	8b 74 24 1c          	mov    esi,DWORD PTR [esp+0x1c]
  4057cb:	eb 11                	jmp    4057de <_mbsrtowcs+0x11e>
  4057cd:	8d 76 00             	lea    esi,[esi+0x0]
  4057d0:	8b 0f                	mov    ecx,DWORD PTR [edi]
  4057d2:	01 c5                	add    ebp,eax
  4057d4:	01 c1                	add    ecx,eax
  4057d6:	39 6c 24 58          	cmp    DWORD PTR [esp+0x58],ebp
  4057da:	89 0f                	mov    DWORD PTR [edi],ecx
  4057dc:	76 28                	jbe    405806 <_mbsrtowcs+0x146>
  4057de:	8b 44 24 18          	mov    eax,DWORD PTR [esp+0x18]
  4057e2:	89 74 24 14          	mov    DWORD PTR [esp+0x14],esi
  4057e6:	89 74 24 08          	mov    DWORD PTR [esp+0x8],esi
  4057ea:	89 4c 24 04          	mov    DWORD PTR [esp+0x4],ecx
  4057ee:	89 44 24 10          	mov    DWORD PTR [esp+0x10],eax
  4057f2:	8b 44 24 5c          	mov    eax,DWORD PTR [esp+0x5c]
  4057f6:	89 1c 24             	mov    DWORD PTR [esp],ebx
  4057f9:	89 44 24 0c          	mov    DWORD PTR [esp+0xc],eax
  4057fd:	e8 9e fc ff ff       	call   4054a0 <___mbrtowc_cp>
  405802:	85 c0                	test   eax,eax
  405804:	7f ca                	jg     4057d0 <_mbsrtowcs+0x110>
  405806:	83 c4 3c             	add    esp,0x3c
  405809:	89 e8                	mov    eax,ebp
  40580b:	5b                   	pop    ebx
  40580c:	5e                   	pop    esi
  40580d:	5f                   	pop    edi
  40580e:	5d                   	pop    ebp
  40580f:	c3                   	ret    
  405810:	83 c4 3c             	add    esp,0x3c
  405813:	31 c0                	xor    eax,eax
  405815:	5b                   	pop    ebx
  405816:	5e                   	pop    esi
  405817:	5f                   	pop    edi
  405818:	5d                   	pop    ebp
  405819:	c3                   	ret    
  40581a:	8d b6 00 00 00 00    	lea    esi,[esi+0x0]
  405820:	c7 44 24 5c 74 d0 40 	mov    DWORD PTR [esp+0x5c],0x40d074
  405827:	00 
  405828:	e9 b2 fe ff ff       	jmp    4056df <_mbsrtowcs+0x1f>
  40582d:	8d 76 00             	lea    esi,[esi+0x0]

00405830 <_mbrlen>:
  405830:	53                   	push   ebx
  405831:	31 c0                	xor    eax,eax
  405833:	83 ec 38             	sub    esp,0x38
  405836:	66 89 44 24 2e       	mov    WORD PTR [esp+0x2e],ax
  40583b:	a1 ac e1 40 00       	mov    eax,ds:0x40e1ac
  405840:	8b 18                	mov    ebx,DWORD PTR [eax]
  405842:	c7 44 24 04 00 00 00 	mov    DWORD PTR [esp+0x4],0x0
  405849:	00 
  40584a:	c7 04 24 02 00 00 00 	mov    DWORD PTR [esp],0x2
  405851:	e8 0a 27 00 00       	call   407f60 <_setlocale>
  405856:	c7 44 24 04 2e 00 00 	mov    DWORD PTR [esp+0x4],0x2e
  40585d:	00 
  40585e:	89 04 24             	mov    DWORD PTR [esp],eax
  405861:	e8 ea 26 00 00       	call   407f50 <_strchr>
  405866:	31 c9                	xor    ecx,ecx
  405868:	85 c0                	test   eax,eax
  40586a:	74 0d                	je     405879 <_mbrlen+0x49>
  40586c:	83 c0 01             	add    eax,0x1
  40586f:	89 04 24             	mov    DWORD PTR [esp],eax
  405872:	e8 51 27 00 00       	call   407fc8 <_atoi>
  405877:	89 c1                	mov    ecx,eax
  405879:	8b 54 24 48          	mov    edx,DWORD PTR [esp+0x48]
  40587d:	85 d2                	test   edx,edx
  40587f:	74 2f                	je     4058b0 <_mbrlen+0x80>
  405881:	8b 44 24 44          	mov    eax,DWORD PTR [esp+0x44]
  405885:	89 5c 24 14          	mov    DWORD PTR [esp+0x14],ebx
  405889:	89 4c 24 10          	mov    DWORD PTR [esp+0x10],ecx
  40588d:	89 54 24 0c          	mov    DWORD PTR [esp+0xc],edx
  405891:	89 44 24 08          	mov    DWORD PTR [esp+0x8],eax
  405895:	8b 44 24 40          	mov    eax,DWORD PTR [esp+0x40]
  405899:	89 44 24 04          	mov    DWORD PTR [esp+0x4],eax
  40589d:	8d 44 24 2e          	lea    eax,[esp+0x2e]
  4058a1:	89 04 24             	mov    DWORD PTR [esp],eax
  4058a4:	e8 f7 fb ff ff       	call   4054a0 <___mbrtowc_cp>
  4058a9:	83 c4 38             	add    esp,0x38
  4058ac:	5b                   	pop    ebx
  4058ad:	c3                   	ret    
  4058ae:	66 90                	xchg   ax,ax
  4058b0:	ba 70 d0 40 00       	mov    edx,0x40d070
  4058b5:	eb ca                	jmp    405881 <_mbrlen+0x51>
  4058b7:	90                   	nop
  4058b8:	90                   	nop
  4058b9:	90                   	nop
  4058ba:	90                   	nop
  4058bb:	90                   	nop
  4058bc:	90                   	nop
  4058bd:	90                   	nop
  4058be:	90                   	nop
  4058bf:	90                   	nop

004058c0 <___wcrtomb_cp>:
  4058c0:	55                   	push   ebp
  4058c1:	89 e5                	mov    ebp,esp
  4058c3:	83 ec 48             	sub    esp,0x48
  4058c6:	8b 55 10             	mov    edx,DWORD PTR [ebp+0x10]
  4058c9:	8b 45 0c             	mov    eax,DWORD PTR [ebp+0xc]
  4058cc:	85 d2                	test   edx,edx
  4058ce:	66 89 45 e4          	mov    WORD PTR [ebp-0x1c],ax
  4058d2:	75 12                	jne    4058e6 <___wcrtomb_cp+0x26>
  4058d4:	66 3d ff 00          	cmp    ax,0xff
  4058d8:	77 5d                	ja     405937 <___wcrtomb_cp+0x77>
  4058da:	8b 4d 08             	mov    ecx,DWORD PTR [ebp+0x8]
  4058dd:	88 01                	mov    BYTE PTR [ecx],al
  4058df:	b8 01 00 00 00       	mov    eax,0x1
  4058e4:	c9                   	leave  
  4058e5:	c3                   	ret    
  4058e6:	8d 45 f4             	lea    eax,[ebp-0xc]
  4058e9:	89 44 24 1c          	mov    DWORD PTR [esp+0x1c],eax
  4058ed:	8b 45 14             	mov    eax,DWORD PTR [ebp+0x14]
  4058f0:	c7 44 24 18 00 00 00 	mov    DWORD PTR [esp+0x18],0x0
  4058f7:	00 
  4058f8:	c7 44 24 0c 01 00 00 	mov    DWORD PTR [esp+0xc],0x1
  4058ff:	00 
  405900:	c7 44 24 04 00 00 00 	mov    DWORD PTR [esp+0x4],0x0
  405907:	00 
  405908:	89 44 24 14          	mov    DWORD PTR [esp+0x14],eax
  40590c:	8b 45 08             	mov    eax,DWORD PTR [ebp+0x8]
  40590f:	89 14 24             	mov    DWORD PTR [esp],edx
  405912:	c7 45 f4 00 00 00 00 	mov    DWORD PTR [ebp-0xc],0x0
  405919:	89 44 24 10          	mov    DWORD PTR [esp+0x10],eax
  40591d:	8d 45 e4             	lea    eax,[ebp-0x1c]
  405920:	89 44 24 08          	mov    DWORD PTR [esp+0x8],eax
  405924:	e8 e7 26 00 00       	call   408010 <_WideCharToMultiByte@32>
  405929:	83 ec 20             	sub    esp,0x20
  40592c:	85 c0                	test   eax,eax
  40592e:	74 07                	je     405937 <___wcrtomb_cp+0x77>
  405930:	8b 55 f4             	mov    edx,DWORD PTR [ebp-0xc]
  405933:	85 d2                	test   edx,edx
  405935:	74 ad                	je     4058e4 <___wcrtomb_cp+0x24>
  405937:	e8 ac 26 00 00       	call   407fe8 <__errno>
  40593c:	c7 00 2a 00 00 00    	mov    DWORD PTR [eax],0x2a
  405942:	b8 ff ff ff ff       	mov    eax,0xffffffff
  405947:	c9                   	leave  
  405948:	c3                   	ret    
  405949:	8d b4 26 00 00 00 00 	lea    esi,[esi+eiz*1+0x0]

00405950 <_wcrtomb>:
  405950:	57                   	push   edi
  405951:	56                   	push   esi
  405952:	53                   	push   ebx
  405953:	83 ec 20             	sub    esp,0x20
  405956:	8b 5c 24 30          	mov    ebx,DWORD PTR [esp+0x30]
  40595a:	8b 74 24 34          	mov    esi,DWORD PTR [esp+0x34]
  40595e:	85 db                	test   ebx,ebx
  405960:	74 5e                	je     4059c0 <_wcrtomb+0x70>
  405962:	a1 ac e1 40 00       	mov    eax,ds:0x40e1ac
  405967:	8b 38                	mov    edi,DWORD PTR [eax]
  405969:	c7 44 24 04 00 00 00 	mov    DWORD PTR [esp+0x4],0x0
  405970:	00 
  405971:	c7 04 24 02 00 00 00 	mov    DWORD PTR [esp],0x2
  405978:	e8 e3 25 00 00       	call   407f60 <_setlocale>
  40597d:	c7 44 24 04 2e 00 00 	mov    DWORD PTR [esp+0x4],0x2e
  405984:	00 
  405985:	89 04 24             	mov    DWORD PTR [esp],eax
  405988:	e8 c3 25 00 00       	call   407f50 <_strchr>
  40598d:	31 d2                	xor    edx,edx
  40598f:	85 c0                	test   eax,eax
  405991:	74 0d                	je     4059a0 <_wcrtomb+0x50>
  405993:	83 c0 01             	add    eax,0x1
  405996:	89 04 24             	mov    DWORD PTR [esp],eax
  405999:	e8 2a 26 00 00       	call   407fc8 <_atoi>
  40599e:	89 c2                	mov    edx,eax
  4059a0:	0f b7 f6             	movzx  esi,si
  4059a3:	89 7c 24 0c          	mov    DWORD PTR [esp+0xc],edi
  4059a7:	89 74 24 04          	mov    DWORD PTR [esp+0x4],esi
  4059ab:	89 1c 24             	mov    DWORD PTR [esp],ebx
  4059ae:	89 54 24 08          	mov    DWORD PTR [esp+0x8],edx
  4059b2:	e8 09 ff ff ff       	call   4058c0 <___wcrtomb_cp>
  4059b7:	83 c4 20             	add    esp,0x20
  4059ba:	5b                   	pop    ebx
  4059bb:	5e                   	pop    esi
  4059bc:	5f                   	pop    edi
  4059bd:	c3                   	ret    
  4059be:	66 90                	xchg   ax,ax
  4059c0:	8d 5c 24 1e          	lea    ebx,[esp+0x1e]
  4059c4:	eb 9c                	jmp    405962 <_wcrtomb+0x12>
  4059c6:	8d 76 00             	lea    esi,[esi+0x0]
  4059c9:	8d bc 27 00 00 00 00 	lea    edi,[edi+eiz*1+0x0]

004059d0 <_wcsrtombs>:
  4059d0:	55                   	push   ebp
  4059d1:	57                   	push   edi
  4059d2:	56                   	push   esi
  4059d3:	31 f6                	xor    esi,esi
  4059d5:	53                   	push   ebx
  4059d6:	83 ec 3c             	sub    esp,0x3c
  4059d9:	c7 44 24 04 00 00 00 	mov    DWORD PTR [esp+0x4],0x0
  4059e0:	00 
  4059e1:	8b 5c 24 50          	mov    ebx,DWORD PTR [esp+0x50]
  4059e5:	c7 04 24 02 00 00 00 	mov    DWORD PTR [esp],0x2
  4059ec:	e8 6f 25 00 00       	call   407f60 <_setlocale>
  4059f1:	c7 44 24 04 2e 00 00 	mov    DWORD PTR [esp+0x4],0x2e
  4059f8:	00 
  4059f9:	89 04 24             	mov    DWORD PTR [esp],eax
  4059fc:	e8 4f 25 00 00       	call   407f50 <_strchr>
  405a01:	85 c0                	test   eax,eax
  405a03:	74 0d                	je     405a12 <_wcsrtombs+0x42>
  405a05:	83 c0 01             	add    eax,0x1
  405a08:	89 04 24             	mov    DWORD PTR [esp],eax
  405a0b:	e8 b8 25 00 00       	call   407fc8 <_atoi>
  405a10:	89 c6                	mov    esi,eax
  405a12:	a1 ac e1 40 00       	mov    eax,ds:0x40e1ac
  405a17:	8b 00                	mov    eax,DWORD PTR [eax]
  405a19:	89 44 24 1c          	mov    DWORD PTR [esp+0x1c],eax
  405a1d:	8b 44 24 54          	mov    eax,DWORD PTR [esp+0x54]
  405a21:	8b 38                	mov    edi,DWORD PTR [eax]
  405a23:	85 ff                	test   edi,edi
  405a25:	0f 84 cc 00 00 00    	je     405af7 <_wcsrtombs+0x127>
  405a2b:	31 ed                	xor    ebp,ebp
  405a2d:	85 db                	test   ebx,ebx
  405a2f:	74 76                	je     405aa7 <_wcsrtombs+0xd7>
  405a31:	8b 4c 24 58          	mov    ecx,DWORD PTR [esp+0x58]
  405a35:	85 c9                	test   ecx,ecx
  405a37:	74 49                	je     405a82 <_wcsrtombs+0xb2>
  405a39:	89 f0                	mov    eax,esi
  405a3b:	89 fe                	mov    esi,edi
  405a3d:	89 c7                	mov    edi,eax
  405a3f:	eb 13                	jmp    405a54 <_wcsrtombs+0x84>
  405a41:	01 c3                	add    ebx,eax
  405a43:	01 c5                	add    ebp,eax
  405a45:	80 7b ff 00          	cmp    BYTE PTR [ebx-0x1],0x0
  405a49:	74 47                	je     405a92 <_wcsrtombs+0xc2>
  405a4b:	83 c6 02             	add    esi,0x2
  405a4e:	39 6c 24 58          	cmp    DWORD PTR [esp+0x58],ebp
  405a52:	76 2c                	jbe    405a80 <_wcsrtombs+0xb0>
  405a54:	8b 44 24 1c          	mov    eax,DWORD PTR [esp+0x1c]
  405a58:	89 7c 24 08          	mov    DWORD PTR [esp+0x8],edi
  405a5c:	89 44 24 0c          	mov    DWORD PTR [esp+0xc],eax
  405a60:	0f b7 06             	movzx  eax,WORD PTR [esi]
  405a63:	89 1c 24             	mov    DWORD PTR [esp],ebx
  405a66:	89 44 24 04          	mov    DWORD PTR [esp+0x4],eax
  405a6a:	e8 51 fe ff ff       	call   4058c0 <___wcrtomb_cp>
  405a6f:	85 c0                	test   eax,eax
  405a71:	7f ce                	jg     405a41 <_wcsrtombs+0x71>
  405a73:	b8 ff ff ff ff       	mov    eax,0xffffffff
  405a78:	83 c4 3c             	add    esp,0x3c
  405a7b:	5b                   	pop    ebx
  405a7c:	5e                   	pop    esi
  405a7d:	5f                   	pop    edi
  405a7e:	5d                   	pop    ebp
  405a7f:	c3                   	ret    
  405a80:	89 f7                	mov    edi,esi
  405a82:	8b 44 24 54          	mov    eax,DWORD PTR [esp+0x54]
  405a86:	89 38                	mov    DWORD PTR [eax],edi
  405a88:	83 c4 3c             	add    esp,0x3c
  405a8b:	89 e8                	mov    eax,ebp
  405a8d:	5b                   	pop    ebx
  405a8e:	5e                   	pop    esi
  405a8f:	5f                   	pop    edi
  405a90:	5d                   	pop    ebp
  405a91:	c3                   	ret    
  405a92:	8b 44 24 54          	mov    eax,DWORD PTR [esp+0x54]
  405a96:	c7 00 00 00 00 00    	mov    DWORD PTR [eax],0x0
  405a9c:	83 c4 3c             	add    esp,0x3c
  405a9f:	5b                   	pop    ebx
  405aa0:	8d 45 ff             	lea    eax,[ebp-0x1]
  405aa3:	5e                   	pop    esi
  405aa4:	5f                   	pop    edi
  405aa5:	5d                   	pop    ebp
  405aa6:	c3                   	ret    
  405aa7:	8b 44 24 58          	mov    eax,DWORD PTR [esp+0x58]
  405aab:	85 c0                	test   eax,eax
  405aad:	74 63                	je     405b12 <_wcsrtombs+0x142>
  405aaf:	89 e8                	mov    eax,ebp
  405ab1:	8b 5c 24 1c          	mov    ebx,DWORD PTR [esp+0x1c]
  405ab5:	89 fd                	mov    ebp,edi
  405ab7:	89 c7                	mov    edi,eax
  405ab9:	eb 17                	jmp    405ad2 <_wcsrtombs+0x102>
  405abb:	90                   	nop
  405abc:	8d 74 26 00          	lea    esi,[esi+eiz*1+0x0]
  405ac0:	01 c7                	add    edi,eax
  405ac2:	80 7c 04 2d 00       	cmp    BYTE PTR [esp+eax*1+0x2d],0x0
  405ac7:	74 38                	je     405b01 <_wcsrtombs+0x131>
  405ac9:	83 c5 02             	add    ebp,0x2
  405acc:	39 7c 24 58          	cmp    DWORD PTR [esp+0x58],edi
  405ad0:	76 37                	jbe    405b09 <_wcsrtombs+0x139>
  405ad2:	89 5c 24 0c          	mov    DWORD PTR [esp+0xc],ebx
  405ad6:	89 74 24 08          	mov    DWORD PTR [esp+0x8],esi
  405ada:	0f b7 45 00          	movzx  eax,WORD PTR [ebp+0x0]
  405ade:	89 44 24 04          	mov    DWORD PTR [esp+0x4],eax
  405ae2:	8d 44 24 2e          	lea    eax,[esp+0x2e]
  405ae6:	89 04 24             	mov    DWORD PTR [esp],eax
  405ae9:	e8 d2 fd ff ff       	call   4058c0 <___wcrtomb_cp>
  405aee:	85 c0                	test   eax,eax
  405af0:	7f ce                	jg     405ac0 <_wcsrtombs+0xf0>
  405af2:	e9 7c ff ff ff       	jmp    405a73 <_wcsrtombs+0xa3>
  405af7:	83 c4 3c             	add    esp,0x3c
  405afa:	31 c0                	xor    eax,eax
  405afc:	5b                   	pop    ebx
  405afd:	5e                   	pop    esi
  405afe:	5f                   	pop    edi
  405aff:	5d                   	pop    ebp
  405b00:	c3                   	ret    
  405b01:	8d 47 ff             	lea    eax,[edi-0x1]
  405b04:	e9 6f ff ff ff       	jmp    405a78 <_wcsrtombs+0xa8>
  405b09:	89 fd                	mov    ebp,edi
  405b0b:	89 e8                	mov    eax,ebp
  405b0d:	e9 66 ff ff ff       	jmp    405a78 <_wcsrtombs+0xa8>
  405b12:	89 dd                	mov    ebp,ebx
  405b14:	89 e8                	mov    eax,ebp
  405b16:	e9 5d ff ff ff       	jmp    405a78 <_wcsrtombs+0xa8>
  405b1b:	90                   	nop
  405b1c:	90                   	nop
  405b1d:	90                   	nop
  405b1e:	90                   	nop
  405b1f:	90                   	nop

00405b20 <___gdtoa>:
  405b20:	55                   	push   ebp
  405b21:	57                   	push   edi
  405b22:	56                   	push   esi
  405b23:	53                   	push   ebx
  405b24:	83 ec 6c             	sub    esp,0x6c
  405b27:	8b 84 24 8c 00 00 00 	mov    eax,DWORD PTR [esp+0x8c]
  405b2e:	8b 9c 24 8c 00 00 00 	mov    ebx,DWORD PTR [esp+0x8c]
  405b35:	8b 30                	mov    esi,DWORD PTR [eax]
  405b37:	89 f0                	mov    eax,esi
  405b39:	83 e0 cf             	and    eax,0xffffffcf
  405b3c:	89 03                	mov    DWORD PTR [ebx],eax
  405b3e:	89 f0                	mov    eax,esi
  405b40:	83 e0 07             	and    eax,0x7
  405b43:	83 f8 04             	cmp    eax,0x4
  405b46:	0f 87 5f 14 00 00    	ja     406fab <___gdtoa+0x148b>
  405b4c:	ff 24 85 e8 a2 40 00 	jmp    DWORD PTR [eax*4+0x40a2e8]
  405b53:	8b 84 24 80 00 00 00 	mov    eax,DWORD PTR [esp+0x80]
  405b5a:	31 d2                	xor    edx,edx
  405b5c:	8b 38                	mov    edi,DWORD PTR [eax]
  405b5e:	83 ff 20             	cmp    edi,0x20
  405b61:	7e 0e                	jle    405b71 <___gdtoa+0x51>
  405b63:	b8 20 00 00 00       	mov    eax,0x20
  405b68:	01 c0                	add    eax,eax
  405b6a:	83 c2 01             	add    edx,0x1
  405b6d:	39 c7                	cmp    edi,eax
  405b6f:	7f f7                	jg     405b68 <___gdtoa+0x48>
  405b71:	89 14 24             	mov    DWORD PTR [esp],edx
  405b74:	e8 77 19 00 00       	call   4074f0 <___Balloc_D2A>
  405b79:	8b 8c 24 88 00 00 00 	mov    ecx,DWORD PTR [esp+0x88]
  405b80:	89 c3                	mov    ebx,eax
  405b82:	8d 47 ff             	lea    eax,[edi-0x1]
  405b85:	c1 f8 05             	sar    eax,0x5
  405b88:	8d 2c 81             	lea    ebp,[ecx+eax*4]
  405b8b:	8b 84 24 88 00 00 00 	mov    eax,DWORD PTR [esp+0x88]
  405b92:	8d 4b 14             	lea    ecx,[ebx+0x14]
  405b95:	89 ca                	mov    edx,ecx
  405b97:	89 4c 24 0c          	mov    DWORD PTR [esp+0xc],ecx
  405b9b:	90                   	nop
  405b9c:	8d 74 26 00          	lea    esi,[esi+eiz*1+0x0]
  405ba0:	8b 08                	mov    ecx,DWORD PTR [eax]
  405ba2:	83 c0 04             	add    eax,0x4
  405ba5:	83 c2 04             	add    edx,0x4
  405ba8:	39 c5                	cmp    ebp,eax
  405baa:	89 4a fc             	mov    DWORD PTR [edx-0x4],ecx
  405bad:	73 f1                	jae    405ba0 <___gdtoa+0x80>
  405baf:	8b 4c 24 0c          	mov    ecx,DWORD PTR [esp+0xc]
  405bb3:	29 ca                	sub    edx,ecx
  405bb5:	c1 fa 02             	sar    edx,0x2
  405bb8:	eb 10                	jmp    405bca <___gdtoa+0xaa>
  405bba:	8d b6 00 00 00 00    	lea    esi,[esi+0x0]
  405bc0:	85 c0                	test   eax,eax
  405bc2:	0f 84 6e 04 00 00    	je     406036 <___gdtoa+0x516>
  405bc8:	89 c2                	mov    edx,eax
  405bca:	8d 42 ff             	lea    eax,[edx-0x1]
  405bcd:	8b 2c 81             	mov    ebp,DWORD PTR [ecx+eax*4]
  405bd0:	85 ed                	test   ebp,ebp
  405bd2:	74 ec                	je     405bc0 <___gdtoa+0xa0>
  405bd4:	0f bd 44 93 10       	bsr    eax,DWORD PTR [ebx+edx*4+0x10]
  405bd9:	89 53 10             	mov    DWORD PTR [ebx+0x10],edx
  405bdc:	c1 e2 05             	shl    edx,0x5
  405bdf:	89 d5                	mov    ebp,edx
  405be1:	83 f0 1f             	xor    eax,0x1f
  405be4:	29 c5                	sub    ebp,eax
  405be6:	89 1c 24             	mov    DWORD PTR [esp],ebx
  405be9:	e8 f2 14 00 00       	call   4070e0 <___trailz_D2A>
  405bee:	8b 8c 24 84 00 00 00 	mov    ecx,DWORD PTR [esp+0x84]
  405bf5:	89 4c 24 20          	mov    DWORD PTR [esp+0x20],ecx
  405bf9:	85 c0                	test   eax,eax
  405bfb:	89 44 24 5c          	mov    DWORD PTR [esp+0x5c],eax
  405bff:	0f 85 3f 04 00 00    	jne    406044 <___gdtoa+0x524>
  405c05:	8b 4b 10             	mov    ecx,DWORD PTR [ebx+0x10]
  405c08:	85 c9                	test   ecx,ecx
  405c0a:	0f 85 a8 00 00 00    	jne    405cb8 <___gdtoa+0x198>
  405c10:	89 1c 24             	mov    DWORD PTR [esp],ebx
  405c13:	e8 a8 19 00 00       	call   4075c0 <___Bfree_D2A>
  405c18:	8b 84 24 98 00 00 00 	mov    eax,DWORD PTR [esp+0x98]
  405c1f:	c7 00 01 00 00 00    	mov    DWORD PTR [eax],0x1
  405c25:	8b 84 24 9c 00 00 00 	mov    eax,DWORD PTR [esp+0x9c]
  405c2c:	c7 44 24 08 01 00 00 	mov    DWORD PTR [esp+0x8],0x1
  405c33:	00 
  405c34:	c7 04 24 e5 a2 40 00 	mov    DWORD PTR [esp],0x40a2e5
  405c3b:	89 44 24 04          	mov    DWORD PTR [esp+0x4],eax
  405c3f:	e8 1c 15 00 00       	call   407160 <___nrv_alloc_D2A>
  405c44:	83 c4 6c             	add    esp,0x6c
  405c47:	5b                   	pop    ebx
  405c48:	5e                   	pop    esi
  405c49:	5f                   	pop    edi
  405c4a:	5d                   	pop    ebp
  405c4b:	c3                   	ret    
  405c4c:	8d 74 26 00          	lea    esi,[esi+eiz*1+0x0]
  405c50:	8b 84 24 98 00 00 00 	mov    eax,DWORD PTR [esp+0x98]
  405c57:	c7 00 00 80 ff ff    	mov    DWORD PTR [eax],0xffff8000
  405c5d:	8b 84 24 9c 00 00 00 	mov    eax,DWORD PTR [esp+0x9c]
  405c64:	c7 44 24 08 03 00 00 	mov    DWORD PTR [esp+0x8],0x3
  405c6b:	00 
  405c6c:	c7 04 24 e1 a2 40 00 	mov    DWORD PTR [esp],0x40a2e1
  405c73:	89 44 24 04          	mov    DWORD PTR [esp+0x4],eax
  405c77:	e8 e4 14 00 00       	call   407160 <___nrv_alloc_D2A>
  405c7c:	83 c4 6c             	add    esp,0x6c
  405c7f:	5b                   	pop    ebx
  405c80:	5e                   	pop    esi
  405c81:	5f                   	pop    edi
  405c82:	5d                   	pop    ebp
  405c83:	c3                   	ret    
  405c84:	8b 84 24 98 00 00 00 	mov    eax,DWORD PTR [esp+0x98]
  405c8b:	c7 00 00 80 ff ff    	mov    DWORD PTR [eax],0xffff8000
  405c91:	8b 84 24 9c 00 00 00 	mov    eax,DWORD PTR [esp+0x9c]
  405c98:	c7 44 24 08 08 00 00 	mov    DWORD PTR [esp+0x8],0x8
  405c9f:	00 
  405ca0:	c7 04 24 d8 a2 40 00 	mov    DWORD PTR [esp],0x40a2d8
  405ca7:	89 44 24 04          	mov    DWORD PTR [esp+0x4],eax
  405cab:	e8 b0 14 00 00       	call   407160 <___nrv_alloc_D2A>
  405cb0:	83 c4 6c             	add    esp,0x6c
  405cb3:	5b                   	pop    ebx
  405cb4:	5e                   	pop    esi
  405cb5:	5f                   	pop    edi
  405cb6:	5d                   	pop    ebp
  405cb7:	c3                   	ret    
  405cb8:	8d 44 24 5c          	lea    eax,[esp+0x5c]
  405cbc:	89 44 24 04          	mov    DWORD PTR [esp+0x4],eax
  405cc0:	89 1c 24             	mov    DWORD PTR [esp],ebx
  405cc3:	e8 48 20 00 00       	call   407d10 <___b2d_D2A>
  405cc8:	8b 44 24 20          	mov    eax,DWORD PTR [esp+0x20]
  405ccc:	8d 54 28 ff          	lea    edx,[eax+ebp*1-0x1]
  405cd0:	89 54 24 48          	mov    DWORD PTR [esp+0x48],edx
  405cd4:	89 d0                	mov    eax,edx
  405cd6:	dd 5c 24 10          	fstp   QWORD PTR [esp+0x10]
  405cda:	8b 4c 24 14          	mov    ecx,DWORD PTR [esp+0x14]
  405cde:	c1 f8 1f             	sar    eax,0x1f
  405ce1:	89 44 24 0c          	mov    DWORD PTR [esp+0xc],eax
  405ce5:	31 d0                	xor    eax,edx
  405ce7:	2b 44 24 0c          	sub    eax,DWORD PTR [esp+0xc]
  405ceb:	81 e1 ff ff 0f 00    	and    ecx,0xfffff
  405cf1:	81 c9 00 00 f0 3f    	or     ecx,0x3ff00000
  405cf7:	89 4c 24 14          	mov    DWORD PTR [esp+0x14],ecx
  405cfb:	2d 35 04 00 00       	sub    eax,0x435
  405d00:	dd 44 24 10          	fld    QWORD PTR [esp+0x10]
  405d04:	85 c0                	test   eax,eax
  405d06:	d8 25 fc a2 40 00    	fsub   DWORD PTR ds:0x40a2fc
  405d0c:	dc 0d 00 a3 40 00    	fmul   QWORD PTR ds:0x40a300
  405d12:	dc 05 08 a3 40 00    	fadd   QWORD PTR ds:0x40a308
  405d18:	db 44 24 48          	fild   DWORD PTR [esp+0x48]
  405d1c:	dc 0d 10 a3 40 00    	fmul   QWORD PTR ds:0x40a310
  405d22:	de c1                	faddp  st(1),st
  405d24:	7e 10                	jle    405d36 <___gdtoa+0x216>
  405d26:	89 44 24 48          	mov    DWORD PTR [esp+0x48],eax
  405d2a:	db 44 24 48          	fild   DWORD PTR [esp+0x48]
  405d2e:	dc 0d 18 a3 40 00    	fmul   QWORD PTR ds:0x40a318
  405d34:	de c1                	faddp  st(1),st
  405d36:	d9 7c 24 4e          	fnstcw WORD PTR [esp+0x4e]
  405d3a:	0f b7 44 24 4e       	movzx  eax,WORD PTR [esp+0x4e]
  405d3f:	b4 0c                	mov    ah,0xc
  405d41:	66 89 44 24 4c       	mov    WORD PTR [esp+0x4c],ax
  405d46:	d9 6c 24 4c          	fldcw  WORD PTR [esp+0x4c]
  405d4a:	db 54 24 0c          	fist   DWORD PTR [esp+0xc]
  405d4e:	d9 6c 24 4e          	fldcw  WORD PTR [esp+0x4e]
  405d52:	d9 ee                	fldz   
  405d54:	dd e9                	fucomp st(1)
  405d56:	df e0                	fnstsw ax
  405d58:	9e                   	sahf   
  405d59:	0f 87 76 07 00 00    	ja     4064d5 <___gdtoa+0x9b5>
  405d5f:	dd d8                	fstp   st(0)
  405d61:	89 d0                	mov    eax,edx
  405d63:	c1 e0 14             	shl    eax,0x14
  405d66:	01 c8                	add    eax,ecx
  405d68:	83 7c 24 0c 16       	cmp    DWORD PTR [esp+0xc],0x16
  405d6d:	89 44 24 14          	mov    DWORD PTR [esp+0x14],eax
  405d71:	c7 44 24 34 01 00 00 	mov    DWORD PTR [esp+0x34],0x1
  405d78:	00 
  405d79:	77 29                	ja     405da4 <___gdtoa+0x284>
  405d7b:	8b 44 24 0c          	mov    eax,DWORD PTR [esp+0xc]
  405d7f:	dd 04 c5 60 a3 40 00 	fld    QWORD PTR [eax*8+0x40a360]
  405d86:	dd 44 24 10          	fld    QWORD PTR [esp+0x10]
  405d8a:	d9 c9                	fxch   st(1)
  405d8c:	da e9                	fucompp 
  405d8e:	df e0                	fnstsw ax
  405d90:	9e                   	sahf   
  405d91:	0f 86 6d 06 00 00    	jbe    406404 <___gdtoa+0x8e4>
  405d97:	83 6c 24 0c 01       	sub    DWORD PTR [esp+0xc],0x1
  405d9c:	c7 44 24 34 00 00 00 	mov    DWORD PTR [esp+0x34],0x0
  405da3:	00 
  405da4:	89 e8                	mov    eax,ebp
  405da6:	29 d0                	sub    eax,edx
  405da8:	83 e8 01             	sub    eax,0x1
  405dab:	c7 44 24 28 00 00 00 	mov    DWORD PTR [esp+0x28],0x0
  405db2:	00 
  405db3:	89 44 24 1c          	mov    DWORD PTR [esp+0x1c],eax
  405db7:	0f 88 05 07 00 00    	js     4064c2 <___gdtoa+0x9a2>
  405dbd:	8b 44 24 0c          	mov    eax,DWORD PTR [esp+0xc]
  405dc1:	85 c0                	test   eax,eax
  405dc3:	0f 88 de 06 00 00    	js     4064a7 <___gdtoa+0x987>
  405dc9:	01 44 24 1c          	add    DWORD PTR [esp+0x1c],eax
  405dcd:	89 44 24 3c          	mov    DWORD PTR [esp+0x3c],eax
  405dd1:	c7 44 24 30 00 00 00 	mov    DWORD PTR [esp+0x30],0x0
  405dd8:	00 
  405dd9:	83 bc 24 90 00 00 00 	cmp    DWORD PTR [esp+0x90],0x9
  405de0:	09 
  405de1:	0f 87 81 02 00 00    	ja     406068 <___gdtoa+0x548>
  405de7:	83 bc 24 90 00 00 00 	cmp    DWORD PTR [esp+0x90],0x5
  405dee:	05 
  405def:	0f 8e c0 11 00 00    	jle    406fb5 <___gdtoa+0x1495>
  405df5:	83 ac 24 90 00 00 00 	sub    DWORD PTR [esp+0x90],0x4
  405dfc:	04 
  405dfd:	31 c0                	xor    eax,eax
  405dff:	83 bc 24 90 00 00 00 	cmp    DWORD PTR [esp+0x90],0x3
  405e06:	03 
  405e07:	0f 84 11 06 00 00    	je     40641e <___gdtoa+0x8fe>
  405e0d:	0f 8e 18 06 00 00    	jle    40642b <___gdtoa+0x90b>
  405e13:	83 bc 24 90 00 00 00 	cmp    DWORD PTR [esp+0x90],0x4
  405e1a:	04 
  405e1b:	c7 44 24 40 01 00 00 	mov    DWORD PTR [esp+0x40],0x1
  405e22:	00 
  405e23:	0f 84 18 06 00 00    	je     406441 <___gdtoa+0x921>
  405e29:	83 bc 24 90 00 00 00 	cmp    DWORD PTR [esp+0x90],0x5
  405e30:	05 
  405e31:	0f 85 3c 02 00 00    	jne    406073 <___gdtoa+0x553>
  405e37:	8b 4c 24 0c          	mov    ecx,DWORD PTR [esp+0xc]
  405e3b:	03 8c 24 94 00 00 00 	add    ecx,DWORD PTR [esp+0x94]
  405e42:	89 4c 24 44          	mov    DWORD PTR [esp+0x44],ecx
  405e46:	83 c1 01             	add    ecx,0x1
  405e49:	85 c9                	test   ecx,ecx
  405e4b:	89 4c 24 18          	mov    DWORD PTR [esp+0x18],ecx
  405e4f:	0f 8e e3 0a 00 00    	jle    406938 <___gdtoa+0xe18>
  405e55:	83 f9 0e             	cmp    ecx,0xe
  405e58:	0f 96 c2             	setbe  dl
  405e5b:	21 c2                	and    edx,eax
  405e5d:	89 c8                	mov    eax,ecx
  405e5f:	89 4c 24 5c          	mov    DWORD PTR [esp+0x5c],ecx
  405e63:	89 04 24             	mov    DWORD PTR [esp],eax
  405e66:	89 54 24 38          	mov    DWORD PTR [esp+0x38],edx
  405e6a:	e8 b1 12 00 00       	call   407120 <___rv_alloc_D2A>
  405e6f:	8b 54 24 38          	mov    edx,DWORD PTR [esp+0x38]
  405e73:	89 44 24 24          	mov    DWORD PTR [esp+0x24],eax
  405e77:	8b 84 24 80 00 00 00 	mov    eax,DWORD PTR [esp+0x80]
  405e7e:	8b 40 0c             	mov    eax,DWORD PTR [eax+0xc]
  405e81:	83 e8 01             	sub    eax,0x1
  405e84:	89 44 24 2c          	mov    DWORD PTR [esp+0x2c],eax
  405e88:	74 0f                	je     405e99 <___gdtoa+0x379>
  405e8a:	0f 88 81 05 00 00    	js     406411 <___gdtoa+0x8f1>
  405e90:	83 e6 08             	and    esi,0x8
  405e93:	0f 85 59 05 00 00    	jne    4063f2 <___gdtoa+0x8d2>
  405e99:	84 d2                	test   dl,dl
  405e9b:	90                   	nop
  405e9c:	8d 74 26 00          	lea    esi,[esi+eiz*1+0x0]
  405ea0:	0f 84 70 02 00 00    	je     406116 <___gdtoa+0x5f6>
  405ea6:	8b 44 24 2c          	mov    eax,DWORD PTR [esp+0x2c]
  405eaa:	0b 44 24 0c          	or     eax,DWORD PTR [esp+0xc]
  405eae:	0f 85 62 02 00 00    	jne    406116 <___gdtoa+0x5f6>
  405eb4:	8b 44 24 34          	mov    eax,DWORD PTR [esp+0x34]
  405eb8:	c7 44 24 5c 00 00 00 	mov    DWORD PTR [esp+0x5c],0x0
  405ebf:	00 
  405ec0:	dd 44 24 10          	fld    QWORD PTR [esp+0x10]
  405ec4:	85 c0                	test   eax,eax
  405ec6:	74 0d                	je     405ed5 <___gdtoa+0x3b5>
  405ec8:	d9 e8                	fld1   
  405eca:	dd e9                	fucomp st(1)
  405ecc:	df e0                	fnstsw ax
  405ece:	9e                   	sahf   
  405ecf:	0f 87 e7 0d 00 00    	ja     406cbc <___gdtoa+0x119c>
  405ed5:	d9 c0                	fld    st(0)
  405ed7:	8b 74 24 18          	mov    esi,DWORD PTR [esp+0x18]
  405edb:	d8 c1                	fadd   st,st(1)
  405edd:	d8 05 34 a3 40 00    	fadd   DWORD PTR ds:0x40a334
  405ee3:	dd 5c 24 10          	fstp   QWORD PTR [esp+0x10]
  405ee7:	81 6c 24 14 00 00 40 	sub    DWORD PTR [esp+0x14],0x3400000
  405eee:	03 
  405eef:	85 f6                	test   esi,esi
  405ef1:	0f 84 e1 01 00 00    	je     4060d8 <___gdtoa+0x5b8>
  405ef7:	8b 54 24 18          	mov    edx,DWORD PTR [esp+0x18]
  405efb:	d9 c0                	fld    st(0)
  405efd:	c7 44 24 38 00 00 00 	mov    DWORD PTR [esp+0x38],0x0
  405f04:	00 
  405f05:	8b 4c 24 40          	mov    ecx,DWORD PTR [esp+0x40]
  405f09:	85 c9                	test   ecx,ecx
  405f0b:	0f 84 58 0a 00 00    	je     406969 <___gdtoa+0xe49>
  405f11:	d9 05 3c a3 40 00    	fld    DWORD PTR ds:0x40a33c
  405f17:	dc 34 d5 58 a3 40 00 	fdiv   QWORD PTR [edx*8+0x40a358]
  405f1e:	d9 7c 24 4e          	fnstcw WORD PTR [esp+0x4e]
  405f22:	c7 44 24 5c 00 00 00 	mov    DWORD PTR [esp+0x5c],0x0
  405f29:	00 
  405f2a:	0f b7 44 24 4e       	movzx  eax,WORD PTR [esp+0x4e]
  405f2f:	b4 0c                	mov    ah,0xc
  405f31:	66 89 44 24 4c       	mov    WORD PTR [esp+0x4c],ax
  405f36:	8b 44 24 24          	mov    eax,DWORD PTR [esp+0x24]
  405f3a:	8d 70 01             	lea    esi,[eax+0x1]
  405f3d:	dc 64 24 10          	fsub   QWORD PTR [esp+0x10]
  405f41:	d9 c9                	fxch   st(1)
  405f43:	d9 6c 24 4c          	fldcw  WORD PTR [esp+0x4c]
  405f47:	db 54 24 48          	fist   DWORD PTR [esp+0x48]
  405f4b:	d9 6c 24 4e          	fldcw  WORD PTR [esp+0x4e]
  405f4f:	8b 4c 24 48          	mov    ecx,DWORD PTR [esp+0x48]
  405f53:	89 4c 24 48          	mov    DWORD PTR [esp+0x48],ecx
  405f57:	83 c1 30             	add    ecx,0x30
  405f5a:	db 44 24 48          	fild   DWORD PTR [esp+0x48]
  405f5e:	de e9                	fsubrp st(1),st
  405f60:	d9 c9                	fxch   st(1)
  405f62:	88 08                	mov    BYTE PTR [eax],cl
  405f64:	dd e1                	fucom  st(1)
  405f66:	df e0                	fnstsw ax
  405f68:	9e                   	sahf   
  405f69:	0f 87 9a 00 00 00    	ja     406009 <___gdtoa+0x4e9>
  405f6f:	d9 c1                	fld    st(1)
  405f71:	d8 2d 28 a3 40 00    	fsubr  DWORD PTR ds:0x40a328
  405f77:	d9 c9                	fxch   st(1)
  405f79:	dd e1                	fucom  st(1)
  405f7b:	df e0                	fnstsw ax
  405f7d:	dd d9                	fstp   st(1)
  405f7f:	9e                   	sahf   
  405f80:	0f 87 f1 0a 00 00    	ja     406a77 <___gdtoa+0xf57>
  405f86:	8b 44 24 5c          	mov    eax,DWORD PTR [esp+0x5c]
  405f8a:	83 c0 01             	add    eax,0x1
  405f8d:	39 c2                	cmp    edx,eax
  405f8f:	89 44 24 5c          	mov    DWORD PTR [esp+0x5c],eax
  405f93:	0f 8e 69 01 00 00    	jle    406102 <___gdtoa+0x5e2>
  405f99:	d9 05 2c a3 40 00    	fld    DWORD PTR ds:0x40a32c
  405f9f:	eb 2e                	jmp    405fcf <___gdtoa+0x4af>
  405fa1:	d9 c1                	fld    st(1)
  405fa3:	d8 2d 28 a3 40 00    	fsubr  DWORD PTR ds:0x40a328
  405fa9:	d9 c9                	fxch   st(1)
  405fab:	dd e1                	fucom  st(1)
  405fad:	df e0                	fnstsw ax
  405faf:	dd d9                	fstp   st(1)
  405fb1:	9e                   	sahf   
  405fb2:	0f 87 c7 0a 00 00    	ja     406a7f <___gdtoa+0xf5f>
  405fb8:	8b 44 24 5c          	mov    eax,DWORD PTR [esp+0x5c]
  405fbc:	83 c0 01             	add    eax,0x1
  405fbf:	39 c2                	cmp    edx,eax
  405fc1:	89 44 24 5c          	mov    DWORD PTR [esp+0x5c],eax
  405fc5:	0f 8e 3d 01 00 00    	jle    406108 <___gdtoa+0x5e8>
  405fcb:	d9 c9                	fxch   st(1)
  405fcd:	d9 ca                	fxch   st(2)
  405fcf:	dc c9                	fmul   st(1),st
  405fd1:	83 c6 01             	add    esi,0x1
  405fd4:	dc ca                	fmul   st(2),st
  405fd6:	d9 ca                	fxch   st(2)
  405fd8:	d9 6c 24 4c          	fldcw  WORD PTR [esp+0x4c]
  405fdc:	db 54 24 48          	fist   DWORD PTR [esp+0x48]
  405fe0:	d9 6c 24 4e          	fldcw  WORD PTR [esp+0x4e]
  405fe4:	8b 44 24 48          	mov    eax,DWORD PTR [esp+0x48]
  405fe8:	89 44 24 48          	mov    DWORD PTR [esp+0x48],eax
  405fec:	8d 48 30             	lea    ecx,[eax+0x30]
  405fef:	db 44 24 48          	fild   DWORD PTR [esp+0x48]
  405ff3:	de e9                	fsubrp st(1),st
  405ff5:	d9 c9                	fxch   st(1)
  405ff7:	88 4e ff             	mov    BYTE PTR [esi-0x1],cl
  405ffa:	dd e1                	fucom  st(1)
  405ffc:	df e0                	fnstsw ax
  405ffe:	9e                   	sahf   
  405fff:	76 a0                	jbe    405fa1 <___gdtoa+0x481>
  406001:	dd d8                	fstp   st(0)
  406003:	dd d9                	fstp   st(1)
  406005:	dd d9                	fstp   st(1)
  406007:	eb 04                	jmp    40600d <___gdtoa+0x4ed>
  406009:	dd d8                	fstp   st(0)
  40600b:	dd d9                	fstp   st(1)
  40600d:	d9 ee                	fldz   
  40600f:	d9 c9                	fxch   st(1)
  406011:	da e9                	fucompp 
  406013:	df e0                	fnstsw ax
  406015:	9e                   	sahf   
  406016:	8b 44 24 38          	mov    eax,DWORD PTR [esp+0x38]
  40601a:	7a 06                	jp     406022 <___gdtoa+0x502>
  40601c:	0f 84 ad 05 00 00    	je     4065cf <___gdtoa+0xaaf>
  406022:	83 c0 01             	add    eax,0x1
  406025:	89 44 24 0c          	mov    DWORD PTR [esp+0xc],eax
  406029:	c7 44 24 18 10 00 00 	mov    DWORD PTR [esp+0x18],0x10
  406030:	00 
  406031:	e9 77 03 00 00       	jmp    4063ad <___gdtoa+0x88d>
  406036:	c7 43 10 00 00 00 00 	mov    DWORD PTR [ebx+0x10],0x0
  40603d:	31 ed                	xor    ebp,ebp
  40603f:	e9 a2 fb ff ff       	jmp    405be6 <___gdtoa+0xc6>
  406044:	89 44 24 04          	mov    DWORD PTR [esp+0x4],eax
  406048:	89 1c 24             	mov    DWORD PTR [esp],ebx
  40604b:	e8 70 0f 00 00       	call   406fc0 <___rshift_D2A>
  406050:	8b 44 24 5c          	mov    eax,DWORD PTR [esp+0x5c]
  406054:	8b 8c 24 84 00 00 00 	mov    ecx,DWORD PTR [esp+0x84]
  40605b:	29 c5                	sub    ebp,eax
  40605d:	01 c1                	add    ecx,eax
  40605f:	89 4c 24 20          	mov    DWORD PTR [esp+0x20],ecx
  406063:	e9 9d fb ff ff       	jmp    405c05 <___gdtoa+0xe5>
  406068:	c7 84 24 90 00 00 00 	mov    DWORD PTR [esp+0x90],0x0
  40606f:	00 00 00 00 
  406073:	89 7c 24 48          	mov    DWORD PTR [esp+0x48],edi
  406077:	31 d2                	xor    edx,edx
  406079:	db 44 24 48          	fild   DWORD PTR [esp+0x48]
  40607d:	dc 0d 20 a3 40 00    	fmul   QWORD PTR ds:0x40a320
  406083:	c7 44 24 40 01 00 00 	mov    DWORD PTR [esp+0x40],0x1
  40608a:	00 
  40608b:	c7 44 24 44 ff ff ff 	mov    DWORD PTR [esp+0x44],0xffffffff
  406092:	ff 
  406093:	c7 44 24 18 ff ff ff 	mov    DWORD PTR [esp+0x18],0xffffffff
  40609a:	ff 
  40609b:	c7 84 24 94 00 00 00 	mov    DWORD PTR [esp+0x94],0x0
  4060a2:	00 00 00 00 
  4060a6:	d9 6c 24 4c          	fldcw  WORD PTR [esp+0x4c]
  4060aa:	db 5c 24 48          	fistp  DWORD PTR [esp+0x48]
  4060ae:	d9 6c 24 4e          	fldcw  WORD PTR [esp+0x4e]
  4060b2:	8b 44 24 48          	mov    eax,DWORD PTR [esp+0x48]
  4060b6:	83 c0 03             	add    eax,0x3
  4060b9:	89 44 24 5c          	mov    DWORD PTR [esp+0x5c],eax
  4060bd:	e9 a1 fd ff ff       	jmp    405e63 <___gdtoa+0x343>
  4060c2:	d9 c0                	fld    st(0)
  4060c4:	d8 c1                	fadd   st,st(1)
  4060c6:	d8 05 34 a3 40 00    	fadd   DWORD PTR ds:0x40a334
  4060cc:	dd 5c 24 10          	fstp   QWORD PTR [esp+0x10]
  4060d0:	81 6c 24 14 00 00 40 	sub    DWORD PTR [esp+0x14],0x3400000
  4060d7:	03 
  4060d8:	d9 c0                	fld    st(0)
  4060da:	d8 25 38 a3 40 00    	fsub   DWORD PTR ds:0x40a338
  4060e0:	dd 44 24 10          	fld    QWORD PTR [esp+0x10]
  4060e4:	d9 c9                	fxch   st(1)
  4060e6:	dd e1                	fucom  st(1)
  4060e8:	df e0                	fnstsw ax
  4060ea:	9e                   	sahf   
  4060eb:	0f 87 52 09 00 00    	ja     406a43 <___gdtoa+0xf23>
  4060f1:	d9 c9                	fxch   st(1)
  4060f3:	d9 e0                	fchs   
  4060f5:	da e9                	fucompp 
  4060f7:	df e0                	fnstsw ax
  4060f9:	9e                   	sahf   
  4060fa:	0f 87 77 03 00 00    	ja     406477 <___gdtoa+0x957>
  406100:	eb 10                	jmp    406112 <___gdtoa+0x5f2>
  406102:	dd d8                	fstp   st(0)
  406104:	dd d8                	fstp   st(0)
  406106:	eb 0a                	jmp    406112 <___gdtoa+0x5f2>
  406108:	dd d8                	fstp   st(0)
  40610a:	dd d8                	fstp   st(0)
  40610c:	dd d8                	fstp   st(0)
  40610e:	eb 02                	jmp    406112 <___gdtoa+0x5f2>
  406110:	dd d8                	fstp   st(0)
  406112:	dd 5c 24 10          	fstp   QWORD PTR [esp+0x10]
  406116:	83 7c 24 0c 0e       	cmp    DWORD PTR [esp+0xc],0xe
  40611b:	0f 8e df 01 00 00    	jle    406300 <___gdtoa+0x7e0>
  406121:	8b 44 24 40          	mov    eax,DWORD PTR [esp+0x40]
  406125:	85 c0                	test   eax,eax
  406127:	0f 84 c3 03 00 00    	je     4064f0 <___gdtoa+0x9d0>
  40612d:	83 bc 24 90 00 00 00 	cmp    DWORD PTR [esp+0x90],0x1
  406134:	01 
  406135:	0f 8e 93 09 00 00    	jle    406ace <___gdtoa+0xfae>
  40613b:	8b 44 24 18          	mov    eax,DWORD PTR [esp+0x18]
  40613f:	83 e8 01             	sub    eax,0x1
  406142:	39 44 24 30          	cmp    DWORD PTR [esp+0x30],eax
  406146:	0f 8c 08 08 00 00    	jl     406954 <___gdtoa+0xe34>
  40614c:	8b 7c 24 30          	mov    edi,DWORD PTR [esp+0x30]
  406150:	29 c7                	sub    edi,eax
  406152:	8b 44 24 18          	mov    eax,DWORD PTR [esp+0x18]
  406156:	85 c0                	test   eax,eax
  406158:	0f 88 15 0a 00 00    	js     406b73 <___gdtoa+0x1053>
  40615e:	8b 74 24 28          	mov    esi,DWORD PTR [esp+0x28]
  406162:	89 44 24 5c          	mov    DWORD PTR [esp+0x5c],eax
  406166:	c7 04 24 01 00 00 00 	mov    DWORD PTR [esp],0x1
  40616d:	01 44 24 28          	add    DWORD PTR [esp+0x28],eax
  406171:	01 44 24 1c          	add    DWORD PTR [esp+0x1c],eax
  406175:	e8 96 15 00 00       	call   407710 <___i2b_D2A>
  40617a:	89 44 24 20          	mov    DWORD PTR [esp+0x20],eax
  40617e:	8b 44 24 1c          	mov    eax,DWORD PTR [esp+0x1c]
  406182:	85 c0                	test   eax,eax
  406184:	7e 1e                	jle    4061a4 <___gdtoa+0x684>
  406186:	85 f6                	test   esi,esi
  406188:	7e 1a                	jle    4061a4 <___gdtoa+0x684>
  40618a:	8b 4c 24 1c          	mov    ecx,DWORD PTR [esp+0x1c]
  40618e:	39 f1                	cmp    ecx,esi
  406190:	89 c8                	mov    eax,ecx
  406192:	7e 02                	jle    406196 <___gdtoa+0x676>
  406194:	89 f0                	mov    eax,esi
  406196:	29 44 24 28          	sub    DWORD PTR [esp+0x28],eax
  40619a:	29 c6                	sub    esi,eax
  40619c:	29 44 24 1c          	sub    DWORD PTR [esp+0x1c],eax
  4061a0:	89 44 24 5c          	mov    DWORD PTR [esp+0x5c],eax
  4061a4:	8b 4c 24 30          	mov    ecx,DWORD PTR [esp+0x30]
  4061a8:	85 c9                	test   ecx,ecx
  4061aa:	7e 4e                	jle    4061fa <___gdtoa+0x6da>
  4061ac:	8b 54 24 40          	mov    edx,DWORD PTR [esp+0x40]
  4061b0:	85 d2                	test   edx,edx
  4061b2:	0f 84 dd 05 00 00    	je     406795 <___gdtoa+0xc75>
  4061b8:	85 ff                	test   edi,edi
  4061ba:	7e 32                	jle    4061ee <___gdtoa+0x6ce>
  4061bc:	8b 44 24 20          	mov    eax,DWORD PTR [esp+0x20]
  4061c0:	89 7c 24 04          	mov    DWORD PTR [esp+0x4],edi
  4061c4:	89 04 24             	mov    DWORD PTR [esp],eax
  4061c7:	e8 d4 16 00 00       	call   4078a0 <___pow5mult_D2A>
  4061cc:	89 5c 24 04          	mov    DWORD PTR [esp+0x4],ebx
  4061d0:	89 04 24             	mov    DWORD PTR [esp],eax
  4061d3:	89 44 24 20          	mov    DWORD PTR [esp+0x20],eax
  4061d7:	e8 64 15 00 00       	call   407740 <___mult_D2A>
  4061dc:	89 1c 24             	mov    DWORD PTR [esp],ebx
  4061df:	89 44 24 10          	mov    DWORD PTR [esp+0x10],eax
  4061e3:	e8 d8 13 00 00       	call   4075c0 <___Bfree_D2A>
  4061e8:	8b 44 24 10          	mov    eax,DWORD PTR [esp+0x10]
  4061ec:	89 c3                	mov    ebx,eax
  4061ee:	8b 44 24 30          	mov    eax,DWORD PTR [esp+0x30]
  4061f2:	29 f8                	sub    eax,edi
  4061f4:	0f 85 9f 05 00 00    	jne    406799 <___gdtoa+0xc79>
  4061fa:	c7 04 24 01 00 00 00 	mov    DWORD PTR [esp],0x1
  406201:	e8 0a 15 00 00       	call   407710 <___i2b_D2A>
  406206:	89 c7                	mov    edi,eax
  406208:	8b 44 24 3c          	mov    eax,DWORD PTR [esp+0x3c]
  40620c:	85 c0                	test   eax,eax
  40620e:	7e 0e                	jle    40621e <___gdtoa+0x6fe>
  406210:	89 3c 24             	mov    DWORD PTR [esp],edi
  406213:	89 44 24 04          	mov    DWORD PTR [esp+0x4],eax
  406217:	e8 84 16 00 00       	call   4078a0 <___pow5mult_D2A>
  40621c:	89 c7                	mov    edi,eax
  40621e:	83 bc 24 90 00 00 00 	cmp    DWORD PTR [esp+0x90],0x1
  406225:	01 
  406226:	c7 44 24 10 00 00 00 	mov    DWORD PTR [esp+0x10],0x0
  40622d:	00 
  40622e:	0f 8e 8f 06 00 00    	jle    4068c3 <___gdtoa+0xda3>
  406234:	8b 44 24 3c          	mov    eax,DWORD PTR [esp+0x3c]
  406238:	bd 1f 00 00 00       	mov    ebp,0x1f
  40623d:	85 c0                	test   eax,eax
  40623f:	74 0b                	je     40624c <___gdtoa+0x72c>
  406241:	8b 47 10             	mov    eax,DWORD PTR [edi+0x10]
  406244:	0f bd 6c 87 10       	bsr    ebp,DWORD PTR [edi+eax*4+0x10]
  406249:	83 f5 1f             	xor    ebp,0x1f
  40624c:	2b 6c 24 1c          	sub    ebp,DWORD PTR [esp+0x1c]
  406250:	8b 54 24 28          	mov    edx,DWORD PTR [esp+0x28]
  406254:	83 ed 04             	sub    ebp,0x4
  406257:	83 e5 1f             	and    ebp,0x1f
  40625a:	01 ea                	add    edx,ebp
  40625c:	89 e8                	mov    eax,ebp
  40625e:	85 d2                	test   edx,edx
  406260:	89 6c 24 5c          	mov    DWORD PTR [esp+0x5c],ebp
  406264:	7e 12                	jle    406278 <___gdtoa+0x758>
  406266:	89 1c 24             	mov    DWORD PTR [esp],ebx
  406269:	89 54 24 04          	mov    DWORD PTR [esp+0x4],edx
  40626d:	e8 be 17 00 00       	call   407a30 <___lshift_D2A>
  406272:	89 c3                	mov    ebx,eax
  406274:	8b 44 24 5c          	mov    eax,DWORD PTR [esp+0x5c]
  406278:	03 44 24 1c          	add    eax,DWORD PTR [esp+0x1c]
  40627c:	85 c0                	test   eax,eax
  40627e:	7e 0e                	jle    40628e <___gdtoa+0x76e>
  406280:	89 3c 24             	mov    DWORD PTR [esp],edi
  406283:	89 44 24 04          	mov    DWORD PTR [esp+0x4],eax
  406287:	e8 a4 17 00 00       	call   407a30 <___lshift_D2A>
  40628c:	89 c7                	mov    edi,eax
  40628e:	8b 44 24 34          	mov    eax,DWORD PTR [esp+0x34]
  406292:	85 c0                	test   eax,eax
  406294:	0f 85 12 05 00 00    	jne    4067ac <___gdtoa+0xc8c>
  40629a:	83 bc 24 90 00 00 00 	cmp    DWORD PTR [esp+0x90],0x2
  4062a1:	02 
  4062a2:	0f 8e 3b 03 00 00    	jle    4065e3 <___gdtoa+0xac3>
  4062a8:	8b 44 24 18          	mov    eax,DWORD PTR [esp+0x18]
  4062ac:	85 c0                	test   eax,eax
  4062ae:	0f 8f 2f 03 00 00    	jg     4065e3 <___gdtoa+0xac3>
  4062b4:	8b 44 24 18          	mov    eax,DWORD PTR [esp+0x18]
  4062b8:	85 c0                	test   eax,eax
  4062ba:	0f 85 c7 01 00 00    	jne    406487 <___gdtoa+0x967>
  4062c0:	89 3c 24             	mov    DWORD PTR [esp],edi
  4062c3:	c7 44 24 08 00 00 00 	mov    DWORD PTR [esp+0x8],0x0
  4062ca:	00 
  4062cb:	c7 44 24 04 05 00 00 	mov    DWORD PTR [esp+0x4],0x5
  4062d2:	00 
  4062d3:	e8 58 13 00 00       	call   407630 <___multadd_D2A>
  4062d8:	89 1c 24             	mov    DWORD PTR [esp],ebx
  4062db:	89 44 24 04          	mov    DWORD PTR [esp+0x4],eax
  4062df:	89 c7                	mov    edi,eax
  4062e1:	e8 5a 18 00 00       	call   407b40 <___cmp_D2A>
  4062e6:	85 c0                	test   eax,eax
  4062e8:	0f 8e 99 01 00 00    	jle    406487 <___gdtoa+0x967>
  4062ee:	8b 44 24 0c          	mov    eax,DWORD PTR [esp+0xc]
  4062f2:	83 c0 02             	add    eax,0x2
  4062f5:	89 44 24 0c          	mov    DWORD PTR [esp+0xc],eax
  4062f9:	eb 72                	jmp    40636d <___gdtoa+0x84d>
  4062fb:	90                   	nop
  4062fc:	8d 74 26 00          	lea    esi,[esi+eiz*1+0x0]
  406300:	8b 44 24 20          	mov    eax,DWORD PTR [esp+0x20]
  406304:	85 c0                	test   eax,eax
  406306:	0f 88 15 fe ff ff    	js     406121 <___gdtoa+0x601>
  40630c:	8b 44 24 0c          	mov    eax,DWORD PTR [esp+0xc]
  406310:	dd 04 c5 60 a3 40 00 	fld    QWORD PTR [eax*8+0x40a360]
  406317:	8b 44 24 18          	mov    eax,DWORD PTR [esp+0x18]
  40631b:	85 c0                	test   eax,eax
  40631d:	0f 8f e2 01 00 00    	jg     406505 <___gdtoa+0x9e5>
  406323:	8b 84 24 94 00 00 00 	mov    eax,DWORD PTR [esp+0x94]
  40632a:	c1 e8 1f             	shr    eax,0x1f
  40632d:	84 c0                	test   al,al
  40632f:	0f 84 d0 01 00 00    	je     406505 <___gdtoa+0x9e5>
  406335:	8b 44 24 18          	mov    eax,DWORD PTR [esp+0x18]
  406339:	85 c0                	test   eax,eax
  40633b:	0f 85 3a 01 00 00    	jne    40647b <___gdtoa+0x95b>
  406341:	d8 0d 38 a3 40 00    	fmul   DWORD PTR ds:0x40a338
  406347:	dd 44 24 10          	fld    QWORD PTR [esp+0x10]
  40634b:	d9 c9                	fxch   st(1)
  40634d:	da e9                	fucompp 
  40634f:	df e0                	fnstsw ax
  406351:	9e                   	sahf   
  406352:	0f 83 25 01 00 00    	jae    40647d <___gdtoa+0x95d>
  406358:	8b 44 24 0c          	mov    eax,DWORD PTR [esp+0xc]
  40635c:	31 ff                	xor    edi,edi
  40635e:	c7 44 24 20 00 00 00 	mov    DWORD PTR [esp+0x20],0x0
  406365:	00 
  406366:	83 c0 02             	add    eax,0x2
  406369:	89 44 24 0c          	mov    DWORD PTR [esp+0xc],eax
  40636d:	8b 44 24 24          	mov    eax,DWORD PTR [esp+0x24]
  406371:	31 d2                	xor    edx,edx
  406373:	c7 44 24 18 20 00 00 	mov    DWORD PTR [esp+0x18],0x20
  40637a:	00 
  40637b:	8d 70 01             	lea    esi,[eax+0x1]
  40637e:	c6 00 31             	mov    BYTE PTR [eax],0x31
  406381:	89 3c 24             	mov    DWORD PTR [esp],edi
  406384:	89 54 24 10          	mov    DWORD PTR [esp+0x10],edx
  406388:	e8 33 12 00 00       	call   4075c0 <___Bfree_D2A>
  40638d:	8b 44 24 20          	mov    eax,DWORD PTR [esp+0x20]
  406391:	85 c0                	test   eax,eax
  406393:	74 18                	je     4063ad <___gdtoa+0x88d>
  406395:	8b 54 24 10          	mov    edx,DWORD PTR [esp+0x10]
  406399:	39 c2                	cmp    edx,eax
  40639b:	0f 85 dd 03 00 00    	jne    40677e <___gdtoa+0xc5e>
  4063a1:	8b 44 24 20          	mov    eax,DWORD PTR [esp+0x20]
  4063a5:	89 04 24             	mov    DWORD PTR [esp],eax
  4063a8:	e8 13 12 00 00       	call   4075c0 <___Bfree_D2A>
  4063ad:	89 1c 24             	mov    DWORD PTR [esp],ebx
  4063b0:	e8 0b 12 00 00       	call   4075c0 <___Bfree_D2A>
  4063b5:	8b 84 24 98 00 00 00 	mov    eax,DWORD PTR [esp+0x98]
  4063bc:	8b 7c 24 0c          	mov    edi,DWORD PTR [esp+0xc]
  4063c0:	c6 06 00             	mov    BYTE PTR [esi],0x0
  4063c3:	89 38                	mov    DWORD PTR [eax],edi
  4063c5:	8b 84 24 9c 00 00 00 	mov    eax,DWORD PTR [esp+0x9c]
  4063cc:	85 c0                	test   eax,eax
  4063ce:	74 09                	je     4063d9 <___gdtoa+0x8b9>
  4063d0:	8b 84 24 9c 00 00 00 	mov    eax,DWORD PTR [esp+0x9c]
  4063d7:	89 30                	mov    DWORD PTR [eax],esi
  4063d9:	8b 84 24 8c 00 00 00 	mov    eax,DWORD PTR [esp+0x8c]
  4063e0:	8b 7c 24 18          	mov    edi,DWORD PTR [esp+0x18]
  4063e4:	09 38                	or     DWORD PTR [eax],edi
  4063e6:	8b 44 24 24          	mov    eax,DWORD PTR [esp+0x24]
  4063ea:	83 c4 6c             	add    esp,0x6c
  4063ed:	5b                   	pop    ebx
  4063ee:	5e                   	pop    esi
  4063ef:	5f                   	pop    edi
  4063f0:	5d                   	pop    ebp
  4063f1:	c3                   	ret    
  4063f2:	b8 03 00 00 00       	mov    eax,0x3
  4063f7:	2b 44 24 2c          	sub    eax,DWORD PTR [esp+0x2c]
  4063fb:	89 44 24 2c          	mov    DWORD PTR [esp+0x2c],eax
  4063ff:	e9 95 fa ff ff       	jmp    405e99 <___gdtoa+0x379>
  406404:	c7 44 24 34 00 00 00 	mov    DWORD PTR [esp+0x34],0x0
  40640b:	00 
  40640c:	e9 93 f9 ff ff       	jmp    405da4 <___gdtoa+0x284>
  406411:	c7 44 24 2c 02 00 00 	mov    DWORD PTR [esp+0x2c],0x2
  406418:	00 
  406419:	e9 72 fa ff ff       	jmp    405e90 <___gdtoa+0x370>
  40641e:	c7 44 24 40 00 00 00 	mov    DWORD PTR [esp+0x40],0x0
  406425:	00 
  406426:	e9 0c fa ff ff       	jmp    405e37 <___gdtoa+0x317>
  40642b:	83 bc 24 90 00 00 00 	cmp    DWORD PTR [esp+0x90],0x2
  406432:	02 
  406433:	c7 44 24 40 00 00 00 	mov    DWORD PTR [esp+0x40],0x0
  40643a:	00 
  40643b:	0f 85 32 fc ff ff    	jne    406073 <___gdtoa+0x553>
  406441:	8b 94 24 94 00 00 00 	mov    edx,DWORD PTR [esp+0x94]
  406448:	85 d2                	test   edx,edx
  40644a:	0f 8e d3 04 00 00    	jle    406923 <___gdtoa+0xe03>
  406450:	83 bc 24 94 00 00 00 	cmp    DWORD PTR [esp+0x94],0xe
  406457:	0e 
  406458:	0f 96 c2             	setbe  dl
  40645b:	8b 8c 24 94 00 00 00 	mov    ecx,DWORD PTR [esp+0x94]
  406462:	21 c2                	and    edx,eax
  406464:	89 4c 24 5c          	mov    DWORD PTR [esp+0x5c],ecx
  406468:	89 c8                	mov    eax,ecx
  40646a:	89 4c 24 44          	mov    DWORD PTR [esp+0x44],ecx
  40646e:	89 4c 24 18          	mov    DWORD PTR [esp+0x18],ecx
  406472:	e9 ec f9 ff ff       	jmp    405e63 <___gdtoa+0x343>
  406477:	dd d8                	fstp   st(0)
  406479:	eb 02                	jmp    40647d <___gdtoa+0x95d>
  40647b:	dd d8                	fstp   st(0)
  40647d:	31 ff                	xor    edi,edi
  40647f:	c7 44 24 20 00 00 00 	mov    DWORD PTR [esp+0x20],0x0
  406486:	00 
  406487:	8b 84 24 94 00 00 00 	mov    eax,DWORD PTR [esp+0x94]
  40648e:	31 d2                	xor    edx,edx
  406490:	8b 74 24 24          	mov    esi,DWORD PTR [esp+0x24]
  406494:	c7 44 24 18 10 00 00 	mov    DWORD PTR [esp+0x18],0x10
  40649b:	00 
  40649c:	f7 d8                	neg    eax
  40649e:	89 44 24 0c          	mov    DWORD PTR [esp+0xc],eax
  4064a2:	e9 da fe ff ff       	jmp    406381 <___gdtoa+0x861>
  4064a7:	8b 44 24 0c          	mov    eax,DWORD PTR [esp+0xc]
  4064ab:	29 44 24 28          	sub    DWORD PTR [esp+0x28],eax
  4064af:	c7 44 24 3c 00 00 00 	mov    DWORD PTR [esp+0x3c],0x0
  4064b6:	00 
  4064b7:	f7 d8                	neg    eax
  4064b9:	89 44 24 30          	mov    DWORD PTR [esp+0x30],eax
  4064bd:	e9 17 f9 ff ff       	jmp    405dd9 <___gdtoa+0x2b9>
  4064c2:	f7 d8                	neg    eax
  4064c4:	89 44 24 28          	mov    DWORD PTR [esp+0x28],eax
  4064c8:	c7 44 24 1c 00 00 00 	mov    DWORD PTR [esp+0x1c],0x0
  4064cf:	00 
  4064d0:	e9 e8 f8 ff ff       	jmp    405dbd <___gdtoa+0x29d>
  4064d5:	db 44 24 0c          	fild   DWORD PTR [esp+0xc]
  4064d9:	da e9                	fucompp 
  4064db:	df e0                	fnstsw ax
  4064dd:	9e                   	sahf   
  4064de:	7a 06                	jp     4064e6 <___gdtoa+0x9c6>
  4064e0:	0f 84 7b f8 ff ff    	je     405d61 <___gdtoa+0x241>
  4064e6:	83 6c 24 0c 01       	sub    DWORD PTR [esp+0xc],0x1
  4064eb:	e9 71 f8 ff ff       	jmp    405d61 <___gdtoa+0x241>
  4064f0:	8b 7c 24 30          	mov    edi,DWORD PTR [esp+0x30]
  4064f4:	8b 74 24 28          	mov    esi,DWORD PTR [esp+0x28]
  4064f8:	c7 44 24 20 00 00 00 	mov    DWORD PTR [esp+0x20],0x0
  4064ff:	00 
  406500:	e9 79 fc ff ff       	jmp    40617e <___gdtoa+0x65e>
  406505:	dd 44 24 10          	fld    QWORD PTR [esp+0x10]
  406509:	d9 c0                	fld    st(0)
  40650b:	8b 7c 24 24          	mov    edi,DWORD PTR [esp+0x24]
  40650f:	d8 f2                	fdiv   st,st(2)
  406511:	d9 7c 24 4e          	fnstcw WORD PTR [esp+0x4e]
  406515:	c7 44 24 5c 01 00 00 	mov    DWORD PTR [esp+0x5c],0x1
  40651c:	00 
  40651d:	8d 77 01             	lea    esi,[edi+0x1]
  406520:	0f b7 44 24 4e       	movzx  eax,WORD PTR [esp+0x4e]
  406525:	b4 0c                	mov    ah,0xc
  406527:	66 89 44 24 4c       	mov    WORD PTR [esp+0x4c],ax
  40652c:	d9 6c 24 4c          	fldcw  WORD PTR [esp+0x4c]
  406530:	db 5c 24 48          	fistp  DWORD PTR [esp+0x48]
  406534:	d9 6c 24 4e          	fldcw  WORD PTR [esp+0x4e]
  406538:	8b 4c 24 48          	mov    ecx,DWORD PTR [esp+0x48]
  40653c:	89 4c 24 48          	mov    DWORD PTR [esp+0x48],ecx
  406540:	8d 41 30             	lea    eax,[ecx+0x30]
  406543:	db 44 24 48          	fild   DWORD PTR [esp+0x48]
  406547:	d8 ca                	fmul   st,st(2)
  406549:	88 07                	mov    BYTE PTR [edi],al
  40654b:	de e9                	fsubrp st(1),st
  40654d:	d9 ee                	fldz   
  40654f:	d9 c9                	fxch   st(1)
  406551:	dd e1                	fucom  st(1)
  406553:	df e0                	fnstsw ax
  406555:	dd d9                	fstp   st(1)
  406557:	9e                   	sahf   
  406558:	0f 8b 52 09 00 00    	jnp    406eb0 <___gdtoa+0x1390>
  40655e:	8b 44 24 5c          	mov    eax,DWORD PTR [esp+0x5c]
  406562:	39 44 24 18          	cmp    DWORD PTR [esp+0x18],eax
  406566:	0f 84 93 03 00 00    	je     4068ff <___gdtoa+0xddf>
  40656c:	d9 05 2c a3 40 00    	fld    DWORD PTR ds:0x40a32c
  406572:	8b 54 24 18          	mov    edx,DWORD PTR [esp+0x18]
  406576:	eb 0c                	jmp    406584 <___gdtoa+0xa64>
  406578:	8b 44 24 5c          	mov    eax,DWORD PTR [esp+0x5c]
  40657c:	39 c2                	cmp    edx,eax
  40657e:	0f 84 79 03 00 00    	je     4068fd <___gdtoa+0xddd>
  406584:	83 c0 01             	add    eax,0x1
  406587:	dc c9                	fmul   st(1),st
  406589:	83 c6 01             	add    esi,0x1
  40658c:	89 44 24 5c          	mov    DWORD PTR [esp+0x5c],eax
  406590:	d9 c1                	fld    st(1)
  406592:	d8 f3                	fdiv   st,st(3)
  406594:	d9 6c 24 4c          	fldcw  WORD PTR [esp+0x4c]
  406598:	db 5c 24 48          	fistp  DWORD PTR [esp+0x48]
  40659c:	d9 6c 24 4e          	fldcw  WORD PTR [esp+0x4e]
  4065a0:	8b 4c 24 48          	mov    ecx,DWORD PTR [esp+0x48]
  4065a4:	89 4c 24 48          	mov    DWORD PTR [esp+0x48],ecx
  4065a8:	8d 41 30             	lea    eax,[ecx+0x30]
  4065ab:	db 44 24 48          	fild   DWORD PTR [esp+0x48]
  4065af:	d8 cb                	fmul   st,st(3)
  4065b1:	88 46 ff             	mov    BYTE PTR [esi-0x1],al
  4065b4:	de ea                	fsubrp st(2),st
  4065b6:	d9 ee                	fldz   
  4065b8:	d9 ca                	fxch   st(2)
  4065ba:	dd e2                	fucom  st(2)
  4065bc:	df e0                	fnstsw ax
  4065be:	dd da                	fstp   st(2)
  4065c0:	9e                   	sahf   
  4065c1:	7a b5                	jp     406578 <___gdtoa+0xa58>
  4065c3:	75 b3                	jne    406578 <___gdtoa+0xa58>
  4065c5:	dd d8                	fstp   st(0)
  4065c7:	dd d8                	fstp   st(0)
  4065c9:	dd d8                	fstp   st(0)
  4065cb:	8b 44 24 0c          	mov    eax,DWORD PTR [esp+0xc]
  4065cf:	83 c0 01             	add    eax,0x1
  4065d2:	89 44 24 0c          	mov    DWORD PTR [esp+0xc],eax
  4065d6:	c7 44 24 18 00 00 00 	mov    DWORD PTR [esp+0x18],0x0
  4065dd:	00 
  4065de:	e9 ca fd ff ff       	jmp    4063ad <___gdtoa+0x88d>
  4065e3:	8b 44 24 40          	mov    eax,DWORD PTR [esp+0x40]
  4065e7:	85 c0                	test   eax,eax
  4065e9:	0f 84 19 02 00 00    	je     406808 <___gdtoa+0xce8>
  4065ef:	8d 04 2e             	lea    eax,[esi+ebp*1]
  4065f2:	85 c0                	test   eax,eax
  4065f4:	7e 14                	jle    40660a <___gdtoa+0xaea>
  4065f6:	89 44 24 04          	mov    DWORD PTR [esp+0x4],eax
  4065fa:	8b 44 24 20          	mov    eax,DWORD PTR [esp+0x20]
  4065fe:	89 04 24             	mov    DWORD PTR [esp],eax
  406601:	e8 2a 14 00 00       	call   407a30 <___lshift_D2A>
  406606:	89 44 24 20          	mov    DWORD PTR [esp+0x20],eax
  40660a:	8b 74 24 10          	mov    esi,DWORD PTR [esp+0x10]
  40660e:	8b 6c 24 20          	mov    ebp,DWORD PTR [esp+0x20]
  406612:	85 f6                	test   esi,esi
  406614:	0f 85 e9 06 00 00    	jne    406d03 <___gdtoa+0x11e3>
  40661a:	8b 74 24 24          	mov    esi,DWORD PTR [esp+0x24]
  40661e:	89 7c 24 1c          	mov    DWORD PTR [esp+0x1c],edi
  406622:	8b 7c 24 20          	mov    edi,DWORD PTR [esp+0x20]
  406626:	c7 44 24 5c 01 00 00 	mov    DWORD PTR [esp+0x5c],0x1
  40662d:	00 
  40662e:	89 74 24 28          	mov    DWORD PTR [esp+0x28],esi
  406632:	e9 d6 00 00 00       	jmp    40670d <___gdtoa+0xbed>
  406637:	89 14 24             	mov    DWORD PTR [esp],edx
  40663a:	89 44 24 20          	mov    DWORD PTR [esp+0x20],eax
  40663e:	e8 7d 0f 00 00       	call   4075c0 <___Bfree_D2A>
  406643:	8b 44 24 20          	mov    eax,DWORD PTR [esp+0x20]
  406647:	89 c1                	mov    ecx,eax
  406649:	0b 8c 24 90 00 00 00 	or     ecx,DWORD PTR [esp+0x90]
  406650:	75 18                	jne    40666a <___gdtoa+0xb4a>
  406652:	8b 8c 24 88 00 00 00 	mov    ecx,DWORD PTR [esp+0x88]
  406659:	f6 01 01             	test   BYTE PTR [ecx],0x1
  40665c:	75 0c                	jne    40666a <___gdtoa+0xb4a>
  40665e:	8b 54 24 2c          	mov    edx,DWORD PTR [esp+0x2c]
  406662:	85 d2                	test   edx,edx
  406664:	0f 84 55 08 00 00    	je     406ebf <___gdtoa+0x139f>
  40666a:	85 f6                	test   esi,esi
  40666c:	0f 88 18 05 00 00    	js     406b8a <___gdtoa+0x106a>
  406672:	0b b4 24 90 00 00 00 	or     esi,DWORD PTR [esp+0x90]
  406679:	75 10                	jne    40668b <___gdtoa+0xb6b>
  40667b:	8b b4 24 88 00 00 00 	mov    esi,DWORD PTR [esp+0x88]
  406682:	f6 06 01             	test   BYTE PTR [esi],0x1
  406685:	0f 84 ff 04 00 00    	je     406b8a <___gdtoa+0x106a>
  40668b:	85 c0                	test   eax,eax
  40668d:	0f 8f c9 06 00 00    	jg     406d5c <___gdtoa+0x123c>
  406693:	83 44 24 28 01       	add    DWORD PTR [esp+0x28],0x1
  406698:	0f b6 44 24 10       	movzx  eax,BYTE PTR [esp+0x10]
  40669d:	8b 74 24 28          	mov    esi,DWORD PTR [esp+0x28]
  4066a1:	88 46 ff             	mov    BYTE PTR [esi-0x1],al
  4066a4:	8b 44 24 18          	mov    eax,DWORD PTR [esp+0x18]
  4066a8:	39 44 24 5c          	cmp    DWORD PTR [esp+0x5c],eax
  4066ac:	0f 84 97 06 00 00    	je     406d49 <___gdtoa+0x1229>
  4066b2:	89 1c 24             	mov    DWORD PTR [esp],ebx
  4066b5:	c7 44 24 08 00 00 00 	mov    DWORD PTR [esp+0x8],0x0
  4066bc:	00 
  4066bd:	c7 44 24 04 0a 00 00 	mov    DWORD PTR [esp+0x4],0xa
  4066c4:	00 
  4066c5:	e8 66 0f 00 00       	call   407630 <___multadd_D2A>
  4066ca:	39 ef                	cmp    edi,ebp
  4066cc:	c7 44 24 08 00 00 00 	mov    DWORD PTR [esp+0x8],0x0
  4066d3:	00 
  4066d4:	c7 44 24 04 0a 00 00 	mov    DWORD PTR [esp+0x4],0xa
  4066db:	00 
  4066dc:	89 3c 24             	mov    DWORD PTR [esp],edi
  4066df:	89 c3                	mov    ebx,eax
  4066e1:	0f 84 8c 00 00 00    	je     406773 <___gdtoa+0xc53>
  4066e7:	e8 44 0f 00 00       	call   407630 <___multadd_D2A>
  4066ec:	89 2c 24             	mov    DWORD PTR [esp],ebp
  4066ef:	c7 44 24 08 00 00 00 	mov    DWORD PTR [esp+0x8],0x0
  4066f6:	00 
  4066f7:	c7 44 24 04 0a 00 00 	mov    DWORD PTR [esp+0x4],0xa
  4066fe:	00 
  4066ff:	89 c7                	mov    edi,eax
  406701:	e8 2a 0f 00 00       	call   407630 <___multadd_D2A>
  406706:	89 c5                	mov    ebp,eax
  406708:	83 44 24 5c 01       	add    DWORD PTR [esp+0x5c],0x1
  40670d:	8b 44 24 1c          	mov    eax,DWORD PTR [esp+0x1c]
  406711:	89 1c 24             	mov    DWORD PTR [esp],ebx
  406714:	89 44 24 04          	mov    DWORD PTR [esp+0x4],eax
  406718:	e8 b3 0a 00 00       	call   4071d0 <___quorem_D2A>
  40671d:	89 7c 24 04          	mov    DWORD PTR [esp+0x4],edi
  406721:	89 1c 24             	mov    DWORD PTR [esp],ebx
  406724:	89 c6                	mov    esi,eax
  406726:	83 c6 30             	add    esi,0x30
  406729:	89 74 24 10          	mov    DWORD PTR [esp+0x10],esi
  40672d:	89 44 24 30          	mov    DWORD PTR [esp+0x30],eax
  406731:	e8 0a 14 00 00       	call   407b40 <___cmp_D2A>
  406736:	89 6c 24 04          	mov    DWORD PTR [esp+0x4],ebp
  40673a:	89 c6                	mov    esi,eax
  40673c:	8b 44 24 1c          	mov    eax,DWORD PTR [esp+0x1c]
  406740:	89 04 24             	mov    DWORD PTR [esp],eax
  406743:	e8 48 14 00 00       	call   407b90 <___diff_D2A>
  406748:	89 c2                	mov    edx,eax
  40674a:	b8 01 00 00 00       	mov    eax,0x1
  40674f:	8b 4a 0c             	mov    ecx,DWORD PTR [edx+0xc]
  406752:	85 c9                	test   ecx,ecx
  406754:	0f 85 dd fe ff ff    	jne    406637 <___gdtoa+0xb17>
  40675a:	89 54 24 04          	mov    DWORD PTR [esp+0x4],edx
  40675e:	89 1c 24             	mov    DWORD PTR [esp],ebx
  406761:	89 54 24 20          	mov    DWORD PTR [esp+0x20],edx
  406765:	e8 d6 13 00 00       	call   407b40 <___cmp_D2A>
  40676a:	8b 54 24 20          	mov    edx,DWORD PTR [esp+0x20]
  40676e:	e9 c4 fe ff ff       	jmp    406637 <___gdtoa+0xb17>
  406773:	e8 b8 0e 00 00       	call   407630 <___multadd_D2A>
  406778:	89 c7                	mov    edi,eax
  40677a:	89 c5                	mov    ebp,eax
  40677c:	eb 8a                	jmp    406708 <___gdtoa+0xbe8>
  40677e:	85 d2                	test   edx,edx
  406780:	0f 84 1b fc ff ff    	je     4063a1 <___gdtoa+0x881>
  406786:	89 14 24             	mov    DWORD PTR [esp],edx
  406789:	e8 32 0e 00 00       	call   4075c0 <___Bfree_D2A>
  40678e:	66 90                	xchg   ax,ax
  406790:	e9 0c fc ff ff       	jmp    4063a1 <___gdtoa+0x881>
  406795:	8b 44 24 30          	mov    eax,DWORD PTR [esp+0x30]
  406799:	89 1c 24             	mov    DWORD PTR [esp],ebx
  40679c:	89 44 24 04          	mov    DWORD PTR [esp+0x4],eax
  4067a0:	e8 fb 10 00 00       	call   4078a0 <___pow5mult_D2A>
  4067a5:	89 c3                	mov    ebx,eax
  4067a7:	e9 4e fa ff ff       	jmp    4061fa <___gdtoa+0x6da>
  4067ac:	89 7c 24 04          	mov    DWORD PTR [esp+0x4],edi
  4067b0:	89 1c 24             	mov    DWORD PTR [esp],ebx
  4067b3:	e8 88 13 00 00       	call   407b40 <___cmp_D2A>
  4067b8:	85 c0                	test   eax,eax
  4067ba:	0f 89 da fa ff ff    	jns    40629a <___gdtoa+0x77a>
  4067c0:	89 1c 24             	mov    DWORD PTR [esp],ebx
  4067c3:	c7 44 24 08 00 00 00 	mov    DWORD PTR [esp+0x8],0x0
  4067ca:	00 
  4067cb:	c7 44 24 04 0a 00 00 	mov    DWORD PTR [esp+0x4],0xa
  4067d2:	00 
  4067d3:	83 6c 24 0c 01       	sub    DWORD PTR [esp+0xc],0x1
  4067d8:	e8 53 0e 00 00       	call   407630 <___multadd_D2A>
  4067dd:	89 c3                	mov    ebx,eax
  4067df:	8b 44 24 40          	mov    eax,DWORD PTR [esp+0x40]
  4067e3:	85 c0                	test   eax,eax
  4067e5:	0f 85 24 07 00 00    	jne    406f0f <___gdtoa+0x13ef>
  4067eb:	83 bc 24 90 00 00 00 	cmp    DWORD PTR [esp+0x90],0x2
  4067f2:	02 
  4067f3:	8b 44 24 44          	mov    eax,DWORD PTR [esp+0x44]
  4067f7:	7e 0b                	jle    406804 <___gdtoa+0xce4>
  4067f9:	83 7c 24 44 00       	cmp    DWORD PTR [esp+0x44],0x0
  4067fe:	0f 8e 86 07 00 00    	jle    406f8a <___gdtoa+0x146a>
  406804:	89 44 24 18          	mov    DWORD PTR [esp+0x18],eax
  406808:	c7 44 24 5c 01 00 00 	mov    DWORD PTR [esp+0x5c],0x1
  40680f:	00 
  406810:	8b 74 24 24          	mov    esi,DWORD PTR [esp+0x24]
  406814:	8b 6c 24 18          	mov    ebp,DWORD PTR [esp+0x18]
  406818:	eb 25                	jmp    40683f <___gdtoa+0xd1f>
  40681a:	8d b6 00 00 00 00    	lea    esi,[esi+0x0]
  406820:	89 1c 24             	mov    DWORD PTR [esp],ebx
  406823:	c7 44 24 08 00 00 00 	mov    DWORD PTR [esp+0x8],0x0
  40682a:	00 
  40682b:	c7 44 24 04 0a 00 00 	mov    DWORD PTR [esp+0x4],0xa
  406832:	00 
  406833:	e8 f8 0d 00 00       	call   407630 <___multadd_D2A>
  406838:	83 44 24 5c 01       	add    DWORD PTR [esp+0x5c],0x1
  40683d:	89 c3                	mov    ebx,eax
  40683f:	89 7c 24 04          	mov    DWORD PTR [esp+0x4],edi
  406843:	83 c6 01             	add    esi,0x1
  406846:	89 1c 24             	mov    DWORD PTR [esp],ebx
  406849:	e8 82 09 00 00       	call   4071d0 <___quorem_D2A>
  40684e:	83 c0 30             	add    eax,0x30
  406851:	88 46 ff             	mov    BYTE PTR [esi-0x1],al
  406854:	3b 6c 24 5c          	cmp    ebp,DWORD PTR [esp+0x5c]
  406858:	7f c6                	jg     406820 <___gdtoa+0xd00>
  40685a:	89 44 24 10          	mov    DWORD PTR [esp+0x10],eax
  40685e:	31 d2                	xor    edx,edx
  406860:	8b 44 24 2c          	mov    eax,DWORD PTR [esp+0x2c]
  406864:	85 c0                	test   eax,eax
  406866:	0f 84 e5 03 00 00    	je     406c51 <___gdtoa+0x1131>
  40686c:	83 f8 02             	cmp    eax,0x2
  40686f:	0f 84 18 04 00 00    	je     406c8d <___gdtoa+0x116d>
  406875:	83 7b 10 01          	cmp    DWORD PTR [ebx+0x10],0x1
  406879:	0f 8e cb 05 00 00    	jle    406e4a <___gdtoa+0x132a>
  40687f:	0f b6 4e ff          	movzx  ecx,BYTE PTR [esi-0x1]
  406883:	8b 6c 24 24          	mov    ebp,DWORD PTR [esp+0x24]
  406887:	eb 15                	jmp    40689e <___gdtoa+0xd7e>
  406889:	8d b4 26 00 00 00 00 	lea    esi,[esi+eiz*1+0x0]
  406890:	39 e8                	cmp    eax,ebp
  406892:	0f 84 a6 02 00 00    	je     406b3e <___gdtoa+0x101e>
  406898:	0f b6 48 ff          	movzx  ecx,BYTE PTR [eax-0x1]
  40689c:	89 c6                	mov    esi,eax
  40689e:	80 f9 39             	cmp    cl,0x39
  4068a1:	8d 46 ff             	lea    eax,[esi-0x1]
  4068a4:	74 ea                	je     406890 <___gdtoa+0xd70>
  4068a6:	83 c1 01             	add    ecx,0x1
  4068a9:	88 08                	mov    BYTE PTR [eax],cl
  4068ab:	8b 44 24 0c          	mov    eax,DWORD PTR [esp+0xc]
  4068af:	c7 44 24 18 20 00 00 	mov    DWORD PTR [esp+0x18],0x20
  4068b6:	00 
  4068b7:	83 c0 01             	add    eax,0x1
  4068ba:	89 44 24 0c          	mov    DWORD PTR [esp+0xc],eax
  4068be:	e9 be fa ff ff       	jmp    406381 <___gdtoa+0x861>
  4068c3:	83 fd 01             	cmp    ebp,0x1
  4068c6:	0f 85 68 f9 ff ff    	jne    406234 <___gdtoa+0x714>
  4068cc:	8b 84 24 80 00 00 00 	mov    eax,DWORD PTR [esp+0x80]
  4068d3:	8b 40 04             	mov    eax,DWORD PTR [eax+0x4]
  4068d6:	83 c0 01             	add    eax,0x1
  4068d9:	39 84 24 84 00 00 00 	cmp    DWORD PTR [esp+0x84],eax
  4068e0:	0f 8e 4e f9 ff ff    	jle    406234 <___gdtoa+0x714>
  4068e6:	83 44 24 28 01       	add    DWORD PTR [esp+0x28],0x1
  4068eb:	83 44 24 1c 01       	add    DWORD PTR [esp+0x1c],0x1
  4068f0:	c7 44 24 10 01 00 00 	mov    DWORD PTR [esp+0x10],0x1
  4068f7:	00 
  4068f8:	e9 37 f9 ff ff       	jmp    406234 <___gdtoa+0x714>
  4068fd:	dd d8                	fstp   st(0)
  4068ff:	8b 44 24 2c          	mov    eax,DWORD PTR [esp+0x2c]
  406903:	85 c0                	test   eax,eax
  406905:	0f 84 fe 01 00 00    	je     406b09 <___gdtoa+0xfe9>
  40690b:	dd d8                	fstp   st(0)
  40690d:	dd d8                	fstp   st(0)
  40690f:	83 7c 24 2c 01       	cmp    DWORD PTR [esp+0x2c],0x1
  406914:	0f 84 22 03 00 00    	je     406c3c <___gdtoa+0x111c>
  40691a:	8b 44 24 0c          	mov    eax,DWORD PTR [esp+0xc]
  40691e:	e9 ff f6 ff ff       	jmp    406022 <___gdtoa+0x502>
  406923:	ba 01 00 00 00       	mov    edx,0x1
  406928:	c7 84 24 94 00 00 00 	mov    DWORD PTR [esp+0x94],0x1
  40692f:	01 00 00 00 
  406933:	e9 23 fb ff ff       	jmp    40645b <___gdtoa+0x93b>
  406938:	83 7c 24 18 0e       	cmp    DWORD PTR [esp+0x18],0xe
  40693d:	c7 44 24 5c 01 00 00 	mov    DWORD PTR [esp+0x5c],0x1
  406944:	00 
  406945:	0f 96 c2             	setbe  dl
  406948:	21 c2                	and    edx,eax
  40694a:	b8 01 00 00 00       	mov    eax,0x1
  40694f:	e9 0f f5 ff ff       	jmp    405e63 <___gdtoa+0x343>
  406954:	89 c2                	mov    edx,eax
  406956:	31 ff                	xor    edi,edi
  406958:	2b 54 24 30          	sub    edx,DWORD PTR [esp+0x30]
  40695c:	89 44 24 30          	mov    DWORD PTR [esp+0x30],eax
  406960:	01 54 24 3c          	add    DWORD PTR [esp+0x3c],edx
  406964:	e9 e9 f7 ff ff       	jmp    406152 <___gdtoa+0x632>
  406969:	d9 7c 24 4e          	fnstcw WORD PTR [esp+0x4e]
  40696d:	dd 44 24 10          	fld    QWORD PTR [esp+0x10]
  406971:	dc 0c d5 58 a3 40 00 	fmul   QWORD PTR [edx*8+0x40a358]
  406978:	c7 44 24 5c 01 00 00 	mov    DWORD PTR [esp+0x5c],0x1
  40697f:	00 
  406980:	8b 74 24 24          	mov    esi,DWORD PTR [esp+0x24]
  406984:	0f b7 44 24 4e       	movzx  eax,WORD PTR [esp+0x4e]
  406989:	b4 0c                	mov    ah,0xc
  40698b:	d9 05 2c a3 40 00    	fld    DWORD PTR ds:0x40a32c
  406991:	d9 ca                	fxch   st(2)
  406993:	66 89 44 24 4c       	mov    WORD PTR [esp+0x4c],ax
  406998:	eb 0f                	jmp    4069a9 <___gdtoa+0xe89>
  40699a:	8d b6 00 00 00 00    	lea    esi,[esi+0x0]
  4069a0:	d8 ca                	fmul   st,st(2)
  4069a2:	83 c0 01             	add    eax,0x1
  4069a5:	89 44 24 5c          	mov    DWORD PTR [esp+0x5c],eax
  4069a9:	d9 6c 24 4c          	fldcw  WORD PTR [esp+0x4c]
  4069ad:	db 54 24 48          	fist   DWORD PTR [esp+0x48]
  4069b1:	d9 6c 24 4e          	fldcw  WORD PTR [esp+0x4e]
  4069b5:	8b 44 24 48          	mov    eax,DWORD PTR [esp+0x48]
  4069b9:	85 c0                	test   eax,eax
  4069bb:	74 0a                	je     4069c7 <___gdtoa+0xea7>
  4069bd:	89 44 24 48          	mov    DWORD PTR [esp+0x48],eax
  4069c1:	db 44 24 48          	fild   DWORD PTR [esp+0x48]
  4069c5:	de e9                	fsubrp st(1),st
  4069c7:	83 c6 01             	add    esi,0x1
  4069ca:	8d 48 30             	lea    ecx,[eax+0x30]
  4069cd:	88 4e ff             	mov    BYTE PTR [esi-0x1],cl
  4069d0:	8b 44 24 5c          	mov    eax,DWORD PTR [esp+0x5c]
  4069d4:	39 d0                	cmp    eax,edx
  4069d6:	75 c8                	jne    4069a0 <___gdtoa+0xe80>
  4069d8:	dd da                	fstp   st(2)
  4069da:	d9 c9                	fxch   st(1)
  4069dc:	d9 05 3c a3 40 00    	fld    DWORD PTR ds:0x40a33c
  4069e2:	d9 c2                	fld    st(2)
  4069e4:	d8 c1                	fadd   st,st(1)
  4069e6:	d9 ca                	fxch   st(2)
  4069e8:	dd e2                	fucom  st(2)
  4069ea:	df e0                	fnstsw ax
  4069ec:	dd da                	fstp   st(2)
  4069ee:	9e                   	sahf   
  4069ef:	0f 87 94 00 00 00    	ja     406a89 <___gdtoa+0xf69>
  4069f5:	de e2                	fsubp  st(2),st
  4069f7:	d9 c9                	fxch   st(1)
  4069f9:	dd e9                	fucomp st(1)
  4069fb:	df e0                	fnstsw ax
  4069fd:	9e                   	sahf   
  4069fe:	0f 86 0c f7 ff ff    	jbe    406110 <___gdtoa+0x5f0>
  406a04:	dd d9                	fstp   st(1)
  406a06:	d9 ee                	fldz   
  406a08:	d9 c9                	fxch   st(1)
  406a0a:	da e9                	fucompp 
  406a0c:	df e0                	fnstsw ax
  406a0e:	9e                   	sahf   
  406a0f:	0f 8a 4d 04 00 00    	jp     406e62 <___gdtoa+0x1342>
  406a15:	0f 85 47 04 00 00    	jne    406e62 <___gdtoa+0x1342>
  406a1b:	c7 44 24 18 00 00 00 	mov    DWORD PTR [esp+0x18],0x0
  406a22:	00 
  406a23:	eb 06                	jmp    406a2b <___gdtoa+0xf0b>
  406a25:	0f b6 48 ff          	movzx  ecx,BYTE PTR [eax-0x1]
  406a29:	89 c6                	mov    esi,eax
  406a2b:	80 f9 30             	cmp    cl,0x30
  406a2e:	8d 46 ff             	lea    eax,[esi-0x1]
  406a31:	74 f2                	je     406a25 <___gdtoa+0xf05>
  406a33:	8b 44 24 38          	mov    eax,DWORD PTR [esp+0x38]
  406a37:	83 c0 01             	add    eax,0x1
  406a3a:	89 44 24 0c          	mov    DWORD PTR [esp+0xc],eax
  406a3e:	e9 6a f9 ff ff       	jmp    4063ad <___gdtoa+0x88d>
  406a43:	dd d8                	fstp   st(0)
  406a45:	dd d8                	fstp   st(0)
  406a47:	dd d8                	fstp   st(0)
  406a49:	c7 44 24 0c 02 00 00 	mov    DWORD PTR [esp+0xc],0x2
  406a50:	00 
  406a51:	31 ff                	xor    edi,edi
  406a53:	c7 44 24 20 00 00 00 	mov    DWORD PTR [esp+0x20],0x0
  406a5a:	00 
  406a5b:	e9 0d f9 ff ff       	jmp    40636d <___gdtoa+0x84d>
  406a60:	8b 44 24 0c          	mov    eax,DWORD PTR [esp+0xc]
  406a64:	83 e1 01             	and    ecx,0x1
  406a67:	0f b6 4e ff          	movzx  ecx,BYTE PTR [esi-0x1]
  406a6b:	89 44 24 38          	mov    DWORD PTR [esp+0x38],eax
  406a6f:	0f 84 ed 03 00 00    	je     406e62 <___gdtoa+0x1342>
  406a75:	eb 1a                	jmp    406a91 <___gdtoa+0xf71>
  406a77:	dd d8                	fstp   st(0)
  406a79:	dd d8                	fstp   st(0)
  406a7b:	dd d8                	fstp   st(0)
  406a7d:	eb 12                	jmp    406a91 <___gdtoa+0xf71>
  406a7f:	dd d8                	fstp   st(0)
  406a81:	dd d8                	fstp   st(0)
  406a83:	dd d8                	fstp   st(0)
  406a85:	dd d8                	fstp   st(0)
  406a87:	eb 08                	jmp    406a91 <___gdtoa+0xf71>
  406a89:	dd d8                	fstp   st(0)
  406a8b:	dd d8                	fstp   st(0)
  406a8d:	dd d8                	fstp   st(0)
  406a8f:	dd d8                	fstp   st(0)
  406a91:	8b 54 24 24          	mov    edx,DWORD PTR [esp+0x24]
  406a95:	eb 0e                	jmp    406aa5 <___gdtoa+0xf85>
  406a97:	39 d0                	cmp    eax,edx
  406a99:	0f 84 be 00 00 00    	je     406b5d <___gdtoa+0x103d>
  406a9f:	0f b6 48 ff          	movzx  ecx,BYTE PTR [eax-0x1]
  406aa3:	89 c6                	mov    esi,eax
  406aa5:	80 f9 39             	cmp    cl,0x39
  406aa8:	8d 46 ff             	lea    eax,[esi-0x1]
  406aab:	74 ea                	je     406a97 <___gdtoa+0xf77>
  406aad:	89 54 24 24          	mov    DWORD PTR [esp+0x24],edx
  406ab1:	83 c1 01             	add    ecx,0x1
  406ab4:	88 08                	mov    BYTE PTR [eax],cl
  406ab6:	8b 44 24 38          	mov    eax,DWORD PTR [esp+0x38]
  406aba:	c7 44 24 18 20 00 00 	mov    DWORD PTR [esp+0x18],0x20
  406ac1:	00 
  406ac2:	83 c0 01             	add    eax,0x1
  406ac5:	89 44 24 0c          	mov    DWORD PTR [esp+0xc],eax
  406ac9:	e9 df f8 ff ff       	jmp    4063ad <___gdtoa+0x88d>
  406ace:	8b b4 24 80 00 00 00 	mov    esi,DWORD PTR [esp+0x80]
  406ad5:	29 ef                	sub    edi,ebp
  406ad7:	8b 54 24 20          	mov    edx,DWORD PTR [esp+0x20]
  406adb:	8d 47 01             	lea    eax,[edi+0x1]
  406ade:	89 44 24 5c          	mov    DWORD PTR [esp+0x5c],eax
  406ae2:	8b 4e 04             	mov    ecx,DWORD PTR [esi+0x4]
  406ae5:	29 fa                	sub    edx,edi
  406ae7:	39 ca                	cmp    edx,ecx
  406ae9:	0f 8d be 02 00 00    	jge    406dad <___gdtoa+0x128d>
  406aef:	8b 44 24 20          	mov    eax,DWORD PTR [esp+0x20]
  406af3:	8b 7c 24 30          	mov    edi,DWORD PTR [esp+0x30]
  406af7:	8b 74 24 28          	mov    esi,DWORD PTR [esp+0x28]
  406afb:	29 c8                	sub    eax,ecx
  406afd:	83 c0 01             	add    eax,0x1
  406b00:	89 44 24 5c          	mov    DWORD PTR [esp+0x5c],eax
  406b04:	e9 5d f6 ff ff       	jmp    406166 <___gdtoa+0x646>
  406b09:	d8 c0                	fadd   st,st(0)
  406b0b:	dd e1                	fucom  st(1)
  406b0d:	df e0                	fnstsw ax
  406b0f:	9e                   	sahf   
  406b10:	0f 87 22 01 00 00    	ja     406c38 <___gdtoa+0x1118>
  406b16:	d9 c9                	fxch   st(1)
  406b18:	da e9                	fucompp 
  406b1a:	df e0                	fnstsw ax
  406b1c:	9e                   	sahf   
  406b1d:	7a 06                	jp     406b25 <___gdtoa+0x1005>
  406b1f:	0f 84 3b ff ff ff    	je     406a60 <___gdtoa+0xf40>
  406b25:	8b 44 24 0c          	mov    eax,DWORD PTR [esp+0xc]
  406b29:	0f b6 4e ff          	movzx  ecx,BYTE PTR [esi-0x1]
  406b2d:	c7 44 24 18 10 00 00 	mov    DWORD PTR [esp+0x18],0x10
  406b34:	00 
  406b35:	89 44 24 38          	mov    DWORD PTR [esp+0x38],eax
  406b39:	e9 ed fe ff ff       	jmp    406a2b <___gdtoa+0xf0b>
  406b3e:	8b 44 24 24          	mov    eax,DWORD PTR [esp+0x24]
  406b42:	c7 44 24 18 20 00 00 	mov    DWORD PTR [esp+0x18],0x20
  406b49:	00 
  406b4a:	c6 00 31             	mov    BYTE PTR [eax],0x31
  406b4d:	8b 44 24 0c          	mov    eax,DWORD PTR [esp+0xc]
  406b51:	83 c0 02             	add    eax,0x2
  406b54:	89 44 24 0c          	mov    DWORD PTR [esp+0xc],eax
  406b58:	e9 24 f8 ff ff       	jmp    406381 <___gdtoa+0x861>
  406b5d:	89 54 24 24          	mov    DWORD PTR [esp+0x24],edx
  406b61:	b9 31 00 00 00       	mov    ecx,0x31
  406b66:	83 44 24 38 01       	add    DWORD PTR [esp+0x38],0x1
  406b6b:	c6 02 30             	mov    BYTE PTR [edx],0x30
  406b6e:	e9 41 ff ff ff       	jmp    406ab4 <___gdtoa+0xf94>
  406b73:	8b 74 24 28          	mov    esi,DWORD PTR [esp+0x28]
  406b77:	31 c0                	xor    eax,eax
  406b79:	2b 74 24 18          	sub    esi,DWORD PTR [esp+0x18]
  406b7d:	c7 44 24 5c 00 00 00 	mov    DWORD PTR [esp+0x5c],0x0
  406b84:	00 
  406b85:	e9 dc f5 ff ff       	jmp    406166 <___gdtoa+0x646>
  406b8a:	8b 4c 24 2c          	mov    ecx,DWORD PTR [esp+0x2c]
  406b8e:	89 7c 24 20          	mov    DWORD PTR [esp+0x20],edi
  406b92:	8b 74 24 28          	mov    esi,DWORD PTR [esp+0x28]
  406b96:	8b 7c 24 1c          	mov    edi,DWORD PTR [esp+0x1c]
  406b9a:	8b 54 24 10          	mov    edx,DWORD PTR [esp+0x10]
  406b9e:	85 c9                	test   ecx,ecx
  406ba0:	0f 84 1e 02 00 00    	je     406dc4 <___gdtoa+0x12a4>
  406ba6:	83 7b 10 01          	cmp    DWORD PTR [ebx+0x10],0x1
  406baa:	0f 8e 0a 02 00 00    	jle    406dba <___gdtoa+0x129a>
  406bb0:	83 7c 24 2c 02       	cmp    DWORD PTR [esp+0x2c],0x2
  406bb5:	75 3a                	jne    406bf1 <___gdtoa+0x10d1>
  406bb7:	e9 63 02 00 00       	jmp    406e1f <___gdtoa+0x12ff>
  406bbc:	8d 74 26 00          	lea    esi,[esi+eiz*1+0x0]
  406bc0:	89 1c 24             	mov    DWORD PTR [esp],ebx
  406bc3:	c7 44 24 08 00 00 00 	mov    DWORD PTR [esp+0x8],0x0
  406bca:	00 
  406bcb:	c7 44 24 04 0a 00 00 	mov    DWORD PTR [esp+0x4],0xa
  406bd2:	00 
  406bd3:	e8 58 0a 00 00       	call   407630 <___multadd_D2A>
  406bd8:	89 7c 24 04          	mov    DWORD PTR [esp+0x4],edi
  406bdc:	89 04 24             	mov    DWORD PTR [esp],eax
  406bdf:	89 c3                	mov    ebx,eax
  406be1:	e8 ea 05 00 00       	call   4071d0 <___quorem_D2A>
  406be6:	8b 6c 24 18          	mov    ebp,DWORD PTR [esp+0x18]
  406bea:	83 c0 30             	add    eax,0x30
  406bed:	89 44 24 10          	mov    DWORD PTR [esp+0x10],eax
  406bf1:	89 6c 24 04          	mov    DWORD PTR [esp+0x4],ebp
  406bf5:	89 3c 24             	mov    DWORD PTR [esp],edi
  406bf8:	e8 43 0f 00 00       	call   407b40 <___cmp_D2A>
  406bfd:	85 c0                	test   eax,eax
  406bff:	0f 8e 88 02 00 00    	jle    406e8d <___gdtoa+0x136d>
  406c05:	0f b6 44 24 10       	movzx  eax,BYTE PTR [esp+0x10]
  406c0a:	83 c6 01             	add    esi,0x1
  406c0d:	88 46 ff             	mov    BYTE PTR [esi-0x1],al
  406c10:	c7 44 24 08 00 00 00 	mov    DWORD PTR [esp+0x8],0x0
  406c17:	00 
  406c18:	c7 44 24 04 0a 00 00 	mov    DWORD PTR [esp+0x4],0xa
  406c1f:	00 
  406c20:	89 2c 24             	mov    DWORD PTR [esp],ebp
  406c23:	e8 08 0a 00 00       	call   407630 <___multadd_D2A>
  406c28:	39 6c 24 20          	cmp    DWORD PTR [esp+0x20],ebp
  406c2c:	89 44 24 18          	mov    DWORD PTR [esp+0x18],eax
  406c30:	75 8e                	jne    406bc0 <___gdtoa+0x10a0>
  406c32:	89 44 24 20          	mov    DWORD PTR [esp+0x20],eax
  406c36:	eb 88                	jmp    406bc0 <___gdtoa+0x10a0>
  406c38:	dd d8                	fstp   st(0)
  406c3a:	dd d8                	fstp   st(0)
  406c3c:	8b 44 24 0c          	mov    eax,DWORD PTR [esp+0xc]
  406c40:	0f b6 4e ff          	movzx  ecx,BYTE PTR [esi-0x1]
  406c44:	8b 54 24 24          	mov    edx,DWORD PTR [esp+0x24]
  406c48:	89 44 24 38          	mov    DWORD PTR [esp+0x38],eax
  406c4c:	e9 54 fe ff ff       	jmp    406aa5 <___gdtoa+0xf85>
  406c51:	89 1c 24             	mov    DWORD PTR [esp],ebx
  406c54:	c7 44 24 04 01 00 00 	mov    DWORD PTR [esp+0x4],0x1
  406c5b:	00 
  406c5c:	89 54 24 18          	mov    DWORD PTR [esp+0x18],edx
  406c60:	e8 cb 0d 00 00       	call   407a30 <___lshift_D2A>
  406c65:	89 7c 24 04          	mov    DWORD PTR [esp+0x4],edi
  406c69:	89 04 24             	mov    DWORD PTR [esp],eax
  406c6c:	89 c3                	mov    ebx,eax
  406c6e:	e8 cd 0e 00 00       	call   407b40 <___cmp_D2A>
  406c73:	8b 54 24 18          	mov    edx,DWORD PTR [esp+0x18]
  406c77:	83 f8 00             	cmp    eax,0x0
  406c7a:	0f 8f ff fb ff ff    	jg     40687f <___gdtoa+0xd5f>
  406c80:	75 0b                	jne    406c8d <___gdtoa+0x116d>
  406c82:	f6 44 24 10 01       	test   BYTE PTR [esp+0x10],0x1
  406c87:	0f 85 f2 fb ff ff    	jne    40687f <___gdtoa+0xd5f>
  406c8d:	83 7b 10 01          	cmp    DWORD PTR [ebx+0x10],0x1
  406c91:	0f 8e dc 02 00 00    	jle    406f73 <___gdtoa+0x1453>
  406c97:	c7 44 24 18 10 00 00 	mov    DWORD PTR [esp+0x18],0x10
  406c9e:	00 
  406c9f:	eb 02                	jmp    406ca3 <___gdtoa+0x1183>
  406ca1:	89 c6                	mov    esi,eax
  406ca3:	80 7e ff 30          	cmp    BYTE PTR [esi-0x1],0x30
  406ca7:	8d 46 ff             	lea    eax,[esi-0x1]
  406caa:	74 f5                	je     406ca1 <___gdtoa+0x1181>
  406cac:	8b 44 24 0c          	mov    eax,DWORD PTR [esp+0xc]
  406cb0:	83 c0 01             	add    eax,0x1
  406cb3:	89 44 24 0c          	mov    DWORD PTR [esp+0xc],eax
  406cb7:	e9 c5 f6 ff ff       	jmp    406381 <___gdtoa+0x861>
  406cbc:	8b 44 24 18          	mov    eax,DWORD PTR [esp+0x18]
  406cc0:	85 c0                	test   eax,eax
  406cc2:	0f 84 fa f3 ff ff    	je     4060c2 <___gdtoa+0x5a2>
  406cc8:	8b 54 24 44          	mov    edx,DWORD PTR [esp+0x44]
  406ccc:	85 d2                	test   edx,edx
  406cce:	0f 8e 3e f4 ff ff    	jle    406112 <___gdtoa+0x5f2>
  406cd4:	d9 c0                	fld    st(0)
  406cd6:	d8 0d 2c a3 40 00    	fmul   DWORD PTR ds:0x40a32c
  406cdc:	c7 44 24 38 ff ff ff 	mov    DWORD PTR [esp+0x38],0xffffffff
  406ce3:	ff 
  406ce4:	d9 c0                	fld    st(0)
  406ce6:	d8 0d 30 a3 40 00    	fmul   DWORD PTR ds:0x40a330
  406cec:	d8 05 34 a3 40 00    	fadd   DWORD PTR ds:0x40a334
  406cf2:	dd 5c 24 10          	fstp   QWORD PTR [esp+0x10]
  406cf6:	81 6c 24 14 00 00 40 	sub    DWORD PTR [esp+0x14],0x3400000
  406cfd:	03 
  406cfe:	e9 02 f2 ff ff       	jmp    405f05 <___gdtoa+0x3e5>
  406d03:	8b 45 04             	mov    eax,DWORD PTR [ebp+0x4]
  406d06:	89 04 24             	mov    DWORD PTR [esp],eax
  406d09:	e8 e2 07 00 00       	call   4074f0 <___Balloc_D2A>
  406d0e:	8d 48 0c             	lea    ecx,[eax+0xc]
  406d11:	89 c6                	mov    esi,eax
  406d13:	8b 45 10             	mov    eax,DWORD PTR [ebp+0x10]
  406d16:	89 0c 24             	mov    DWORD PTR [esp],ecx
  406d19:	8d 14 85 08 00 00 00 	lea    edx,[eax*4+0x8]
  406d20:	89 e8                	mov    eax,ebp
  406d22:	83 c0 0c             	add    eax,0xc
  406d25:	89 54 24 08          	mov    DWORD PTR [esp+0x8],edx
  406d29:	89 44 24 04          	mov    DWORD PTR [esp+0x4],eax
  406d2d:	e8 46 12 00 00       	call   407f78 <_memcpy>
  406d32:	c7 44 24 04 01 00 00 	mov    DWORD PTR [esp+0x4],0x1
  406d39:	00 
  406d3a:	89 34 24             	mov    DWORD PTR [esp],esi
  406d3d:	e8 ee 0c 00 00       	call   407a30 <___lshift_D2A>
  406d42:	89 c5                	mov    ebp,eax
  406d44:	e9 d1 f8 ff ff       	jmp    40661a <___gdtoa+0xafa>
  406d49:	89 fa                	mov    edx,edi
  406d4b:	8b 74 24 28          	mov    esi,DWORD PTR [esp+0x28]
  406d4f:	8b 7c 24 1c          	mov    edi,DWORD PTR [esp+0x1c]
  406d53:	89 6c 24 20          	mov    DWORD PTR [esp+0x20],ebp
  406d57:	e9 04 fb ff ff       	jmp    406860 <___gdtoa+0xd40>
  406d5c:	83 7c 24 2c 02       	cmp    DWORD PTR [esp+0x2c],0x2
  406d61:	0f 84 2c f9 ff ff    	je     406693 <___gdtoa+0xb73>
  406d67:	8b 74 24 28          	mov    esi,DWORD PTR [esp+0x28]
  406d6b:	83 7c 24 10 39       	cmp    DWORD PTR [esp+0x10],0x39
  406d70:	89 7c 24 20          	mov    DWORD PTR [esp+0x20],edi
  406d74:	8b 7c 24 1c          	mov    edi,DWORD PTR [esp+0x1c]
  406d78:	89 f0                	mov    eax,esi
  406d7a:	0f 84 f1 00 00 00    	je     406e71 <___gdtoa+0x1351>
  406d80:	0f b6 4c 24 10       	movzx  ecx,BYTE PTR [esp+0x10]
  406d85:	83 c6 01             	add    esi,0x1
  406d88:	8b 54 24 20          	mov    edx,DWORD PTR [esp+0x20]
  406d8c:	c7 44 24 18 20 00 00 	mov    DWORD PTR [esp+0x18],0x20
  406d93:	00 
  406d94:	89 6c 24 20          	mov    DWORD PTR [esp+0x20],ebp
  406d98:	83 c1 01             	add    ecx,0x1
  406d9b:	88 08                	mov    BYTE PTR [eax],cl
  406d9d:	8b 44 24 0c          	mov    eax,DWORD PTR [esp+0xc]
  406da1:	83 c0 01             	add    eax,0x1
  406da4:	89 44 24 0c          	mov    DWORD PTR [esp+0xc],eax
  406da8:	e9 d4 f5 ff ff       	jmp    406381 <___gdtoa+0x861>
  406dad:	8b 7c 24 30          	mov    edi,DWORD PTR [esp+0x30]
  406db1:	8b 74 24 28          	mov    esi,DWORD PTR [esp+0x28]
  406db5:	e9 ac f3 ff ff       	jmp    406166 <___gdtoa+0x646>
  406dba:	83 7b 14 00          	cmp    DWORD PTR [ebx+0x14],0x0
  406dbe:	0f 85 ec fd ff ff    	jne    406bb0 <___gdtoa+0x1090>
  406dc4:	85 c0                	test   eax,eax
  406dc6:	89 54 24 18          	mov    DWORD PTR [esp+0x18],edx
  406dca:	0f 8e d3 00 00 00    	jle    406ea3 <___gdtoa+0x1383>
  406dd0:	89 1c 24             	mov    DWORD PTR [esp],ebx
  406dd3:	c7 44 24 04 01 00 00 	mov    DWORD PTR [esp+0x4],0x1
  406dda:	00 
  406ddb:	e8 50 0c 00 00       	call   407a30 <___lshift_D2A>
  406de0:	89 7c 24 04          	mov    DWORD PTR [esp+0x4],edi
  406de4:	89 04 24             	mov    DWORD PTR [esp],eax
  406de7:	89 c3                	mov    ebx,eax
  406de9:	e8 52 0d 00 00       	call   407b40 <___cmp_D2A>
  406dee:	8b 54 24 18          	mov    edx,DWORD PTR [esp+0x18]
  406df2:	83 f8 00             	cmp    eax,0x0
  406df5:	0f 8e 98 01 00 00    	jle    406f93 <___gdtoa+0x1473>
  406dfb:	8b 44 24 30          	mov    eax,DWORD PTR [esp+0x30]
  406dff:	83 c0 31             	add    eax,0x31
  406e02:	83 fa 39             	cmp    edx,0x39
  406e05:	89 44 24 10          	mov    DWORD PTR [esp+0x10],eax
  406e09:	74 64                	je     406e6f <___gdtoa+0x134f>
  406e0b:	c7 44 24 18 20 00 00 	mov    DWORD PTR [esp+0x18],0x20
  406e12:	00 
  406e13:	83 7b 10 01          	cmp    DWORD PTR [ebx+0x10],0x1
  406e17:	7f 06                	jg     406e1f <___gdtoa+0x12ff>
  406e19:	83 7b 14 00          	cmp    DWORD PTR [ebx+0x14],0x0
  406e1d:	74 08                	je     406e27 <___gdtoa+0x1307>
  406e1f:	c7 44 24 18 10 00 00 	mov    DWORD PTR [esp+0x18],0x10
  406e26:	00 
  406e27:	0f b6 44 24 10       	movzx  eax,BYTE PTR [esp+0x10]
  406e2c:	83 c6 01             	add    esi,0x1
  406e2f:	8b 54 24 20          	mov    edx,DWORD PTR [esp+0x20]
  406e33:	89 6c 24 20          	mov    DWORD PTR [esp+0x20],ebp
  406e37:	88 46 ff             	mov    BYTE PTR [esi-0x1],al
  406e3a:	8b 44 24 0c          	mov    eax,DWORD PTR [esp+0xc]
  406e3e:	83 c0 01             	add    eax,0x1
  406e41:	89 44 24 0c          	mov    DWORD PTR [esp+0xc],eax
  406e45:	e9 37 f5 ff ff       	jmp    406381 <___gdtoa+0x861>
  406e4a:	8b 4b 14             	mov    ecx,DWORD PTR [ebx+0x14]
  406e4d:	85 c9                	test   ecx,ecx
  406e4f:	0f 85 2a fa ff ff    	jne    40687f <___gdtoa+0xd5f>
  406e55:	c7 44 24 18 00 00 00 	mov    DWORD PTR [esp+0x18],0x0
  406e5c:	00 
  406e5d:	e9 41 fe ff ff       	jmp    406ca3 <___gdtoa+0x1183>
  406e62:	c7 44 24 18 10 00 00 	mov    DWORD PTR [esp+0x18],0x10
  406e69:	00 
  406e6a:	e9 bc fb ff ff       	jmp    406a2b <___gdtoa+0xf0b>
  406e6f:	89 f0                	mov    eax,esi
  406e71:	8b 54 24 20          	mov    edx,DWORD PTR [esp+0x20]
  406e75:	83 c6 01             	add    esi,0x1
  406e78:	b9 39 00 00 00       	mov    ecx,0x39
  406e7d:	89 6c 24 20          	mov    DWORD PTR [esp+0x20],ebp
  406e81:	8b 6c 24 24          	mov    ebp,DWORD PTR [esp+0x24]
  406e85:	c6 00 39             	mov    BYTE PTR [eax],0x39
  406e88:	e9 11 fa ff ff       	jmp    40689e <___gdtoa+0xd7e>
  406e8d:	83 7c 24 10 39       	cmp    DWORD PTR [esp+0x10],0x39
  406e92:	74 db                	je     406e6f <___gdtoa+0x134f>
  406e94:	83 44 24 10 01       	add    DWORD PTR [esp+0x10],0x1
  406e99:	c7 44 24 18 20 00 00 	mov    DWORD PTR [esp+0x18],0x20
  406ea0:	00 
  406ea1:	eb 84                	jmp    406e27 <___gdtoa+0x1307>
  406ea3:	c7 44 24 18 00 00 00 	mov    DWORD PTR [esp+0x18],0x0
  406eaa:	00 
  406eab:	e9 63 ff ff ff       	jmp    406e13 <___gdtoa+0x12f3>
  406eb0:	0f 85 a8 f6 ff ff    	jne    40655e <___gdtoa+0xa3e>
  406eb6:	dd d8                	fstp   st(0)
  406eb8:	dd d8                	fstp   st(0)
  406eba:	e9 0c f7 ff ff       	jmp    4065cb <___gdtoa+0xaab>
  406ebf:	89 f1                	mov    ecx,esi
  406ec1:	8b 74 24 28          	mov    esi,DWORD PTR [esp+0x28]
  406ec5:	83 7c 24 10 39       	cmp    DWORD PTR [esp+0x10],0x39
  406eca:	89 7c 24 20          	mov    DWORD PTR [esp+0x20],edi
  406ece:	8b 7c 24 1c          	mov    edi,DWORD PTR [esp+0x1c]
  406ed2:	89 f0                	mov    eax,esi
  406ed4:	74 99                	je     406e6f <___gdtoa+0x134f>
  406ed6:	85 c9                	test   ecx,ecx
  406ed8:	7e 73                	jle    406f4d <___gdtoa+0x142d>
  406eda:	8b 4c 24 30          	mov    ecx,DWORD PTR [esp+0x30]
  406ede:	c7 44 24 18 20 00 00 	mov    DWORD PTR [esp+0x18],0x20
  406ee5:	00 
  406ee6:	83 c1 31             	add    ecx,0x31
  406ee9:	89 4c 24 10          	mov    DWORD PTR [esp+0x10],ecx
  406eed:	0f b6 4c 24 10       	movzx  ecx,BYTE PTR [esp+0x10]
  406ef2:	83 c6 01             	add    esi,0x1
  406ef5:	8b 54 24 20          	mov    edx,DWORD PTR [esp+0x20]
  406ef9:	89 6c 24 20          	mov    DWORD PTR [esp+0x20],ebp
  406efd:	88 08                	mov    BYTE PTR [eax],cl
  406eff:	8b 44 24 0c          	mov    eax,DWORD PTR [esp+0xc]
  406f03:	83 c0 01             	add    eax,0x1
  406f06:	89 44 24 0c          	mov    DWORD PTR [esp+0xc],eax
  406f0a:	e9 72 f4 ff ff       	jmp    406381 <___gdtoa+0x861>
  406f0f:	8b 44 24 20          	mov    eax,DWORD PTR [esp+0x20]
  406f13:	c7 44 24 08 00 00 00 	mov    DWORD PTR [esp+0x8],0x0
  406f1a:	00 
  406f1b:	c7 44 24 04 0a 00 00 	mov    DWORD PTR [esp+0x4],0xa
  406f22:	00 
  406f23:	89 04 24             	mov    DWORD PTR [esp],eax
  406f26:	e8 05 07 00 00       	call   407630 <___multadd_D2A>
  406f2b:	83 7c 24 44 00       	cmp    DWORD PTR [esp+0x44],0x0
  406f30:	89 44 24 20          	mov    DWORD PTR [esp+0x20],eax
  406f34:	8b 44 24 44          	mov    eax,DWORD PTR [esp+0x44]
  406f38:	7f 0a                	jg     406f44 <___gdtoa+0x1424>
  406f3a:	83 bc 24 90 00 00 00 	cmp    DWORD PTR [esp+0x90],0x2
  406f41:	02 
  406f42:	7f 46                	jg     406f8a <___gdtoa+0x146a>
  406f44:	89 44 24 18          	mov    DWORD PTR [esp+0x18],eax
  406f48:	e9 a2 f6 ff ff       	jmp    4065ef <___gdtoa+0xacf>
  406f4d:	83 7b 10 01          	cmp    DWORD PTR [ebx+0x10],0x1
  406f51:	c7 44 24 18 10 00 00 	mov    DWORD PTR [esp+0x18],0x10
  406f58:	00 
  406f59:	7f 92                	jg     406eed <___gdtoa+0x13cd>
  406f5b:	83 7b 14 01          	cmp    DWORD PTR [ebx+0x14],0x1
  406f5f:	19 c9                	sbb    ecx,ecx
  406f61:	89 4c 24 18          	mov    DWORD PTR [esp+0x18],ecx
  406f65:	f7 54 24 18          	not    DWORD PTR [esp+0x18]
  406f69:	83 64 24 18 10       	and    DWORD PTR [esp+0x18],0x10
  406f6e:	e9 7a ff ff ff       	jmp    406eed <___gdtoa+0x13cd>
  406f73:	83 7b 14 00          	cmp    DWORD PTR [ebx+0x14],0x0
  406f77:	c7 44 24 18 00 00 00 	mov    DWORD PTR [esp+0x18],0x0
  406f7e:	00 
  406f7f:	0f 85 12 fd ff ff    	jne    406c97 <___gdtoa+0x1177>
  406f85:	e9 19 fd ff ff       	jmp    406ca3 <___gdtoa+0x1183>
  406f8a:	89 44 24 18          	mov    DWORD PTR [esp+0x18],eax
  406f8e:	e9 21 f3 ff ff       	jmp    4062b4 <___gdtoa+0x794>
  406f93:	0f 85 72 fe ff ff    	jne    406e0b <___gdtoa+0x12eb>
  406f99:	f6 44 24 10 01       	test   BYTE PTR [esp+0x10],0x1
  406f9e:	66 90                	xchg   ax,ax
  406fa0:	0f 84 65 fe ff ff    	je     406e0b <___gdtoa+0x12eb>
  406fa6:	e9 50 fe ff ff       	jmp    406dfb <___gdtoa+0x12db>
  406fab:	31 c0                	xor    eax,eax
  406fad:	8d 76 00             	lea    esi,[esi+0x0]
  406fb0:	e9 8f ec ff ff       	jmp    405c44 <___gdtoa+0x124>
  406fb5:	b8 01 00 00 00       	mov    eax,0x1
  406fba:	e9 40 ee ff ff       	jmp    405dff <___gdtoa+0x2df>
  406fbf:	90                   	nop

00406fc0 <___rshift_D2A>:
  406fc0:	55                   	push   ebp
  406fc1:	57                   	push   edi
  406fc2:	56                   	push   esi
  406fc3:	53                   	push   ebx
  406fc4:	83 ec 10             	sub    esp,0x10
  406fc7:	8b 74 24 24          	mov    esi,DWORD PTR [esp+0x24]
  406fcb:	8b 44 24 24          	mov    eax,DWORD PTR [esp+0x24]
  406fcf:	8b 4c 24 28          	mov    ecx,DWORD PTR [esp+0x28]
  406fd3:	8b 56 10             	mov    edx,DWORD PTR [esi+0x10]
  406fd6:	8d 68 14             	lea    ebp,[eax+0x14]
  406fd9:	89 c8                	mov    eax,ecx
  406fdb:	c1 f8 05             	sar    eax,0x5
  406fde:	39 d0                	cmp    eax,edx
  406fe0:	0f 8d 8a 00 00 00    	jge    407070 <___rshift_D2A+0xb0>
  406fe6:	8d 44 85 00          	lea    eax,[ebp+eax*4+0x0]
  406fea:	83 e1 1f             	and    ecx,0x1f
  406fed:	8d 7c 95 00          	lea    edi,[ebp+edx*4+0x0]
  406ff1:	89 44 24 04          	mov    DWORD PTR [esp+0x4],eax
  406ff5:	89 0c 24             	mov    DWORD PTR [esp],ecx
  406ff8:	0f 84 92 00 00 00    	je     407090 <___rshift_D2A+0xd0>
  406ffe:	8b 74 24 04          	mov    esi,DWORD PTR [esp+0x4]
  407002:	8b 04 24             	mov    eax,DWORD PTR [esp]
  407005:	c7 44 24 08 20 00 00 	mov    DWORD PTR [esp+0x8],0x20
  40700c:	00 
  40700d:	29 44 24 08          	sub    DWORD PTR [esp+0x8],eax
  407011:	8b 1e                	mov    ebx,DWORD PTR [esi]
  407013:	8d 56 04             	lea    edx,[esi+0x4]
  407016:	89 c1                	mov    ecx,eax
  407018:	d3 eb                	shr    ebx,cl
  40701a:	39 d7                	cmp    edi,edx
  40701c:	0f 86 ac 00 00 00    	jbe    4070ce <___rshift_D2A+0x10e>
  407022:	89 ee                	mov    esi,ebp
  407024:	89 6c 24 0c          	mov    DWORD PTR [esp+0xc],ebp
  407028:	8b 6c 24 08          	mov    ebp,DWORD PTR [esp+0x8]
  40702c:	8d 74 26 00          	lea    esi,[esi+eiz*1+0x0]
  407030:	8b 02                	mov    eax,DWORD PTR [edx]
  407032:	89 e9                	mov    ecx,ebp
  407034:	83 c6 04             	add    esi,0x4
  407037:	83 c2 04             	add    edx,0x4
  40703a:	d3 e0                	shl    eax,cl
  40703c:	0f b6 0c 24          	movzx  ecx,BYTE PTR [esp]
  407040:	09 d8                	or     eax,ebx
  407042:	89 46 fc             	mov    DWORD PTR [esi-0x4],eax
  407045:	8b 5a fc             	mov    ebx,DWORD PTR [edx-0x4]
  407048:	d3 eb                	shr    ebx,cl
  40704a:	39 d7                	cmp    edi,edx
  40704c:	77 e2                	ja     407030 <___rshift_D2A+0x70>
  40704e:	2b 7c 24 04          	sub    edi,DWORD PTR [esp+0x4]
  407052:	8b 6c 24 0c          	mov    ebp,DWORD PTR [esp+0xc]
  407056:	8d 47 fb             	lea    eax,[edi-0x5]
  407059:	c1 e8 02             	shr    eax,0x2
  40705c:	8d 44 85 04          	lea    eax,[ebp+eax*4+0x4]
  407060:	85 db                	test   ebx,ebx
  407062:	89 18                	mov    DWORD PTR [eax],ebx
  407064:	74 03                	je     407069 <___rshift_D2A+0xa9>
  407066:	83 c0 04             	add    eax,0x4
  407069:	29 e8                	sub    eax,ebp
  40706b:	c1 f8 02             	sar    eax,0x2
  40706e:	eb 4b                	jmp    4070bb <___rshift_D2A+0xfb>
  407070:	8b 44 24 24          	mov    eax,DWORD PTR [esp+0x24]
  407074:	c7 40 10 00 00 00 00 	mov    DWORD PTR [eax+0x10],0x0
  40707b:	8b 44 24 24          	mov    eax,DWORD PTR [esp+0x24]
  40707f:	c7 40 14 00 00 00 00 	mov    DWORD PTR [eax+0x14],0x0
  407086:	83 c4 10             	add    esp,0x10
  407089:	5b                   	pop    ebx
  40708a:	5e                   	pop    esi
  40708b:	5f                   	pop    edi
  40708c:	5d                   	pop    ebp
  40708d:	c3                   	ret    
  40708e:	66 90                	xchg   ax,ax
  407090:	39 c7                	cmp    edi,eax
  407092:	89 ea                	mov    edx,ebp
  407094:	76 da                	jbe    407070 <___rshift_D2A+0xb0>
  407096:	83 c0 04             	add    eax,0x4
  407099:	8b 48 fc             	mov    ecx,DWORD PTR [eax-0x4]
  40709c:	83 c2 04             	add    edx,0x4
  40709f:	39 c7                	cmp    edi,eax
  4070a1:	89 4a fc             	mov    DWORD PTR [edx-0x4],ecx
  4070a4:	77 f0                	ja     407096 <___rshift_D2A+0xd6>
  4070a6:	8b 44 24 04          	mov    eax,DWORD PTR [esp+0x4]
  4070aa:	f7 d0                	not    eax
  4070ac:	01 f8                	add    eax,edi
  4070ae:	c1 e8 02             	shr    eax,0x2
  4070b1:	8d 04 85 04 00 00 00 	lea    eax,[eax*4+0x4]
  4070b8:	c1 f8 02             	sar    eax,0x2
  4070bb:	8b 74 24 24          	mov    esi,DWORD PTR [esp+0x24]
  4070bf:	85 c0                	test   eax,eax
  4070c1:	89 46 10             	mov    DWORD PTR [esi+0x10],eax
  4070c4:	74 b5                	je     40707b <___rshift_D2A+0xbb>
  4070c6:	83 c4 10             	add    esp,0x10
  4070c9:	5b                   	pop    ebx
  4070ca:	5e                   	pop    esi
  4070cb:	5f                   	pop    edi
  4070cc:	5d                   	pop    ebp
  4070cd:	c3                   	ret    
  4070ce:	89 e8                	mov    eax,ebp
  4070d0:	eb 8e                	jmp    407060 <___rshift_D2A+0xa0>
  4070d2:	8d b4 26 00 00 00 00 	lea    esi,[esi+eiz*1+0x0]
  4070d9:	8d bc 27 00 00 00 00 	lea    edi,[edi+eiz*1+0x0]

004070e0 <___trailz_D2A>:
  4070e0:	53                   	push   ebx
  4070e1:	8b 44 24 08          	mov    eax,DWORD PTR [esp+0x8]
  4070e5:	8b 48 10             	mov    ecx,DWORD PTR [eax+0x10]
  4070e8:	8d 50 14             	lea    edx,[eax+0x14]
  4070eb:	8d 1c 8a             	lea    ebx,[edx+ecx*4]
  4070ee:	39 da                	cmp    edx,ebx
  4070f0:	73 28                	jae    40711a <___trailz_D2A+0x3a>
  4070f2:	8b 48 14             	mov    ecx,DWORD PTR [eax+0x14]
  4070f5:	31 c0                	xor    eax,eax
  4070f7:	85 c9                	test   ecx,ecx
  4070f9:	74 0b                	je     407106 <___trailz_D2A+0x26>
  4070fb:	eb 15                	jmp    407112 <___trailz_D2A+0x32>
  4070fd:	8d 76 00             	lea    esi,[esi+0x0]
  407100:	8b 0a                	mov    ecx,DWORD PTR [edx]
  407102:	85 c9                	test   ecx,ecx
  407104:	75 0c                	jne    407112 <___trailz_D2A+0x32>
  407106:	83 c2 04             	add    edx,0x4
  407109:	83 c0 20             	add    eax,0x20
  40710c:	39 d3                	cmp    ebx,edx
  40710e:	77 f0                	ja     407100 <___trailz_D2A+0x20>
  407110:	5b                   	pop    ebx
  407111:	c3                   	ret    
  407112:	f3 0f bc c9          	tzcnt  ecx,ecx
  407116:	01 c8                	add    eax,ecx
  407118:	5b                   	pop    ebx
  407119:	c3                   	ret    
  40711a:	31 c0                	xor    eax,eax
  40711c:	5b                   	pop    ebx
  40711d:	c3                   	ret    
  40711e:	90                   	nop
  40711f:	90                   	nop

00407120 <___rv_alloc_D2A>:
  407120:	53                   	push   ebx
  407121:	31 db                	xor    ebx,ebx
  407123:	83 ec 18             	sub    esp,0x18
  407126:	8b 4c 24 20          	mov    ecx,DWORD PTR [esp+0x20]
  40712a:	83 f9 13             	cmp    ecx,0x13
  40712d:	76 11                	jbe    407140 <___rv_alloc_D2A+0x20>
  40712f:	b8 04 00 00 00       	mov    eax,0x4
  407134:	01 c0                	add    eax,eax
  407136:	83 c3 01             	add    ebx,0x1
  407139:	8d 50 10             	lea    edx,[eax+0x10]
  40713c:	39 ca                	cmp    edx,ecx
  40713e:	76 f4                	jbe    407134 <___rv_alloc_D2A+0x14>
  407140:	89 1c 24             	mov    DWORD PTR [esp],ebx
  407143:	e8 a8 03 00 00       	call   4074f0 <___Balloc_D2A>
  407148:	89 18                	mov    DWORD PTR [eax],ebx
  40714a:	83 c4 18             	add    esp,0x18
  40714d:	83 c0 04             	add    eax,0x4
  407150:	5b                   	pop    ebx
  407151:	c3                   	ret    
  407152:	8d b4 26 00 00 00 00 	lea    esi,[esi+eiz*1+0x0]
  407159:	8d bc 27 00 00 00 00 	lea    edi,[edi+eiz*1+0x0]

00407160 <___nrv_alloc_D2A>:
  407160:	56                   	push   esi
  407161:	53                   	push   ebx
  407162:	83 ec 14             	sub    esp,0x14
  407165:	8b 44 24 28          	mov    eax,DWORD PTR [esp+0x28]
  407169:	8b 5c 24 20          	mov    ebx,DWORD PTR [esp+0x20]
  40716d:	8b 74 24 24          	mov    esi,DWORD PTR [esp+0x24]
  407171:	89 04 24             	mov    DWORD PTR [esp],eax
  407174:	e8 a7 ff ff ff       	call   407120 <___rv_alloc_D2A>
  407179:	0f b6 13             	movzx  edx,BYTE PTR [ebx]
  40717c:	8d 4b 01             	lea    ecx,[ebx+0x1]
  40717f:	84 d2                	test   dl,dl
  407181:	88 10                	mov    BYTE PTR [eax],dl
  407183:	89 c2                	mov    edx,eax
  407185:	74 10                	je     407197 <___nrv_alloc_D2A+0x37>
  407187:	83 c1 01             	add    ecx,0x1
  40718a:	0f b6 59 ff          	movzx  ebx,BYTE PTR [ecx-0x1]
  40718e:	83 c2 01             	add    edx,0x1
  407191:	84 db                	test   bl,bl
  407193:	88 1a                	mov    BYTE PTR [edx],bl
  407195:	75 f0                	jne    407187 <___nrv_alloc_D2A+0x27>
  407197:	85 f6                	test   esi,esi
  407199:	74 02                	je     40719d <___nrv_alloc_D2A+0x3d>
  40719b:	89 16                	mov    DWORD PTR [esi],edx
  40719d:	83 c4 14             	add    esp,0x14
  4071a0:	5b                   	pop    ebx
  4071a1:	5e                   	pop    esi
  4071a2:	c3                   	ret    
  4071a3:	8d b6 00 00 00 00    	lea    esi,[esi+0x0]
  4071a9:	8d bc 27 00 00 00 00 	lea    edi,[edi+eiz*1+0x0]

004071b0 <___freedtoa>:
  4071b0:	8b 44 24 04          	mov    eax,DWORD PTR [esp+0x4]
  4071b4:	ba 01 00 00 00       	mov    edx,0x1
  4071b9:	8b 48 fc             	mov    ecx,DWORD PTR [eax-0x4]
  4071bc:	83 e8 04             	sub    eax,0x4
  4071bf:	d3 e2                	shl    edx,cl
  4071c1:	89 48 04             	mov    DWORD PTR [eax+0x4],ecx
  4071c4:	89 50 08             	mov    DWORD PTR [eax+0x8],edx
  4071c7:	89 44 24 04          	mov    DWORD PTR [esp+0x4],eax
  4071cb:	e9 f0 03 00 00       	jmp    4075c0 <___Bfree_D2A>

004071d0 <___quorem_D2A>:
  4071d0:	55                   	push   ebp
  4071d1:	57                   	push   edi
  4071d2:	56                   	push   esi
  4071d3:	53                   	push   ebx
  4071d4:	83 ec 4c             	sub    esp,0x4c
  4071d7:	8b 44 24 64          	mov    eax,DWORD PTR [esp+0x64]
  4071db:	8b 7c 24 60          	mov    edi,DWORD PTR [esp+0x60]
  4071df:	8b 50 10             	mov    edx,DWORD PTR [eax+0x10]
  4071e2:	31 c0                	xor    eax,eax
  4071e4:	3b 57 10             	cmp    edx,DWORD PTR [edi+0x10]
  4071e7:	0f 8f d6 01 00 00    	jg     4073c3 <___quorem_D2A+0x1f3>
  4071ed:	8b 44 24 64          	mov    eax,DWORD PTR [esp+0x64]
  4071f1:	8b 74 24 60          	mov    esi,DWORD PTR [esp+0x60]
  4071f5:	83 c0 14             	add    eax,0x14
  4071f8:	89 c7                	mov    edi,eax
  4071fa:	89 44 24 38          	mov    DWORD PTR [esp+0x38],eax
  4071fe:	8d 42 ff             	lea    eax,[edx-0x1]
  407201:	31 d2                	xor    edx,edx
  407203:	89 44 24 30          	mov    DWORD PTR [esp+0x30],eax
  407207:	c1 e0 02             	shl    eax,0x2
  40720a:	01 c7                	add    edi,eax
  40720c:	8d 5e 14             	lea    ebx,[esi+0x14]
  40720f:	01 d8                	add    eax,ebx
  407211:	89 7c 24 28          	mov    DWORD PTR [esp+0x28],edi
  407215:	8b 3f                	mov    edi,DWORD PTR [edi]
  407217:	89 44 24 3c          	mov    DWORD PTR [esp+0x3c],eax
  40721b:	8b 00                	mov    eax,DWORD PTR [eax]
  40721d:	89 5c 24 2c          	mov    DWORD PTR [esp+0x2c],ebx
  407221:	8d 4f 01             	lea    ecx,[edi+0x1]
  407224:	f7 f1                	div    ecx
  407226:	89 7c 24 10          	mov    DWORD PTR [esp+0x10],edi
  40722a:	85 c0                	test   eax,eax
  40722c:	89 c5                	mov    ebp,eax
  40722e:	89 44 24 34          	mov    DWORD PTR [esp+0x34],eax
  407232:	0f 84 c7 00 00 00    	je     4072ff <___quorem_D2A+0x12f>
  407238:	8b 7c 24 38          	mov    edi,DWORD PTR [esp+0x38]
  40723c:	89 de                	mov    esi,ebx
  40723e:	c7 44 24 20 00 00 00 	mov    DWORD PTR [esp+0x20],0x0
  407245:	00 
  407246:	c7 44 24 24 00 00 00 	mov    DWORD PTR [esp+0x24],0x0
  40724d:	00 
  40724e:	c7 44 24 10 00 00 00 	mov    DWORD PTR [esp+0x10],0x0
  407255:	00 
  407256:	c7 44 24 14 00 00 00 	mov    DWORD PTR [esp+0x14],0x0
  40725d:	00 
  40725e:	66 90                	xchg   ax,ax
  407260:	83 c7 04             	add    edi,0x4
  407263:	89 e8                	mov    eax,ebp
  407265:	f7 67 fc             	mul    DWORD PTR [edi-0x4]
  407268:	03 44 24 20          	add    eax,DWORD PTR [esp+0x20]
  40726c:	13 54 24 24          	adc    edx,DWORD PTR [esp+0x24]
  407270:	c7 44 24 1c 00 00 00 	mov    DWORD PTR [esp+0x1c],0x0
  407277:	00 
  407278:	89 44 24 18          	mov    DWORD PTR [esp+0x18],eax
  40727c:	89 d3                	mov    ebx,edx
  40727e:	89 d9                	mov    ecx,ebx
  407280:	31 db                	xor    ebx,ebx
  407282:	89 4c 24 20          	mov    DWORD PTR [esp+0x20],ecx
  407286:	8b 0e                	mov    ecx,DWORD PTR [esi]
  407288:	89 5c 24 24          	mov    DWORD PTR [esp+0x24],ebx
  40728c:	31 db                	xor    ebx,ebx
  40728e:	2b 4c 24 18          	sub    ecx,DWORD PTR [esp+0x18]
  407292:	1b 5c 24 1c          	sbb    ebx,DWORD PTR [esp+0x1c]
  407296:	2b 4c 24 10          	sub    ecx,DWORD PTR [esp+0x10]
  40729a:	1b 5c 24 14          	sbb    ebx,DWORD PTR [esp+0x14]
  40729e:	83 c6 04             	add    esi,0x4
  4072a1:	c7 44 24 14 00 00 00 	mov    DWORD PTR [esp+0x14],0x0
  4072a8:	00 
  4072a9:	89 d8                	mov    eax,ebx
  4072ab:	83 e0 01             	and    eax,0x1
  4072ae:	39 7c 24 28          	cmp    DWORD PTR [esp+0x28],edi
  4072b2:	89 44 24 10          	mov    DWORD PTR [esp+0x10],eax
  4072b6:	89 4e fc             	mov    DWORD PTR [esi-0x4],ecx
  4072b9:	73 a5                	jae    407260 <___quorem_D2A+0x90>
  4072bb:	8b 44 24 3c          	mov    eax,DWORD PTR [esp+0x3c]
  4072bf:	8b 38                	mov    edi,DWORD PTR [eax]
  4072c1:	85 ff                	test   edi,edi
  4072c3:	75 3a                	jne    4072ff <___quorem_D2A+0x12f>
  4072c5:	8b 4c 24 2c          	mov    ecx,DWORD PTR [esp+0x2c]
  4072c9:	89 c6                	mov    esi,eax
  4072cb:	83 e8 04             	sub    eax,0x4
  4072ce:	39 c1                	cmp    ecx,eax
  4072d0:	73 22                	jae    4072f4 <___quorem_D2A+0x124>
  4072d2:	8b 76 fc             	mov    esi,DWORD PTR [esi-0x4]
  4072d5:	85 f6                	test   esi,esi
  4072d7:	75 1b                	jne    4072f4 <___quorem_D2A+0x124>
  4072d9:	8b 54 24 30          	mov    edx,DWORD PTR [esp+0x30]
  4072dd:	eb 07                	jmp    4072e6 <___quorem_D2A+0x116>
  4072df:	90                   	nop
  4072e0:	8b 18                	mov    ebx,DWORD PTR [eax]
  4072e2:	85 db                	test   ebx,ebx
  4072e4:	75 0a                	jne    4072f0 <___quorem_D2A+0x120>
  4072e6:	83 e8 04             	sub    eax,0x4
  4072e9:	83 ea 01             	sub    edx,0x1
  4072ec:	39 c1                	cmp    ecx,eax
  4072ee:	72 f0                	jb     4072e0 <___quorem_D2A+0x110>
  4072f0:	89 54 24 30          	mov    DWORD PTR [esp+0x30],edx
  4072f4:	8b 44 24 60          	mov    eax,DWORD PTR [esp+0x60]
  4072f8:	8b 7c 24 30          	mov    edi,DWORD PTR [esp+0x30]
  4072fc:	89 78 10             	mov    DWORD PTR [eax+0x10],edi
  4072ff:	8b 44 24 64          	mov    eax,DWORD PTR [esp+0x64]
  407303:	89 44 24 04          	mov    DWORD PTR [esp+0x4],eax
  407307:	8b 44 24 60          	mov    eax,DWORD PTR [esp+0x60]
  40730b:	89 04 24             	mov    DWORD PTR [esp],eax
  40730e:	e8 2d 08 00 00       	call   407b40 <___cmp_D2A>
  407313:	85 c0                	test   eax,eax
  407315:	0f 88 a4 00 00 00    	js     4073bf <___quorem_D2A+0x1ef>
  40731b:	31 f6                	xor    esi,esi
  40731d:	31 ff                	xor    edi,edi
  40731f:	8d 45 01             	lea    eax,[ebp+0x1]
  407322:	8b 6c 24 2c          	mov    ebp,DWORD PTR [esp+0x2c]
  407326:	89 74 24 10          	mov    DWORD PTR [esp+0x10],esi
  40732a:	8b 74 24 38          	mov    esi,DWORD PTR [esp+0x38]
  40732e:	89 7c 24 14          	mov    DWORD PTR [esp+0x14],edi
  407332:	8b 7c 24 28          	mov    edi,DWORD PTR [esp+0x28]
  407336:	89 44 24 34          	mov    DWORD PTR [esp+0x34],eax
  40733a:	8d b6 00 00 00 00    	lea    esi,[esi+0x0]
  407340:	83 c6 04             	add    esi,0x4
  407343:	8b 45 00             	mov    eax,DWORD PTR [ebp+0x0]
  407346:	31 db                	xor    ebx,ebx
  407348:	8b 4e fc             	mov    ecx,DWORD PTR [esi-0x4]
  40734b:	31 d2                	xor    edx,edx
  40734d:	29 c8                	sub    eax,ecx
  40734f:	19 da                	sbb    edx,ebx
  407351:	2b 44 24 10          	sub    eax,DWORD PTR [esp+0x10]
  407355:	1b 54 24 14          	sbb    edx,DWORD PTR [esp+0x14]
  407359:	83 c5 04             	add    ebp,0x4
  40735c:	c7 44 24 14 00 00 00 	mov    DWORD PTR [esp+0x14],0x0
  407363:	00 
  407364:	89 d3                	mov    ebx,edx
  407366:	83 e3 01             	and    ebx,0x1
  407369:	39 f7                	cmp    edi,esi
  40736b:	89 5c 24 10          	mov    DWORD PTR [esp+0x10],ebx
  40736f:	89 45 fc             	mov    DWORD PTR [ebp-0x4],eax
  407372:	73 cc                	jae    407340 <___quorem_D2A+0x170>
  407374:	8b 44 24 2c          	mov    eax,DWORD PTR [esp+0x2c]
  407378:	8b 5c 24 30          	mov    ebx,DWORD PTR [esp+0x30]
  40737c:	8d 14 98             	lea    edx,[eax+ebx*4]
  40737f:	8b 3a                	mov    edi,DWORD PTR [edx]
  407381:	85 ff                	test   edi,edi
  407383:	75 3a                	jne    4073bf <___quorem_D2A+0x1ef>
  407385:	8b 4c 24 2c          	mov    ecx,DWORD PTR [esp+0x2c]
  407389:	8d 42 fc             	lea    eax,[edx-0x4]
  40738c:	39 c1                	cmp    ecx,eax
  40738e:	73 24                	jae    4073b4 <___quorem_D2A+0x1e4>
  407390:	8b 72 fc             	mov    esi,DWORD PTR [edx-0x4]
  407393:	85 f6                	test   esi,esi
  407395:	75 1d                	jne    4073b4 <___quorem_D2A+0x1e4>
  407397:	89 da                	mov    edx,ebx
  407399:	eb 0b                	jmp    4073a6 <___quorem_D2A+0x1d6>
  40739b:	90                   	nop
  40739c:	8d 74 26 00          	lea    esi,[esi+eiz*1+0x0]
  4073a0:	8b 18                	mov    ebx,DWORD PTR [eax]
  4073a2:	85 db                	test   ebx,ebx
  4073a4:	75 0a                	jne    4073b0 <___quorem_D2A+0x1e0>
  4073a6:	83 e8 04             	sub    eax,0x4
  4073a9:	83 ea 01             	sub    edx,0x1
  4073ac:	39 c1                	cmp    ecx,eax
  4073ae:	72 f0                	jb     4073a0 <___quorem_D2A+0x1d0>
  4073b0:	89 54 24 30          	mov    DWORD PTR [esp+0x30],edx
  4073b4:	8b 44 24 60          	mov    eax,DWORD PTR [esp+0x60]
  4073b8:	8b 7c 24 30          	mov    edi,DWORD PTR [esp+0x30]
  4073bc:	89 78 10             	mov    DWORD PTR [eax+0x10],edi
  4073bf:	8b 44 24 34          	mov    eax,DWORD PTR [esp+0x34]
  4073c3:	83 c4 4c             	add    esp,0x4c
  4073c6:	5b                   	pop    ebx
  4073c7:	5e                   	pop    esi
  4073c8:	5f                   	pop    edi
  4073c9:	5d                   	pop    ebp
  4073ca:	c3                   	ret    
  4073cb:	90                   	nop
  4073cc:	90                   	nop
  4073cd:	90                   	nop
  4073ce:	90                   	nop
  4073cf:	90                   	nop

004073d0 <_dtoa_lock>:
  4073d0:	55                   	push   ebp
  4073d1:	89 e5                	mov    ebp,esp
  4073d3:	53                   	push   ebx
  4073d4:	89 c3                	mov    ebx,eax
  4073d6:	83 ec 14             	sub    esp,0x14
  4073d9:	8b 15 c8 d9 40 00    	mov    edx,DWORD PTR ds:0x40d9c8
  4073df:	83 fa 02             	cmp    edx,0x2
  4073e2:	74 7f                	je     407463 <_dtoa_lock+0x93>
  4073e4:	85 d2                	test   edx,edx
  4073e6:	75 1d                	jne    407405 <_dtoa_lock+0x35>
  4073e8:	eb 2a                	jmp    407414 <_dtoa_lock+0x44>
  4073ea:	8d b6 00 00 00 00    	lea    esi,[esi+0x0]
  4073f0:	c7 04 24 01 00 00 00 	mov    DWORD PTR [esp],0x1
  4073f7:	e8 34 0c 00 00       	call   408030 <_Sleep@4>
  4073fc:	83 ec 04             	sub    esp,0x4
  4073ff:	8b 15 c8 d9 40 00    	mov    edx,DWORD PTR ds:0x40d9c8
  407405:	83 fa 01             	cmp    edx,0x1
  407408:	74 e6                	je     4073f0 <_dtoa_lock+0x20>
  40740a:	83 fa 02             	cmp    edx,0x2
  40740d:	74 54                	je     407463 <_dtoa_lock+0x93>
  40740f:	8b 5d fc             	mov    ebx,DWORD PTR [ebp-0x4]
  407412:	c9                   	leave  
  407413:	c3                   	ret    
  407414:	c7 44 24 04 01 00 00 	mov    DWORD PTR [esp+0x4],0x1
  40741b:	00 
  40741c:	c7 04 24 c8 d9 40 00 	mov    DWORD PTR [esp],0x40d9c8
  407423:	e8 30 0c 00 00       	call   408058 <_InterlockedExchange@8>
  407428:	83 ec 08             	sub    esp,0x8
  40742b:	85 c0                	test   eax,eax
  40742d:	75 51                	jne    407480 <_dtoa_lock+0xb0>
  40742f:	c7 04 24 e0 d9 40 00 	mov    DWORD PTR [esp],0x40d9e0
  407436:	e8 25 0c 00 00       	call   408060 <_InitializeCriticalSection@4>
  40743b:	83 ec 04             	sub    esp,0x4
  40743e:	c7 04 24 f8 d9 40 00 	mov    DWORD PTR [esp],0x40d9f8
  407445:	e8 16 0c 00 00       	call   408060 <_InitializeCriticalSection@4>
  40744a:	83 ec 04             	sub    esp,0x4
  40744d:	c7 04 24 a0 74 40 00 	mov    DWORD PTR [esp],0x4074a0
  407454:	e8 87 9e ff ff       	call   4012e0 <_atexit>
  407459:	c7 05 c8 d9 40 00 02 	mov    DWORD PTR ds:0x40d9c8,0x2
  407460:	00 00 00 
  407463:	8d 04 5b             	lea    eax,[ebx+ebx*2]
  407466:	8d 04 c5 e0 d9 40 00 	lea    eax,[eax*8+0x40d9e0]
  40746d:	89 04 24             	mov    DWORD PTR [esp],eax
  407470:	e8 33 0c 00 00       	call   4080a8 <_EnterCriticalSection@4>
  407475:	8b 5d fc             	mov    ebx,DWORD PTR [ebp-0x4]
  407478:	83 ec 04             	sub    esp,0x4
  40747b:	c9                   	leave  
  40747c:	c3                   	ret    
  40747d:	8d 76 00             	lea    esi,[esi+0x0]
  407480:	83 f8 02             	cmp    eax,0x2
  407483:	0f 85 76 ff ff ff    	jne    4073ff <_dtoa_lock+0x2f>
  407489:	c7 05 c8 d9 40 00 02 	mov    DWORD PTR ds:0x40d9c8,0x2
  407490:	00 00 00 
  407493:	eb ce                	jmp    407463 <_dtoa_lock+0x93>
  407495:	8d 74 26 00          	lea    esi,[esi+eiz*1+0x0]
  407499:	8d bc 27 00 00 00 00 	lea    edi,[edi+eiz*1+0x0]

004074a0 <_dtoa_lock_cleanup>:
  4074a0:	55                   	push   ebp
  4074a1:	89 e5                	mov    ebp,esp
  4074a3:	83 ec 18             	sub    esp,0x18
  4074a6:	c7 44 24 04 03 00 00 	mov    DWORD PTR [esp+0x4],0x3
  4074ad:	00 
  4074ae:	c7 04 24 c8 d9 40 00 	mov    DWORD PTR [esp],0x40d9c8
  4074b5:	e8 9e 0b 00 00       	call   408058 <_InterlockedExchange@8>
  4074ba:	83 ec 08             	sub    esp,0x8
  4074bd:	83 f8 02             	cmp    eax,0x2
  4074c0:	74 02                	je     4074c4 <_dtoa_lock_cleanup+0x24>
  4074c2:	c9                   	leave  
  4074c3:	c3                   	ret    
  4074c4:	c7 04 24 e0 d9 40 00 	mov    DWORD PTR [esp],0x40d9e0
  4074cb:	e8 e0 0b 00 00       	call   4080b0 <_DeleteCriticalSection@4>
  4074d0:	83 ec 04             	sub    esp,0x4
  4074d3:	c7 04 24 f8 d9 40 00 	mov    DWORD PTR [esp],0x40d9f8
  4074da:	e8 d1 0b 00 00       	call   4080b0 <_DeleteCriticalSection@4>
  4074df:	83 ec 04             	sub    esp,0x4
  4074e2:	c9                   	leave  
  4074e3:	c3                   	ret    
  4074e4:	8d b6 00 00 00 00    	lea    esi,[esi+0x0]
  4074ea:	8d bf 00 00 00 00    	lea    edi,[edi+0x0]

004074f0 <___Balloc_D2A>:
  4074f0:	55                   	push   ebp
  4074f1:	31 c0                	xor    eax,eax
  4074f3:	89 e5                	mov    ebp,esp
  4074f5:	57                   	push   edi
  4074f6:	56                   	push   esi
  4074f7:	53                   	push   ebx
  4074f8:	83 ec 1c             	sub    esp,0x1c
  4074fb:	8b 75 08             	mov    esi,DWORD PTR [ebp+0x8]
  4074fe:	e8 cd fe ff ff       	call   4073d0 <_dtoa_lock>
  407503:	83 fe 09             	cmp    esi,0x9
  407506:	7f 2e                	jg     407536 <___Balloc_D2A+0x46>
  407508:	8b 1c b5 a0 d9 40 00 	mov    ebx,DWORD PTR [esi*4+0x40d9a0]
  40750f:	85 db                	test   ebx,ebx
  407511:	74 6e                	je     407581 <___Balloc_D2A+0x91>
  407513:	8b 03                	mov    eax,DWORD PTR [ebx]
  407515:	83 3d c8 d9 40 00 02 	cmp    DWORD PTR ds:0x40d9c8,0x2
  40751c:	89 04 b5 a0 d9 40 00 	mov    DWORD PTR [esi*4+0x40d9a0],eax
  407523:	75 44                	jne    407569 <___Balloc_D2A+0x79>
  407525:	c7 04 24 e0 d9 40 00 	mov    DWORD PTR [esp],0x40d9e0
  40752c:	e8 17 0b 00 00       	call   408048 <_LeaveCriticalSection@4>
  407531:	83 ec 04             	sub    esp,0x4
  407534:	eb 33                	jmp    407569 <___Balloc_D2A+0x79>
  407536:	bf 01 00 00 00       	mov    edi,0x1
  40753b:	89 f1                	mov    ecx,esi
  40753d:	d3 e7                	shl    edi,cl
  40753f:	8d 04 bd 1b 00 00 00 	lea    eax,[edi*4+0x1b]
  407546:	c1 e8 03             	shr    eax,0x3
  407549:	c1 e0 03             	shl    eax,0x3
  40754c:	89 04 24             	mov    DWORD PTR [esp],eax
  40754f:	e8 34 0a 00 00       	call   407f88 <_malloc>
  407554:	85 c0                	test   eax,eax
  407556:	89 c3                	mov    ebx,eax
  407558:	74 5f                	je     4075b9 <___Balloc_D2A+0xc9>
  40755a:	83 3d c8 d9 40 00 02 	cmp    DWORD PTR ds:0x40d9c8,0x2
  407561:	89 73 04             	mov    DWORD PTR [ebx+0x4],esi
  407564:	89 7b 08             	mov    DWORD PTR [ebx+0x8],edi
  407567:	74 bc                	je     407525 <___Balloc_D2A+0x35>
  407569:	c7 43 10 00 00 00 00 	mov    DWORD PTR [ebx+0x10],0x0
  407570:	89 d8                	mov    eax,ebx
  407572:	c7 43 0c 00 00 00 00 	mov    DWORD PTR [ebx+0xc],0x0
  407579:	8d 65 f4             	lea    esp,[ebp-0xc]
  40757c:	5b                   	pop    ebx
  40757d:	5e                   	pop    esi
  40757e:	5f                   	pop    edi
  40757f:	5d                   	pop    ebp
  407580:	c3                   	ret    
  407581:	8b 1d 20 90 40 00    	mov    ebx,DWORD PTR ds:0x409020
  407587:	bf 01 00 00 00       	mov    edi,0x1
  40758c:	89 f1                	mov    ecx,esi
  40758e:	d3 e7                	shl    edi,cl
  407590:	8d 04 bd 1b 00 00 00 	lea    eax,[edi*4+0x1b]
  407597:	c1 e8 03             	shr    eax,0x3
  40759a:	89 da                	mov    edx,ebx
  40759c:	81 ea a0 d0 40 00    	sub    edx,0x40d0a0
  4075a2:	c1 fa 03             	sar    edx,0x3
  4075a5:	01 c2                	add    edx,eax
  4075a7:	81 fa 20 01 00 00    	cmp    edx,0x120
  4075ad:	77 9a                	ja     407549 <___Balloc_D2A+0x59>
  4075af:	8d 04 c3             	lea    eax,[ebx+eax*8]
  4075b2:	a3 20 90 40 00       	mov    ds:0x409020,eax
  4075b7:	eb a1                	jmp    40755a <___Balloc_D2A+0x6a>
  4075b9:	31 c0                	xor    eax,eax
  4075bb:	eb bc                	jmp    407579 <___Balloc_D2A+0x89>
  4075bd:	8d 76 00             	lea    esi,[esi+0x0]

004075c0 <___Bfree_D2A>:
  4075c0:	55                   	push   ebp
  4075c1:	89 e5                	mov    ebp,esp
  4075c3:	53                   	push   ebx
  4075c4:	83 ec 14             	sub    esp,0x14
  4075c7:	8b 5d 08             	mov    ebx,DWORD PTR [ebp+0x8]
  4075ca:	85 db                	test   ebx,ebx
  4075cc:	74 29                	je     4075f7 <___Bfree_D2A+0x37>
  4075ce:	83 7b 04 09          	cmp    DWORD PTR [ebx+0x4],0x9
  4075d2:	7f 2c                	jg     407600 <___Bfree_D2A+0x40>
  4075d4:	31 c0                	xor    eax,eax
  4075d6:	e8 f5 fd ff ff       	call   4073d0 <_dtoa_lock>
  4075db:	8b 43 04             	mov    eax,DWORD PTR [ebx+0x4]
  4075de:	83 3d c8 d9 40 00 02 	cmp    DWORD PTR ds:0x40d9c8,0x2
  4075e5:	8b 14 85 a0 d9 40 00 	mov    edx,DWORD PTR [eax*4+0x40d9a0]
  4075ec:	89 1c 85 a0 d9 40 00 	mov    DWORD PTR [eax*4+0x40d9a0],ebx
  4075f3:	89 13                	mov    DWORD PTR [ebx],edx
  4075f5:	74 19                	je     407610 <___Bfree_D2A+0x50>
  4075f7:	8b 5d fc             	mov    ebx,DWORD PTR [ebp-0x4]
  4075fa:	c9                   	leave  
  4075fb:	c3                   	ret    
  4075fc:	8d 74 26 00          	lea    esi,[esi+eiz*1+0x0]
  407600:	8b 5d fc             	mov    ebx,DWORD PTR [ebp-0x4]
  407603:	c9                   	leave  
  407604:	e9 a7 09 00 00       	jmp    407fb0 <_free>
  407609:	8d b4 26 00 00 00 00 	lea    esi,[esi+eiz*1+0x0]
  407610:	c7 04 24 e0 d9 40 00 	mov    DWORD PTR [esp],0x40d9e0
  407617:	e8 2c 0a 00 00       	call   408048 <_LeaveCriticalSection@4>
  40761c:	8b 5d fc             	mov    ebx,DWORD PTR [ebp-0x4]
  40761f:	83 ec 04             	sub    esp,0x4
  407622:	c9                   	leave  
  407623:	c3                   	ret    
  407624:	8d b6 00 00 00 00    	lea    esi,[esi+0x0]
  40762a:	8d bf 00 00 00 00    	lea    edi,[edi+0x0]

00407630 <___multadd_D2A>:
  407630:	55                   	push   ebp
  407631:	31 c9                	xor    ecx,ecx
  407633:	57                   	push   edi
  407634:	56                   	push   esi
  407635:	53                   	push   ebx
  407636:	83 ec 2c             	sub    esp,0x2c
  407639:	8b 44 24 40          	mov    eax,DWORD PTR [esp+0x40]
  40763d:	8b 7c 24 48          	mov    edi,DWORD PTR [esp+0x48]
  407641:	8b 40 10             	mov    eax,DWORD PTR [eax+0x10]
  407644:	89 fd                	mov    ebp,edi
  407646:	c1 fd 1f             	sar    ebp,0x1f
  407649:	89 44 24 1c          	mov    DWORD PTR [esp+0x1c],eax
  40764d:	8b 44 24 40          	mov    eax,DWORD PTR [esp+0x40]
  407651:	8d 58 14             	lea    ebx,[eax+0x14]
  407654:	8b 44 24 44          	mov    eax,DWORD PTR [esp+0x44]
  407658:	89 44 24 10          	mov    DWORD PTR [esp+0x10],eax
  40765c:	c1 f8 1f             	sar    eax,0x1f
  40765f:	89 44 24 14          	mov    DWORD PTR [esp+0x14],eax
  407663:	8b 04 8b             	mov    eax,DWORD PTR [ebx+ecx*4]
  407666:	8b 74 24 14          	mov    esi,DWORD PTR [esp+0x14]
  40766a:	0f af f0             	imul   esi,eax
  40766d:	f7 64 24 10          	mul    DWORD PTR [esp+0x10]
  407671:	01 f2                	add    edx,esi
  407673:	01 f8                	add    eax,edi
  407675:	11 ea                	adc    edx,ebp
  407677:	89 d5                	mov    ebp,edx
  407679:	89 ef                	mov    edi,ebp
  40767b:	31 ed                	xor    ebp,ebp
  40767d:	89 04 8b             	mov    DWORD PTR [ebx+ecx*4],eax
  407680:	83 c1 01             	add    ecx,0x1
  407683:	39 4c 24 1c          	cmp    DWORD PTR [esp+0x1c],ecx
  407687:	7f da                	jg     407663 <___multadd_D2A+0x33>
  407689:	89 ea                	mov    edx,ebp
  40768b:	8b 44 24 40          	mov    eax,DWORD PTR [esp+0x40]
  40768f:	09 fa                	or     edx,edi
  407691:	74 1d                	je     4076b0 <___multadd_D2A+0x80>
  407693:	8b 54 24 1c          	mov    edx,DWORD PTR [esp+0x1c]
  407697:	3b 50 08             	cmp    edx,DWORD PTR [eax+0x8]
  40769a:	7d 1c                	jge    4076b8 <___multadd_D2A+0x88>
  40769c:	8b 54 24 40          	mov    edx,DWORD PTR [esp+0x40]
  4076a0:	8b 44 24 1c          	mov    eax,DWORD PTR [esp+0x1c]
  4076a4:	89 7c 82 14          	mov    DWORD PTR [edx+eax*4+0x14],edi
  4076a8:	83 c0 01             	add    eax,0x1
  4076ab:	89 42 10             	mov    DWORD PTR [edx+0x10],eax
  4076ae:	89 d0                	mov    eax,edx
  4076b0:	83 c4 2c             	add    esp,0x2c
  4076b3:	5b                   	pop    ebx
  4076b4:	5e                   	pop    esi
  4076b5:	5f                   	pop    edi
  4076b6:	5d                   	pop    ebp
  4076b7:	c3                   	ret    
  4076b8:	8b 40 04             	mov    eax,DWORD PTR [eax+0x4]
  4076bb:	89 44 24 10          	mov    DWORD PTR [esp+0x10],eax
  4076bf:	83 c0 01             	add    eax,0x1
  4076c2:	89 04 24             	mov    DWORD PTR [esp],eax
  4076c5:	e8 26 fe ff ff       	call   4074f0 <___Balloc_D2A>
  4076ca:	85 c0                	test   eax,eax
  4076cc:	89 c3                	mov    ebx,eax
  4076ce:	74 3a                	je     40770a <___multadd_D2A+0xda>
  4076d0:	8d 48 0c             	lea    ecx,[eax+0xc]
  4076d3:	8b 44 24 40          	mov    eax,DWORD PTR [esp+0x40]
  4076d7:	8b 40 10             	mov    eax,DWORD PTR [eax+0x10]
  4076da:	89 0c 24             	mov    DWORD PTR [esp],ecx
  4076dd:	8d 14 85 08 00 00 00 	lea    edx,[eax*4+0x8]
  4076e4:	8b 44 24 40          	mov    eax,DWORD PTR [esp+0x40]
  4076e8:	89 54 24 08          	mov    DWORD PTR [esp+0x8],edx
  4076ec:	83 c0 0c             	add    eax,0xc
  4076ef:	89 44 24 04          	mov    DWORD PTR [esp+0x4],eax
  4076f3:	e8 80 08 00 00       	call   407f78 <_memcpy>
  4076f8:	8b 44 24 40          	mov    eax,DWORD PTR [esp+0x40]
  4076fc:	89 04 24             	mov    DWORD PTR [esp],eax
  4076ff:	e8 bc fe ff ff       	call   4075c0 <___Bfree_D2A>
  407704:	89 5c 24 40          	mov    DWORD PTR [esp+0x40],ebx
  407708:	eb 92                	jmp    40769c <___multadd_D2A+0x6c>
  40770a:	31 c0                	xor    eax,eax
  40770c:	eb a2                	jmp    4076b0 <___multadd_D2A+0x80>
  40770e:	66 90                	xchg   ax,ax

00407710 <___i2b_D2A>:
  407710:	83 ec 1c             	sub    esp,0x1c
  407713:	c7 04 24 01 00 00 00 	mov    DWORD PTR [esp],0x1
  40771a:	e8 d1 fd ff ff       	call   4074f0 <___Balloc_D2A>
  40771f:	85 c0                	test   eax,eax
  407721:	74 0e                	je     407731 <___i2b_D2A+0x21>
  407723:	8b 54 24 20          	mov    edx,DWORD PTR [esp+0x20]
  407727:	c7 40 10 01 00 00 00 	mov    DWORD PTR [eax+0x10],0x1
  40772e:	89 50 14             	mov    DWORD PTR [eax+0x14],edx
  407731:	83 c4 1c             	add    esp,0x1c
  407734:	c3                   	ret    
  407735:	8d 74 26 00          	lea    esi,[esi+eiz*1+0x0]
  407739:	8d bc 27 00 00 00 00 	lea    edi,[edi+eiz*1+0x0]

00407740 <___mult_D2A>:
  407740:	55                   	push   ebp
  407741:	57                   	push   edi
  407742:	56                   	push   esi
  407743:	53                   	push   ebx
  407744:	83 ec 3c             	sub    esp,0x3c
  407747:	8b 7c 24 50          	mov    edi,DWORD PTR [esp+0x50]
  40774b:	8b 6c 24 54          	mov    ebp,DWORD PTR [esp+0x54]
  40774f:	8b 77 10             	mov    esi,DWORD PTR [edi+0x10]
  407752:	8b 5d 10             	mov    ebx,DWORD PTR [ebp+0x10]
  407755:	39 de                	cmp    esi,ebx
  407757:	7d 0c                	jge    407765 <___mult_D2A+0x25>
  407759:	89 f0                	mov    eax,esi
  40775b:	89 de                	mov    esi,ebx
  40775d:	89 c3                	mov    ebx,eax
  40775f:	89 f8                	mov    eax,edi
  407761:	89 ef                	mov    edi,ebp
  407763:	89 c5                	mov    ebp,eax
  407765:	8d 04 1e             	lea    eax,[esi+ebx*1]
  407768:	3b 47 08             	cmp    eax,DWORD PTR [edi+0x8]
  40776b:	89 44 24 20          	mov    DWORD PTR [esp+0x20],eax
  40776f:	0f 9f c0             	setg   al
  407772:	0f b6 c0             	movzx  eax,al
  407775:	03 47 04             	add    eax,DWORD PTR [edi+0x4]
  407778:	89 04 24             	mov    DWORD PTR [esp],eax
  40777b:	e8 70 fd ff ff       	call   4074f0 <___Balloc_D2A>
  407780:	85 c0                	test   eax,eax
  407782:	89 44 24 2c          	mov    DWORD PTR [esp+0x2c],eax
  407786:	0f 84 08 01 00 00    	je     407894 <___mult_D2A+0x154>
  40778c:	8b 4c 24 20          	mov    ecx,DWORD PTR [esp+0x20]
  407790:	8d 40 14             	lea    eax,[eax+0x14]
  407793:	89 44 24 18          	mov    DWORD PTR [esp+0x18],eax
  407797:	8d 0c 88             	lea    ecx,[eax+ecx*4]
  40779a:	89 ca                	mov    edx,ecx
  40779c:	39 d0                	cmp    eax,edx
  40779e:	89 4c 24 28          	mov    DWORD PTR [esp+0x28],ecx
  4077a2:	73 11                	jae    4077b5 <___mult_D2A+0x75>
  4077a4:	8b 54 24 28          	mov    edx,DWORD PTR [esp+0x28]
  4077a8:	c7 00 00 00 00 00    	mov    DWORD PTR [eax],0x0
  4077ae:	83 c0 04             	add    eax,0x4
  4077b1:	39 c2                	cmp    edx,eax
  4077b3:	77 f3                	ja     4077a8 <___mult_D2A+0x68>
  4077b5:	8d 47 14             	lea    eax,[edi+0x14]
  4077b8:	89 44 24 24          	mov    DWORD PTR [esp+0x24],eax
  4077bc:	8d 04 b0             	lea    eax,[eax+esi*4]
  4077bf:	89 44 24 10          	mov    DWORD PTR [esp+0x10],eax
  4077c3:	8d 45 14             	lea    eax,[ebp+0x14]
  4077c6:	8d 1c 98             	lea    ebx,[eax+ebx*4]
  4077c9:	39 d8                	cmp    eax,ebx
  4077cb:	89 44 24 14          	mov    DWORD PTR [esp+0x14],eax
  4077cf:	89 5c 24 1c          	mov    DWORD PTR [esp+0x1c],ebx
  4077d3:	73 74                	jae    407849 <___mult_D2A+0x109>
  4077d5:	83 44 24 14 04       	add    DWORD PTR [esp+0x14],0x4
  4077da:	8b 44 24 14          	mov    eax,DWORD PTR [esp+0x14]
  4077de:	8b 68 fc             	mov    ebp,DWORD PTR [eax-0x4]
  4077e1:	85 ed                	test   ebp,ebp
  4077e3:	74 55                	je     40783a <___mult_D2A+0xfa>
  4077e5:	8b 7c 24 18          	mov    edi,DWORD PTR [esp+0x18]
  4077e9:	8b 74 24 24          	mov    esi,DWORD PTR [esp+0x24]
  4077ed:	c7 44 24 08 00 00 00 	mov    DWORD PTR [esp+0x8],0x0
  4077f4:	00 
  4077f5:	c7 44 24 0c 00 00 00 	mov    DWORD PTR [esp+0xc],0x0
  4077fc:	00 
  4077fd:	eb 03                	jmp    407802 <___mult_D2A+0xc2>
  4077ff:	90                   	nop
  407800:	89 c7                	mov    edi,eax
  407802:	83 c6 04             	add    esi,0x4
  407805:	8b 0f                	mov    ecx,DWORD PTR [edi]
  407807:	89 e8                	mov    eax,ebp
  407809:	f7 66 fc             	mul    DWORD PTR [esi-0x4]
  40780c:	31 db                	xor    ebx,ebx
  40780e:	01 c1                	add    ecx,eax
  407810:	11 d3                	adc    ebx,edx
  407812:	03 4c 24 08          	add    ecx,DWORD PTR [esp+0x8]
  407816:	13 5c 24 0c          	adc    ebx,DWORD PTR [esp+0xc]
  40781a:	89 0f                	mov    DWORD PTR [edi],ecx
  40781c:	89 da                	mov    edx,ebx
  40781e:	89 d0                	mov    eax,edx
  407820:	31 d2                	xor    edx,edx
  407822:	39 74 24 10          	cmp    DWORD PTR [esp+0x10],esi
  407826:	89 44 24 08          	mov    DWORD PTR [esp+0x8],eax
  40782a:	8d 47 04             	lea    eax,[edi+0x4]
  40782d:	89 54 24 0c          	mov    DWORD PTR [esp+0xc],edx
  407831:	77 cd                	ja     407800 <___mult_D2A+0xc0>
  407833:	8b 44 24 08          	mov    eax,DWORD PTR [esp+0x8]
  407837:	89 47 04             	mov    DWORD PTR [edi+0x4],eax
  40783a:	8b 44 24 14          	mov    eax,DWORD PTR [esp+0x14]
  40783e:	83 44 24 18 04       	add    DWORD PTR [esp+0x18],0x4
  407843:	39 44 24 1c          	cmp    DWORD PTR [esp+0x1c],eax
  407847:	77 8c                	ja     4077d5 <___mult_D2A+0x95>
  407849:	8b 7c 24 20          	mov    edi,DWORD PTR [esp+0x20]
  40784d:	85 ff                	test   edi,edi
  40784f:	7e 30                	jle    407881 <___mult_D2A+0x141>
  407851:	8b 5c 24 28          	mov    ebx,DWORD PTR [esp+0x28]
  407855:	8b 73 fc             	mov    esi,DWORD PTR [ebx-0x4]
  407858:	85 f6                	test   esi,esi
  40785a:	75 25                	jne    407881 <___mult_D2A+0x141>
  40785c:	8b 54 24 20          	mov    edx,DWORD PTR [esp+0x20]
  407860:	89 d0                	mov    eax,edx
  407862:	c1 e0 02             	shl    eax,0x2
  407865:	29 c3                	sub    ebx,eax
  407867:	89 d8                	mov    eax,ebx
  407869:	eb 0d                	jmp    407878 <___mult_D2A+0x138>
  40786b:	90                   	nop
  40786c:	8d 74 26 00          	lea    esi,[esi+eiz*1+0x0]
  407870:	8b 4c 90 fc          	mov    ecx,DWORD PTR [eax+edx*4-0x4]
  407874:	85 c9                	test   ecx,ecx
  407876:	75 05                	jne    40787d <___mult_D2A+0x13d>
  407878:	83 ea 01             	sub    edx,0x1
  40787b:	75 f3                	jne    407870 <___mult_D2A+0x130>
  40787d:	89 54 24 20          	mov    DWORD PTR [esp+0x20],edx
  407881:	8b 44 24 2c          	mov    eax,DWORD PTR [esp+0x2c]
  407885:	8b 5c 24 20          	mov    ebx,DWORD PTR [esp+0x20]
  407889:	89 58 10             	mov    DWORD PTR [eax+0x10],ebx
  40788c:	83 c4 3c             	add    esp,0x3c
  40788f:	5b                   	pop    ebx
  407890:	5e                   	pop    esi
  407891:	5f                   	pop    edi
  407892:	5d                   	pop    ebp
  407893:	c3                   	ret    
  407894:	31 c0                	xor    eax,eax
  407896:	eb f4                	jmp    40788c <___mult_D2A+0x14c>
  407898:	90                   	nop
  407899:	8d b4 26 00 00 00 00 	lea    esi,[esi+eiz*1+0x0]

004078a0 <___pow5mult_D2A>:
  4078a0:	55                   	push   ebp
  4078a1:	89 e5                	mov    ebp,esp
  4078a3:	57                   	push   edi
  4078a4:	56                   	push   esi
  4078a5:	53                   	push   ebx
  4078a6:	83 ec 1c             	sub    esp,0x1c
  4078a9:	8b 5d 0c             	mov    ebx,DWORD PTR [ebp+0xc]
  4078ac:	8b 55 08             	mov    edx,DWORD PTR [ebp+0x8]
  4078af:	89 d8                	mov    eax,ebx
  4078b1:	83 e0 03             	and    eax,0x3
  4078b4:	0f 85 9e 00 00 00    	jne    407958 <___pow5mult_D2A+0xb8>
  4078ba:	c1 fb 02             	sar    ebx,0x2
  4078bd:	89 d0                	mov    eax,edx
  4078bf:	85 db                	test   ebx,ebx
  4078c1:	74 4e                	je     407911 <___pow5mult_D2A+0x71>
  4078c3:	8b 3d 80 d0 40 00    	mov    edi,DWORD PTR ds:0x40d080
  4078c9:	85 ff                	test   edi,edi
  4078cb:	0f 84 d5 00 00 00    	je     4079a6 <___pow5mult_D2A+0x106>
  4078d1:	f6 c3 01             	test   bl,0x1
  4078d4:	75 13                	jne    4078e9 <___pow5mult_D2A+0x49>
  4078d6:	d1 fb                	sar    ebx,1
  4078d8:	74 35                	je     40790f <___pow5mult_D2A+0x6f>
  4078da:	8b 37                	mov    esi,DWORD PTR [edi]
  4078dc:	85 f6                	test   esi,esi
  4078de:	66 90                	xchg   ax,ax
  4078e0:	74 3e                	je     407920 <___pow5mult_D2A+0x80>
  4078e2:	89 f7                	mov    edi,esi
  4078e4:	f6 c3 01             	test   bl,0x1
  4078e7:	74 ed                	je     4078d6 <___pow5mult_D2A+0x36>
  4078e9:	89 7c 24 04          	mov    DWORD PTR [esp+0x4],edi
  4078ed:	89 14 24             	mov    DWORD PTR [esp],edx
  4078f0:	89 55 e4             	mov    DWORD PTR [ebp-0x1c],edx
  4078f3:	e8 48 fe ff ff       	call   407740 <___mult_D2A>
  4078f8:	85 c0                	test   eax,eax
  4078fa:	89 c6                	mov    esi,eax
  4078fc:	74 7f                	je     40797d <___pow5mult_D2A+0xdd>
  4078fe:	8b 55 e4             	mov    edx,DWORD PTR [ebp-0x1c]
  407901:	89 14 24             	mov    DWORD PTR [esp],edx
  407904:	e8 b7 fc ff ff       	call   4075c0 <___Bfree_D2A>
  407909:	d1 fb                	sar    ebx,1
  40790b:	89 f2                	mov    edx,esi
  40790d:	75 cb                	jne    4078da <___pow5mult_D2A+0x3a>
  40790f:	89 d0                	mov    eax,edx
  407911:	8d 65 f4             	lea    esp,[ebp-0xc]
  407914:	5b                   	pop    ebx
  407915:	5e                   	pop    esi
  407916:	5f                   	pop    edi
  407917:	5d                   	pop    ebp
  407918:	c3                   	ret    
  407919:	8d b4 26 00 00 00 00 	lea    esi,[esi+eiz*1+0x0]
  407920:	b8 01 00 00 00       	mov    eax,0x1
  407925:	89 55 e4             	mov    DWORD PTR [ebp-0x1c],edx
  407928:	e8 a3 fa ff ff       	call   4073d0 <_dtoa_lock>
  40792d:	8b 37                	mov    esi,DWORD PTR [edi]
  40792f:	8b 55 e4             	mov    edx,DWORD PTR [ebp-0x1c]
  407932:	85 f6                	test   esi,esi
  407934:	74 51                	je     407987 <___pow5mult_D2A+0xe7>
  407936:	83 3d c8 d9 40 00 02 	cmp    DWORD PTR ds:0x40d9c8,0x2
  40793d:	75 a3                	jne    4078e2 <___pow5mult_D2A+0x42>
  40793f:	c7 04 24 f8 d9 40 00 	mov    DWORD PTR [esp],0x40d9f8
  407946:	89 f7                	mov    edi,esi
  407948:	89 55 e4             	mov    DWORD PTR [ebp-0x1c],edx
  40794b:	e8 f8 06 00 00       	call   408048 <_LeaveCriticalSection@4>
  407950:	8b 55 e4             	mov    edx,DWORD PTR [ebp-0x1c]
  407953:	83 ec 04             	sub    esp,0x4
  407956:	eb 8c                	jmp    4078e4 <___pow5mult_D2A+0x44>
  407958:	8b 04 85 3c a3 40 00 	mov    eax,DWORD PTR [eax*4+0x40a33c]
  40795f:	89 14 24             	mov    DWORD PTR [esp],edx
  407962:	c7 44 24 08 00 00 00 	mov    DWORD PTR [esp+0x8],0x0
  407969:	00 
  40796a:	89 44 24 04          	mov    DWORD PTR [esp+0x4],eax
  40796e:	e8 bd fc ff ff       	call   407630 <___multadd_D2A>
  407973:	85 c0                	test   eax,eax
  407975:	89 c2                	mov    edx,eax
  407977:	0f 85 3d ff ff ff    	jne    4078ba <___pow5mult_D2A+0x1a>
  40797d:	31 c0                	xor    eax,eax
  40797f:	8d 65 f4             	lea    esp,[ebp-0xc]
  407982:	5b                   	pop    ebx
  407983:	5e                   	pop    esi
  407984:	5f                   	pop    edi
  407985:	5d                   	pop    ebp
  407986:	c3                   	ret    
  407987:	89 7c 24 04          	mov    DWORD PTR [esp+0x4],edi
  40798b:	89 3c 24             	mov    DWORD PTR [esp],edi
  40798e:	e8 ad fd ff ff       	call   407740 <___mult_D2A>
  407993:	85 c0                	test   eax,eax
  407995:	89 c6                	mov    esi,eax
  407997:	89 07                	mov    DWORD PTR [edi],eax
  407999:	74 e2                	je     40797d <___pow5mult_D2A+0xdd>
  40799b:	c7 00 00 00 00 00    	mov    DWORD PTR [eax],0x0
  4079a1:	8b 55 e4             	mov    edx,DWORD PTR [ebp-0x1c]
  4079a4:	eb 90                	jmp    407936 <___pow5mult_D2A+0x96>
  4079a6:	b8 01 00 00 00       	mov    eax,0x1
  4079ab:	89 55 e4             	mov    DWORD PTR [ebp-0x1c],edx
  4079ae:	e8 1d fa ff ff       	call   4073d0 <_dtoa_lock>
  4079b3:	8b 3d 80 d0 40 00    	mov    edi,DWORD PTR ds:0x40d080
  4079b9:	8b 55 e4             	mov    edx,DWORD PTR [ebp-0x1c]
  4079bc:	85 ff                	test   edi,edi
  4079be:	74 27                	je     4079e7 <___pow5mult_D2A+0x147>
  4079c0:	83 3d c8 d9 40 00 02 	cmp    DWORD PTR ds:0x40d9c8,0x2
  4079c7:	0f 85 04 ff ff ff    	jne    4078d1 <___pow5mult_D2A+0x31>
  4079cd:	c7 04 24 f8 d9 40 00 	mov    DWORD PTR [esp],0x40d9f8
  4079d4:	89 55 e4             	mov    DWORD PTR [ebp-0x1c],edx
  4079d7:	e8 6c 06 00 00       	call   408048 <_LeaveCriticalSection@4>
  4079dc:	8b 55 e4             	mov    edx,DWORD PTR [ebp-0x1c]
  4079df:	83 ec 04             	sub    esp,0x4
  4079e2:	e9 ea fe ff ff       	jmp    4078d1 <___pow5mult_D2A+0x31>
  4079e7:	c7 04 24 01 00 00 00 	mov    DWORD PTR [esp],0x1
  4079ee:	e8 fd fa ff ff       	call   4074f0 <___Balloc_D2A>
  4079f3:	85 c0                	test   eax,eax
  4079f5:	89 c7                	mov    edi,eax
  4079f7:	74 1e                	je     407a17 <___pow5mult_D2A+0x177>
  4079f9:	c7 40 14 71 02 00 00 	mov    DWORD PTR [eax+0x14],0x271
  407a00:	8b 55 e4             	mov    edx,DWORD PTR [ebp-0x1c]
  407a03:	c7 40 10 01 00 00 00 	mov    DWORD PTR [eax+0x10],0x1
  407a0a:	a3 80 d0 40 00       	mov    ds:0x40d080,eax
  407a0f:	c7 00 00 00 00 00    	mov    DWORD PTR [eax],0x0
  407a15:	eb a9                	jmp    4079c0 <___pow5mult_D2A+0x120>
  407a17:	c7 05 80 d0 40 00 00 	mov    DWORD PTR ds:0x40d080,0x0
  407a1e:	00 00 00 
  407a21:	31 c0                	xor    eax,eax
  407a23:	e9 57 ff ff ff       	jmp    40797f <___pow5mult_D2A+0xdf>
  407a28:	90                   	nop
  407a29:	8d b4 26 00 00 00 00 	lea    esi,[esi+eiz*1+0x0]

00407a30 <___lshift_D2A>:
  407a30:	55                   	push   ebp
  407a31:	57                   	push   edi
  407a32:	56                   	push   esi
  407a33:	53                   	push   ebx
  407a34:	83 ec 2c             	sub    esp,0x2c
  407a37:	8b 44 24 40          	mov    eax,DWORD PTR [esp+0x40]
  407a3b:	8b 74 24 44          	mov    esi,DWORD PTR [esp+0x44]
  407a3f:	89 c7                	mov    edi,eax
  407a41:	8b 50 04             	mov    edx,DWORD PTR [eax+0x4]
  407a44:	8b 40 10             	mov    eax,DWORD PTR [eax+0x10]
  407a47:	89 f3                	mov    ebx,esi
  407a49:	c1 fb 05             	sar    ebx,0x5
  407a4c:	01 d8                	add    eax,ebx
  407a4e:	8d 68 01             	lea    ebp,[eax+0x1]
  407a51:	89 44 24 18          	mov    DWORD PTR [esp+0x18],eax
  407a55:	8b 47 08             	mov    eax,DWORD PTR [edi+0x8]
  407a58:	39 c5                	cmp    ebp,eax
  407a5a:	7e 0d                	jle    407a69 <___lshift_D2A+0x39>
  407a5c:	8d 74 26 00          	lea    esi,[esi+eiz*1+0x0]
  407a60:	01 c0                	add    eax,eax
  407a62:	83 c2 01             	add    edx,0x1
  407a65:	39 c5                	cmp    ebp,eax
  407a67:	7f f7                	jg     407a60 <___lshift_D2A+0x30>
  407a69:	89 14 24             	mov    DWORD PTR [esp],edx
  407a6c:	e8 7f fa ff ff       	call   4074f0 <___Balloc_D2A>
  407a71:	85 c0                	test   eax,eax
  407a73:	89 44 24 14          	mov    DWORD PTR [esp+0x14],eax
  407a77:	0f 84 bc 00 00 00    	je     407b39 <___lshift_D2A+0x109>
  407a7d:	85 db                	test   ebx,ebx
  407a7f:	8d 50 14             	lea    edx,[eax+0x14]
  407a82:	7e 13                	jle    407a97 <___lshift_D2A+0x67>
  407a84:	31 c0                	xor    eax,eax
  407a86:	c7 04 82 00 00 00 00 	mov    DWORD PTR [edx+eax*4],0x0
  407a8d:	83 c0 01             	add    eax,0x1
  407a90:	39 d8                	cmp    eax,ebx
  407a92:	75 f2                	jne    407a86 <___lshift_D2A+0x56>
  407a94:	8d 14 82             	lea    edx,[edx+eax*4]
  407a97:	8b 7c 24 40          	mov    edi,DWORD PTR [esp+0x40]
  407a9b:	8b 44 24 40          	mov    eax,DWORD PTR [esp+0x40]
  407a9f:	8b 4f 10             	mov    ecx,DWORD PTR [edi+0x10]
  407aa2:	83 c0 14             	add    eax,0x14
  407aa5:	83 e6 1f             	and    esi,0x1f
  407aa8:	89 74 24 0c          	mov    DWORD PTR [esp+0xc],esi
  407aac:	8d 3c 88             	lea    edi,[eax+ecx*4]
  407aaf:	89 f9                	mov    ecx,edi
  407ab1:	74 72                	je     407b25 <___lshift_D2A+0xf5>
  407ab3:	c7 44 24 10 20 00 00 	mov    DWORD PTR [esp+0x10],0x20
  407aba:	00 
  407abb:	89 6c 24 1c          	mov    DWORD PTR [esp+0x1c],ebp
  407abf:	89 cd                	mov    ebp,ecx
  407ac1:	29 74 24 10          	sub    DWORD PTR [esp+0x10],esi
  407ac5:	31 f6                	xor    esi,esi
  407ac7:	eb 09                	jmp    407ad2 <___lshift_D2A+0xa2>
  407ac9:	8d b4 26 00 00 00 00 	lea    esi,[esi+eiz*1+0x0]
  407ad0:	89 fa                	mov    edx,edi
  407ad2:	8b 18                	mov    ebx,DWORD PTR [eax]
  407ad4:	83 c0 04             	add    eax,0x4
  407ad7:	0f b6 4c 24 0c       	movzx  ecx,BYTE PTR [esp+0xc]
  407adc:	8d 7a 04             	lea    edi,[edx+0x4]
  407adf:	d3 e3                	shl    ebx,cl
  407ae1:	0f b6 4c 24 10       	movzx  ecx,BYTE PTR [esp+0x10]
  407ae6:	09 f3                	or     ebx,esi
  407ae8:	89 1a                	mov    DWORD PTR [edx],ebx
  407aea:	8b 70 fc             	mov    esi,DWORD PTR [eax-0x4]
  407aed:	d3 ee                	shr    esi,cl
  407aef:	39 c5                	cmp    ebp,eax
  407af1:	77 dd                	ja     407ad0 <___lshift_D2A+0xa0>
  407af3:	85 f6                	test   esi,esi
  407af5:	8b 6c 24 1c          	mov    ebp,DWORD PTR [esp+0x1c]
  407af9:	89 72 04             	mov    DWORD PTR [edx+0x4],esi
  407afc:	74 07                	je     407b05 <___lshift_D2A+0xd5>
  407afe:	8b 6c 24 18          	mov    ebp,DWORD PTR [esp+0x18]
  407b02:	83 c5 02             	add    ebp,0x2
  407b05:	8b 7c 24 14          	mov    edi,DWORD PTR [esp+0x14]
  407b09:	8d 45 ff             	lea    eax,[ebp-0x1]
  407b0c:	89 47 10             	mov    DWORD PTR [edi+0x10],eax
  407b0f:	8b 44 24 40          	mov    eax,DWORD PTR [esp+0x40]
  407b13:	89 04 24             	mov    DWORD PTR [esp],eax
  407b16:	e8 a5 fa ff ff       	call   4075c0 <___Bfree_D2A>
  407b1b:	89 f8                	mov    eax,edi
  407b1d:	83 c4 2c             	add    esp,0x2c
  407b20:	5b                   	pop    ebx
  407b21:	5e                   	pop    esi
  407b22:	5f                   	pop    edi
  407b23:	5d                   	pop    ebp
  407b24:	c3                   	ret    
  407b25:	89 fb                	mov    ebx,edi
  407b27:	83 c0 04             	add    eax,0x4
  407b2a:	8b 48 fc             	mov    ecx,DWORD PTR [eax-0x4]
  407b2d:	83 c2 04             	add    edx,0x4
  407b30:	39 c3                	cmp    ebx,eax
  407b32:	89 4a fc             	mov    DWORD PTR [edx-0x4],ecx
  407b35:	77 f0                	ja     407b27 <___lshift_D2A+0xf7>
  407b37:	eb cc                	jmp    407b05 <___lshift_D2A+0xd5>
  407b39:	31 c0                	xor    eax,eax
  407b3b:	eb e0                	jmp    407b1d <___lshift_D2A+0xed>
  407b3d:	8d 76 00             	lea    esi,[esi+0x0]

00407b40 <___cmp_D2A>:
  407b40:	53                   	push   ebx
  407b41:	8b 4c 24 08          	mov    ecx,DWORD PTR [esp+0x8]
  407b45:	8b 54 24 0c          	mov    edx,DWORD PTR [esp+0xc]
  407b49:	8b 41 10             	mov    eax,DWORD PTR [ecx+0x10]
  407b4c:	8b 5a 10             	mov    ebx,DWORD PTR [edx+0x10]
  407b4f:	29 d8                	sub    eax,ebx
  407b51:	85 c0                	test   eax,eax
  407b53:	75 24                	jne    407b79 <___cmp_D2A+0x39>
  407b55:	c1 e3 02             	shl    ebx,0x2
  407b58:	83 c1 14             	add    ecx,0x14
  407b5b:	8d 04 19             	lea    eax,[ecx+ebx*1]
  407b5e:	8d 54 1a 14          	lea    edx,[edx+ebx*1+0x14]
  407b62:	eb 04                	jmp    407b68 <___cmp_D2A+0x28>
  407b64:	39 c1                	cmp    ecx,eax
  407b66:	73 18                	jae    407b80 <___cmp_D2A+0x40>
  407b68:	83 ea 04             	sub    edx,0x4
  407b6b:	83 e8 04             	sub    eax,0x4
  407b6e:	8b 1a                	mov    ebx,DWORD PTR [edx]
  407b70:	39 18                	cmp    DWORD PTR [eax],ebx
  407b72:	74 f0                	je     407b64 <___cmp_D2A+0x24>
  407b74:	19 c0                	sbb    eax,eax
  407b76:	83 c8 01             	or     eax,0x1
  407b79:	5b                   	pop    ebx
  407b7a:	c3                   	ret    
  407b7b:	90                   	nop
  407b7c:	8d 74 26 00          	lea    esi,[esi+eiz*1+0x0]
  407b80:	31 c0                	xor    eax,eax
  407b82:	5b                   	pop    ebx
  407b83:	c3                   	ret    
  407b84:	8d b6 00 00 00 00    	lea    esi,[esi+0x0]
  407b8a:	8d bf 00 00 00 00    	lea    edi,[edi+0x0]

00407b90 <___diff_D2A>:
  407b90:	55                   	push   ebp
  407b91:	57                   	push   edi
  407b92:	56                   	push   esi
  407b93:	53                   	push   ebx
  407b94:	83 ec 2c             	sub    esp,0x2c
  407b97:	8b 74 24 40          	mov    esi,DWORD PTR [esp+0x40]
  407b9b:	8b 5c 24 44          	mov    ebx,DWORD PTR [esp+0x44]
  407b9f:	89 34 24             	mov    DWORD PTR [esp],esi
  407ba2:	89 5c 24 04          	mov    DWORD PTR [esp+0x4],ebx
  407ba6:	e8 95 ff ff ff       	call   407b40 <___cmp_D2A>
  407bab:	85 c0                	test   eax,eax
  407bad:	0f 84 1f 01 00 00    	je     407cd2 <___diff_D2A+0x142>
  407bb3:	0f 88 3f 01 00 00    	js     407cf8 <___diff_D2A+0x168>
  407bb9:	31 ff                	xor    edi,edi
  407bbb:	8b 46 04             	mov    eax,DWORD PTR [esi+0x4]
  407bbe:	89 04 24             	mov    DWORD PTR [esp],eax
  407bc1:	e8 2a f9 ff ff       	call   4074f0 <___Balloc_D2A>
  407bc6:	85 c0                	test   eax,eax
  407bc8:	89 c2                	mov    edx,eax
  407bca:	89 44 24 1c          	mov    DWORD PTR [esp+0x1c],eax
  407bce:	0f 84 34 01 00 00    	je     407d08 <___diff_D2A+0x178>
  407bd4:	89 78 0c             	mov    DWORD PTR [eax+0xc],edi
  407bd7:	8b 46 10             	mov    eax,DWORD PTR [esi+0x10]
  407bda:	83 c6 14             	add    esi,0x14
  407bdd:	8d 6b 14             	lea    ebp,[ebx+0x14]
  407be0:	8d 7a 14             	lea    edi,[edx+0x14]
  407be3:	c7 44 24 08 00 00 00 	mov    DWORD PTR [esp+0x8],0x0
  407bea:	00 
  407beb:	89 44 24 18          	mov    DWORD PTR [esp+0x18],eax
  407bef:	8d 04 86             	lea    eax,[esi+eax*4]
  407bf2:	89 44 24 10          	mov    DWORD PTR [esp+0x10],eax
  407bf6:	8b 43 10             	mov    eax,DWORD PTR [ebx+0x10]
  407bf9:	c7 44 24 0c 00 00 00 	mov    DWORD PTR [esp+0xc],0x0
  407c00:	00 
  407c01:	8d 44 85 00          	lea    eax,[ebp+eax*4+0x0]
  407c05:	89 44 24 14          	mov    DWORD PTR [esp+0x14],eax
  407c09:	8d b4 26 00 00 00 00 	lea    esi,[esi+eiz*1+0x0]
  407c10:	83 c5 04             	add    ebp,0x4
  407c13:	83 c6 04             	add    esi,0x4
  407c16:	8b 4d fc             	mov    ecx,DWORD PTR [ebp-0x4]
  407c19:	8b 46 fc             	mov    eax,DWORD PTR [esi-0x4]
  407c1c:	31 d2                	xor    edx,edx
  407c1e:	31 db                	xor    ebx,ebx
  407c20:	29 c8                	sub    eax,ecx
  407c22:	19 da                	sbb    edx,ebx
  407c24:	2b 44 24 08          	sub    eax,DWORD PTR [esp+0x8]
  407c28:	1b 54 24 0c          	sbb    edx,DWORD PTR [esp+0xc]
  407c2c:	83 c7 04             	add    edi,0x4
  407c2f:	c7 44 24 0c 00 00 00 	mov    DWORD PTR [esp+0xc],0x0
  407c36:	00 
  407c37:	89 d1                	mov    ecx,edx
  407c39:	83 e1 01             	and    ecx,0x1
  407c3c:	39 6c 24 14          	cmp    DWORD PTR [esp+0x14],ebp
  407c40:	89 4c 24 08          	mov    DWORD PTR [esp+0x8],ecx
  407c44:	89 47 fc             	mov    DWORD PTR [edi-0x4],eax
  407c47:	77 c7                	ja     407c10 <___diff_D2A+0x80>
  407c49:	39 74 24 10          	cmp    DWORD PTR [esp+0x10],esi
  407c4d:	76 4b                	jbe    407c9a <___diff_D2A+0x10a>
  407c4f:	8b 5c 24 0c          	mov    ebx,DWORD PTR [esp+0xc]
  407c53:	8b 4c 24 08          	mov    ecx,DWORD PTR [esp+0x8]
  407c57:	89 7c 24 14          	mov    DWORD PTR [esp+0x14],edi
  407c5b:	89 74 24 08          	mov    DWORD PTR [esp+0x8],esi
  407c5f:	90                   	nop
  407c60:	83 c6 04             	add    esi,0x4
  407c63:	8b 46 fc             	mov    eax,DWORD PTR [esi-0x4]
  407c66:	31 d2                	xor    edx,edx
  407c68:	29 c8                	sub    eax,ecx
  407c6a:	19 da                	sbb    edx,ebx
  407c6c:	83 c7 04             	add    edi,0x4
  407c6f:	89 d5                	mov    ebp,edx
  407c71:	31 db                	xor    ebx,ebx
  407c73:	83 e5 01             	and    ebp,0x1
  407c76:	39 74 24 10          	cmp    DWORD PTR [esp+0x10],esi
  407c7a:	89 e9                	mov    ecx,ebp
  407c7c:	89 47 fc             	mov    DWORD PTR [edi-0x4],eax
  407c7f:	77 df                	ja     407c60 <___diff_D2A+0xd0>
  407c81:	8b 6c 24 08          	mov    ebp,DWORD PTR [esp+0x8]
  407c85:	8b 7c 24 10          	mov    edi,DWORD PTR [esp+0x10]
  407c89:	8b 5c 24 14          	mov    ebx,DWORD PTR [esp+0x14]
  407c8d:	f7 d5                	not    ebp
  407c8f:	8d 54 3d 00          	lea    edx,[ebp+edi*1+0x0]
  407c93:	c1 ea 02             	shr    edx,0x2
  407c96:	8d 7c 93 04          	lea    edi,[ebx+edx*4+0x4]
  407c9a:	85 c0                	test   eax,eax
  407c9c:	75 21                	jne    407cbf <___diff_D2A+0x12f>
  407c9e:	8b 54 24 18          	mov    edx,DWORD PTR [esp+0x18]
  407ca2:	89 d0                	mov    eax,edx
  407ca4:	c1 e0 02             	shl    eax,0x2
  407ca7:	29 c7                	sub    edi,eax
  407ca9:	89 d0                	mov    eax,edx
  407cab:	90                   	nop
  407cac:	8d 74 26 00          	lea    esi,[esi+eiz*1+0x0]
  407cb0:	83 e8 01             	sub    eax,0x1
  407cb3:	8b 6c 87 fc          	mov    ebp,DWORD PTR [edi+eax*4-0x4]
  407cb7:	85 ed                	test   ebp,ebp
  407cb9:	74 f5                	je     407cb0 <___diff_D2A+0x120>
  407cbb:	89 44 24 18          	mov    DWORD PTR [esp+0x18],eax
  407cbf:	8b 44 24 1c          	mov    eax,DWORD PTR [esp+0x1c]
  407cc3:	8b 54 24 18          	mov    edx,DWORD PTR [esp+0x18]
  407cc7:	89 50 10             	mov    DWORD PTR [eax+0x10],edx
  407cca:	83 c4 2c             	add    esp,0x2c
  407ccd:	5b                   	pop    ebx
  407cce:	5e                   	pop    esi
  407ccf:	5f                   	pop    edi
  407cd0:	5d                   	pop    ebp
  407cd1:	c3                   	ret    
  407cd2:	c7 04 24 00 00 00 00 	mov    DWORD PTR [esp],0x0
  407cd9:	e8 12 f8 ff ff       	call   4074f0 <___Balloc_D2A>
  407cde:	85 c0                	test   eax,eax
  407ce0:	74 26                	je     407d08 <___diff_D2A+0x178>
  407ce2:	c7 40 10 01 00 00 00 	mov    DWORD PTR [eax+0x10],0x1
  407ce9:	c7 40 14 00 00 00 00 	mov    DWORD PTR [eax+0x14],0x0
  407cf0:	83 c4 2c             	add    esp,0x2c
  407cf3:	5b                   	pop    ebx
  407cf4:	5e                   	pop    esi
  407cf5:	5f                   	pop    edi
  407cf6:	5d                   	pop    ebp
  407cf7:	c3                   	ret    
  407cf8:	89 f0                	mov    eax,esi
  407cfa:	bf 01 00 00 00       	mov    edi,0x1
  407cff:	89 de                	mov    esi,ebx
  407d01:	89 c3                	mov    ebx,eax
  407d03:	e9 b3 fe ff ff       	jmp    407bbb <___diff_D2A+0x2b>
  407d08:	31 c0                	xor    eax,eax
  407d0a:	eb be                	jmp    407cca <___diff_D2A+0x13a>
  407d0c:	8d 74 26 00          	lea    esi,[esi+eiz*1+0x0]

00407d10 <___b2d_D2A>:
  407d10:	55                   	push   ebp
  407d11:	b9 20 00 00 00       	mov    ecx,0x20
  407d16:	57                   	push   edi
  407d17:	56                   	push   esi
  407d18:	53                   	push   ebx
  407d19:	83 ec 14             	sub    esp,0x14
  407d1c:	8b 44 24 28          	mov    eax,DWORD PTR [esp+0x28]
  407d20:	8b 7c 24 2c          	mov    edi,DWORD PTR [esp+0x2c]
  407d24:	8d 58 14             	lea    ebx,[eax+0x14]
  407d27:	8b 40 10             	mov    eax,DWORD PTR [eax+0x10]
  407d2a:	8d 2c 83             	lea    ebp,[ebx+eax*4]
  407d2d:	8b 55 fc             	mov    edx,DWORD PTR [ebp-0x4]
  407d30:	8d 75 fc             	lea    esi,[ebp-0x4]
  407d33:	0f bd c2             	bsr    eax,edx
  407d36:	83 f0 1f             	xor    eax,0x1f
  407d39:	29 c1                	sub    ecx,eax
  407d3b:	83 f8 0a             	cmp    eax,0xa
  407d3e:	89 0f                	mov    DWORD PTR [edi],ecx
  407d40:	7f 3e                	jg     407d80 <___b2d_D2A+0x70>
  407d42:	b9 0b 00 00 00       	mov    ecx,0xb
  407d47:	89 d7                	mov    edi,edx
  407d49:	29 c1                	sub    ecx,eax
  407d4b:	d3 ef                	shr    edi,cl
  407d4d:	81 cf 00 00 f0 3f    	or     edi,0x3ff00000
  407d53:	89 7c 24 04          	mov    DWORD PTR [esp+0x4],edi
  407d57:	31 ff                	xor    edi,edi
  407d59:	39 f3                	cmp    ebx,esi
  407d5b:	c7 04 24 00 00 00 00 	mov    DWORD PTR [esp],0x0
  407d62:	73 05                	jae    407d69 <___b2d_D2A+0x59>
  407d64:	8b 7d f8             	mov    edi,DWORD PTR [ebp-0x8]
  407d67:	d3 ef                	shr    edi,cl
  407d69:	8d 48 15             	lea    ecx,[eax+0x15]
  407d6c:	d3 e2                	shl    edx,cl
  407d6e:	09 d7                	or     edi,edx
  407d70:	89 3c 24             	mov    DWORD PTR [esp],edi
  407d73:	dd 04 24             	fld    QWORD PTR [esp]
  407d76:	83 c4 14             	add    esp,0x14
  407d79:	5b                   	pop    ebx
  407d7a:	5e                   	pop    esi
  407d7b:	5f                   	pop    edi
  407d7c:	5d                   	pop    ebp
  407d7d:	c3                   	ret    
  407d7e:	66 90                	xchg   ax,ax
  407d80:	31 ff                	xor    edi,edi
  407d82:	39 f3                	cmp    ebx,esi
  407d84:	73 06                	jae    407d8c <___b2d_D2A+0x7c>
  407d86:	8b 7d f8             	mov    edi,DWORD PTR [ebp-0x8]
  407d89:	8d 75 f8             	lea    esi,[ebp-0x8]
  407d8c:	89 c1                	mov    ecx,eax
  407d8e:	83 e9 0b             	sub    ecx,0xb
  407d91:	89 4c 24 0c          	mov    DWORD PTR [esp+0xc],ecx
  407d95:	74 49                	je     407de0 <___b2d_D2A+0xd0>
  407d97:	0f b6 4c 24 0c       	movzx  ecx,BYTE PTR [esp+0xc]
  407d9c:	bd 2b 00 00 00       	mov    ebp,0x2b
  407da1:	29 c5                	sub    ebp,eax
  407da3:	89 f8                	mov    eax,edi
  407da5:	c7 04 24 00 00 00 00 	mov    DWORD PTR [esp],0x0
  407dac:	d3 e2                	shl    edx,cl
  407dae:	89 e9                	mov    ecx,ebp
  407db0:	d3 e8                	shr    eax,cl
  407db2:	81 ca 00 00 f0 3f    	or     edx,0x3ff00000
  407db8:	09 c2                	or     edx,eax
  407dba:	31 c0                	xor    eax,eax
  407dbc:	39 de                	cmp    esi,ebx
  407dbe:	89 54 24 04          	mov    DWORD PTR [esp+0x4],edx
  407dc2:	76 05                	jbe    407dc9 <___b2d_D2A+0xb9>
  407dc4:	8b 46 fc             	mov    eax,DWORD PTR [esi-0x4]
  407dc7:	d3 e8                	shr    eax,cl
  407dc9:	0f b6 4c 24 0c       	movzx  ecx,BYTE PTR [esp+0xc]
  407dce:	d3 e7                	shl    edi,cl
  407dd0:	09 f8                	or     eax,edi
  407dd2:	89 04 24             	mov    DWORD PTR [esp],eax
  407dd5:	dd 04 24             	fld    QWORD PTR [esp]
  407dd8:	83 c4 14             	add    esp,0x14
  407ddb:	5b                   	pop    ebx
  407ddc:	5e                   	pop    esi
  407ddd:	5f                   	pop    edi
  407dde:	5d                   	pop    ebp
  407ddf:	c3                   	ret    
  407de0:	81 ca 00 00 f0 3f    	or     edx,0x3ff00000
  407de6:	89 3c 24             	mov    DWORD PTR [esp],edi
  407de9:	89 54 24 04          	mov    DWORD PTR [esp+0x4],edx
  407ded:	dd 04 24             	fld    QWORD PTR [esp]
  407df0:	83 c4 14             	add    esp,0x14
  407df3:	5b                   	pop    ebx
  407df4:	5e                   	pop    esi
  407df5:	5f                   	pop    edi
  407df6:	5d                   	pop    ebp
  407df7:	c3                   	ret    
  407df8:	90                   	nop
  407df9:	8d b4 26 00 00 00 00 	lea    esi,[esi+eiz*1+0x0]

00407e00 <___d2b_D2A>:
  407e00:	55                   	push   ebp
  407e01:	57                   	push   edi
  407e02:	56                   	push   esi
  407e03:	53                   	push   ebx
  407e04:	83 ec 1c             	sub    esp,0x1c
  407e07:	dd 44 24 30          	fld    QWORD PTR [esp+0x30]
  407e0b:	c7 04 24 01 00 00 00 	mov    DWORD PTR [esp],0x1
  407e12:	dd 5c 24 08          	fstp   QWORD PTR [esp+0x8]
  407e16:	e8 d5 f6 ff ff       	call   4074f0 <___Balloc_D2A>
  407e1b:	85 c0                	test   eax,eax
  407e1d:	0f 84 c5 00 00 00    	je     407ee8 <___d2b_D2A+0xe8>
  407e23:	8b 54 24 0c          	mov    edx,DWORD PTR [esp+0xc]
  407e27:	89 d3                	mov    ebx,edx
  407e29:	81 e2 ff ff ff 7f    	and    edx,0x7fffffff
  407e2f:	c1 ea 14             	shr    edx,0x14
  407e32:	81 e3 ff ff 0f 00    	and    ebx,0xfffff
  407e38:	85 d2                	test   edx,edx
  407e3a:	74 06                	je     407e42 <___d2b_D2A+0x42>
  407e3c:	81 cb 00 00 10 00    	or     ebx,0x100000
  407e42:	8b 7c 24 08          	mov    edi,DWORD PTR [esp+0x8]
  407e46:	85 ff                	test   edi,edi
  407e48:	75 3e                	jne    407e88 <___d2b_D2A+0x88>
  407e4a:	f3 0f bc cb          	tzcnt  ecx,ebx
  407e4e:	d3 eb                	shr    ebx,cl
  407e50:	85 d2                	test   edx,edx
  407e52:	8d 71 20             	lea    esi,[ecx+0x20]
  407e55:	b9 01 00 00 00       	mov    ecx,0x1
  407e5a:	89 58 14             	mov    DWORD PTR [eax+0x14],ebx
  407e5d:	c7 40 10 01 00 00 00 	mov    DWORD PTR [eax+0x10],0x1
  407e64:	74 56                	je     407ebc <___d2b_D2A+0xbc>
  407e66:	8b 7c 24 38          	mov    edi,DWORD PTR [esp+0x38]
  407e6a:	8d 94 16 cd fb ff ff 	lea    edx,[esi+edx*1-0x433]
  407e71:	89 17                	mov    DWORD PTR [edi],edx
  407e73:	ba 35 00 00 00       	mov    edx,0x35
  407e78:	29 f2                	sub    edx,esi
  407e7a:	8b 74 24 3c          	mov    esi,DWORD PTR [esp+0x3c]
  407e7e:	89 16                	mov    DWORD PTR [esi],edx
  407e80:	83 c4 1c             	add    esp,0x1c
  407e83:	5b                   	pop    ebx
  407e84:	5e                   	pop    esi
  407e85:	5f                   	pop    edi
  407e86:	5d                   	pop    ebp
  407e87:	c3                   	ret    
  407e88:	f3 0f bc f7          	tzcnt  esi,edi
  407e8c:	89 f1                	mov    ecx,esi
  407e8e:	d3 ef                	shr    edi,cl
  407e90:	85 f6                	test   esi,esi
  407e92:	74 4f                	je     407ee3 <___d2b_D2A+0xe3>
  407e94:	b9 20 00 00 00       	mov    ecx,0x20
  407e99:	89 dd                	mov    ebp,ebx
  407e9b:	29 f1                	sub    ecx,esi
  407e9d:	d3 e5                	shl    ebp,cl
  407e9f:	89 e9                	mov    ecx,ebp
  407ea1:	09 f9                	or     ecx,edi
  407ea3:	89 48 14             	mov    DWORD PTR [eax+0x14],ecx
  407ea6:	89 f1                	mov    ecx,esi
  407ea8:	d3 eb                	shr    ebx,cl
  407eaa:	83 fb 01             	cmp    ebx,0x1
  407ead:	19 c9                	sbb    ecx,ecx
  407eaf:	83 c1 02             	add    ecx,0x2
  407eb2:	85 d2                	test   edx,edx
  407eb4:	89 58 18             	mov    DWORD PTR [eax+0x18],ebx
  407eb7:	89 48 10             	mov    DWORD PTR [eax+0x10],ecx
  407eba:	75 aa                	jne    407e66 <___d2b_D2A+0x66>
  407ebc:	8b 7c 24 38          	mov    edi,DWORD PTR [esp+0x38]
  407ec0:	81 ee 32 04 00 00    	sub    esi,0x432
  407ec6:	0f bd 54 88 10       	bsr    edx,DWORD PTR [eax+ecx*4+0x10]
  407ecb:	c1 e1 05             	shl    ecx,0x5
  407ece:	89 37                	mov    DWORD PTR [edi],esi
  407ed0:	8b 74 24 3c          	mov    esi,DWORD PTR [esp+0x3c]
  407ed4:	83 f2 1f             	xor    edx,0x1f
  407ed7:	29 d1                	sub    ecx,edx
  407ed9:	89 0e                	mov    DWORD PTR [esi],ecx
  407edb:	83 c4 1c             	add    esp,0x1c
  407ede:	5b                   	pop    ebx
  407edf:	5e                   	pop    esi
  407ee0:	5f                   	pop    edi
  407ee1:	5d                   	pop    ebp
  407ee2:	c3                   	ret    
  407ee3:	89 78 14             	mov    DWORD PTR [eax+0x14],edi
  407ee6:	eb c2                	jmp    407eaa <___d2b_D2A+0xaa>
  407ee8:	31 c0                	xor    eax,eax
  407eea:	eb 94                	jmp    407e80 <___d2b_D2A+0x80>
  407eec:	8d 74 26 00          	lea    esi,[esi+eiz*1+0x0]

00407ef0 <___strcp_D2A>:
  407ef0:	8b 4c 24 08          	mov    ecx,DWORD PTR [esp+0x8]
  407ef4:	8b 44 24 04          	mov    eax,DWORD PTR [esp+0x4]
  407ef8:	8d 51 01             	lea    edx,[ecx+0x1]
  407efb:	0f b6 09             	movzx  ecx,BYTE PTR [ecx]
  407efe:	84 c9                	test   cl,cl
  407f00:	88 08                	mov    BYTE PTR [eax],cl
  407f02:	74 10                	je     407f14 <___strcp_D2A+0x24>
  407f04:	83 c2 01             	add    edx,0x1
  407f07:	0f b6 4a ff          	movzx  ecx,BYTE PTR [edx-0x1]
  407f0b:	83 c0 01             	add    eax,0x1
  407f0e:	84 c9                	test   cl,cl
  407f10:	88 08                	mov    BYTE PTR [eax],cl
  407f12:	75 f0                	jne    407f04 <___strcp_D2A+0x14>
  407f14:	f3 c3                	repz ret 
  407f16:	90                   	nop
  407f17:	90                   	nop
  407f18:	90                   	nop
  407f19:	90                   	nop
  407f1a:	90                   	nop
  407f1b:	90                   	nop
  407f1c:	90                   	nop
  407f1d:	90                   	nop
  407f1e:	90                   	nop
  407f1f:	90                   	nop

00407f20 <_wcstombs>:
  407f20:	ff 25 30 e2 40 00    	jmp    DWORD PTR ds:0x40e230
  407f26:	90                   	nop
  407f27:	90                   	nop

00407f28 <_wcslen>:
  407f28:	ff 25 2c e2 40 00    	jmp    DWORD PTR ds:0x40e22c
  407f2e:	90                   	nop
  407f2f:	90                   	nop

00407f30 <_vfprintf>:
  407f30:	ff 25 28 e2 40 00    	jmp    DWORD PTR ds:0x40e228
  407f36:	90                   	nop
  407f37:	90                   	nop

00407f38 <_tolower>:
  407f38:	ff 25 24 e2 40 00    	jmp    DWORD PTR ds:0x40e224
  407f3e:	90                   	nop
  407f3f:	90                   	nop

00407f40 <_strlen>:
  407f40:	ff 25 20 e2 40 00    	jmp    DWORD PTR ds:0x40e220
  407f46:	90                   	nop
  407f47:	90                   	nop

00407f48 <_strcoll>:
  407f48:	ff 25 1c e2 40 00    	jmp    DWORD PTR ds:0x40e21c
  407f4e:	90                   	nop
  407f4f:	90                   	nop

00407f50 <_strchr>:
  407f50:	ff 25 18 e2 40 00    	jmp    DWORD PTR ds:0x40e218
  407f56:	90                   	nop
  407f57:	90                   	nop

00407f58 <_signal>:
  407f58:	ff 25 14 e2 40 00    	jmp    DWORD PTR ds:0x40e214
  407f5e:	90                   	nop
  407f5f:	90                   	nop

00407f60 <_setlocale>:
  407f60:	ff 25 10 e2 40 00    	jmp    DWORD PTR ds:0x40e210
  407f66:	90                   	nop
  407f67:	90                   	nop

00407f68 <_realloc>:
  407f68:	ff 25 0c e2 40 00    	jmp    DWORD PTR ds:0x40e20c
  407f6e:	90                   	nop
  407f6f:	90                   	nop

00407f70 <_printf>:
  407f70:	ff 25 08 e2 40 00    	jmp    DWORD PTR ds:0x40e208
  407f76:	90                   	nop
  407f77:	90                   	nop

00407f78 <_memcpy>:
  407f78:	ff 25 04 e2 40 00    	jmp    DWORD PTR ds:0x40e204
  407f7e:	90                   	nop
  407f7f:	90                   	nop

00407f80 <_mbstowcs>:
  407f80:	ff 25 00 e2 40 00    	jmp    DWORD PTR ds:0x40e200
  407f86:	90                   	nop
  407f87:	90                   	nop

00407f88 <_malloc>:
  407f88:	ff 25 fc e1 40 00    	jmp    DWORD PTR ds:0x40e1fc
  407f8e:	90                   	nop
  407f8f:	90                   	nop

00407f90 <_localeconv>:
  407f90:	ff 25 f8 e1 40 00    	jmp    DWORD PTR ds:0x40e1f8
  407f96:	90                   	nop
  407f97:	90                   	nop

00407f98 <_isspace>:
  407f98:	ff 25 f4 e1 40 00    	jmp    DWORD PTR ds:0x40e1f4
  407f9e:	90                   	nop
  407f9f:	90                   	nop

00407fa0 <_getenv>:
  407fa0:	ff 25 f0 e1 40 00    	jmp    DWORD PTR ds:0x40e1f0
  407fa6:	90                   	nop
  407fa7:	90                   	nop

00407fa8 <_fwrite>:
  407fa8:	ff 25 ec e1 40 00    	jmp    DWORD PTR ds:0x40e1ec
  407fae:	90                   	nop
  407faf:	90                   	nop

00407fb0 <_free>:
  407fb0:	ff 25 e8 e1 40 00    	jmp    DWORD PTR ds:0x40e1e8
  407fb6:	90                   	nop
  407fb7:	90                   	nop

00407fb8 <_fputc>:
  407fb8:	ff 25 e4 e1 40 00    	jmp    DWORD PTR ds:0x40e1e4
  407fbe:	90                   	nop
  407fbf:	90                   	nop

00407fc0 <_calloc>:
  407fc0:	ff 25 e0 e1 40 00    	jmp    DWORD PTR ds:0x40e1e0
  407fc6:	90                   	nop
  407fc7:	90                   	nop

00407fc8 <_atoi>:
  407fc8:	ff 25 dc e1 40 00    	jmp    DWORD PTR ds:0x40e1dc
  407fce:	90                   	nop
  407fcf:	90                   	nop

00407fd0 <_abort>:
  407fd0:	ff 25 d4 e1 40 00    	jmp    DWORD PTR ds:0x40e1d4
  407fd6:	90                   	nop
  407fd7:	90                   	nop

00407fd8 <__setmode>:
  407fd8:	ff 25 d0 e1 40 00    	jmp    DWORD PTR ds:0x40e1d0
  407fde:	90                   	nop
  407fdf:	90                   	nop

00407fe0 <__fullpath>:
  407fe0:	ff 25 c4 e1 40 00    	jmp    DWORD PTR ds:0x40e1c4
  407fe6:	90                   	nop
  407fe7:	90                   	nop

00407fe8 <__errno>:
  407fe8:	ff 25 c0 e1 40 00    	jmp    DWORD PTR ds:0x40e1c0
  407fee:	90                   	nop
  407fef:	90                   	nop

00407ff0 <__cexit>:
  407ff0:	ff 25 bc e1 40 00    	jmp    DWORD PTR ds:0x40e1bc
  407ff6:	90                   	nop
  407ff7:	90                   	nop

00407ff8 <___p__fmode>:
  407ff8:	ff 25 b4 e1 40 00    	jmp    DWORD PTR ds:0x40e1b4
  407ffe:	90                   	nop
  407fff:	90                   	nop

00408000 <___p__environ>:
  408000:	ff 25 b0 e1 40 00    	jmp    DWORD PTR ds:0x40e1b0
  408006:	90                   	nop
  408007:	90                   	nop

00408008 <___getmainargs>:
  408008:	ff 25 a8 e1 40 00    	jmp    DWORD PTR ds:0x40e1a8
  40800e:	90                   	nop
  40800f:	90                   	nop

00408010 <_WideCharToMultiByte@32>:
  408010:	ff 25 94 e1 40 00    	jmp    DWORD PTR ds:0x40e194
  408016:	90                   	nop
  408017:	90                   	nop

00408018 <_VirtualQuery@12>:
  408018:	ff 25 90 e1 40 00    	jmp    DWORD PTR ds:0x40e190
  40801e:	90                   	nop
  40801f:	90                   	nop

00408020 <_VirtualProtect@16>:
  408020:	ff 25 8c e1 40 00    	jmp    DWORD PTR ds:0x40e18c
  408026:	90                   	nop
  408027:	90                   	nop

00408028 <_TlsGetValue@4>:
  408028:	ff 25 88 e1 40 00    	jmp    DWORD PTR ds:0x40e188
  40802e:	90                   	nop
  40802f:	90                   	nop

00408030 <_Sleep@4>:
  408030:	ff 25 84 e1 40 00    	jmp    DWORD PTR ds:0x40e184
  408036:	90                   	nop
  408037:	90                   	nop

00408038 <_SetUnhandledExceptionFilter@4>:
  408038:	ff 25 80 e1 40 00    	jmp    DWORD PTR ds:0x40e180
  40803e:	90                   	nop
  40803f:	90                   	nop

00408040 <_MultiByteToWideChar@24>:
  408040:	ff 25 7c e1 40 00    	jmp    DWORD PTR ds:0x40e17c
  408046:	90                   	nop
  408047:	90                   	nop

00408048 <_LeaveCriticalSection@4>:
  408048:	ff 25 78 e1 40 00    	jmp    DWORD PTR ds:0x40e178
  40804e:	90                   	nop
  40804f:	90                   	nop

00408050 <_IsDBCSLeadByteEx@8>:
  408050:	ff 25 74 e1 40 00    	jmp    DWORD PTR ds:0x40e174
  408056:	90                   	nop
  408057:	90                   	nop

00408058 <_InterlockedExchange@8>:
  408058:	ff 25 70 e1 40 00    	jmp    DWORD PTR ds:0x40e170
  40805e:	90                   	nop
  40805f:	90                   	nop

00408060 <_InitializeCriticalSection@4>:
  408060:	ff 25 6c e1 40 00    	jmp    DWORD PTR ds:0x40e16c
  408066:	90                   	nop
  408067:	90                   	nop

00408068 <_GetProcAddress@8>:
  408068:	ff 25 68 e1 40 00    	jmp    DWORD PTR ds:0x40e168
  40806e:	90                   	nop
  40806f:	90                   	nop

00408070 <_GetModuleHandleA@4>:
  408070:	ff 25 64 e1 40 00    	jmp    DWORD PTR ds:0x40e164
  408076:	90                   	nop
  408077:	90                   	nop

00408078 <_GetLastError@0>:
  408078:	ff 25 60 e1 40 00    	jmp    DWORD PTR ds:0x40e160
  40807e:	90                   	nop
  40807f:	90                   	nop

00408080 <_GetCommandLineA@0>:
  408080:	ff 25 5c e1 40 00    	jmp    DWORD PTR ds:0x40e15c
  408086:	90                   	nop
  408087:	90                   	nop

00408088 <_FindNextFileA@8>:
  408088:	ff 25 58 e1 40 00    	jmp    DWORD PTR ds:0x40e158
  40808e:	90                   	nop
  40808f:	90                   	nop

00408090 <_FindFirstFileA@8>:
  408090:	ff 25 54 e1 40 00    	jmp    DWORD PTR ds:0x40e154
  408096:	90                   	nop
  408097:	90                   	nop

00408098 <_FindClose@4>:
  408098:	ff 25 50 e1 40 00    	jmp    DWORD PTR ds:0x40e150
  40809e:	90                   	nop
  40809f:	90                   	nop

004080a0 <_ExitProcess@4>:
  4080a0:	ff 25 4c e1 40 00    	jmp    DWORD PTR ds:0x40e14c
  4080a6:	90                   	nop
  4080a7:	90                   	nop

004080a8 <_EnterCriticalSection@4>:
  4080a8:	ff 25 48 e1 40 00    	jmp    DWORD PTR ds:0x40e148
  4080ae:	90                   	nop
  4080af:	90                   	nop

004080b0 <_DeleteCriticalSection@4>:
  4080b0:	ff 25 44 e1 40 00    	jmp    DWORD PTR ds:0x40e144
  4080b6:	90                   	nop
  4080b7:	90                   	nop

004080b8 <.text>:
  4080b8:	66 90                	xchg   ax,ax
  4080ba:	66 90                	xchg   ax,ax
  4080bc:	66 90                	xchg   ax,ax
  4080be:	66 90                	xchg   ax,ax

004080c0 <___udivdi3>:
  4080c0:	55                   	push   ebp
  4080c1:	57                   	push   edi
  4080c2:	56                   	push   esi
  4080c3:	53                   	push   ebx
  4080c4:	83 ec 14             	sub    esp,0x14
  4080c7:	8b 74 24 34          	mov    esi,DWORD PTR [esp+0x34]
  4080cb:	8b 7c 24 28          	mov    edi,DWORD PTR [esp+0x28]
  4080cf:	8b 6c 24 2c          	mov    ebp,DWORD PTR [esp+0x2c]
  4080d3:	8b 4c 24 30          	mov    ecx,DWORD PTR [esp+0x30]
  4080d7:	85 f6                	test   esi,esi
  4080d9:	89 3c 24             	mov    DWORD PTR [esp],edi
  4080dc:	89 e8                	mov    eax,ebp
  4080de:	89 ca                	mov    edx,ecx
  4080e0:	75 2e                	jne    408110 <___udivdi3+0x50>
  4080e2:	39 e9                	cmp    ecx,ebp
  4080e4:	77 5c                	ja     408142 <___udivdi3+0x82>
  4080e6:	85 c9                	test   ecx,ecx
  4080e8:	89 cb                	mov    ebx,ecx
  4080ea:	75 0b                	jne    4080f7 <___udivdi3+0x37>
  4080ec:	b8 01 00 00 00       	mov    eax,0x1
  4080f1:	31 d2                	xor    edx,edx
  4080f3:	f7 f1                	div    ecx
  4080f5:	89 c3                	mov    ebx,eax
  4080f7:	89 e8                	mov    eax,ebp
  4080f9:	31 d2                	xor    edx,edx
  4080fb:	f7 f3                	div    ebx
  4080fd:	89 c5                	mov    ebp,eax
  4080ff:	89 f8                	mov    eax,edi
  408101:	f7 f3                	div    ebx
  408103:	89 ea                	mov    edx,ebp
  408105:	83 c4 14             	add    esp,0x14
  408108:	5b                   	pop    ebx
  408109:	5e                   	pop    esi
  40810a:	5f                   	pop    edi
  40810b:	5d                   	pop    ebp
  40810c:	c3                   	ret    
  40810d:	8d 76 00             	lea    esi,[esi+0x0]
  408110:	39 ee                	cmp    esi,ebp
  408112:	77 22                	ja     408136 <___udivdi3+0x76>
  408114:	0f bd de             	bsr    ebx,esi
  408117:	83 f3 1f             	xor    ebx,0x1f
  40811a:	75 36                	jne    408152 <___udivdi3+0x92>
  40811c:	3b 0c 24             	cmp    ecx,DWORD PTR [esp]
  40811f:	ba 00 00 00 00       	mov    edx,0x0
  408124:	0f 86 86 00 00 00    	jbe    4081b0 <___udivdi3+0xf0>
  40812a:	39 ee                	cmp    esi,ebp
  40812c:	0f 82 7e 00 00 00    	jb     4081b0 <___udivdi3+0xf0>
  408132:	31 c0                	xor    eax,eax
  408134:	eb cf                	jmp    408105 <___udivdi3+0x45>
  408136:	31 d2                	xor    edx,edx
  408138:	31 c0                	xor    eax,eax
  40813a:	83 c4 14             	add    esp,0x14
  40813d:	5b                   	pop    ebx
  40813e:	5e                   	pop    esi
  40813f:	5f                   	pop    edi
  408140:	5d                   	pop    ebp
  408141:	c3                   	ret    
  408142:	89 f8                	mov    eax,edi
  408144:	89 ea                	mov    edx,ebp
  408146:	f7 f1                	div    ecx
  408148:	31 d2                	xor    edx,edx
  40814a:	83 c4 14             	add    esp,0x14
  40814d:	5b                   	pop    ebx
  40814e:	5e                   	pop    esi
  40814f:	5f                   	pop    edi
  408150:	5d                   	pop    ebp
  408151:	c3                   	ret    
  408152:	bf 20 00 00 00       	mov    edi,0x20
  408157:	89 d9                	mov    ecx,ebx
  408159:	29 df                	sub    edi,ebx
  40815b:	89 d5                	mov    ebp,edx
  40815d:	d3 e6                	shl    esi,cl
  40815f:	89 f9                	mov    ecx,edi
  408161:	d3 ed                	shr    ebp,cl
  408163:	89 d9                	mov    ecx,ebx
  408165:	d3 e2                	shl    edx,cl
  408167:	09 f5                	or     ebp,esi
  408169:	89 54 24 04          	mov    DWORD PTR [esp+0x4],edx
  40816d:	8b 14 24             	mov    edx,DWORD PTR [esp]
  408170:	89 f9                	mov    ecx,edi
  408172:	89 c6                	mov    esi,eax
  408174:	d3 ee                	shr    esi,cl
  408176:	89 d9                	mov    ecx,ebx
  408178:	d3 e0                	shl    eax,cl
  40817a:	89 f9                	mov    ecx,edi
  40817c:	d3 ea                	shr    edx,cl
  40817e:	89 d7                	mov    edi,edx
  408180:	89 f2                	mov    edx,esi
  408182:	09 c7                	or     edi,eax
  408184:	89 f8                	mov    eax,edi
  408186:	f7 f5                	div    ebp
  408188:	89 d6                	mov    esi,edx
  40818a:	89 c7                	mov    edi,eax
  40818c:	f7 64 24 04          	mul    DWORD PTR [esp+0x4]
  408190:	39 d6                	cmp    esi,edx
  408192:	72 2c                	jb     4081c0 <___udivdi3+0x100>
  408194:	8b 2c 24             	mov    ebp,DWORD PTR [esp]
  408197:	89 d9                	mov    ecx,ebx
  408199:	d3 e5                	shl    ebp,cl
  40819b:	39 c5                	cmp    ebp,eax
  40819d:	73 04                	jae    4081a3 <___udivdi3+0xe3>
  40819f:	39 d6                	cmp    esi,edx
  4081a1:	74 1d                	je     4081c0 <___udivdi3+0x100>
  4081a3:	89 f8                	mov    eax,edi
  4081a5:	31 d2                	xor    edx,edx
  4081a7:	e9 59 ff ff ff       	jmp    408105 <___udivdi3+0x45>
  4081ac:	8d 74 26 00          	lea    esi,[esi+eiz*1+0x0]
  4081b0:	b8 01 00 00 00       	mov    eax,0x1
  4081b5:	e9 4b ff ff ff       	jmp    408105 <___udivdi3+0x45>
  4081ba:	8d b6 00 00 00 00    	lea    esi,[esi+0x0]
  4081c0:	8d 47 ff             	lea    eax,[edi-0x1]
  4081c3:	31 d2                	xor    edx,edx
  4081c5:	83 c4 14             	add    esp,0x14
  4081c8:	5b                   	pop    ebx
  4081c9:	5e                   	pop    esi
  4081ca:	5f                   	pop    edi
  4081cb:	5d                   	pop    ebp
  4081cc:	c3                   	ret    
  4081cd:	90                   	nop
  4081ce:	90                   	nop
  4081cf:	90                   	nop

004081d0 <___umoddi3>:
  4081d0:	55                   	push   ebp
  4081d1:	57                   	push   edi
  4081d2:	56                   	push   esi
  4081d3:	53                   	push   ebx
  4081d4:	83 ec 1c             	sub    esp,0x1c
  4081d7:	8b 44 24 3c          	mov    eax,DWORD PTR [esp+0x3c]
  4081db:	8b 4c 24 30          	mov    ecx,DWORD PTR [esp+0x30]
  4081df:	8b 6c 24 34          	mov    ebp,DWORD PTR [esp+0x34]
  4081e3:	8b 5c 24 38          	mov    ebx,DWORD PTR [esp+0x38]
  4081e7:	85 c0                	test   eax,eax
  4081e9:	89 c2                	mov    edx,eax
  4081eb:	89 4c 24 0c          	mov    DWORD PTR [esp+0xc],ecx
  4081ef:	89 ee                	mov    esi,ebp
  4081f1:	89 1c 24             	mov    DWORD PTR [esp],ebx
  4081f4:	89 4c 24 04          	mov    DWORD PTR [esp+0x4],ecx
  4081f8:	89 6c 24 08          	mov    DWORD PTR [esp+0x8],ebp
  4081fc:	75 16                	jne    408214 <___umoddi3+0x44>
  4081fe:	39 eb                	cmp    ebx,ebp
  408200:	76 4e                	jbe    408250 <___umoddi3+0x80>
  408202:	89 c8                	mov    eax,ecx
  408204:	89 ea                	mov    edx,ebp
  408206:	f7 f3                	div    ebx
  408208:	89 d0                	mov    eax,edx
  40820a:	31 d2                	xor    edx,edx
  40820c:	83 c4 1c             	add    esp,0x1c
  40820f:	5b                   	pop    ebx
  408210:	5e                   	pop    esi
  408211:	5f                   	pop    edi
  408212:	5d                   	pop    ebp
  408213:	c3                   	ret    
  408214:	39 e8                	cmp    eax,ebp
  408216:	77 58                	ja     408270 <___umoddi3+0xa0>
  408218:	0f bd f8             	bsr    edi,eax
  40821b:	83 f7 1f             	xor    edi,0x1f
  40821e:	75 60                	jne    408280 <___umoddi3+0xb0>
  408220:	8b 7c 24 04          	mov    edi,DWORD PTR [esp+0x4]
  408224:	39 3c 24             	cmp    DWORD PTR [esp],edi
  408227:	0f 87 e4 00 00 00    	ja     408311 <___umoddi3+0x141>
  40822d:	89 ef                	mov    edi,ebp
  40822f:	89 ce                	mov    esi,ecx
  408231:	29 de                	sub    esi,ebx
  408233:	19 c7                	sbb    edi,eax
  408235:	89 74 24 04          	mov    DWORD PTR [esp+0x4],esi
  408239:	89 7c 24 08          	mov    DWORD PTR [esp+0x8],edi
  40823d:	8b 44 24 04          	mov    eax,DWORD PTR [esp+0x4]
  408241:	8b 54 24 08          	mov    edx,DWORD PTR [esp+0x8]
  408245:	83 c4 1c             	add    esp,0x1c
  408248:	5b                   	pop    ebx
  408249:	5e                   	pop    esi
  40824a:	5f                   	pop    edi
  40824b:	5d                   	pop    ebp
  40824c:	c3                   	ret    
  40824d:	8d 76 00             	lea    esi,[esi+0x0]
  408250:	85 db                	test   ebx,ebx
  408252:	89 df                	mov    edi,ebx
  408254:	75 0b                	jne    408261 <___umoddi3+0x91>
  408256:	b8 01 00 00 00       	mov    eax,0x1
  40825b:	31 d2                	xor    edx,edx
  40825d:	f7 f3                	div    ebx
  40825f:	89 c7                	mov    edi,eax
  408261:	89 e8                	mov    eax,ebp
  408263:	31 d2                	xor    edx,edx
  408265:	f7 f7                	div    edi
  408267:	89 c8                	mov    eax,ecx
  408269:	f7 f7                	div    edi
  40826b:	eb 9b                	jmp    408208 <___umoddi3+0x38>
  40826d:	8d 76 00             	lea    esi,[esi+0x0]
  408270:	89 c8                	mov    eax,ecx
  408272:	89 ea                	mov    edx,ebp
  408274:	83 c4 1c             	add    esp,0x1c
  408277:	5b                   	pop    ebx
  408278:	5e                   	pop    esi
  408279:	5f                   	pop    edi
  40827a:	5d                   	pop    ebp
  40827b:	c3                   	ret    
  40827c:	8d 74 26 00          	lea    esi,[esi+eiz*1+0x0]
  408280:	8b 2c 24             	mov    ebp,DWORD PTR [esp]
  408283:	bb 20 00 00 00       	mov    ebx,0x20
  408288:	89 f9                	mov    ecx,edi
  40828a:	29 fb                	sub    ebx,edi
  40828c:	d3 e2                	shl    edx,cl
  40828e:	89 d9                	mov    ecx,ebx
  408290:	89 e8                	mov    eax,ebp
  408292:	d3 e8                	shr    eax,cl
  408294:	89 f9                	mov    ecx,edi
  408296:	89 04 24             	mov    DWORD PTR [esp],eax
  408299:	89 e8                	mov    eax,ebp
  40829b:	d3 e0                	shl    eax,cl
  40829d:	89 d9                	mov    ecx,ebx
  40829f:	89 c5                	mov    ebp,eax
  4082a1:	89 44 24 08          	mov    DWORD PTR [esp+0x8],eax
  4082a5:	8b 44 24 0c          	mov    eax,DWORD PTR [esp+0xc]
  4082a9:	09 14 24             	or     DWORD PTR [esp],edx
  4082ac:	89 f2                	mov    edx,esi
  4082ae:	d3 ea                	shr    edx,cl
  4082b0:	89 f9                	mov    ecx,edi
  4082b2:	d3 e6                	shl    esi,cl
  4082b4:	89 d9                	mov    ecx,ebx
  4082b6:	d3 e8                	shr    eax,cl
  4082b8:	89 f9                	mov    ecx,edi
  4082ba:	09 f0                	or     eax,esi
  4082bc:	8b 74 24 0c          	mov    esi,DWORD PTR [esp+0xc]
  4082c0:	f7 34 24             	div    DWORD PTR [esp]
  4082c3:	d3 e6                	shl    esi,cl
  4082c5:	89 74 24 04          	mov    DWORD PTR [esp+0x4],esi
  4082c9:	89 d6                	mov    esi,edx
  4082cb:	f7 e5                	mul    ebp
  4082cd:	39 d6                	cmp    esi,edx
  4082cf:	89 c1                	mov    ecx,eax
  4082d1:	89 d5                	mov    ebp,edx
  4082d3:	72 2f                	jb     408304 <___umoddi3+0x134>
  4082d5:	39 44 24 04          	cmp    DWORD PTR [esp+0x4],eax
  4082d9:	72 25                	jb     408300 <___umoddi3+0x130>
  4082db:	8b 44 24 04          	mov    eax,DWORD PTR [esp+0x4]
  4082df:	29 c8                	sub    eax,ecx
  4082e1:	19 ee                	sbb    esi,ebp
  4082e3:	89 f9                	mov    ecx,edi
  4082e5:	89 f2                	mov    edx,esi
  4082e7:	d3 e8                	shr    eax,cl
  4082e9:	89 d9                	mov    ecx,ebx
  4082eb:	d3 e2                	shl    edx,cl
  4082ed:	89 f9                	mov    ecx,edi
  4082ef:	d3 ee                	shr    esi,cl
  4082f1:	09 d0                	or     eax,edx
  4082f3:	89 f2                	mov    edx,esi
  4082f5:	83 c4 1c             	add    esp,0x1c
  4082f8:	5b                   	pop    ebx
  4082f9:	5e                   	pop    esi
  4082fa:	5f                   	pop    edi
  4082fb:	5d                   	pop    ebp
  4082fc:	c3                   	ret    
  4082fd:	8d 76 00             	lea    esi,[esi+0x0]
  408300:	39 d6                	cmp    esi,edx
  408302:	75 d7                	jne    4082db <___umoddi3+0x10b>
  408304:	89 d5                	mov    ebp,edx
  408306:	89 c1                	mov    ecx,eax
  408308:	2b 4c 24 08          	sub    ecx,DWORD PTR [esp+0x8]
  40830c:	1b 2c 24             	sbb    ebp,DWORD PTR [esp]
  40830f:	eb ca                	jmp    4082db <___umoddi3+0x10b>
  408311:	3b 44 24 08          	cmp    eax,DWORD PTR [esp+0x8]
  408315:	0f 82 12 ff ff ff    	jb     40822d <___umoddi3+0x5d>
  40831b:	e9 1d ff ff ff       	jmp    40823d <___umoddi3+0x6d>

00408320 <_stricoll>:
  408320:	ff 25 a0 e1 40 00    	jmp    DWORD PTR ds:0x40e1a0
  408326:	90                   	nop
  408327:	90                   	nop

00408328 <_strdup>:
  408328:	ff 25 9c e1 40 00    	jmp    DWORD PTR ds:0x40e19c
  40832e:	90                   	nop
  40832f:	90                   	nop

00408330 <_register_frame_ctor>:
  408330:	55                   	push   ebp
  408331:	89 e5                	mov    ebp,esp
  408333:	83 ec 18             	sub    esp,0x18
  408336:	e8 c5 8f ff ff       	call   401300 <___gcc_register_frame>
  40833b:	c7 04 24 90 13 40 00 	mov    DWORD PTR [esp],0x401390
  408342:	e8 99 8f ff ff       	call   4012e0 <_atexit>
  408347:	c9                   	leave  
  408348:	c3                   	ret    
  408349:	90                   	nop
  40834a:	90                   	nop
  40834b:	90                   	nop
  40834c:	90                   	nop
  40834d:	90                   	nop
  40834e:	90                   	nop
  40834f:	90                   	nop

00408350 <__CTOR_LIST__>:
  408350:	ff                   	(bad)  
  408351:	ff                   	(bad)  
  408352:	ff                   	(bad)  
  408353:	ff 30                	push   DWORD PTR [eax]

00408354 <.ctors.65535>:
  408354:	30 83 40 00 00 00    	xor    BYTE PTR [ebx+0x40],al
	...

0040835c <__DTOR_LIST__>:
  40835c:	ff                   	(bad)  
  40835d:	ff                   	(bad)  
  40835e:	ff                   	(bad)  
  40835f:	ff 00                	inc    DWORD PTR [eax]
  408361:	00 00                	add    BYTE PTR [eax],al
	...

Disassembly of section .data:

00409000 <__CRT_glob>:
  409000:	02 00                	add    al,BYTE PTR [eax]
	...

00409004 <__fmode>:
  409004:	00 40 00             	add    BYTE PTR [eax+0x0],al
	...

00409008 <_p.1784>:
  409008:	60                   	pusha  
  409009:	83 40 00 40          	add    DWORD PTR [eax+0x0],0x40

0040900c <_fpi.3794>:
  40900c:	40                   	inc    eax
  40900d:	00 00                	add    BYTE PTR [eax],al
  40900f:	00 c3                	add    bl,al
  409011:	bf ff ff c0 3f       	mov    edi,0x3fc0ffff
  409016:	00 00                	add    BYTE PTR [eax],al
  409018:	01 00                	add    DWORD PTR [eax],eax
  40901a:	00 00                	add    BYTE PTR [eax],al
  40901c:	00 00                	add    BYTE PTR [eax],al
	...

00409020 <_pmem_next>:
  409020:	a0 d0 40 00 00       	mov    al,ds:0x40d0

00409024 <___JCR_END__>:
  409024:	00 00                	add    BYTE PTR [eax],al
	...

Disassembly of section .rdata:

0040a000 <.rdata>:
  40a000:	6c                   	ins    BYTE PTR es:[edi],dx
  40a001:	69 62 67 63 63 5f 73 	imul   esp,DWORD PTR [edx+0x67],0x735f6363
  40a008:	5f                   	pop    edi
  40a009:	64 77 32             	fs ja  40a03e <.rdata+0x3e>
  40a00c:	2d 31 2e 64 6c       	sub    eax,0x6c642e31
  40a011:	6c                   	ins    BYTE PTR es:[edi],dx
  40a012:	00 5f 5f             	add    BYTE PTR [edi+0x5f],bl
  40a015:	72 65                	jb     40a07c <.rdata+0x14>
  40a017:	67 69 73 74 65 72 5f 	imul   esi,DWORD PTR [bp+di+0x74],0x665f7265
  40a01e:	66 
  40a01f:	72 61                	jb     40a082 <.rdata+0x1a>
  40a021:	6d                   	ins    DWORD PTR es:[edi],dx
  40a022:	65 5f                	gs pop edi
  40a024:	69 6e 66 6f 00 6c 69 	imul   ebp,DWORD PTR [esi+0x66],0x696c006f
  40a02b:	62 67 63             	bound  esp,QWORD PTR [edi+0x63]
  40a02e:	6a 2d                	push   0x2d
  40a030:	31 33                	xor    DWORD PTR [ebx],esi
  40a032:	2e 64 6c             	cs fs ins BYTE PTR es:[edi],dx
  40a035:	6c                   	ins    BYTE PTR es:[edi],dx
  40a036:	00 5f 4a             	add    BYTE PTR [edi+0x4a],bl
  40a039:	76 5f                	jbe    40a09a <.rdata+0x32>
  40a03b:	52                   	push   edx
  40a03c:	65 67 69 73 74 65 72 	imul   esi,DWORD PTR gs:[bp+di+0x74],0x6c437265
  40a043:	43 6c 
  40a045:	61                   	popa   
  40a046:	73 73                	jae    40a0bb <.rdata+0x53>
  40a048:	65 73 00             	gs jae 40a04b <.rdata+0x4b>
  40a04b:	5f                   	pop    edi
  40a04c:	5f                   	pop    edi
  40a04d:	64 65 72 65          	fs gs jb 40a0b6 <.rdata+0x4e>
  40a051:	67 69 73 74 65 72 5f 	imul   esi,DWORD PTR [bp+di+0x74],0x665f7265
  40a058:	66 
  40a059:	72 61                	jb     40a0bc <.rdata+0x54>
  40a05b:	6d                   	ins    DWORD PTR es:[edi],dx
  40a05c:	65 5f                	gs pop edi
  40a05e:	69 6e 66 6f 00 00 20 	imul   ebp,DWORD PTR [esi+0x66],0x2000006f

0040a064 <___dyn_tls_init_callback>:
  40a064:	20 19                	and    BYTE PTR [ecx],bl
  40a066:	40                   	inc    eax
	...

0040a068 <.rdata>:
  40a068:	4d                   	dec    ebp
  40a069:	69 6e 67 77 20 72 75 	imul   ebp,DWORD PTR [esi+0x67],0x75722077
  40a070:	6e                   	outs   dx,BYTE PTR ds:[esi]
  40a071:	74 69                	je     40a0dc <.rdata+0x74>
  40a073:	6d                   	ins    DWORD PTR es:[edi],dx
  40a074:	65 20 66 61          	and    BYTE PTR gs:[esi+0x61],ah
  40a078:	69 6c 75 72 65 3a 0a 	imul   ebp,DWORD PTR [ebp+esi*2+0x72],0xa3a65
  40a07f:	00 
  40a080:	20 20                	and    BYTE PTR [eax],ah
  40a082:	56                   	push   esi
  40a083:	69 72 74 75 61 6c 51 	imul   esi,DWORD PTR [edx+0x74],0x516c6175
  40a08a:	75 65                	jne    40a0f1 <.rdata+0x89>
  40a08c:	72 79                	jb     40a107 <.rdata+0x9f>
  40a08e:	20 66 61             	and    BYTE PTR [esi+0x61],ah
  40a091:	69 6c 65 64 20 66 6f 	imul   ebp,DWORD PTR [ebp+eiz*2+0x64],0x726f6620
  40a098:	72 
  40a099:	20 25 64 20 62 79    	and    BYTE PTR ds:0x79622064,ah
  40a09f:	74 65                	je     40a106 <.rdata+0x9e>
  40a0a1:	73 20                	jae    40a0c3 <.rdata+0x5b>
  40a0a3:	61                   	popa   
  40a0a4:	74 20                	je     40a0c6 <.rdata+0x5e>
  40a0a6:	61                   	popa   
  40a0a7:	64 64 72 65          	fs fs jb 40a110 <.rdata+0xa8>
  40a0ab:	73 73                	jae    40a120 <.rdata+0xc>
  40a0ad:	20 25 70 00 00 00    	and    BYTE PTR ds:0x70,ah
  40a0b3:	00 20                	add    BYTE PTR [eax],ah
  40a0b5:	20 55 6e             	and    BYTE PTR [ebp+0x6e],dl
  40a0b8:	6b 6e 6f 77          	imul   ebp,DWORD PTR [esi+0x6f],0x77
  40a0bc:	6e                   	outs   dx,BYTE PTR ds:[esi]
  40a0bd:	20 70 73             	and    BYTE PTR [eax+0x73],dh
  40a0c0:	65 75 64             	gs jne 40a127 <.rdata+0x13>
  40a0c3:	6f                   	outs   dx,DWORD PTR ds:[esi]
  40a0c4:	20 72 65             	and    BYTE PTR [edx+0x65],dh
  40a0c7:	6c                   	ins    BYTE PTR es:[edi],dx
  40a0c8:	6f                   	outs   dx,DWORD PTR ds:[esi]
  40a0c9:	63 61 74             	arpl   WORD PTR [ecx+0x74],sp
  40a0cc:	69 6f 6e 20 70 72 6f 	imul   ebp,DWORD PTR [edi+0x6e],0x6f727020
  40a0d3:	74 6f                	je     40a144 <.rdata+0x10>
  40a0d5:	63 6f 6c             	arpl   WORD PTR [edi+0x6c],bp
  40a0d8:	20 76 65             	and    BYTE PTR [esi+0x65],dh
  40a0db:	72 73                	jb     40a150 <.rdata+0x1c>
  40a0dd:	69 6f 6e 20 25 64 2e 	imul   ebp,DWORD PTR [edi+0x6e],0x2e642520
  40a0e4:	0a 00                	or     al,BYTE PTR [eax]
  40a0e6:	00 00                	add    BYTE PTR [eax],al
  40a0e8:	20 20                	and    BYTE PTR [eax],ah
  40a0ea:	55                   	push   ebp
  40a0eb:	6e                   	outs   dx,BYTE PTR ds:[esi]
  40a0ec:	6b 6e 6f 77          	imul   ebp,DWORD PTR [esi+0x6f],0x77
  40a0f0:	6e                   	outs   dx,BYTE PTR ds:[esi]
  40a0f1:	20 70 73             	and    BYTE PTR [eax+0x73],dh
  40a0f4:	65 75 64             	gs jne 40a15b <.rdata+0x27>
  40a0f7:	6f                   	outs   dx,DWORD PTR ds:[esi]
  40a0f8:	20 72 65             	and    BYTE PTR [edx+0x65],dh
  40a0fb:	6c                   	ins    BYTE PTR es:[edi],dx
  40a0fc:	6f                   	outs   dx,DWORD PTR ds:[esi]
  40a0fd:	63 61 74             	arpl   WORD PTR [ecx+0x74],sp
  40a100:	69 6f 6e 20 62 69 74 	imul   ebp,DWORD PTR [edi+0x6e],0x74696220
  40a107:	20 73 69             	and    BYTE PTR [ebx+0x69],dh
  40a10a:	7a 65                	jp     40a171 <.rdata+0x3d>
  40a10c:	20 25 64 2e 0a 00    	and    BYTE PTR ds:0xa2e64,ah
	...

0040a114 <.rdata>:
  40a114:	2e 00 67 6c          	add    BYTE PTR cs:[edi+0x6c],ah
  40a118:	6f                   	outs   dx,DWORD PTR ds:[esi]
  40a119:	62 2d 31 2e 30 2d    	bound  ebp,QWORD PTR ds:0x2d302e31
  40a11f:	6d                   	ins    DWORD PTR es:[edi],dx
  40a120:	69 6e 67 77 33 32 00 	imul   ebp,DWORD PTR [esi+0x67],0x323377
	...

0040a128 <.rdata>:
  40a128:	00 00                	add    BYTE PTR [eax],al
  40a12a:	2e 00 00             	add    BYTE PTR cs:[eax],al
  40a12d:	00 00                	add    BYTE PTR [eax],al
	...

0040a130 <.rdata>:
  40a130:	25 73 00 00 4e       	and    eax,0x4e000073

0040a134 <.rdata>:
  40a134:	4e                   	dec    esi
  40a135:	61                   	popa   
  40a136:	4e                   	dec    esi
  40a137:	00 49 6e             	add    BYTE PTR [ecx+0x6e],cl
  40a13a:	66 00 28             	data16 add BYTE PTR [eax],ch
  40a13d:	00 6e 00             	add    BYTE PTR [esi+0x0],ch
  40a140:	75 00                	jne    40a142 <.rdata+0xe>
  40a142:	6c                   	ins    BYTE PTR es:[edi],dx
  40a143:	00 6c 00 29          	add    BYTE PTR [eax+eax*1+0x29],ch
  40a147:	00 00                	add    BYTE PTR [eax],al
  40a149:	00 28                	add    BYTE PTR [eax],ch
  40a14b:	6e                   	outs   dx,BYTE PTR ds:[esi]
  40a14c:	75 6c                	jne    40a1ba <.rdata+0x86>
  40a14e:	6c                   	ins    BYTE PTR es:[edi],dx
  40a14f:	29 00                	sub    DWORD PTR [eax],eax
  40a151:	50                   	push   eax
  40a152:	52                   	push   edx
  40a153:	49                   	dec    ecx
  40a154:	4e                   	dec    esi
  40a155:	54                   	push   esp
  40a156:	46                   	inc    esi
  40a157:	5f                   	pop    edi
  40a158:	45                   	inc    ebp
  40a159:	58                   	pop    eax
  40a15a:	50                   	push   eax
  40a15b:	4f                   	dec    edi
  40a15c:	4e                   	dec    esi
  40a15d:	45                   	inc    ebp
  40a15e:	4e                   	dec    esi
  40a15f:	54                   	push   esp
  40a160:	5f                   	pop    edi
  40a161:	44                   	inc    esp
  40a162:	49                   	dec    ecx
  40a163:	47                   	inc    edi
  40a164:	49                   	dec    ecx
  40a165:	54                   	push   esp
  40a166:	53                   	push   ebx
  40a167:	00 c0                	add    al,al
  40a169:	51                   	push   ecx
  40a16a:	40                   	inc    eax
  40a16b:	00 92 50 40 00 92    	add    BYTE PTR [edx-0x6dffbfb0],dl
  40a171:	50                   	push   eax
  40a172:	40                   	inc    eax
  40a173:	00 a0 51 40 00 92    	add    BYTE PTR [eax-0x6dffbfaf],ah
  40a179:	50                   	push   eax
  40a17a:	40                   	inc    eax
  40a17b:	00 90 51 40 00 92    	add    BYTE PTR [eax-0x6dffbfaf],dl
  40a181:	50                   	push   eax
  40a182:	40                   	inc    eax
  40a183:	00 92 50 40 00 92    	add    BYTE PTR [edx-0x6dffbfb0],dl
  40a189:	50                   	push   eax
  40a18a:	40                   	inc    eax
  40a18b:	00 92 50 40 00 50    	add    BYTE PTR [edx+0x50004050],dl
  40a191:	51                   	push   ecx
  40a192:	40                   	inc    eax
  40a193:	00 30                	add    BYTE PTR [eax],dh
  40a195:	51                   	push   ecx
  40a196:	40                   	inc    eax
  40a197:	00 92 50 40 00 10    	add    BYTE PTR [edx+0x10004050],dl
  40a19d:	51                   	push   ecx
  40a19e:	40                   	inc    eax
  40a19f:	00 f0                	add    al,dh
  40a1a1:	50                   	push   eax
  40a1a2:	40                   	inc    eax
  40a1a3:	00 92 50 40 00 86    	add    BYTE PTR [edx-0x79ffbfb0],dl
  40a1a9:	50                   	push   eax
  40a1aa:	40                   	inc    eax
  40a1ab:	00 92 50 40 00 92    	add    BYTE PTR [edx-0x6dffbfb0],dl
  40a1b1:	50                   	push   eax
  40a1b2:	40                   	inc    eax
  40a1b3:	00 92 50 40 00 92    	add    BYTE PTR [edx-0x6dffbfb0],dl
  40a1b9:	50                   	push   eax
  40a1ba:	40                   	inc    eax
  40a1bb:	00 92 50 40 00 92    	add    BYTE PTR [edx-0x6dffbfb0],dl
  40a1c1:	50                   	push   eax
  40a1c2:	40                   	inc    eax
  40a1c3:	00 92 50 40 00 92    	add    BYTE PTR [edx-0x6dffbfb0],dl
  40a1c9:	50                   	push   eax
  40a1ca:	40                   	inc    eax
  40a1cb:	00 92 50 40 00 92    	add    BYTE PTR [edx-0x6dffbfb0],dl
  40a1d1:	50                   	push   eax
  40a1d2:	40                   	inc    eax
  40a1d3:	00 92 50 40 00 92    	add    BYTE PTR [edx-0x6dffbfb0],dl
  40a1d9:	50                   	push   eax
  40a1da:	40                   	inc    eax
  40a1db:	00 92 50 40 00 92    	add    BYTE PTR [edx-0x6dffbfb0],dl
  40a1e1:	50                   	push   eax
  40a1e2:	40                   	inc    eax
  40a1e3:	00 92 50 40 00 92    	add    BYTE PTR [edx-0x6dffbfb0],dl
  40a1e9:	50                   	push   eax
  40a1ea:	40                   	inc    eax
  40a1eb:	00 61 50             	add    BYTE PTR [ecx+0x50],ah
  40a1ee:	40                   	inc    eax
  40a1ef:	00 92 50 40 00 35    	add    BYTE PTR [edx+0x35004050],dl
  40a1f5:	50                   	push   eax
  40a1f6:	40                   	inc    eax
  40a1f7:	00 92 50 40 00 10    	add    BYTE PTR [edx+0x10004050],dl
  40a1fd:	50                   	push   eax
  40a1fe:	40                   	inc    eax
  40a1ff:	00 e5                	add    ch,ah
  40a201:	4f                   	dec    edi
  40a202:	40                   	inc    eax
  40a203:	00 c0                	add    al,al
  40a205:	4f                   	dec    edi
  40a206:	40                   	inc    eax
  40a207:	00 92 50 40 00 90    	add    BYTE PTR [edx-0x6fffbfb0],dl
  40a20d:	4f                   	dec    edi
  40a20e:	40                   	inc    eax
  40a20f:	00 92 50 40 00 92    	add    BYTE PTR [edx-0x6dffbfb0],dl
  40a215:	50                   	push   eax
  40a216:	40                   	inc    eax
  40a217:	00 a0 4c 40 00 92    	add    BYTE PTR [eax-0x6dffbfb4],ah
  40a21d:	50                   	push   eax
  40a21e:	40                   	inc    eax
  40a21f:	00 92 50 40 00 92    	add    BYTE PTR [edx-0x6dffbfb0],dl
  40a225:	50                   	push   eax
  40a226:	40                   	inc    eax
  40a227:	00 92 50 40 00 92    	add    BYTE PTR [edx-0x6dffbfb0],dl
  40a22d:	50                   	push   eax
  40a22e:	40                   	inc    eax
  40a22f:	00 92 50 40 00 e0    	add    BYTE PTR [edx-0x1fffbfb0],dl
  40a235:	51                   	push   ecx
  40a236:	40                   	inc    eax
  40a237:	00 92 50 40 00 92    	add    BYTE PTR [edx-0x6dffbfb0],dl
  40a23d:	50                   	push   eax
  40a23e:	40                   	inc    eax
  40a23f:	00 92 50 40 00 92    	add    BYTE PTR [edx-0x6dffbfb0],dl
  40a245:	50                   	push   eax
  40a246:	40                   	inc    eax
  40a247:	00 40 4e             	add    BYTE PTR [eax+0x4e],al
  40a24a:	40                   	inc    eax
  40a24b:	00 92 50 40 00 92    	add    BYTE PTR [edx-0x6dffbfb0],dl
  40a251:	50                   	push   eax
  40a252:	40                   	inc    eax
  40a253:	00 92 50 40 00 92    	add    BYTE PTR [edx-0x6dffbfb0],dl
  40a259:	50                   	push   eax
  40a25a:	40                   	inc    eax
  40a25b:	00 92 50 40 00 92    	add    BYTE PTR [edx-0x6dffbfb0],dl
  40a261:	50                   	push   eax
  40a262:	40                   	inc    eax
  40a263:	00 92 50 40 00 92    	add    BYTE PTR [edx-0x6dffbfb0],dl
  40a269:	50                   	push   eax
  40a26a:	40                   	inc    eax
  40a26b:	00 10                	add    BYTE PTR [eax],dl
  40a26d:	4e                   	dec    esi
  40a26e:	40                   	inc    eax
  40a26f:	00 92 50 40 00 00    	add    BYTE PTR [edx+0x4050],dl
  40a275:	4d                   	dec    ebp
  40a276:	40                   	inc    eax
  40a277:	00 30                	add    BYTE PTR [eax],dh
  40a279:	4f                   	dec    edi
  40a27a:	40                   	inc    eax
  40a27b:	00 00                	add    BYTE PTR [eax],al
  40a27d:	4f                   	dec    edi
  40a27e:	40                   	inc    eax
  40a27f:	00 d0                	add    al,dl
  40a281:	4e                   	dec    esi
  40a282:	40                   	inc    eax
  40a283:	00 a4 4e 40 00 a0 4d 	add    BYTE PTR [esi+ecx*2+0x4da00040],ah
  40a28a:	40                   	inc    eax
  40a28b:	00 30                	add    BYTE PTR [eax],dh
  40a28d:	4f                   	dec    edi
  40a28e:	40                   	inc    eax
  40a28f:	00 80 4d 40 00 92    	add    BYTE PTR [eax-0x6dffbfb3],al
  40a295:	50                   	push   eax
  40a296:	40                   	inc    eax
  40a297:	00 87 4c 40 00 92    	add    BYTE PTR [edi-0x6dffbfb4],al
  40a29d:	50                   	push   eax
  40a29e:	40                   	inc    eax
  40a29f:	00 40 4d             	add    BYTE PTR [eax+0x4d],al
  40a2a2:	40                   	inc    eax
  40a2a3:	00 40 4e             	add    BYTE PTR [eax+0x4e],al
  40a2a6:	40                   	inc    eax
  40a2a7:	00 c4                	add    ah,al
  40a2a9:	4d                   	dec    ebp
  40a2aa:	40                   	inc    eax
  40a2ab:	00 92 50 40 00 92    	add    BYTE PTR [edx-0x6dffbfb0],dl
  40a2b1:	50                   	push   eax
  40a2b2:	40                   	inc    eax
  40a2b3:	00 c7                	add    bh,al
  40a2b5:	4c                   	dec    esp
  40a2b6:	40                   	inc    eax
  40a2b7:	00 30                	add    BYTE PTR [eax],dh
  40a2b9:	4c                   	dec    esp
  40a2ba:	40                   	inc    eax
  40a2bb:	00 40 4e             	add    BYTE PTR [eax+0x4e],al
  40a2be:	40                   	inc    eax
  40a2bf:	00 92 50 40 00 92    	add    BYTE PTR [edx-0x6dffbfb0],dl
  40a2c5:	50                   	push   eax
  40a2c6:	40                   	inc    eax
  40a2c7:	00 40 4e             	add    BYTE PTR [eax+0x4e],al
  40a2ca:	40                   	inc    eax
  40a2cb:	00 92 50 40 00 30    	add    BYTE PTR [edx+0x30004050],dl
  40a2d1:	4c                   	dec    esp
  40a2d2:	40                   	inc    eax
  40a2d3:	00 00                	add    BYTE PTR [eax],al
  40a2d5:	00 00                	add    BYTE PTR [eax],al
	...

0040a2d8 <.rdata>:
  40a2d8:	49                   	dec    ecx
  40a2d9:	6e                   	outs   dx,BYTE PTR ds:[esi]
  40a2da:	66 69 6e 69 74 79    	imul   bp,WORD PTR [esi+0x69],0x7974
  40a2e0:	00 4e 61             	add    BYTE PTR [esi+0x61],cl
  40a2e3:	4e                   	dec    esi
  40a2e4:	00 30                	add    BYTE PTR [eax],dh
  40a2e6:	00 00                	add    BYTE PTR [eax],al
  40a2e8:	18 5c 40 00          	sbb    BYTE PTR [eax+eax*2+0x0],bl
  40a2ec:	53                   	push   ebx
  40a2ed:	5b                   	pop    ebx
  40a2ee:	40                   	inc    eax
  40a2ef:	00 53 5b             	add    BYTE PTR [ebx+0x5b],dl
  40a2f2:	40                   	inc    eax
  40a2f3:	00 84 5c 40 00 50 5c 	add    BYTE PTR [esp+ebx*2+0x5c500040],al
  40a2fa:	40                   	inc    eax
  40a2fb:	00 00                	add    BYTE PTR [eax],al
  40a2fd:	00 c0                	add    al,al
  40a2ff:	3f                   	aas    
  40a300:	61                   	popa   
  40a301:	43                   	inc    ebx
  40a302:	6f                   	outs   dx,DWORD PTR ds:[esi]
  40a303:	63 a7 87 d2 3f b3    	arpl   WORD PTR [edi-0x4cc02d79],sp
  40a309:	c8 60 8b 28          	enter  0x8b60,0x28
  40a30d:	8a c6                	mov    al,dh
  40a30f:	3f                   	aas    
  40a310:	fb                   	sti    
  40a311:	79 9f                	jns    40a2b2 <.rdata+0x17e>
  40a313:	50                   	push   eax
  40a314:	13 44 d3 3f          	adc    eax,DWORD PTR [ebx+edx*8+0x3f]
  40a318:	04 fa                	add    al,0xfa
  40a31a:	7d 9d                	jge    40a2b9 <.rdata+0x185>
  40a31c:	16                   	push   ss
  40a31d:	2d 94 3c 32 5a       	sub    eax,0x5a323c94
  40a322:	47                   	inc    edi
  40a323:	55                   	push   ebp
  40a324:	13 44 d3 3f          	adc    eax,DWORD PTR [ebx+edx*8+0x3f]
  40a328:	00 00                	add    BYTE PTR [eax],al
  40a32a:	80 3f 00             	cmp    BYTE PTR [edi],0x0
  40a32d:	00 20                	add    BYTE PTR [eax],ah
  40a32f:	41                   	inc    ecx
  40a330:	00 00                	add    BYTE PTR [eax],al
  40a332:	40                   	inc    eax
  40a333:	40                   	inc    eax
  40a334:	00 00                	add    BYTE PTR [eax],al
  40a336:	e0 40                	loopne 40a378 <___tens_D2A+0x18>
  40a338:	00 00                	add    BYTE PTR [eax],al
  40a33a:	a0 40 00 00 00       	mov    al,ds:0x40
  40a33f:	3f                   	aas    

0040a340 <_p05.15632>:
  40a340:	05 00 00 00 19       	add    eax,0x19000000
  40a345:	00 00                	add    BYTE PTR [eax],al
  40a347:	00 7d 00             	add    BYTE PTR [ebp+0x0],bh
	...

0040a360 <___tens_D2A>:
  40a360:	00 00                	add    BYTE PTR [eax],al
  40a362:	00 00                	add    BYTE PTR [eax],al
  40a364:	00 00                	add    BYTE PTR [eax],al
  40a366:	f0 3f                	lock aas 
  40a368:	00 00                	add    BYTE PTR [eax],al
  40a36a:	00 00                	add    BYTE PTR [eax],al
  40a36c:	00 00                	add    BYTE PTR [eax],al
  40a36e:	24 40                	and    al,0x40
  40a370:	00 00                	add    BYTE PTR [eax],al
  40a372:	00 00                	add    BYTE PTR [eax],al
  40a374:	00 00                	add    BYTE PTR [eax],al
  40a376:	59                   	pop    ecx
  40a377:	40                   	inc    eax
  40a378:	00 00                	add    BYTE PTR [eax],al
  40a37a:	00 00                	add    BYTE PTR [eax],al
  40a37c:	00 40 8f             	add    BYTE PTR [eax-0x71],al
  40a37f:	40                   	inc    eax
  40a380:	00 00                	add    BYTE PTR [eax],al
  40a382:	00 00                	add    BYTE PTR [eax],al
  40a384:	00 88 c3 40 00 00    	add    BYTE PTR [eax+0x40c3],cl
  40a38a:	00 00                	add    BYTE PTR [eax],al
  40a38c:	00 6a f8             	add    BYTE PTR [edx-0x8],ch
  40a38f:	40                   	inc    eax
  40a390:	00 00                	add    BYTE PTR [eax],al
  40a392:	00 00                	add    BYTE PTR [eax],al
  40a394:	80 84 2e 41 00 00 00 	add    BYTE PTR [esi+ebp*1+0x41],0x0
  40a39b:	00 
  40a39c:	d0 12                	rcl    BYTE PTR [edx],1
  40a39e:	63 41 00             	arpl   WORD PTR [ecx+0x0],ax
  40a3a1:	00 00                	add    BYTE PTR [eax],al
  40a3a3:	00 84 d7 97 41 00 00 	add    BYTE PTR [edi+edx*8+0x4197],al
  40a3aa:	00 00                	add    BYTE PTR [eax],al
  40a3ac:	65 cd cd             	gs int 0xcd
  40a3af:	41                   	inc    ecx
  40a3b0:	00 00                	add    BYTE PTR [eax],al
  40a3b2:	00 20                	add    BYTE PTR [eax],ah
  40a3b4:	5f                   	pop    edi
  40a3b5:	a0 02 42 00 00       	mov    al,ds:0x4202
  40a3ba:	00 e8                	add    al,ch
  40a3bc:	76 48                	jbe    40a406 <___tens_D2A+0xa6>
  40a3be:	37                   	aaa    
  40a3bf:	42                   	inc    edx
  40a3c0:	00 00                	add    BYTE PTR [eax],al
  40a3c2:	00 a2 94 1a 6d 42    	add    BYTE PTR [edx+0x426d1a94],ah
  40a3c8:	00 00                	add    BYTE PTR [eax],al
  40a3ca:	40                   	inc    eax
  40a3cb:	e5 9c                	in     eax,0x9c
  40a3cd:	30 a2 42 00 00 90    	xor    BYTE PTR [edx-0x6fffffbe],ah
  40a3d3:	1e                   	push   ds
  40a3d4:	c4 bc d6 42 00 00 34 	les    edi,FWORD PTR [esi+edx*8+0x34000042]
  40a3db:	26 f5                	es cmc 
  40a3dd:	6b 0c 43 00          	imul   ecx,DWORD PTR [ebx+eax*2],0x0
  40a3e1:	80 e0 37             	and    al,0x37
  40a3e4:	79 c3                	jns    40a3a9 <___tens_D2A+0x49>
  40a3e6:	41                   	inc    ecx
  40a3e7:	43                   	inc    ebx
  40a3e8:	00 a0 d8 85 57 34    	add    BYTE PTR [eax+0x345785d8],ah
  40a3ee:	76 43                	jbe    40a433 <___tinytens_D2A+0x13>
  40a3f0:	00 c8                	add    al,cl
  40a3f2:	4e                   	dec    esi
  40a3f3:	67 6d                	ins    DWORD PTR es:[di],dx
  40a3f5:	c1 ab 43 00 3d 91 60 	shr    DWORD PTR [ebx-0x6ec2ffbd],0x60
  40a3fc:	e4 58                	in     al,0x58
  40a3fe:	e1 43                	loope  40a443 <___tinytens_D2A+0x23>
  40a400:	40                   	inc    eax
  40a401:	8c b5 78 1d af 15    	mov    WORD PTR [ebp+0x15af1d78],?
  40a407:	44                   	inc    esp
  40a408:	50                   	push   eax
  40a409:	ef                   	out    dx,eax
  40a40a:	e2 d6                	loop   40a3e2 <___tens_D2A+0x82>
  40a40c:	e4 1a                	in     al,0x1a
  40a40e:	4b                   	dec    ebx
  40a40f:	44                   	inc    esp
  40a410:	92                   	xchg   edx,eax
  40a411:	d5 4d                	aad    0x4d
  40a413:	06                   	push   es
  40a414:	cf                   	iret   
  40a415:	f0 80 44 00 00 00    	lock add BYTE PTR [eax+eax*1+0x0],0x0
  40a41b:	00 00                	add    BYTE PTR [eax],al
  40a41d:	00 00                	add    BYTE PTR [eax],al
	...

0040a420 <___tinytens_D2A>:
  40a420:	bc 89 d8 97 b2       	mov    esp,0xb297d889
  40a425:	d2 9c 3c 33 a7 a8 d5 	rcr    BYTE PTR [esp+edi*1-0x2a5758cd],cl
  40a42c:	23 f6                	and    esi,esi
  40a42e:	49                   	dec    ecx
  40a42f:	39 3d a7 f4 44 fd    	cmp    DWORD PTR ds:0xfd44f4a7,edi
  40a435:	0f a5 32             	shld   DWORD PTR [edx],esi,cl
  40a438:	9d                   	popf   
  40a439:	97                   	xchg   edi,eax
  40a43a:	8c cf                	mov    edi,cs
  40a43c:	08 ba 5b 25 43 6f    	or     BYTE PTR [edx+0x6f43255b],bh
  40a442:	ac                   	lods   al,BYTE PTR ds:[esi]
  40a443:	64 28 06             	sub    BYTE PTR fs:[esi],al
  40a446:	c8 0a 00 00          	enter  0xa,0x0
	...

0040a460 <___bigtens_D2A>:
  40a460:	00 80 e0 37 79 c3    	add    BYTE PTR [eax-0x3c86c820],al
  40a466:	41                   	inc    ecx
  40a467:	43                   	inc    ebx
  40a468:	17                   	pop    ss
  40a469:	6e                   	outs   dx,BYTE PTR ds:[esi]
  40a46a:	05 b5 b5 b8 93       	add    eax,0x93b8b5b5
  40a46f:	46                   	inc    esi
  40a470:	f5                   	cmc    
  40a471:	f9                   	stc    
  40a472:	3f                   	aas    
  40a473:	e9 03 4f 38 4d       	jmp    4d78f37b <.debug_line+0x4d37b37b>
  40a478:	32 1d 30 f9 48 77    	xor    bl,BYTE PTR ds:0x7748f930
  40a47e:	82                   	(bad)  
  40a47f:	5a                   	pop    edx
  40a480:	3c bf                	cmp    al,0xbf
  40a482:	73 7f                	jae    40a503 <.rdata$zzz+0x13>
  40a484:	dd 4f 15             	fisttp QWORD PTR [edi+0x15]
  40a487:	75 00                	jne    40a489 <___bigtens_D2A+0x29>
	...

0040a4a0 <.rdata$zzz>:
  40a4a0:	47                   	inc    edi
  40a4a1:	43                   	inc    ebx
  40a4a2:	43                   	inc    ebx
  40a4a3:	3a 20                	cmp    ah,BYTE PTR [eax]
  40a4a5:	28 47 4e             	sub    BYTE PTR [edi+0x4e],al
  40a4a8:	55                   	push   ebp
  40a4a9:	29 20                	sub    DWORD PTR [eax],esp
  40a4ab:	34 2e                	xor    al,0x2e
  40a4ad:	38 2e                	cmp    BYTE PTR [esi],ch
  40a4af:	32 00                	xor    al,BYTE PTR [eax]
  40a4b1:	00 00                	add    BYTE PTR [eax],al
	...

0040a4b4 <.rdata$zzz>:
  40a4b4:	47                   	inc    edi
  40a4b5:	43                   	inc    ebx
  40a4b6:	43                   	inc    ebx
  40a4b7:	3a 20                	cmp    ah,BYTE PTR [eax]
  40a4b9:	28 47 4e             	sub    BYTE PTR [edi+0x4e],al
  40a4bc:	55                   	push   ebp
  40a4bd:	29 20                	sub    DWORD PTR [eax],esp
  40a4bf:	34 2e                	xor    al,0x2e
  40a4c1:	38 2e                	cmp    BYTE PTR [esi],ch
  40a4c3:	31 00                	xor    DWORD PTR [eax],eax
  40a4c5:	00 00                	add    BYTE PTR [eax],al
	...

0040a4c8 <.rdata$zzz>:
  40a4c8:	47                   	inc    edi
  40a4c9:	43                   	inc    ebx
  40a4ca:	43                   	inc    ebx
  40a4cb:	3a 20                	cmp    ah,BYTE PTR [eax]
  40a4cd:	28 47 4e             	sub    BYTE PTR [edi+0x4e],al
  40a4d0:	55                   	push   ebp
  40a4d1:	29 20                	sub    DWORD PTR [eax],esp
  40a4d3:	34 2e                	xor    al,0x2e
  40a4d5:	38 2e                	cmp    BYTE PTR [esi],ch
  40a4d7:	31 00                	xor    DWORD PTR [eax],eax
  40a4d9:	00 00                	add    BYTE PTR [eax],al
	...

0040a4dc <.rdata$zzz>:
  40a4dc:	47                   	inc    edi
  40a4dd:	43                   	inc    ebx
  40a4de:	43                   	inc    ebx
  40a4df:	3a 20                	cmp    ah,BYTE PTR [eax]
  40a4e1:	28 47 4e             	sub    BYTE PTR [edi+0x4e],al
  40a4e4:	55                   	push   ebp
  40a4e5:	29 20                	sub    DWORD PTR [eax],esp
  40a4e7:	34 2e                	xor    al,0x2e
  40a4e9:	38 2e                	cmp    BYTE PTR [esi],ch
  40a4eb:	32 00                	xor    al,BYTE PTR [eax]
  40a4ed:	00 00                	add    BYTE PTR [eax],al
	...

0040a4f0 <.rdata$zzz>:
  40a4f0:	47                   	inc    edi
  40a4f1:	43                   	inc    ebx
  40a4f2:	43                   	inc    ebx
  40a4f3:	3a 20                	cmp    ah,BYTE PTR [eax]
  40a4f5:	28 47 4e             	sub    BYTE PTR [edi+0x4e],al
  40a4f8:	55                   	push   ebp
  40a4f9:	29 20                	sub    DWORD PTR [eax],esp
  40a4fb:	34 2e                	xor    al,0x2e
  40a4fd:	38 2e                	cmp    BYTE PTR [esi],ch
  40a4ff:	32 00                	xor    al,BYTE PTR [eax]
  40a501:	00 00                	add    BYTE PTR [eax],al
	...

0040a504 <.rdata$zzz>:
  40a504:	47                   	inc    edi
  40a505:	43                   	inc    ebx
  40a506:	43                   	inc    ebx
  40a507:	3a 20                	cmp    ah,BYTE PTR [eax]
  40a509:	28 47 4e             	sub    BYTE PTR [edi+0x4e],al
  40a50c:	55                   	push   ebp
  40a50d:	29 20                	sub    DWORD PTR [eax],esp
  40a50f:	34 2e                	xor    al,0x2e
  40a511:	38 2e                	cmp    BYTE PTR [esi],ch
  40a513:	32 00                	xor    al,BYTE PTR [eax]
  40a515:	00 00                	add    BYTE PTR [eax],al
	...

0040a518 <.rdata$zzz>:
  40a518:	47                   	inc    edi
  40a519:	43                   	inc    ebx
  40a51a:	43                   	inc    ebx
  40a51b:	3a 20                	cmp    ah,BYTE PTR [eax]
  40a51d:	28 47 4e             	sub    BYTE PTR [edi+0x4e],al
  40a520:	55                   	push   ebp
  40a521:	29 20                	sub    DWORD PTR [eax],esp
  40a523:	34 2e                	xor    al,0x2e
  40a525:	38 2e                	cmp    BYTE PTR [esi],ch
  40a527:	32 00                	xor    al,BYTE PTR [eax]
  40a529:	00 00                	add    BYTE PTR [eax],al
	...

0040a52c <.rdata$zzz>:
  40a52c:	47                   	inc    edi
  40a52d:	43                   	inc    ebx
  40a52e:	43                   	inc    ebx
  40a52f:	3a 20                	cmp    ah,BYTE PTR [eax]
  40a531:	28 47 4e             	sub    BYTE PTR [edi+0x4e],al
  40a534:	55                   	push   ebp
  40a535:	29 20                	sub    DWORD PTR [eax],esp
  40a537:	34 2e                	xor    al,0x2e
  40a539:	38 2e                	cmp    BYTE PTR [esi],ch
  40a53b:	32 00                	xor    al,BYTE PTR [eax]
  40a53d:	00 00                	add    BYTE PTR [eax],al
	...

0040a540 <.rdata$zzz>:
  40a540:	47                   	inc    edi
  40a541:	43                   	inc    ebx
  40a542:	43                   	inc    ebx
  40a543:	3a 20                	cmp    ah,BYTE PTR [eax]
  40a545:	28 47 4e             	sub    BYTE PTR [edi+0x4e],al
  40a548:	55                   	push   ebp
  40a549:	29 20                	sub    DWORD PTR [eax],esp
  40a54b:	34 2e                	xor    al,0x2e
  40a54d:	38 2e                	cmp    BYTE PTR [esi],ch
  40a54f:	32 00                	xor    al,BYTE PTR [eax]
  40a551:	00 00                	add    BYTE PTR [eax],al
	...

0040a554 <.rdata$zzz>:
  40a554:	47                   	inc    edi
  40a555:	43                   	inc    ebx
  40a556:	43                   	inc    ebx
  40a557:	3a 20                	cmp    ah,BYTE PTR [eax]
  40a559:	28 47 4e             	sub    BYTE PTR [edi+0x4e],al
  40a55c:	55                   	push   ebp
  40a55d:	29 20                	sub    DWORD PTR [eax],esp
  40a55f:	34 2e                	xor    al,0x2e
  40a561:	38 2e                	cmp    BYTE PTR [esi],ch
  40a563:	32 00                	xor    al,BYTE PTR [eax]
  40a565:	00 00                	add    BYTE PTR [eax],al
	...

0040a568 <.rdata$zzz>:
  40a568:	47                   	inc    edi
  40a569:	43                   	inc    ebx
  40a56a:	43                   	inc    ebx
  40a56b:	3a 20                	cmp    ah,BYTE PTR [eax]
  40a56d:	28 47 4e             	sub    BYTE PTR [edi+0x4e],al
  40a570:	55                   	push   ebp
  40a571:	29 20                	sub    DWORD PTR [eax],esp
  40a573:	34 2e                	xor    al,0x2e
  40a575:	38 2e                	cmp    BYTE PTR [esi],ch
  40a577:	32 00                	xor    al,BYTE PTR [eax]
  40a579:	00 00                	add    BYTE PTR [eax],al
	...

0040a57c <.rdata$zzz>:
  40a57c:	47                   	inc    edi
  40a57d:	43                   	inc    ebx
  40a57e:	43                   	inc    ebx
  40a57f:	3a 20                	cmp    ah,BYTE PTR [eax]
  40a581:	28 47 4e             	sub    BYTE PTR [edi+0x4e],al
  40a584:	55                   	push   ebp
  40a585:	29 20                	sub    DWORD PTR [eax],esp
  40a587:	34 2e                	xor    al,0x2e
  40a589:	38 2e                	cmp    BYTE PTR [esi],ch
  40a58b:	32 00                	xor    al,BYTE PTR [eax]
  40a58d:	00 00                	add    BYTE PTR [eax],al
	...

0040a590 <.rdata$zzz>:
  40a590:	47                   	inc    edi
  40a591:	43                   	inc    ebx
  40a592:	43                   	inc    ebx
  40a593:	3a 20                	cmp    ah,BYTE PTR [eax]
  40a595:	28 47 4e             	sub    BYTE PTR [edi+0x4e],al
  40a598:	55                   	push   ebp
  40a599:	29 20                	sub    DWORD PTR [eax],esp
  40a59b:	34 2e                	xor    al,0x2e
  40a59d:	38 2e                	cmp    BYTE PTR [esi],ch
  40a59f:	32 00                	xor    al,BYTE PTR [eax]
  40a5a1:	00 00                	add    BYTE PTR [eax],al
	...

0040a5a4 <.rdata$zzz>:
  40a5a4:	47                   	inc    edi
  40a5a5:	43                   	inc    ebx
  40a5a6:	43                   	inc    ebx
  40a5a7:	3a 20                	cmp    ah,BYTE PTR [eax]
  40a5a9:	28 47 4e             	sub    BYTE PTR [edi+0x4e],al
  40a5ac:	55                   	push   ebp
  40a5ad:	29 20                	sub    DWORD PTR [eax],esp
  40a5af:	34 2e                	xor    al,0x2e
  40a5b1:	38 2e                	cmp    BYTE PTR [esi],ch
  40a5b3:	32 00                	xor    al,BYTE PTR [eax]
  40a5b5:	00 00                	add    BYTE PTR [eax],al
	...

0040a5b8 <.rdata$zzz>:
  40a5b8:	47                   	inc    edi
  40a5b9:	43                   	inc    ebx
  40a5ba:	43                   	inc    ebx
  40a5bb:	3a 20                	cmp    ah,BYTE PTR [eax]
  40a5bd:	28 47 4e             	sub    BYTE PTR [edi+0x4e],al
  40a5c0:	55                   	push   ebp
  40a5c1:	29 20                	sub    DWORD PTR [eax],esp
  40a5c3:	34 2e                	xor    al,0x2e
  40a5c5:	38 2e                	cmp    BYTE PTR [esi],ch
  40a5c7:	32 00                	xor    al,BYTE PTR [eax]
  40a5c9:	00 00                	add    BYTE PTR [eax],al
	...

0040a5cc <.rdata$zzz>:
  40a5cc:	47                   	inc    edi
  40a5cd:	43                   	inc    ebx
  40a5ce:	43                   	inc    ebx
  40a5cf:	3a 20                	cmp    ah,BYTE PTR [eax]
  40a5d1:	28 47 4e             	sub    BYTE PTR [edi+0x4e],al
  40a5d4:	55                   	push   ebp
  40a5d5:	29 20                	sub    DWORD PTR [eax],esp
  40a5d7:	34 2e                	xor    al,0x2e
  40a5d9:	38 2e                	cmp    BYTE PTR [esi],ch
  40a5db:	31 00                	xor    DWORD PTR [eax],eax
  40a5dd:	00 00                	add    BYTE PTR [eax],al
	...

0040a5e0 <.rdata$zzz>:
  40a5e0:	47                   	inc    edi
  40a5e1:	43                   	inc    ebx
  40a5e2:	43                   	inc    ebx
  40a5e3:	3a 20                	cmp    ah,BYTE PTR [eax]
  40a5e5:	28 47 4e             	sub    BYTE PTR [edi+0x4e],al
  40a5e8:	55                   	push   ebp
  40a5e9:	29 20                	sub    DWORD PTR [eax],esp
  40a5eb:	34 2e                	xor    al,0x2e
  40a5ed:	38 2e                	cmp    BYTE PTR [esi],ch
  40a5ef:	32 00                	xor    al,BYTE PTR [eax]
  40a5f1:	00 00                	add    BYTE PTR [eax],al
	...

0040a5f4 <.rdata$zzz>:
  40a5f4:	47                   	inc    edi
  40a5f5:	43                   	inc    ebx
  40a5f6:	43                   	inc    ebx
  40a5f7:	3a 20                	cmp    ah,BYTE PTR [eax]
  40a5f9:	28 47 4e             	sub    BYTE PTR [edi+0x4e],al
  40a5fc:	55                   	push   ebp
  40a5fd:	29 20                	sub    DWORD PTR [eax],esp
  40a5ff:	34 2e                	xor    al,0x2e
  40a601:	38 2e                	cmp    BYTE PTR [esi],ch
  40a603:	32 00                	xor    al,BYTE PTR [eax]
  40a605:	00 00                	add    BYTE PTR [eax],al
	...

0040a608 <.rdata$zzz>:
  40a608:	47                   	inc    edi
  40a609:	43                   	inc    ebx
  40a60a:	43                   	inc    ebx
  40a60b:	3a 20                	cmp    ah,BYTE PTR [eax]
  40a60d:	28 47 4e             	sub    BYTE PTR [edi+0x4e],al
  40a610:	55                   	push   ebp
  40a611:	29 20                	sub    DWORD PTR [eax],esp
  40a613:	34 2e                	xor    al,0x2e
  40a615:	38 2e                	cmp    BYTE PTR [esi],ch
  40a617:	32 00                	xor    al,BYTE PTR [eax]
  40a619:	00 00                	add    BYTE PTR [eax],al
	...

0040a61c <.rdata$zzz>:
  40a61c:	47                   	inc    edi
  40a61d:	43                   	inc    ebx
  40a61e:	43                   	inc    ebx
  40a61f:	3a 20                	cmp    ah,BYTE PTR [eax]
  40a621:	28 47 4e             	sub    BYTE PTR [edi+0x4e],al
  40a624:	55                   	push   ebp
  40a625:	29 20                	sub    DWORD PTR [eax],esp
  40a627:	34 2e                	xor    al,0x2e
  40a629:	38 2e                	cmp    BYTE PTR [esi],ch
  40a62b:	32 00                	xor    al,BYTE PTR [eax]
  40a62d:	00 00                	add    BYTE PTR [eax],al
	...

0040a630 <.rdata$zzz>:
  40a630:	47                   	inc    edi
  40a631:	43                   	inc    ebx
  40a632:	43                   	inc    ebx
  40a633:	3a 20                	cmp    ah,BYTE PTR [eax]
  40a635:	28 47 4e             	sub    BYTE PTR [edi+0x4e],al
  40a638:	55                   	push   ebp
  40a639:	29 20                	sub    DWORD PTR [eax],esp
  40a63b:	34 2e                	xor    al,0x2e
  40a63d:	38 2e                	cmp    BYTE PTR [esi],ch
  40a63f:	32 00                	xor    al,BYTE PTR [eax]
  40a641:	00 00                	add    BYTE PTR [eax],al
	...

0040a644 <.rdata$zzz>:
  40a644:	47                   	inc    edi
  40a645:	43                   	inc    ebx
  40a646:	43                   	inc    ebx
  40a647:	3a 20                	cmp    ah,BYTE PTR [eax]
  40a649:	28 47 4e             	sub    BYTE PTR [edi+0x4e],al
  40a64c:	55                   	push   ebp
  40a64d:	29 20                	sub    DWORD PTR [eax],esp
  40a64f:	34 2e                	xor    al,0x2e
  40a651:	38 2e                	cmp    BYTE PTR [esi],ch
  40a653:	32 00                	xor    al,BYTE PTR [eax]
  40a655:	00 00                	add    BYTE PTR [eax],al
	...

0040a658 <.rdata$zzz>:
  40a658:	47                   	inc    edi
  40a659:	43                   	inc    ebx
  40a65a:	43                   	inc    ebx
  40a65b:	3a 20                	cmp    ah,BYTE PTR [eax]
  40a65d:	28 47 4e             	sub    BYTE PTR [edi+0x4e],al
  40a660:	55                   	push   ebp
  40a661:	29 20                	sub    DWORD PTR [eax],esp
  40a663:	34 2e                	xor    al,0x2e
  40a665:	38 2e                	cmp    BYTE PTR [esi],ch
  40a667:	32 00                	xor    al,BYTE PTR [eax]
  40a669:	00 00                	add    BYTE PTR [eax],al
	...

0040a66c <.rdata$zzz>:
  40a66c:	47                   	inc    edi
  40a66d:	43                   	inc    ebx
  40a66e:	43                   	inc    ebx
  40a66f:	3a 20                	cmp    ah,BYTE PTR [eax]
  40a671:	28 47 4e             	sub    BYTE PTR [edi+0x4e],al
  40a674:	55                   	push   ebp
  40a675:	29 20                	sub    DWORD PTR [eax],esp
  40a677:	34 2e                	xor    al,0x2e
  40a679:	38 2e                	cmp    BYTE PTR [esi],ch
  40a67b:	32 00                	xor    al,BYTE PTR [eax]
  40a67d:	00 00                	add    BYTE PTR [eax],al
	...

0040a680 <.rdata$zzz>:
  40a680:	47                   	inc    edi
  40a681:	43                   	inc    ebx
  40a682:	43                   	inc    ebx
  40a683:	3a 20                	cmp    ah,BYTE PTR [eax]
  40a685:	28 47 4e             	sub    BYTE PTR [edi+0x4e],al
  40a688:	55                   	push   ebp
  40a689:	29 20                	sub    DWORD PTR [eax],esp
  40a68b:	34 2e                	xor    al,0x2e
  40a68d:	38 2e                	cmp    BYTE PTR [esi],ch
  40a68f:	32 00                	xor    al,BYTE PTR [eax]
  40a691:	00 00                	add    BYTE PTR [eax],al
	...

0040a694 <.rdata$zzz>:
  40a694:	47                   	inc    edi
  40a695:	43                   	inc    ebx
  40a696:	43                   	inc    ebx
  40a697:	3a 20                	cmp    ah,BYTE PTR [eax]
  40a699:	28 47 4e             	sub    BYTE PTR [edi+0x4e],al
  40a69c:	55                   	push   ebp
  40a69d:	29 20                	sub    DWORD PTR [eax],esp
  40a69f:	34 2e                	xor    al,0x2e
  40a6a1:	38 2e                	cmp    BYTE PTR [esi],ch
  40a6a3:	32 00                	xor    al,BYTE PTR [eax]
  40a6a5:	00 00                	add    BYTE PTR [eax],al
	...

0040a6a8 <.rdata$zzz>:
  40a6a8:	47                   	inc    edi
  40a6a9:	43                   	inc    ebx
  40a6aa:	43                   	inc    ebx
  40a6ab:	3a 20                	cmp    ah,BYTE PTR [eax]
  40a6ad:	28 47 4e             	sub    BYTE PTR [edi+0x4e],al
  40a6b0:	55                   	push   ebp
  40a6b1:	29 20                	sub    DWORD PTR [eax],esp
  40a6b3:	34 2e                	xor    al,0x2e
  40a6b5:	38 2e                	cmp    BYTE PTR [esi],ch
  40a6b7:	32 00                	xor    al,BYTE PTR [eax]
  40a6b9:	00 00                	add    BYTE PTR [eax],al
	...

0040a6bc <.rdata$zzz>:
  40a6bc:	47                   	inc    edi
  40a6bd:	43                   	inc    ebx
  40a6be:	43                   	inc    ebx
  40a6bf:	3a 20                	cmp    ah,BYTE PTR [eax]
  40a6c1:	28 47 4e             	sub    BYTE PTR [edi+0x4e],al
  40a6c4:	55                   	push   ebp
  40a6c5:	29 20                	sub    DWORD PTR [eax],esp
  40a6c7:	34 2e                	xor    al,0x2e
  40a6c9:	38 2e                	cmp    BYTE PTR [esi],ch
  40a6cb:	32 00                	xor    al,BYTE PTR [eax]
  40a6cd:	00 00                	add    BYTE PTR [eax],al
	...

0040a6d0 <.rdata$zzz>:
  40a6d0:	47                   	inc    edi
  40a6d1:	43                   	inc    ebx
  40a6d2:	43                   	inc    ebx
  40a6d3:	3a 20                	cmp    ah,BYTE PTR [eax]
  40a6d5:	28 47 4e             	sub    BYTE PTR [edi+0x4e],al
  40a6d8:	55                   	push   ebp
  40a6d9:	29 20                	sub    DWORD PTR [eax],esp
  40a6db:	34 2e                	xor    al,0x2e
  40a6dd:	38 2e                	cmp    BYTE PTR [esi],ch
  40a6df:	32 00                	xor    al,BYTE PTR [eax]
  40a6e1:	00 00                	add    BYTE PTR [eax],al
	...

0040a6e4 <.rdata$zzz>:
  40a6e4:	47                   	inc    edi
  40a6e5:	43                   	inc    ebx
  40a6e6:	43                   	inc    ebx
  40a6e7:	3a 20                	cmp    ah,BYTE PTR [eax]
  40a6e9:	28 47 4e             	sub    BYTE PTR [edi+0x4e],al
  40a6ec:	55                   	push   ebp
  40a6ed:	29 20                	sub    DWORD PTR [eax],esp
  40a6ef:	34 2e                	xor    al,0x2e
  40a6f1:	38 2e                	cmp    BYTE PTR [esi],ch
  40a6f3:	31 00                	xor    DWORD PTR [eax],eax
  40a6f5:	00 00                	add    BYTE PTR [eax],al
	...

0040a6f8 <.rdata$zzz>:
  40a6f8:	47                   	inc    edi
  40a6f9:	43                   	inc    ebx
  40a6fa:	43                   	inc    ebx
  40a6fb:	3a 20                	cmp    ah,BYTE PTR [eax]
  40a6fd:	28 47 4e             	sub    BYTE PTR [edi+0x4e],al
  40a700:	55                   	push   ebp
  40a701:	29 20                	sub    DWORD PTR [eax],esp
  40a703:	34 2e                	xor    al,0x2e
  40a705:	38 2e                	cmp    BYTE PTR [esi],ch
  40a707:	31 00                	xor    DWORD PTR [eax],eax
  40a709:	00 00                	add    BYTE PTR [eax],al
	...

0040a70c <.rdata$zzz>:
  40a70c:	47                   	inc    edi
  40a70d:	43                   	inc    ebx
  40a70e:	43                   	inc    ebx
  40a70f:	3a 20                	cmp    ah,BYTE PTR [eax]
  40a711:	28 47 4e             	sub    BYTE PTR [edi+0x4e],al
  40a714:	55                   	push   ebp
  40a715:	29 20                	sub    DWORD PTR [eax],esp
  40a717:	34 2e                	xor    al,0x2e
  40a719:	38 2e                	cmp    BYTE PTR [esi],ch
  40a71b:	31 00                	xor    DWORD PTR [eax],eax
  40a71d:	00 00                	add    BYTE PTR [eax],al
	...

Disassembly of section .eh_frame:

0040b000 <.eh_frame>:
  40b000:	14 00                	adc    al,0x0
  40b002:	00 00                	add    BYTE PTR [eax],al
  40b004:	00 00                	add    BYTE PTR [eax],al
  40b006:	00 00                	add    BYTE PTR [eax],al
  40b008:	01 7a 52             	add    DWORD PTR [edx+0x52],edi
  40b00b:	00 01                	add    BYTE PTR [ecx],al
  40b00d:	7c 08                	jl     40b017 <.eh_frame+0x17>
  40b00f:	01 1b                	add    DWORD PTR [ebx],ebx
  40b011:	0c 04                	or     al,0x4
  40b013:	04 88                	add    al,0x88
  40b015:	01 00                	add    DWORD PTR [eax],eax
  40b017:	00 20                	add    BYTE PTR [eax],ah
  40b019:	00 00                	add    BYTE PTR [eax],al
  40b01b:	00 1c 00             	add    BYTE PTR [eax+eax*1],bl
  40b01e:	00 00                	add    BYTE PTR [eax],al
  40b020:	e0 5f                	loopne 40b081 <.eh_frame+0x81>
  40b022:	ff                   	(bad)  
  40b023:	ff 73 01             	push   DWORD PTR [ebx+0x1]
  40b026:	00 00                	add    BYTE PTR [eax],al
  40b028:	00 41 0e             	add    BYTE PTR [ecx+0xe],al
  40b02b:	08 83 02 43 0e 20    	or     BYTE PTR [ebx+0x200e4302],al
  40b031:	02 51 0a             	add    dl,BYTE PTR [ecx+0xa]
  40b034:	0e                   	push   cs
  40b035:	08 41 c3             	or     BYTE PTR [ecx-0x3d],al
  40b038:	0e                   	push   cs
  40b039:	04 4a                	add    al,0x4a
  40b03b:	0b 18                	or     ebx,DWORD PTR [eax]
  40b03d:	00 00                	add    BYTE PTR [eax],al
  40b03f:	00 40 00             	add    BYTE PTR [eax+0x0],al
  40b042:	00 00                	add    BYTE PTR [eax],al
  40b044:	3c 61                	cmp    al,0x61
  40b046:	ff                   	(bad)  
  40b047:	ff                   	(bad)  
  40b048:	df 00                	fild   WORD PTR [eax]
  40b04a:	00 00                	add    BYTE PTR [eax],al
  40b04c:	00 41 0e             	add    BYTE PTR [ecx+0xe],al
  40b04f:	08 85 02 42 0d 05    	or     BYTE PTR [ebp+0x50d4202],al
  40b055:	44                   	inc    esp
  40b056:	83 03 14             	add    DWORD PTR [ebx],0x14
  40b059:	00 00                	add    BYTE PTR [eax],al
  40b05b:	00 5c 00 00          	add    BYTE PTR [eax+eax*1+0x0],bl
  40b05f:	00 00                	add    BYTE PTR [eax],al
  40b061:	62                   	(bad)  
  40b062:	ff                   	(bad)  
  40b063:	ff                   	(bad)  
  40b064:	3f                   	aas    
  40b065:	00 00                	add    BYTE PTR [eax],al
  40b067:	00 00                	add    BYTE PTR [eax],al
  40b069:	43                   	inc    ebx
  40b06a:	0e                   	push   cs
  40b06b:	40                   	inc    eax
  40b06c:	7b 0e                	jnp    40b07c <.eh_frame+0x7c>
  40b06e:	04 00                	add    al,0x0
  40b070:	10 00                	adc    BYTE PTR [eax],al
  40b072:	00 00                	add    BYTE PTR [eax],al
  40b074:	74 00                	je     40b076 <.eh_frame+0x76>
  40b076:	00 00                	add    BYTE PTR [eax],al
  40b078:	28 62 ff             	sub    BYTE PTR [edx-0x1],ah
  40b07b:	ff 15 00 00 00 00    	call   DWORD PTR ds:0x0
  40b081:	43                   	inc    ebx
  40b082:	0e                   	push   cs
  40b083:	20 10                	and    BYTE PTR [eax],dl
  40b085:	00 00                	add    BYTE PTR [eax],al
  40b087:	00 88 00 00 00 34    	add    BYTE PTR [eax+0x34000000],cl
  40b08d:	62                   	(bad)  
  40b08e:	ff                   	(bad)  
  40b08f:	ff 15 00 00 00 00    	call   DWORD PTR ds:0x0
  40b095:	43                   	inc    ebx
  40b096:	0e                   	push   cs
  40b097:	20 10                	and    BYTE PTR [eax],dl
  40b099:	00 00                	add    BYTE PTR [eax],al
  40b09b:	00 9c 00 00 00 40 62 	add    BYTE PTR [eax+eax*1+0x62400000],bl
  40b0a2:	ff                   	(bad)  
  40b0a3:	ff 07                	inc    DWORD PTR [edi]
  40b0a5:	00 00                	add    BYTE PTR [eax],al
  40b0a7:	00 00                	add    BYTE PTR [eax],al
  40b0a9:	00 00                	add    BYTE PTR [eax],al
  40b0ab:	00 10                	add    BYTE PTR [eax],dl
  40b0ad:	00 00                	add    BYTE PTR [eax],al
  40b0af:	00 b0 00 00 00 3c    	add    BYTE PTR [eax+0x3c000000],dh
  40b0b5:	62                   	(bad)  
  40b0b6:	ff                   	(bad)  
  40b0b7:	ff 07                	inc    DWORD PTR [edi]
  40b0b9:	00 00                	add    BYTE PTR [eax],al
  40b0bb:	00 00                	add    BYTE PTR [eax],al
  40b0bd:	00 00                	add    BYTE PTR [eax],al
	...

0040b0c0 <___EH_FRAME_BEGIN__>:
  40b0c0:	14 00                	adc    al,0x0
  40b0c2:	00 00                	add    BYTE PTR [eax],al
  40b0c4:	00 00                	add    BYTE PTR [eax],al
  40b0c6:	00 00                	add    BYTE PTR [eax],al
  40b0c8:	01 7a 52             	add    DWORD PTR [edx+0x52],edi
  40b0cb:	00 01                	add    BYTE PTR [ecx],al
  40b0cd:	7c 08                	jl     40b0d7 <___EH_FRAME_BEGIN__+0x17>
  40b0cf:	01 1b                	add    DWORD PTR [ebx],ebx
  40b0d1:	0c 04                	or     al,0x4
  40b0d3:	04 88                	add    al,0x88
  40b0d5:	01 00                	add    DWORD PTR [eax],eax
  40b0d7:	00 1c 00             	add    BYTE PTR [eax+eax*1],bl
  40b0da:	00 00                	add    BYTE PTR [eax],al
  40b0dc:	1c 00                	sbb    al,0x0
  40b0de:	00 00                	add    BYTE PTR [eax],al
  40b0e0:	20 62 ff             	and    BYTE PTR [edx-0x1],ah
  40b0e3:	ff 8d 00 00 00 00    	dec    DWORD PTR [ebp+0x0]
  40b0e9:	41                   	inc    ecx
  40b0ea:	0e                   	push   cs
  40b0eb:	08 85 02 42 0d 05    	or     BYTE PTR [ebp+0x50d4202],al
  40b0f1:	02 89 c5 0c 04 04    	add    cl,BYTE PTR [ecx+0x4040cc5]
  40b0f7:	00 1c 00             	add    BYTE PTR [eax+eax*1],bl
  40b0fa:	00 00                	add    BYTE PTR [eax],al
  40b0fc:	3c 00                	cmp    al,0x0
  40b0fe:	00 00                	add    BYTE PTR [eax],al
  40b100:	90                   	nop
  40b101:	62                   	(bad)  
  40b102:	ff                   	(bad)  
  40b103:	ff 42 00             	inc    DWORD PTR [edx+0x0]
  40b106:	00 00                	add    BYTE PTR [eax],al
  40b108:	00 41 0e             	add    BYTE PTR [ecx+0xe],al
  40b10b:	08 85 02 42 0d 05    	or     BYTE PTR [ebp+0x50d4202],al
  40b111:	7e c5                	jle    40b0d8 <___EH_FRAME_BEGIN__+0x18>
  40b113:	0c 04                	or     al,0x4
  40b115:	04 00                	add    al,0x0
	...

0040b118 <.eh_frame>:
  40b118:	14 00                	adc    al,0x0
  40b11a:	00 00                	add    BYTE PTR [eax],al
  40b11c:	00 00                	add    BYTE PTR [eax],al
  40b11e:	00 00                	add    BYTE PTR [eax],al
  40b120:	01 7a 52             	add    DWORD PTR [edx+0x52],edi
  40b123:	00 01                	add    BYTE PTR [ecx],al
  40b125:	7c 08                	jl     40b12f <.eh_frame+0x17>
  40b127:	01 1b                	add    DWORD PTR [ebx],ebx
  40b129:	0c 04                	or     al,0x4
  40b12b:	04 88                	add    al,0x88
  40b12d:	01 00                	add    DWORD PTR [eax],eax
  40b12f:	00 1c 00             	add    BYTE PTR [eax+eax*1],bl
  40b132:	00 00                	add    BYTE PTR [eax],al
  40b134:	1c 00                	sbb    al,0x0
  40b136:	00 00                	add    BYTE PTR [eax],al
  40b138:	a8 62                	test   al,0x62
  40b13a:	ff                   	(bad)  
  40b13b:	ff 43 00             	inc    DWORD PTR [ebx+0x0]
  40b13e:	00 00                	add    BYTE PTR [eax],al
  40b140:	00 41 0e             	add    BYTE PTR [ecx+0xe],al
  40b143:	08 85 02 42 0d 05    	or     BYTE PTR [ebp+0x50d4202],al
  40b149:	7f c5                	jg     40b110 <___EH_FRAME_BEGIN__+0x50>
  40b14b:	0c 04                	or     al,0x4
  40b14d:	04 00                	add    al,0x0
	...

0040b150 <.eh_frame>:
  40b150:	14 00                	adc    al,0x0
  40b152:	00 00                	add    BYTE PTR [eax],al
  40b154:	00 00                	add    BYTE PTR [eax],al
  40b156:	00 00                	add    BYTE PTR [eax],al
  40b158:	01 7a 52             	add    DWORD PTR [edx+0x52],edi
  40b15b:	00 01                	add    BYTE PTR [ecx],al
  40b15d:	7c 08                	jl     40b167 <.eh_frame+0x17>
  40b15f:	01 1b                	add    DWORD PTR [ebx],ebx
  40b161:	0c 04                	or     al,0x4
  40b163:	04 88                	add    al,0x88
  40b165:	01 00                	add    DWORD PTR [eax],eax
  40b167:	00 3c 00             	add    BYTE PTR [eax+eax*1],bh
  40b16a:	00 00                	add    BYTE PTR [eax],al
  40b16c:	1c 00                	sbb    al,0x0
  40b16e:	00 00                	add    BYTE PTR [eax],al
  40b170:	c0 62 ff ff          	shl    BYTE PTR [edx-0x1],0xff
  40b174:	0b 03                	or     eax,DWORD PTR [ebx]
  40b176:	00 00                	add    BYTE PTR [eax],al
  40b178:	00 41 0e             	add    BYTE PTR [ecx+0xe],al
  40b17b:	08 85 02 42 0d 05    	or     BYTE PTR [ebp+0x50d4202],al
  40b181:	46                   	inc    esi
  40b182:	87 03                	xchg   DWORD PTR [ebx],eax
  40b184:	86 04 83             	xchg   BYTE PTR [ebx+eax*4],al
  40b187:	05 03 59 01 0a       	add    eax,0xa015903
  40b18c:	c3                   	ret    
  40b18d:	41                   	inc    ecx
  40b18e:	c6 41 c7 41          	mov    BYTE PTR [ecx-0x39],0x41
  40b192:	c5 0c 04             	lds    ecx,FWORD PTR [esp+eax*1]
  40b195:	04 41                	add    al,0x41
  40b197:	0b 03                	or     eax,DWORD PTR [ebx]
  40b199:	73 01                	jae    40b19c <.eh_frame+0x4c>
  40b19b:	0a c3                	or     al,bl
  40b19d:	41                   	inc    ecx
  40b19e:	c6 41 c7 41          	mov    BYTE PTR [ecx-0x39],0x41
  40b1a2:	c5 0c 04             	lds    ecx,FWORD PTR [esp+eax*1]
  40b1a5:	04 41                	add    al,0x41
  40b1a7:	0b 14 00             	or     edx,DWORD PTR [eax+eax*1]

0040b1a8 <.eh_frame>:
  40b1a8:	14 00                	adc    al,0x0
  40b1aa:	00 00                	add    BYTE PTR [eax],al
  40b1ac:	00 00                	add    BYTE PTR [eax],al
  40b1ae:	00 00                	add    BYTE PTR [eax],al
  40b1b0:	01 7a 52             	add    DWORD PTR [edx+0x52],edi
  40b1b3:	00 01                	add    BYTE PTR [ecx],al
  40b1b5:	7c 08                	jl     40b1bf <.eh_frame+0x17>
  40b1b7:	01 1b                	add    DWORD PTR [ebx],ebx
  40b1b9:	0c 04                	or     al,0x4
  40b1bb:	04 88                	add    al,0x88
  40b1bd:	01 00                	add    DWORD PTR [eax],eax
  40b1bf:	00 1c 00             	add    BYTE PTR [eax+eax*1],bl
  40b1c2:	00 00                	add    BYTE PTR [eax],al
  40b1c4:	1c 00                	sbb    al,0x0
  40b1c6:	00 00                	add    BYTE PTR [eax],al
  40b1c8:	78 65                	js     40b22f <.eh_frame+0x23>
  40b1ca:	ff                   	(bad)  
  40b1cb:	ff                   	(bad)  
  40b1cc:	dc 00                	fadd   QWORD PTR [eax]
  40b1ce:	00 00                	add    BYTE PTR [eax],al
  40b1d0:	00 5d 0e             	add    BYTE PTR [ebp+0xe],bl
  40b1d3:	08 83 02 02 a4 c3    	or     BYTE PTR [ebx-0x3c5bfdfe],al
  40b1d9:	0e                   	push   cs
  40b1da:	04 42                	add    al,0x42
  40b1dc:	0e                   	push   cs
  40b1dd:	08 83 02 14 00 00    	or     BYTE PTR [ebx+0x1402],al

0040b1e0 <.eh_frame>:
  40b1e0:	14 00                	adc    al,0x0
  40b1e2:	00 00                	add    BYTE PTR [eax],al
  40b1e4:	00 00                	add    BYTE PTR [eax],al
  40b1e6:	00 00                	add    BYTE PTR [eax],al
  40b1e8:	01 7a 52             	add    DWORD PTR [edx+0x52],edi
  40b1eb:	00 01                	add    BYTE PTR [ecx],al
  40b1ed:	7c 08                	jl     40b1f7 <.eh_frame+0x17>
  40b1ef:	01 1b                	add    DWORD PTR [ebx],ebx
  40b1f1:	0c 04                	or     al,0x4
  40b1f3:	04 88                	add    al,0x88
  40b1f5:	01 00                	add    DWORD PTR [eax],eax
  40b1f7:	00 10                	add    BYTE PTR [eax],dl
  40b1f9:	00 00                	add    BYTE PTR [eax],al
  40b1fb:	00 1c 00             	add    BYTE PTR [eax+eax*1],bl
  40b1fe:	00 00                	add    BYTE PTR [eax],al
  40b200:	20 66 ff             	and    BYTE PTR [esi-0x1],ah
  40b203:	ff 03                	inc    DWORD PTR [ebx]
  40b205:	00 00                	add    BYTE PTR [eax],al
  40b207:	00 00                	add    BYTE PTR [eax],al
  40b209:	00 00                	add    BYTE PTR [eax],al
	...

0040b20c <.eh_frame>:
  40b20c:	14 00                	adc    al,0x0
  40b20e:	00 00                	add    BYTE PTR [eax],al
  40b210:	00 00                	add    BYTE PTR [eax],al
  40b212:	00 00                	add    BYTE PTR [eax],al
  40b214:	01 7a 52             	add    DWORD PTR [edx+0x52],edi
  40b217:	00 01                	add    BYTE PTR [ecx],al
  40b219:	7c 08                	jl     40b223 <.eh_frame+0x17>
  40b21b:	01 1b                	add    DWORD PTR [ebx],ebx
  40b21d:	0c 04                	or     al,0x4
  40b21f:	04 88                	add    al,0x88
  40b221:	01 00                	add    DWORD PTR [eax],eax
  40b223:	00 14 00             	add    BYTE PTR [eax+eax*1],dl
  40b226:	00 00                	add    BYTE PTR [eax],al
  40b228:	1c 00                	sbb    al,0x0
  40b22a:	00 00                	add    BYTE PTR [eax],al
  40b22c:	04 66                	add    al,0x66
  40b22e:	ff                   	(bad)  
  40b22f:	ff 2c 00             	jmp    FWORD PTR [eax+eax*1]
  40b232:	00 00                	add    BYTE PTR [eax],al
  40b234:	00 4e 0e             	add    BYTE PTR [esi+0xe],cl
  40b237:	10 5c 0e 04          	adc    BYTE PTR [esi+ecx*1+0x4],bl
  40b23b:	00 20                	add    BYTE PTR [eax],ah
  40b23d:	00 00                	add    BYTE PTR [eax],al
  40b23f:	00 34 00             	add    BYTE PTR [eax+eax*1],dh
  40b242:	00 00                	add    BYTE PTR [eax],al
  40b244:	1c 66                	sbb    al,0x66
  40b246:	ff                   	(bad)  
  40b247:	ff 49 00             	dec    DWORD PTR [ecx+0x0]
  40b24a:	00 00                	add    BYTE PTR [eax],al
  40b24c:	00 41 0e             	add    BYTE PTR [ecx+0xe],al
  40b24f:	08 83 02 43 0e 20    	or     BYTE PTR [ebx+0x200e4302],al
  40b255:	6d                   	ins    DWORD PTR es:[edi],dx
  40b256:	0a 0e                	or     cl,BYTE PTR [esi]
  40b258:	08 41 c3             	or     BYTE PTR [ecx-0x3d],al
  40b25b:	0e                   	push   cs
  40b25c:	04 41                	add    al,0x41
  40b25e:	0b 00                	or     eax,DWORD PTR [eax]
  40b260:	10 00                	adc    BYTE PTR [eax],al
  40b262:	00 00                	add    BYTE PTR [eax],al
  40b264:	58                   	pop    eax
  40b265:	00 00                	add    BYTE PTR [eax],al
  40b267:	00 48 66             	add    BYTE PTR [eax+0x66],cl
  40b26a:	ff                   	(bad)  
  40b26b:	ff 1c 00             	call   FWORD PTR [eax+eax*1]
  40b26e:	00 00                	add    BYTE PTR [eax],al
  40b270:	00 00                	add    BYTE PTR [eax],al
	...

0040b274 <.eh_frame>:
  40b274:	14 00                	adc    al,0x0
  40b276:	00 00                	add    BYTE PTR [eax],al
  40b278:	00 00                	add    BYTE PTR [eax],al
  40b27a:	00 00                	add    BYTE PTR [eax],al
  40b27c:	01 7a 52             	add    DWORD PTR [edx+0x52],edi
  40b27f:	00 01                	add    BYTE PTR [ecx],al
  40b281:	7c 08                	jl     40b28b <.eh_frame+0x17>
  40b283:	01 1b                	add    DWORD PTR [ebx],ebx
  40b285:	0c 04                	or     al,0x4
  40b287:	04 88                	add    al,0x88
  40b289:	01 00                	add    DWORD PTR [eax],eax
  40b28b:	00 1c 00             	add    BYTE PTR [eax+eax*1],bl
  40b28e:	00 00                	add    BYTE PTR [eax],al
  40b290:	1c 00                	sbb    al,0x0
  40b292:	00 00                	add    BYTE PTR [eax],al
  40b294:	3c 66                	cmp    al,0x66
  40b296:	ff                   	(bad)  
  40b297:	ff 43 00             	inc    DWORD PTR [ebx+0x0]
  40b29a:	00 00                	add    BYTE PTR [eax],al
  40b29c:	00 43 0e             	add    BYTE PTR [ebx+0xe],al
  40b29f:	20 55 0a             	and    BYTE PTR [ebp+0xa],dl
  40b2a2:	0e                   	push   cs
  40b2a3:	04 48                	add    al,0x48
  40b2a5:	0b 60 0e             	or     esp,DWORD PTR [eax+0xe]
  40b2a8:	04 00                	add    al,0x0
  40b2aa:	00 00                	add    BYTE PTR [eax],al
  40b2ac:	38 00                	cmp    BYTE PTR [eax],al
  40b2ae:	00 00                	add    BYTE PTR [eax],al
  40b2b0:	3c 00                	cmp    al,0x0
  40b2b2:	00 00                	add    BYTE PTR [eax],al
  40b2b4:	6c                   	ins    BYTE PTR es:[edi],dx
  40b2b5:	66 ff                	data16 (bad) 
  40b2b7:	ff 86 00 00 00 00    	inc    DWORD PTR [esi+0x0]
  40b2bd:	41                   	inc    ecx
  40b2be:	0e                   	push   cs
  40b2bf:	08 86 02 41 0e 0c    	or     BYTE PTR [esi+0xc0e4102],al
  40b2c5:	83 03 43             	add    DWORD PTR [ebx],0x43
  40b2c8:	0e                   	push   cs
  40b2c9:	20 64 0a 0e          	and    BYTE PTR [edx+ecx*1+0xe],ah
  40b2cd:	0c 46                	or     al,0x46
  40b2cf:	c3                   	ret    
  40b2d0:	0e                   	push   cs
  40b2d1:	08 41 c6             	or     BYTE PTR [ecx-0x3a],al
  40b2d4:	0e                   	push   cs
  40b2d5:	04 43                	add    al,0x43
  40b2d7:	0b 6b 0a             	or     ebp,DWORD PTR [ebx+0xa]
  40b2da:	0e                   	push   cs
  40b2db:	0c 46                	or     al,0x46
  40b2dd:	c3                   	ret    
  40b2de:	0e                   	push   cs
  40b2df:	08 41 c6             	or     BYTE PTR [ecx-0x3a],al
  40b2e2:	0e                   	push   cs
  40b2e3:	04 43                	add    al,0x43
  40b2e5:	0b 00                	or     eax,DWORD PTR [eax]
  40b2e7:	00 10                	add    BYTE PTR [eax],dl
  40b2e9:	00 00                	add    BYTE PTR [eax],al
  40b2eb:	00 78 00             	add    BYTE PTR [eax+0x0],bh
  40b2ee:	00 00                	add    BYTE PTR [eax],al
  40b2f0:	c0 66 ff ff          	shl    BYTE PTR [esi-0x1],0xff
  40b2f4:	03 00                	add    eax,DWORD PTR [eax]
  40b2f6:	00 00                	add    BYTE PTR [eax],al
  40b2f8:	00 00                	add    BYTE PTR [eax],al
	...

0040b2fc <.eh_frame>:
  40b2fc:	14 00                	adc    al,0x0
  40b2fe:	00 00                	add    BYTE PTR [eax],al
  40b300:	00 00                	add    BYTE PTR [eax],al
  40b302:	00 00                	add    BYTE PTR [eax],al
  40b304:	01 7a 52             	add    DWORD PTR [edx+0x52],edi
  40b307:	00 01                	add    BYTE PTR [ecx],al
  40b309:	7c 08                	jl     40b313 <.eh_frame+0x17>
  40b30b:	01 1b                	add    DWORD PTR [ebx],ebx
  40b30d:	0c 04                	or     al,0x4
  40b30f:	04 88                	add    al,0x88
  40b311:	01 00                	add    DWORD PTR [eax],eax
  40b313:	00 24 00             	add    BYTE PTR [eax+eax*1],ah
  40b316:	00 00                	add    BYTE PTR [eax],al
  40b318:	1c 00                	sbb    al,0x0
  40b31a:	00 00                	add    BYTE PTR [eax],al
  40b31c:	a4                   	movs   BYTE PTR es:[edi],BYTE PTR ds:[esi]
  40b31d:	66 ff                	data16 (bad) 
  40b31f:	ff 62 00             	jmp    DWORD PTR [edx+0x0]
  40b322:	00 00                	add    BYTE PTR [eax],al
  40b324:	00 41 0e             	add    BYTE PTR [ecx+0xe],al
  40b327:	08 85 02 42 0d 05    	or     BYTE PTR [ebp+0x50d4202],al
  40b32d:	45                   	inc    ebp
  40b32e:	86 03                	xchg   BYTE PTR [ebx],al
  40b330:	83 04 02 57          	add    DWORD PTR [edx+eax*1],0x57
  40b334:	c3                   	ret    
  40b335:	41                   	inc    ecx
  40b336:	c6 41 c5 0c          	mov    BYTE PTR [ecx-0x3b],0xc
  40b33a:	04 04                	add    al,0x4
  40b33c:	34 00                	xor    al,0x0
  40b33e:	00 00                	add    BYTE PTR [eax],al
  40b340:	44                   	inc    esp
  40b341:	00 00                	add    BYTE PTR [eax],al
  40b343:	00 ec                	add    ah,ch
  40b345:	66 ff                	data16 (bad) 
  40b347:	ff 81 00 00 00 00    	inc    DWORD PTR [ecx+0x0]
  40b34d:	41                   	inc    ecx
  40b34e:	0e                   	push   cs
  40b34f:	08 85 02 42 0d 05    	or     BYTE PTR [ebp+0x50d4202],al
  40b355:	41                   	inc    ecx
  40b356:	86 03                	xchg   BYTE PTR [ebx],al
  40b358:	46                   	inc    esi
  40b359:	83 04 4f 0a          	add    DWORD PTR [edi+ecx*2],0xa
  40b35d:	c3                   	ret    
  40b35e:	41                   	inc    ecx
  40b35f:	c6 41 c5 0c          	mov    BYTE PTR [ecx-0x3b],0xc
  40b363:	04 04                	add    al,0x4
  40b365:	45                   	inc    ebp
  40b366:	0b 02                	or     eax,DWORD PTR [edx]
  40b368:	57                   	push   edi
  40b369:	0a c3                	or     al,bl
  40b36b:	41                   	inc    ecx
  40b36c:	c6 41 c5 0c          	mov    BYTE PTR [ecx-0x3b],0xc
  40b370:	04 04                	add    al,0x4
  40b372:	41                   	inc    ecx
  40b373:	0b 2c 00             	or     ebp,DWORD PTR [eax+eax*1]
  40b376:	00 00                	add    BYTE PTR [eax],al
  40b378:	7c 00                	jl     40b37a <.eh_frame+0x7e>
  40b37a:	00 00                	add    BYTE PTR [eax],al
  40b37c:	44                   	inc    esp
  40b37d:	67 ff                	addr16 (bad) 
  40b37f:	ff 91 00 00 00 00    	call   DWORD PTR [ecx+0x0]
  40b385:	41                   	inc    ecx
  40b386:	0e                   	push   cs
  40b387:	08 85 02 42 0d 05    	or     BYTE PTR [ebp+0x50d4202],al
  40b38d:	44                   	inc    esp
  40b38e:	83 03 52             	add    DWORD PTR [ebx],0x52
  40b391:	0a c5                	or     al,ch
  40b393:	c3                   	ret    
  40b394:	0c 04                	or     al,0x4
  40b396:	04 47                	add    al,0x47
  40b398:	0b 02                	or     eax,DWORD PTR [edx]
  40b39a:	45                   	inc    ebp
  40b39b:	0a c3                	or     al,bl
  40b39d:	c5 0c 04             	lds    ecx,FWORD PTR [esp+eax*1]
  40b3a0:	04 41                	add    al,0x41
  40b3a2:	0b 00                	or     eax,DWORD PTR [eax]
  40b3a4:	28 00                	sub    BYTE PTR [eax],al
  40b3a6:	00 00                	add    BYTE PTR [eax],al
  40b3a8:	ac                   	lods   al,BYTE PTR ds:[esi]
  40b3a9:	00 00                	add    BYTE PTR [eax],al
  40b3ab:	00 b4 67 ff ff 97 00 	add    BYTE PTR [edi+eiz*2+0x97ffff],dh
  40b3b2:	00 00                	add    BYTE PTR [eax],al
  40b3b4:	00 41 0e             	add    BYTE PTR [ecx+0xe],al
  40b3b7:	08 85 02 42 0d 05    	or     BYTE PTR [ebp+0x50d4202],al
  40b3bd:	61                   	popa   
  40b3be:	0a c5                	or     al,ch
  40b3c0:	0c 04                	or     al,0x4
  40b3c2:	04 41                	add    al,0x41
  40b3c4:	0b 02                	or     eax,DWORD PTR [edx]
  40b3c6:	47                   	inc    edi
  40b3c7:	0a c5                	or     al,ch
  40b3c9:	0c 04                	or     al,0x4
  40b3cb:	04 44                	add    al,0x44
  40b3cd:	0b 00                	or     eax,DWORD PTR [eax]
	...

0040b3d0 <.eh_frame>:
  40b3d0:	14 00                	adc    al,0x0
  40b3d2:	00 00                	add    BYTE PTR [eax],al
  40b3d4:	00 00                	add    BYTE PTR [eax],al
  40b3d6:	00 00                	add    BYTE PTR [eax],al
  40b3d8:	01 7a 52             	add    DWORD PTR [edx+0x52],edi
  40b3db:	00 01                	add    BYTE PTR [ecx],al
  40b3dd:	7c 08                	jl     40b3e7 <.eh_frame+0x17>
  40b3df:	01 1b                	add    DWORD PTR [ebx],ebx
  40b3e1:	0c 04                	or     al,0x4
  40b3e3:	04 88                	add    al,0x88
  40b3e5:	01 00                	add    DWORD PTR [eax],eax
  40b3e7:	00 1c 00             	add    BYTE PTR [eax+eax*1],bl
  40b3ea:	00 00                	add    BYTE PTR [eax],al
  40b3ec:	1c 00                	sbb    al,0x0
  40b3ee:	00 00                	add    BYTE PTR [eax],al
  40b3f0:	10 68 ff             	adc    BYTE PTR [eax-0x1],ch
  40b3f3:	ff 4a 00             	dec    DWORD PTR [edx+0x0]
  40b3f6:	00 00                	add    BYTE PTR [eax],al
  40b3f8:	00 41 0e             	add    BYTE PTR [ecx+0xe],al
  40b3fb:	08 86 02 41 0e 0c    	or     BYTE PTR [esi+0xc0e4102],al
  40b401:	83 03 43             	add    DWORD PTR [ebx],0x43
  40b404:	0e                   	push   cs
  40b405:	20 00                	and    BYTE PTR [eax],al
  40b407:	00 3c 00             	add    BYTE PTR [eax+eax*1],bh
  40b40a:	00 00                	add    BYTE PTR [eax],al
  40b40c:	3c 00                	cmp    al,0x0
  40b40e:	00 00                	add    BYTE PTR [eax],al
  40b410:	40                   	inc    eax
  40b411:	68 ff ff e3 00       	push   0xe3ffff
  40b416:	00 00                	add    BYTE PTR [eax],al
  40b418:	00 41 0e             	add    BYTE PTR [ecx+0xe],al
  40b41b:	08 85 02 42 0d 05    	or     BYTE PTR [ebp+0x50d4202],al
  40b421:	41                   	inc    ecx
  40b422:	87 03                	xchg   DWORD PTR [ebx],eax
  40b424:	43                   	inc    ebx
  40b425:	86 04 43             	xchg   BYTE PTR [ebx+eax*2],al
  40b428:	83 05 02 43 0a c3 41 	add    DWORD PTR ds:0xc30a4302,0x41
  40b42f:	c6 41 c7 41          	mov    BYTE PTR [ecx-0x39],0x41
  40b433:	c5 0c 04             	lds    ecx,FWORD PTR [esp+eax*1]
  40b436:	04 41                	add    al,0x41
  40b438:	0b 02                	or     eax,DWORD PTR [edx]
  40b43a:	76 0a                	jbe    40b446 <.eh_frame+0x76>
  40b43c:	c3                   	ret    
  40b43d:	41                   	inc    ecx
  40b43e:	c6 41 c7 41          	mov    BYTE PTR [ecx-0x39],0x41
  40b442:	c5 0c 04             	lds    ecx,FWORD PTR [esp+eax*1]
  40b445:	04 41                	add    al,0x41
  40b447:	0b 34 00             	or     esi,DWORD PTR [eax+eax*1]
  40b44a:	00 00                	add    BYTE PTR [eax],al
  40b44c:	7c 00                	jl     40b44e <.eh_frame+0x7e>
  40b44e:	00 00                	add    BYTE PTR [eax],al
  40b450:	f0 68 ff ff d1 01    	lock push 0x1d1ffff
  40b456:	00 00                	add    BYTE PTR [eax],al
  40b458:	00 6a 0e             	add    BYTE PTR [edx+0xe],ch
  40b45b:	08 87 02 41 0e 0c    	or     BYTE PTR [edi+0xc0e4102],al
  40b461:	86 03                	xchg   BYTE PTR [ebx],al
  40b463:	41                   	inc    ecx
  40b464:	0e                   	push   cs
  40b465:	10 83 04 43 0e 30    	adc    BYTE PTR [ebx+0x300e4304],al
  40b46b:	02 e3                	add    ah,bl
  40b46d:	0a 0e                	or     cl,BYTE PTR [esi]
  40b46f:	10 41 c3             	adc    BYTE PTR [ecx-0x3d],al
  40b472:	0e                   	push   cs
  40b473:	0c 41                	or     al,0x41
  40b475:	c6                   	(bad)  
  40b476:	0e                   	push   cs
  40b477:	08 41 c7             	or     BYTE PTR [ecx-0x39],al
  40b47a:	0e                   	push   cs
  40b47b:	04 41                	add    al,0x41
  40b47d:	0b 00                	or     eax,DWORD PTR [eax]
	...

0040b480 <.eh_frame>:
  40b480:	14 00                	adc    al,0x0
  40b482:	00 00                	add    BYTE PTR [eax],al
  40b484:	00 00                	add    BYTE PTR [eax],al
  40b486:	00 00                	add    BYTE PTR [eax],al
  40b488:	01 7a 52             	add    DWORD PTR [edx+0x52],edi
  40b48b:	00 01                	add    BYTE PTR [ecx],al
  40b48d:	7c 08                	jl     40b497 <.eh_frame+0x17>
  40b48f:	01 1b                	add    DWORD PTR [ebx],ebx
  40b491:	0c 04                	or     al,0x4
  40b493:	04 88                	add    al,0x88
  40b495:	01 00                	add    DWORD PTR [eax],eax
  40b497:	00 38                	add    BYTE PTR [eax],bh
  40b499:	00 00                	add    BYTE PTR [eax],al
  40b49b:	00 1c 00             	add    BYTE PTR [eax+eax*1],bl
  40b49e:	00 00                	add    BYTE PTR [eax],al
  40b4a0:	b0 6a                	mov    al,0x6a
  40b4a2:	ff                   	(bad)  
  40b4a3:	ff 90 00 00 00 00    	call   DWORD PTR [eax+0x0]
  40b4a9:	41                   	inc    ecx
  40b4aa:	0e                   	push   cs
  40b4ab:	08 87 02 43 0e 0c    	or     BYTE PTR [edi+0xc0e4302],al
  40b4b1:	86 03                	xchg   BYTE PTR [ebx],al
  40b4b3:	41                   	inc    ecx
  40b4b4:	0e                   	push   cs
  40b4b5:	10 83 04 02 4d 0a    	adc    BYTE PTR [ebx+0xa4d0204],al
  40b4bb:	c3                   	ret    
  40b4bc:	0e                   	push   cs
  40b4bd:	0c 41                	or     al,0x41
  40b4bf:	c6                   	(bad)  
  40b4c0:	0e                   	push   cs
  40b4c1:	08 41 c7             	or     BYTE PTR [ecx-0x39],al
  40b4c4:	0e                   	push   cs
  40b4c5:	04 41                	add    al,0x41
  40b4c7:	0b 78 c3             	or     edi,DWORD PTR [eax-0x3d]
  40b4ca:	0e                   	push   cs
  40b4cb:	0c 41                	or     al,0x41
  40b4cd:	c6                   	(bad)  
  40b4ce:	0e                   	push   cs
  40b4cf:	08 41 c7             	or     BYTE PTR [ecx-0x39],al
  40b4d2:	0e                   	push   cs
  40b4d3:	04 6c                	add    al,0x6c
  40b4d5:	00 00                	add    BYTE PTR [eax],al
  40b4d7:	00 58 00             	add    BYTE PTR [eax+0x0],bl
  40b4da:	00 00                	add    BYTE PTR [eax],al
  40b4dc:	04 6b                	add    al,0x6b
  40b4de:	ff                   	(bad)  
  40b4df:	ff 0f                	dec    DWORD PTR [edi]
  40b4e1:	02 00                	add    al,BYTE PTR [eax]
  40b4e3:	00 00                	add    BYTE PTR [eax],al
  40b4e5:	41                   	inc    ecx
  40b4e6:	0e                   	push   cs
  40b4e7:	08 85 02 41 0e 0c    	or     BYTE PTR [ebp+0xc0e4102],al
  40b4ed:	87 03                	xchg   DWORD PTR [ebx],eax
  40b4ef:	41                   	inc    ecx
  40b4f0:	0e                   	push   cs
  40b4f1:	10 86 04 41 0e 14    	adc    BYTE PTR [esi+0x140e4104],al
  40b4f7:	83 05 43 0e 18 02 dc 	add    DWORD PTR ds:0x2180e43,0xffffffdc
  40b4fe:	0a 0e                	or     cl,BYTE PTR [esi]
  40b500:	14 43                	adc    al,0x43
  40b502:	c3                   	ret    
  40b503:	0e                   	push   cs
  40b504:	10 41 c6             	adc    BYTE PTR [ecx-0x3a],al
  40b507:	0e                   	push   cs
  40b508:	0c 41                	or     al,0x41
  40b50a:	c7                   	(bad)  
  40b50b:	0e                   	push   cs
  40b50c:	08 41 c5             	or     BYTE PTR [ecx-0x3b],al
  40b50f:	0e                   	push   cs
  40b510:	04 47                	add    al,0x47
  40b512:	0b 02                	or     eax,DWORD PTR [edx]
  40b514:	86 0a                	xchg   BYTE PTR [edx],cl
  40b516:	0e                   	push   cs
  40b517:	14 41                	adc    al,0x41
  40b519:	c3                   	ret    
  40b51a:	0e                   	push   cs
  40b51b:	10 44 c6 0e          	adc    BYTE PTR [esi+eax*8+0xe],al
  40b51f:	0c 41                	or     al,0x41
  40b521:	c7                   	(bad)  
  40b522:	0e                   	push   cs
  40b523:	08 41 c5             	or     BYTE PTR [ecx-0x3b],al
  40b526:	0e                   	push   cs
  40b527:	04 43                	add    al,0x43
  40b529:	0b 02                	or     eax,DWORD PTR [edx]
  40b52b:	78 0a                	js     40b537 <.eh_frame+0xb7>
  40b52d:	0e                   	push   cs
  40b52e:	14 44                	adc    al,0x44
  40b530:	c3                   	ret    
  40b531:	0e                   	push   cs
  40b532:	10 41 c6             	adc    BYTE PTR [ecx-0x3a],al
  40b535:	0e                   	push   cs
  40b536:	0c 41                	or     al,0x41
  40b538:	c7                   	(bad)  
  40b539:	0e                   	push   cs
  40b53a:	08 41 c5             	or     BYTE PTR [ecx-0x3b],al
  40b53d:	0e                   	push   cs
  40b53e:	04 41                	add    al,0x41
  40b540:	0b 00                	or     eax,DWORD PTR [eax]
  40b542:	00 00                	add    BYTE PTR [eax],al
  40b544:	38 00                	cmp    BYTE PTR [eax],al
  40b546:	00 00                	add    BYTE PTR [eax],al
  40b548:	c8 00 00 00          	enter  0x0,0x0
  40b54c:	a4                   	movs   BYTE PTR es:[edi],BYTE PTR ds:[esi]
  40b54d:	6c                   	ins    BYTE PTR es:[edi],dx
  40b54e:	ff                   	(bad)  
  40b54f:	ff 5e 00             	call   FWORD PTR [esi+0x0]
  40b552:	00 00                	add    BYTE PTR [eax],al
  40b554:	00 41 0e             	add    BYTE PTR [ecx+0xe],al
  40b557:	08 85 02 41 0e 0c    	or     BYTE PTR [ebp+0xc0e4102],al
  40b55d:	87 03                	xchg   DWORD PTR [ebx],eax
  40b55f:	41                   	inc    ecx
  40b560:	0e                   	push   cs
  40b561:	10 86 04 43 0e 14    	adc    BYTE PTR [esi+0x140e4304],al
  40b567:	83 05 43 0e 30 02 50 	add    DWORD PTR ds:0x2300e43,0x50
  40b56e:	0e                   	push   cs
  40b56f:	14 41                	adc    al,0x41
  40b571:	c3                   	ret    
  40b572:	0e                   	push   cs
  40b573:	10 41 c6             	adc    BYTE PTR [ecx-0x3a],al
  40b576:	0e                   	push   cs
  40b577:	0c 41                	or     al,0x41
  40b579:	c7                   	(bad)  
  40b57a:	0e                   	push   cs
  40b57b:	08 41 c5             	or     BYTE PTR [ecx-0x3b],al
  40b57e:	0e                   	push   cs
  40b57f:	04 54                	add    al,0x54
  40b581:	00 00                	add    BYTE PTR [eax],al
  40b583:	00 04 01             	add    BYTE PTR [ecx+eax*1],al
  40b586:	00 00                	add    BYTE PTR [eax],al
  40b588:	c8 6c ff ff          	enter  0xff6c,0xff
  40b58c:	30 02                	xor    BYTE PTR [edx],al
  40b58e:	00 00                	add    BYTE PTR [eax],al
  40b590:	00 41 0e             	add    BYTE PTR [ecx+0xe],al
  40b593:	08 85 02 41 0e 0c    	or     BYTE PTR [ebp+0xc0e4102],al
  40b599:	87 03                	xchg   DWORD PTR [ebx],eax
  40b59b:	43                   	inc    ebx
  40b59c:	0e                   	push   cs
  40b59d:	10 86 04 41 0e 14    	adc    BYTE PTR [esi+0x140e4104],al
  40b5a3:	83 05 43 0e 40 02 aa 	add    DWORD PTR ds:0x2400e43,0xffffffaa
  40b5aa:	0a 0e                	or     cl,BYTE PTR [esi]
  40b5ac:	14 41                	adc    al,0x41
  40b5ae:	c3                   	ret    
  40b5af:	0e                   	push   cs
  40b5b0:	10 41 c6             	adc    BYTE PTR [ecx-0x3a],al
  40b5b3:	0e                   	push   cs
  40b5b4:	0c 41                	or     al,0x41
  40b5b6:	c7                   	(bad)  
  40b5b7:	0e                   	push   cs
  40b5b8:	08 41 c5             	or     BYTE PTR [ecx-0x3b],al
  40b5bb:	0e                   	push   cs
  40b5bc:	04 41                	add    al,0x41
  40b5be:	0b 02                	or     eax,DWORD PTR [edx]
  40b5c0:	43                   	inc    ebx
  40b5c1:	0a 0e                	or     cl,BYTE PTR [esi]
  40b5c3:	14 43                	adc    al,0x43
  40b5c5:	c3                   	ret    
  40b5c6:	0e                   	push   cs
  40b5c7:	10 41 c6             	adc    BYTE PTR [ecx-0x3a],al
  40b5ca:	0e                   	push   cs
  40b5cb:	0c 41                	or     al,0x41
  40b5cd:	c7                   	(bad)  
  40b5ce:	0e                   	push   cs
  40b5cf:	08 41 c5             	or     BYTE PTR [ecx-0x3b],al
  40b5d2:	0e                   	push   cs
  40b5d3:	04 41                	add    al,0x41
  40b5d5:	0b 00                	or     eax,DWORD PTR [eax]
  40b5d7:	00 30                	add    BYTE PTR [eax],dh
  40b5d9:	00 00                	add    BYTE PTR [eax],al
  40b5db:	00 5c 01 00          	add    BYTE PTR [ecx+eax*1+0x0],bl
  40b5df:	00 a0 6e ff ff 4d    	add    BYTE PTR [eax+0x4dffff6e],ah
  40b5e5:	00 00                	add    BYTE PTR [eax],al
  40b5e7:	00 00                	add    BYTE PTR [eax],al
  40b5e9:	41                   	inc    ecx
  40b5ea:	0e                   	push   cs
  40b5eb:	08 87 02 43 0e 0c    	or     BYTE PTR [edi+0xc0e4302],al
  40b5f1:	86 03                	xchg   BYTE PTR [ebx],al
  40b5f3:	41                   	inc    ecx
  40b5f4:	0e                   	push   cs
  40b5f5:	10 83 04 43 0e 20    	adc    BYTE PTR [ebx+0x200e4304],al
  40b5fb:	7f 0e                	jg     40b60b <.eh_frame+0x18b>
  40b5fd:	10 43 c3             	adc    BYTE PTR [ebx-0x3d],al
  40b600:	0e                   	push   cs
  40b601:	0c 41                	or     al,0x41
  40b603:	c6                   	(bad)  
  40b604:	0e                   	push   cs
  40b605:	08 41 c7             	or     BYTE PTR [ecx-0x39],al
  40b608:	0e                   	push   cs
  40b609:	04 00                	add    al,0x0
  40b60b:	00 44 00 00          	add    BYTE PTR [eax+eax*1+0x0],al
  40b60f:	00 90 01 00 00 bc    	add    BYTE PTR [eax-0x43ffffff],dl
  40b615:	6e                   	outs   dx,BYTE PTR ds:[esi]
  40b616:	ff                   	(bad)  
  40b617:	ff 61 00             	jmp    DWORD PTR [ecx+0x0]
  40b61a:	00 00                	add    BYTE PTR [eax],al
  40b61c:	00 41 0e             	add    BYTE PTR [ecx+0xe],al
  40b61f:	08 87 02 41 0e 0c    	or     BYTE PTR [edi+0xc0e4102],al
  40b625:	86 03                	xchg   BYTE PTR [ebx],al
  40b627:	43                   	inc    ebx
  40b628:	0e                   	push   cs
  40b629:	10 83 04 45 0e 20    	adc    BYTE PTR [ebx+0x200e4504],al
  40b62f:	02 45 0a             	add    al,BYTE PTR [ebp+0xa]
  40b632:	0e                   	push   cs
  40b633:	10 43 c3             	adc    BYTE PTR [ebx-0x3d],al
  40b636:	0e                   	push   cs
  40b637:	0c 41                	or     al,0x41
  40b639:	c6                   	(bad)  
  40b63a:	0e                   	push   cs
  40b63b:	08 41 c7             	or     BYTE PTR [ecx-0x39],al
  40b63e:	0e                   	push   cs
  40b63f:	04 41                	add    al,0x41
  40b641:	0b 43 0e             	or     eax,DWORD PTR [ebx+0xe]
  40b644:	10 46 c3             	adc    BYTE PTR [esi-0x3d],al
  40b647:	0e                   	push   cs
  40b648:	0c 41                	or     al,0x41
  40b64a:	c6                   	(bad)  
  40b64b:	0e                   	push   cs
  40b64c:	08 41 c7             	or     BYTE PTR [ecx-0x39],al
  40b64f:	0e                   	push   cs
  40b650:	04 00                	add    al,0x0
  40b652:	00 00                	add    BYTE PTR [eax],al
  40b654:	10 00                	adc    BYTE PTR [eax],al
  40b656:	00 00                	add    BYTE PTR [eax],al
  40b658:	d8 01                	fadd   DWORD PTR [ecx]
  40b65a:	00 00                	add    BYTE PTR [eax],al
  40b65c:	e4 6e                	in     al,0x6e
  40b65e:	ff                   	(bad)  
  40b65f:	ff 19                	call   FWORD PTR [ecx]
  40b661:	00 00                	add    BYTE PTR [eax],al
  40b663:	00 00                	add    BYTE PTR [eax],al
  40b665:	00 00                	add    BYTE PTR [eax],al
  40b667:	00 28                	add    BYTE PTR [eax],ch
  40b669:	00 00                	add    BYTE PTR [eax],al
  40b66b:	00 ec                	add    ah,ch
  40b66d:	01 00                	add    DWORD PTR [eax],eax
  40b66f:	00 f0                	add    al,dh
  40b671:	6e                   	outs   dx,BYTE PTR ds:[esi]
  40b672:	ff                   	(bad)  
  40b673:	ff                   	(bad)  
  40b674:	3a 00                	cmp    al,BYTE PTR [eax]
  40b676:	00 00                	add    BYTE PTR [eax],al
  40b678:	00 41 0e             	add    BYTE PTR [ecx+0xe],al
  40b67b:	08 86 02 43 0e 0c    	or     BYTE PTR [esi+0xc0e4302],al
  40b681:	83 03 45             	add    DWORD PTR [ebx],0x45
  40b684:	0e                   	push   cs
  40b685:	20 6e 0e             	and    BYTE PTR [esi+0xe],ch
  40b688:	0c 41                	or     al,0x41
  40b68a:	c3                   	ret    
  40b68b:	0e                   	push   cs
  40b68c:	08 41 c6             	or     BYTE PTR [ecx-0x3a],al
  40b68f:	0e                   	push   cs
  40b690:	04 00                	add    al,0x0
  40b692:	00 00                	add    BYTE PTR [eax],al
  40b694:	3c 00                	cmp    al,0x0
  40b696:	00 00                	add    BYTE PTR [eax],al
  40b698:	18 02                	sbb    BYTE PTR [edx],al
  40b69a:	00 00                	add    BYTE PTR [eax],al
  40b69c:	04 6f                	add    al,0x6f
  40b69e:	ff                   	(bad)  
  40b69f:	ff af 05 00 00 00    	jmp    FWORD PTR [edi+0x5]
  40b6a5:	41                   	inc    ecx
  40b6a6:	0e                   	push   cs
  40b6a7:	08 85 02 42 0d 05    	or     BYTE PTR [ebp+0x50d4202],al
  40b6ad:	43                   	inc    ebx
  40b6ae:	87 03                	xchg   DWORD PTR [ebx],eax
  40b6b0:	86 04 83             	xchg   BYTE PTR [ebx+eax*4],al
  40b6b3:	05 02 59 0a c3       	add    eax,0xc30a5902
  40b6b8:	41                   	inc    ecx
  40b6b9:	c6 41 c7 41          	mov    BYTE PTR [ecx-0x39],0x41
  40b6bd:	c5 0c 04             	lds    ecx,FWORD PTR [esp+eax*1]
  40b6c0:	04 41                	add    al,0x41
  40b6c2:	0b 03                	or     eax,DWORD PTR [ebx]
  40b6c4:	2d 03 0a c3 41       	sub    eax,0x41c30a03
  40b6c9:	c6 41 c7 41          	mov    BYTE PTR [ecx-0x39],0x41
  40b6cd:	c5 0c 04             	lds    ecx,FWORD PTR [esp+eax*1]
  40b6d0:	04 41                	add    al,0x41
  40b6d2:	0b 00                	or     eax,DWORD PTR [eax]
  40b6d4:	38 00                	cmp    BYTE PTR [eax],al
  40b6d6:	00 00                	add    BYTE PTR [eax],al
  40b6d8:	58                   	pop    eax
  40b6d9:	02 00                	add    al,BYTE PTR [eax]
  40b6db:	00 74 74 ff          	add    BYTE PTR [esp+esi*2-0x1],dh
  40b6df:	ff b4 00 00 00 00 41 	push   DWORD PTR [eax+eax*1+0x41000000]
  40b6e6:	0e                   	push   cs
  40b6e7:	08 85 02 42 0d 05    	or     BYTE PTR [ebp+0x50d4202],al
  40b6ed:	46                   	inc    esi
  40b6ee:	87 03                	xchg   DWORD PTR [ebx],eax
  40b6f0:	86 04 83             	xchg   BYTE PTR [ebx+eax*4],al
  40b6f3:	05 78 0a c3 41       	add    eax,0x41c30a78
  40b6f8:	c6 41 c7 41          	mov    BYTE PTR [ecx-0x39],0x41
  40b6fc:	c5 0c 04             	lds    ecx,FWORD PTR [esp+eax*1]
  40b6ff:	04 41                	add    al,0x41
  40b701:	0b 02                	or     eax,DWORD PTR [edx]
  40b703:	6b c3 41             	imul   eax,ebx,0x41
  40b706:	c6 41 c7 41          	mov    BYTE PTR [ecx-0x39],0x41
  40b70a:	c5 0c 04             	lds    ecx,FWORD PTR [esp+eax*1]
  40b70d:	04 00                	add    al,0x0
  40b70f:	00 10                	add    BYTE PTR [eax],dl
  40b711:	00 00                	add    BYTE PTR [eax],al
  40b713:	00 94 02 00 00 f8 74 	add    BYTE PTR [edx+eax*1+0x74f80000],dl
  40b71a:	ff                   	(bad)  
  40b71b:	ff 15 00 00 00 00    	call   DWORD PTR ds:0x0
  40b721:	00 00                	add    BYTE PTR [eax],al
	...

0040b724 <.eh_frame>:
  40b724:	14 00                	adc    al,0x0
  40b726:	00 00                	add    BYTE PTR [eax],al
  40b728:	00 00                	add    BYTE PTR [eax],al
  40b72a:	00 00                	add    BYTE PTR [eax],al
  40b72c:	01 7a 52             	add    DWORD PTR [edx+0x52],edi
  40b72f:	00 01                	add    BYTE PTR [ecx],al
  40b731:	7c 08                	jl     40b73b <.eh_frame+0x17>
  40b733:	01 1b                	add    DWORD PTR [ebx],ebx
  40b735:	0c 04                	or     al,0x4
  40b737:	04 88                	add    al,0x88
  40b739:	01 00                	add    DWORD PTR [eax],eax
  40b73b:	00 3c 00             	add    BYTE PTR [eax+eax*1],bh
  40b73e:	00 00                	add    BYTE PTR [eax],al
  40b740:	1c 00                	sbb    al,0x0
  40b742:	00 00                	add    BYTE PTR [eax],al
  40b744:	ec                   	in     al,dx
  40b745:	74 ff                	je     40b746 <.eh_frame+0x22>
  40b747:	ff                   	(bad)  
  40b748:	fd                   	std    
  40b749:	03 00                	add    eax,DWORD PTR [eax]
  40b74b:	00 00                	add    BYTE PTR [eax],al
  40b74d:	41                   	inc    ecx
  40b74e:	0e                   	push   cs
  40b74f:	08 85 02 42 0d 05    	or     BYTE PTR [ebp+0x50d4202],al
  40b755:	46                   	inc    esi
  40b756:	87 03                	xchg   DWORD PTR [ebx],eax
  40b758:	86 04 83             	xchg   BYTE PTR [ebx+eax*4],al
  40b75b:	05 02 ae 0a c3       	add    eax,0xc30aae02
  40b760:	41                   	inc    ecx
  40b761:	c6 41 c7 41          	mov    BYTE PTR [ecx-0x39],0x41
  40b765:	c5 0c 04             	lds    ecx,FWORD PTR [esp+eax*1]
  40b768:	04 46                	add    al,0x46
  40b76a:	0b 03                	or     eax,DWORD PTR [ebx]
  40b76c:	66 02 0a             	data16 add cl,BYTE PTR [edx]
  40b76f:	c3                   	ret    
  40b770:	43                   	inc    ebx
  40b771:	c6 41 c7 41          	mov    BYTE PTR [ecx-0x39],0x41
  40b775:	c5 0c 04             	lds    ecx,FWORD PTR [esp+eax*1]
  40b778:	04 45                	add    al,0x45
  40b77a:	0b 00                	or     eax,DWORD PTR [eax]

0040b77c <.eh_frame>:
  40b77c:	14 00                	adc    al,0x0
  40b77e:	00 00                	add    BYTE PTR [eax],al
  40b780:	00 00                	add    BYTE PTR [eax],al
  40b782:	00 00                	add    BYTE PTR [eax],al
  40b784:	01 7a 52             	add    DWORD PTR [edx+0x52],edi
  40b787:	00 01                	add    BYTE PTR [ecx],al
  40b789:	7c 08                	jl     40b793 <.eh_frame+0x17>
  40b78b:	01 1b                	add    DWORD PTR [ebx],ebx
  40b78d:	0c 04                	or     al,0x4
  40b78f:	04 88                	add    al,0x88
  40b791:	01 00                	add    DWORD PTR [eax],eax
  40b793:	00 40 00             	add    BYTE PTR [eax+0x0],al
  40b796:	00 00                	add    BYTE PTR [eax],al
  40b798:	1c 00                	sbb    al,0x0
  40b79a:	00 00                	add    BYTE PTR [eax],al
  40b79c:	94                   	xchg   esp,eax
  40b79d:	78 ff                	js     40b79e <.eh_frame+0x22>
  40b79f:	ff 9c 00 00 00 00 41 	call   FWORD PTR [eax+eax*1+0x41000000]
  40b7a6:	0e                   	push   cs
  40b7a7:	08 85 02 42 0d 05    	or     BYTE PTR [ebp+0x50d4202],al
  40b7ad:	41                   	inc    ecx
  40b7ae:	86 03                	xchg   BYTE PTR [ebx],al
  40b7b0:	49                   	dec    ecx
  40b7b1:	83 04 78 0a          	add    DWORD PTR [eax+edi*2],0xa
  40b7b5:	c3                   	ret    
  40b7b6:	41                   	inc    ecx
  40b7b7:	c6 41 c5 0c          	mov    BYTE PTR [ecx-0x3b],0xc
  40b7bb:	04 04                	add    al,0x4
  40b7bd:	41                   	inc    ecx
  40b7be:	0b 02                	or     eax,DWORD PTR [edx]
  40b7c0:	43                   	inc    ebx
  40b7c1:	0a c3                	or     al,bl
  40b7c3:	41                   	inc    ecx
  40b7c4:	c6 41 c5 0c          	mov    BYTE PTR [ecx-0x3b],0xc
  40b7c8:	04 04                	add    al,0x4
  40b7ca:	43                   	inc    ebx
  40b7cb:	0b 49 c3             	or     ecx,DWORD PTR [ecx-0x3d]
  40b7ce:	41                   	inc    ecx
  40b7cf:	c6 41 c5 0c          	mov    BYTE PTR [ecx-0x3b],0xc
  40b7d3:	04 04                	add    al,0x4
  40b7d5:	00 00                	add    BYTE PTR [eax],al
  40b7d7:	00 28                	add    BYTE PTR [eax],ch
  40b7d9:	00 00                	add    BYTE PTR [eax],al
  40b7db:	00 60 00             	add    BYTE PTR [eax+0x0],ah
  40b7de:	00 00                	add    BYTE PTR [eax],al
  40b7e0:	f0 78 ff             	lock js 40b7e2 <.eh_frame+0x66>
  40b7e3:	ff cd                	dec    ebp
  40b7e5:	00 00                	add    BYTE PTR [eax],al
  40b7e7:	00 00                	add    BYTE PTR [eax],al
  40b7e9:	41                   	inc    ecx
  40b7ea:	0e                   	push   cs
  40b7eb:	08 85 02 42 0d 05    	or     BYTE PTR [ebp+0x50d4202],al
  40b7f1:	42                   	inc    edx
  40b7f2:	86 03                	xchg   BYTE PTR [ebx],al
  40b7f4:	83 04 02 6b          	add    DWORD PTR [edx+eax*1],0x6b
  40b7f8:	0a c3                	or     al,bl
  40b7fa:	41                   	inc    ecx
  40b7fb:	c6 41 c5 0c          	mov    BYTE PTR [ecx-0x3b],0xc
  40b7ff:	04 04                	add    al,0x4
  40b801:	41                   	inc    ecx
  40b802:	0b 00                	or     eax,DWORD PTR [eax]
  40b804:	40                   	inc    eax
  40b805:	00 00                	add    BYTE PTR [eax],al
  40b807:	00 8c 00 00 00 94 79 	add    BYTE PTR [eax+eax*1+0x79940000],cl
  40b80e:	ff                   	(bad)  
  40b80f:	ff 9b 01 00 00 00    	call   FWORD PTR [ebx+0x1]
  40b815:	41                   	inc    ecx
  40b816:	0e                   	push   cs
  40b817:	08 85 02 41 0e 0c    	or     BYTE PTR [ebp+0xc0e4102],al
  40b81d:	87 03                	xchg   DWORD PTR [ebx],eax
  40b81f:	41                   	inc    ecx
  40b820:	0e                   	push   cs
  40b821:	10 86 04 41 0e 14    	adc    BYTE PTR [esi+0x140e4104],al
  40b827:	83 05 46 0e c0 02 03 	add    DWORD PTR ds:0x2c00e46,0x3
  40b82e:	29 01                	sub    DWORD PTR [ecx],eax
  40b830:	0a 0e                	or     cl,BYTE PTR [esi]
  40b832:	14 41                	adc    al,0x41
  40b834:	c3                   	ret    
  40b835:	0e                   	push   cs
  40b836:	10 41 c6             	adc    BYTE PTR [ecx-0x3a],al
  40b839:	0e                   	push   cs
  40b83a:	0c 41                	or     al,0x41
  40b83c:	c7                   	(bad)  
  40b83d:	0e                   	push   cs
  40b83e:	08 41 c5             	or     BYTE PTR [ecx-0x3b],al
  40b841:	0e                   	push   cs
  40b842:	04 41                	add    al,0x41
  40b844:	0b 00                	or     eax,DWORD PTR [eax]
  40b846:	00 00                	add    BYTE PTR [eax],al
  40b848:	20 00                	and    BYTE PTR [eax],al
  40b84a:	00 00                	add    BYTE PTR [eax],al
  40b84c:	d0 00                	rol    BYTE PTR [eax],1
  40b84e:	00 00                	add    BYTE PTR [eax],al
  40b850:	f0 7a ff             	lock jp 40b852 <.eh_frame+0xd6>
  40b853:	ff 46 00             	inc    DWORD PTR [esi+0x0]
  40b856:	00 00                	add    BYTE PTR [eax],al
  40b858:	00 41 0e             	add    BYTE PTR [ecx+0xe],al
  40b85b:	08 83 02 43 0e 10    	or     BYTE PTR [ebx+0x100e4302],al
  40b861:	71 0a                	jno    40b86d <.eh_frame+0xf1>
  40b863:	0e                   	push   cs
  40b864:	08 41 c3             	or     BYTE PTR [ecx-0x3d],al
  40b867:	0e                   	push   cs
  40b868:	04 41                	add    al,0x41
  40b86a:	0b 00                	or     eax,DWORD PTR [eax]
  40b86c:	24 00                	and    al,0x0
  40b86e:	00 00                	add    BYTE PTR [eax],al
  40b870:	f4                   	hlt    
  40b871:	00 00                	add    BYTE PTR [eax],al
  40b873:	00 1c 7b             	add    BYTE PTR [ebx+edi*2],bl
  40b876:	ff                   	(bad)  
  40b877:	ff 44 00 00          	inc    DWORD PTR [eax+eax*1+0x0]
  40b87b:	00 00                	add    BYTE PTR [eax],al
  40b87d:	41                   	inc    ecx
  40b87e:	0e                   	push   cs
  40b87f:	08 85 02 42 0d 05    	or     BYTE PTR [ebp+0x50d4202],al
  40b885:	44                   	inc    esp
  40b886:	83 03 6a             	add    DWORD PTR [ebx],0x6a
  40b889:	0a c5                	or     al,ch
  40b88b:	c3                   	ret    
  40b88c:	0c 04                	or     al,0x4
  40b88e:	04 41                	add    al,0x41
  40b890:	0b 00                	or     eax,DWORD PTR [eax]
  40b892:	00 00                	add    BYTE PTR [eax],al
  40b894:	28 00                	sub    BYTE PTR [eax],al
  40b896:	00 00                	add    BYTE PTR [eax],al
  40b898:	1c 01                	sbb    al,0x1
  40b89a:	00 00                	add    BYTE PTR [eax],al
  40b89c:	44                   	inc    esp
  40b89d:	7b ff                	jnp    40b89e <.eh_frame+0x122>
  40b89f:	ff 5a 00             	call   FWORD PTR [edx+0x0]
  40b8a2:	00 00                	add    BYTE PTR [eax],al
  40b8a4:	00 41 0e             	add    BYTE PTR [ecx+0xe],al
  40b8a7:	08 85 02 42 0d 05    	or     BYTE PTR [ebp+0x50d4202],al
  40b8ad:	44                   	inc    esp
  40b8ae:	83 03 6b             	add    DWORD PTR [ebx],0x6b
  40b8b1:	0a c5                	or     al,ch
  40b8b3:	c3                   	ret    
  40b8b4:	0c 04                	or     al,0x4
  40b8b6:	04 41                	add    al,0x41
  40b8b8:	0b 66 c3             	or     esp,DWORD PTR [esi-0x3d]
  40b8bb:	c5 0c 04             	lds    ecx,FWORD PTR [esp+eax*1]
  40b8be:	04 00                	add    al,0x0
  40b8c0:	18 00                	sbb    BYTE PTR [eax],al
  40b8c2:	00 00                	add    BYTE PTR [eax],al
  40b8c4:	48                   	dec    eax
  40b8c5:	01 00                	add    DWORD PTR [eax],eax
  40b8c7:	00 78 7b             	add    BYTE PTR [eax+0x7b],bh
  40b8ca:	ff                   	(bad)  
  40b8cb:	ff 27                	jmp    DWORD PTR [edi]
  40b8cd:	00 00                	add    BYTE PTR [eax],al
  40b8cf:	00 00                	add    BYTE PTR [eax],al
  40b8d1:	43                   	inc    ebx
  40b8d2:	0e                   	push   cs
  40b8d3:	10 51 0a             	adc    BYTE PTR [ecx+0xa],dl
  40b8d6:	0e                   	push   cs
  40b8d7:	04 41                	add    al,0x41
  40b8d9:	0b 00                	or     eax,DWORD PTR [eax]
  40b8db:	00 34 00             	add    BYTE PTR [eax+eax*1],dh
  40b8de:	00 00                	add    BYTE PTR [eax],al
  40b8e0:	64 01 00             	add    DWORD PTR fs:[eax],eax
  40b8e3:	00 8c 7b ff ff 63 00 	add    BYTE PTR [ebx+edi*2+0x63ffff],cl
  40b8ea:	00 00                	add    BYTE PTR [eax],al
  40b8ec:	00 41 0e             	add    BYTE PTR [ecx+0xe],al
  40b8ef:	08 86 02 41 0e 0c    	or     BYTE PTR [esi+0xc0e4102],al
  40b8f5:	83 03 43             	add    DWORD PTR [ebx],0x43
  40b8f8:	0e                   	push   cs
  40b8f9:	20 02                	and    BYTE PTR [edx],al
  40b8fb:	4a                   	dec    edx
  40b8fc:	0a 0e                	or     cl,BYTE PTR [esi]
  40b8fe:	0c 41                	or     al,0x41
  40b900:	c3                   	ret    
  40b901:	0e                   	push   cs
  40b902:	08 41 c6             	or     BYTE PTR [ecx-0x3a],al
  40b905:	0e                   	push   cs
  40b906:	04 41                	add    al,0x41
  40b908:	0b 4e 0e             	or     ecx,DWORD PTR [esi+0xe]
  40b90b:	0c 41                	or     al,0x41
  40b90d:	c3                   	ret    
  40b90e:	0e                   	push   cs
  40b90f:	08 41 c6             	or     BYTE PTR [ecx-0x3a],al
  40b912:	0e                   	push   cs
  40b913:	04 14                	add    al,0x14

0040b914 <.eh_frame>:
  40b914:	14 00                	adc    al,0x0
  40b916:	00 00                	add    BYTE PTR [eax],al
  40b918:	00 00                	add    BYTE PTR [eax],al
  40b91a:	00 00                	add    BYTE PTR [eax],al
  40b91c:	01 7a 52             	add    DWORD PTR [edx+0x52],edi
  40b91f:	00 01                	add    BYTE PTR [ecx],al
  40b921:	7c 08                	jl     40b92b <.eh_frame+0x17>
  40b923:	01 1b                	add    DWORD PTR [ebx],ebx
  40b925:	0c 04                	or     al,0x4
  40b927:	04 88                	add    al,0x88
  40b929:	01 00                	add    DWORD PTR [eax],eax
  40b92b:	00 14 00             	add    BYTE PTR [eax+eax*1],dl
  40b92e:	00 00                	add    BYTE PTR [eax],al
  40b930:	1c 00                	sbb    al,0x0
  40b932:	00 00                	add    BYTE PTR [eax],al
  40b934:	ac                   	lods   al,BYTE PTR ds:[esi]
  40b935:	7b ff                	jnp    40b936 <.eh_frame+0x22>
  40b937:	ff 2b                	jmp    FWORD PTR [ebx]
  40b939:	00 00                	add    BYTE PTR [eax],al
  40b93b:	00 00                	add    BYTE PTR [eax],al
  40b93d:	43                   	inc    ebx
  40b93e:	0e                   	push   cs
  40b93f:	20 67 0e             	and    BYTE PTR [edi+0xe],ah
  40b942:	04 00                	add    al,0x0

0040b944 <.eh_frame>:
  40b944:	14 00                	adc    al,0x0
  40b946:	00 00                	add    BYTE PTR [eax],al
  40b948:	00 00                	add    BYTE PTR [eax],al
  40b94a:	00 00                	add    BYTE PTR [eax],al
  40b94c:	01 7a 52             	add    DWORD PTR [edx+0x52],edi
  40b94f:	00 01                	add    BYTE PTR [ecx],al
  40b951:	7c 08                	jl     40b95b <.eh_frame+0x17>
  40b953:	01 1b                	add    DWORD PTR [ebx],ebx
  40b955:	0c 04                	or     al,0x4
  40b957:	04 88                	add    al,0x88
  40b959:	01 00                	add    DWORD PTR [eax],eax
  40b95b:	00 34 00             	add    BYTE PTR [eax+eax*1],dh
  40b95e:	00 00                	add    BYTE PTR [eax],al
  40b960:	1c 00                	sbb    al,0x0
  40b962:	00 00                	add    BYTE PTR [eax],al
  40b964:	ac                   	lods   al,BYTE PTR ds:[esi]
  40b965:	7b ff                	jnp    40b966 <.eh_frame+0x22>
  40b967:	ff 76 00             	push   DWORD PTR [esi+0x0]
  40b96a:	00 00                	add    BYTE PTR [eax],al
  40b96c:	00 41 0e             	add    BYTE PTR [ecx+0xe],al
  40b96f:	08 86 02 41 0e 0c    	or     BYTE PTR [esi+0xc0e4102],al
  40b975:	83 03 43             	add    DWORD PTR [ebx],0x43
  40b978:	0e                   	push   cs
  40b979:	30 02                	xor    BYTE PTR [edx],al
  40b97b:	40                   	inc    eax
  40b97c:	0a 0e                	or     cl,BYTE PTR [esi]
  40b97e:	0c 41                	or     al,0x41
  40b980:	c3                   	ret    
  40b981:	0e                   	push   cs
  40b982:	08 41 c6             	or     BYTE PTR [ecx-0x3a],al
  40b985:	0e                   	push   cs
  40b986:	04 41                	add    al,0x41
  40b988:	0b 6b 0e             	or     ebp,DWORD PTR [ebx+0xe]
  40b98b:	0c 41                	or     al,0x41
  40b98d:	c3                   	ret    
  40b98e:	0e                   	push   cs
  40b98f:	08 41 c6             	or     BYTE PTR [ecx-0x3a],al
  40b992:	0e                   	push   cs
  40b993:	04 14                	add    al,0x14

0040b994 <.eh_frame>:
  40b994:	14 00                	adc    al,0x0
  40b996:	00 00                	add    BYTE PTR [eax],al
  40b998:	00 00                	add    BYTE PTR [eax],al
  40b99a:	00 00                	add    BYTE PTR [eax],al
  40b99c:	01 7a 52             	add    DWORD PTR [edx+0x52],edi
  40b99f:	00 01                	add    BYTE PTR [ecx],al
  40b9a1:	7c 08                	jl     40b9ab <.eh_frame+0x17>
  40b9a3:	01 1b                	add    DWORD PTR [ebx],ebx
  40b9a5:	0c 04                	or     al,0x4
  40b9a7:	04 88                	add    al,0x88
  40b9a9:	01 00                	add    DWORD PTR [eax],eax
  40b9ab:	00 20                	add    BYTE PTR [eax],ah
  40b9ad:	00 00                	add    BYTE PTR [eax],al
  40b9af:	00 1c 00             	add    BYTE PTR [eax+eax*1],bl
  40b9b2:	00 00                	add    BYTE PTR [eax],al
  40b9b4:	dc 7b ff             	fdivr  QWORD PTR [ebx-0x1]
  40b9b7:	ff                   	(bad)  
  40b9b8:	fe 00                	inc    BYTE PTR [eax]
  40b9ba:	00 00                	add    BYTE PTR [eax],al
  40b9bc:	00 41 0e             	add    BYTE PTR [ecx+0xe],al
  40b9bf:	08 83 02 45 0e 50    	or     BYTE PTR [ebx+0x500e4502],al
  40b9c5:	02 a9 0a 0e 08 41    	add    ch,BYTE PTR [ecx+0x41080e0a]
  40b9cb:	c3                   	ret    
  40b9cc:	0e                   	push   cs
  40b9cd:	04 41                	add    al,0x41
  40b9cf:	0b 28                	or     ebp,DWORD PTR [eax]
  40b9d1:	00 00                	add    BYTE PTR [eax],al
  40b9d3:	00 40 00             	add    BYTE PTR [eax+0x0],al
  40b9d6:	00 00                	add    BYTE PTR [eax],al
  40b9d8:	b8 7c ff ff 54       	mov    eax,0x54ffff7c
  40b9dd:	00 00                	add    BYTE PTR [eax],al
  40b9df:	00 00                	add    BYTE PTR [eax],al
  40b9e1:	41                   	inc    ecx
  40b9e2:	0e                   	push   cs
  40b9e3:	08 83 02 43 0e 20    	or     BYTE PTR [ebx+0x200e4302],al
  40b9e9:	69 0a 0e 08 41 c3    	imul   ecx,DWORD PTR [edx],0xc341080e
  40b9ef:	0e                   	push   cs
  40b9f0:	04 42                	add    al,0x42
  40b9f2:	0b 62 0e             	or     esp,DWORD PTR [edx+0xe]
  40b9f5:	08 41 c3             	or     BYTE PTR [ecx-0x3d],al
  40b9f8:	0e                   	push   cs
  40b9f9:	04 00                	add    al,0x0
  40b9fb:	00 3c 00             	add    BYTE PTR [eax+eax*1],bh
  40b9fe:	00 00                	add    BYTE PTR [eax],al
  40ba00:	6c                   	ins    BYTE PTR es:[edi],dx
  40ba01:	00 00                	add    BYTE PTR [eax],al
  40ba03:	00 ec                	add    ah,ch
  40ba05:	7c ff                	jl     40ba06 <.eh_frame+0x72>
  40ba07:	ff 08                	dec    DWORD PTR [eax]
  40ba09:	01 00                	add    DWORD PTR [eax],eax
  40ba0b:	00 00                	add    BYTE PTR [eax],al
  40ba0d:	41                   	inc    ecx
  40ba0e:	0e                   	push   cs
  40ba0f:	08 85 02 41 0e 0c    	or     BYTE PTR [ebp+0xc0e4102],al
  40ba15:	87 03                	xchg   DWORD PTR [ebx],eax
  40ba17:	41                   	inc    ecx
  40ba18:	0e                   	push   cs
  40ba19:	10 86 04 43 0e 14    	adc    BYTE PTR [esi+0x140e4304],al
  40ba1f:	83 05 45 0e 60 02 c1 	add    DWORD PTR ds:0x2600e45,0xffffffc1
  40ba26:	0a 0e                	or     cl,BYTE PTR [esi]
  40ba28:	14 41                	adc    al,0x41
  40ba2a:	c3                   	ret    
  40ba2b:	0e                   	push   cs
  40ba2c:	10 41 c6             	adc    BYTE PTR [ecx-0x3a],al
  40ba2f:	0e                   	push   cs
  40ba30:	0c 41                	or     al,0x41
  40ba32:	c7                   	(bad)  
  40ba33:	0e                   	push   cs
  40ba34:	08 41 c5             	or     BYTE PTR [ecx-0x3b],al
  40ba37:	0e                   	push   cs
  40ba38:	04 41                	add    al,0x41
  40ba3a:	0b 00                	or     eax,DWORD PTR [eax]
  40ba3c:	2c 00                	sub    al,0x0
  40ba3e:	00 00                	add    BYTE PTR [eax],al
  40ba40:	ac                   	lods   al,BYTE PTR ds:[esi]
  40ba41:	00 00                	add    BYTE PTR [eax],al
  40ba43:	00 bc 7d ff ff a7 00 	add    BYTE PTR [ebp+edi*2+0xa7ffff],bh
  40ba4a:	00 00                	add    BYTE PTR [eax],al
  40ba4c:	00 41 0e             	add    BYTE PTR [ecx+0xe],al
  40ba4f:	08 87 02 46 0e 0c    	or     BYTE PTR [edi+0xc0e4602],al
  40ba55:	86 03                	xchg   BYTE PTR [ebx],al
  40ba57:	43                   	inc    ebx
  40ba58:	0e                   	push   cs
  40ba59:	10 83 04 02 81 0a    	adc    BYTE PTR [ebx+0xa810204],al
  40ba5f:	c3                   	ret    
  40ba60:	0e                   	push   cs
  40ba61:	0c 41                	or     al,0x41
  40ba63:	c6                   	(bad)  
  40ba64:	0e                   	push   cs
  40ba65:	08 41 c7             	or     BYTE PTR [ecx-0x39],al
  40ba68:	0e                   	push   cs
  40ba69:	04 43                	add    al,0x43
  40ba6b:	0b 3c 00             	or     edi,DWORD PTR [eax+eax*1]
  40ba6e:	00 00                	add    BYTE PTR [eax],al
  40ba70:	dc 00                	fadd   QWORD PTR [eax]
  40ba72:	00 00                	add    BYTE PTR [eax],al
  40ba74:	3c 7e                	cmp    al,0x7e
  40ba76:	ff                   	(bad)  
  40ba77:	ff 8f 00 00 00 00    	dec    DWORD PTR [edi+0x0]
  40ba7d:	41                   	inc    ecx
  40ba7e:	0e                   	push   cs
  40ba7f:	08 85 02 41 0e 0c    	or     BYTE PTR [ebp+0xc0e4102],al
  40ba85:	87 03                	xchg   DWORD PTR [ebx],eax
  40ba87:	41                   	inc    ecx
  40ba88:	0e                   	push   cs
  40ba89:	10 86 04 41 0e 14    	adc    BYTE PTR [esi+0x140e4104],al
  40ba8f:	83 05 43 0e 30 02 41 	add    DWORD PTR ds:0x2300e43,0x41
  40ba96:	0a 0e                	or     cl,BYTE PTR [esi]
  40ba98:	14 41                	adc    al,0x41
  40ba9a:	c3                   	ret    
  40ba9b:	0e                   	push   cs
  40ba9c:	10 41 c6             	adc    BYTE PTR [ecx-0x3a],al
  40ba9f:	0e                   	push   cs
  40baa0:	0c 41                	or     al,0x41
  40baa2:	c7                   	(bad)  
  40baa3:	0e                   	push   cs
  40baa4:	08 41 c5             	or     BYTE PTR [ecx-0x3b],al
  40baa7:	0e                   	push   cs
  40baa8:	04 44                	add    al,0x44
  40baaa:	0b 00                	or     eax,DWORD PTR [eax]
  40baac:	30 00                	xor    BYTE PTR [eax],al
  40baae:	00 00                	add    BYTE PTR [eax],al
  40bab0:	1c 01                	sbb    al,0x1
  40bab2:	00 00                	add    BYTE PTR [eax],al
  40bab4:	8c 7e ff             	mov    WORD PTR [esi-0x1],?
  40bab7:	ff 28                	jmp    FWORD PTR [eax]
  40bab9:	02 00                	add    al,BYTE PTR [eax]
  40babb:	00 00                	add    BYTE PTR [eax],al
  40babd:	41                   	inc    ecx
  40babe:	0e                   	push   cs
  40babf:	08 85 02 42 0d 05    	or     BYTE PTR [ebp+0x50d4202],al
  40bac5:	41                   	inc    ecx
  40bac6:	87 03                	xchg   DWORD PTR [ebx],eax
  40bac8:	43                   	inc    ebx
  40bac9:	86 04 43             	xchg   BYTE PTR [ebx+eax*2],al
  40bacc:	83 05 03 93 01 0a c3 	add    DWORD PTR ds:0xa019303,0xffffffc3
  40bad3:	41                   	inc    ecx
  40bad4:	c6 41 c7 41          	mov    BYTE PTR [ecx-0x39],0x41
  40bad8:	c5 0c 04             	lds    ecx,FWORD PTR [esp+eax*1]
  40badb:	04 41                	add    al,0x41
  40badd:	0b 00                	or     eax,DWORD PTR [eax]
  40badf:	00 30                	add    BYTE PTR [eax],dh
  40bae1:	00 00                	add    BYTE PTR [eax],al
  40bae3:	00 50 01             	add    BYTE PTR [eax+0x1],dl
  40bae6:	00 00                	add    BYTE PTR [eax],al
  40bae8:	88 80 ff ff d6 02    	mov    BYTE PTR [eax+0x2d6ffff],al
  40baee:	00 00                	add    BYTE PTR [eax],al
  40baf0:	00 41 0e             	add    BYTE PTR [ecx+0xe],al
  40baf3:	08 85 02 42 0d 05    	or     BYTE PTR [ebp+0x50d4202],al
  40baf9:	41                   	inc    ecx
  40bafa:	87 03                	xchg   DWORD PTR [ebx],eax
  40bafc:	43                   	inc    ebx
  40bafd:	86 04 46             	xchg   BYTE PTR [esi+eax*2],al
  40bb00:	83 05 03 ad 01 0a c3 	add    DWORD PTR ds:0xa01ad03,0xffffffc3
  40bb07:	41                   	inc    ecx
  40bb08:	c6 41 c7 41          	mov    BYTE PTR [ecx-0x39],0x41
  40bb0c:	c5 0c 04             	lds    ecx,FWORD PTR [esp+eax*1]
  40bb0f:	04 43                	add    al,0x43
  40bb11:	0b 00                	or     eax,DWORD PTR [eax]
  40bb13:	00 30                	add    BYTE PTR [eax],dh
  40bb15:	00 00                	add    BYTE PTR [eax],al
  40bb17:	00 84 01 00 00 34 83 	add    BYTE PTR [ecx+eax*1-0x7ccc0000],al
  40bb1e:	ff                   	(bad)  
  40bb1f:	ff 2f                	jmp    FWORD PTR [edi]
  40bb21:	03 00                	add    eax,DWORD PTR [eax]
  40bb23:	00 00                	add    BYTE PTR [eax],al
  40bb25:	41                   	inc    ecx
  40bb26:	0e                   	push   cs
  40bb27:	08 85 02 42 0d 05    	or     BYTE PTR [ebp+0x50d4202],al
  40bb2d:	42                   	inc    edx
  40bb2e:	87 03                	xchg   DWORD PTR [ebx],eax
  40bb30:	86 04 43             	xchg   BYTE PTR [ebx+eax*2],al
  40bb33:	83 05 03 52 01 0a c3 	add    DWORD PTR ds:0xa015203,0xffffffc3
  40bb3a:	41                   	inc    ecx
  40bb3b:	c6 41 c7 41          	mov    BYTE PTR [ecx-0x39],0x41
  40bb3f:	c5 0c 04             	lds    ecx,FWORD PTR [esp+eax*1]
  40bb42:	04 43                	add    al,0x43
  40bb44:	0b 00                	or     eax,DWORD PTR [eax]
  40bb46:	00 00                	add    BYTE PTR [eax],al
  40bb48:	3c 00                	cmp    al,0x0
  40bb4a:	00 00                	add    BYTE PTR [eax],al
  40bb4c:	b8 01 00 00 30       	mov    eax,0x30000001
  40bb51:	86 ff                	xchg   bh,bh
  40bb53:	ff c7                	inc    edi
  40bb55:	00 00                	add    BYTE PTR [eax],al
  40bb57:	00 00                	add    BYTE PTR [eax],al
  40bb59:	41                   	inc    ecx
  40bb5a:	0e                   	push   cs
  40bb5b:	08 85 02 44 0e 0c    	or     BYTE PTR [ebp+0xc0e4402],al
  40bb61:	87 03                	xchg   DWORD PTR [ebx],eax
  40bb63:	43                   	inc    ebx
  40bb64:	0e                   	push   cs
  40bb65:	10 86 04 46 0e 14    	adc    BYTE PTR [esi+0x140e4604],al
  40bb6b:	83 05 48 0e 30 02 a3 	add    DWORD PTR ds:0x2300e48,0xffffffa3
  40bb72:	0a 0e                	or     cl,BYTE PTR [esi]
  40bb74:	14 41                	adc    al,0x41
  40bb76:	c3                   	ret    
  40bb77:	0e                   	push   cs
  40bb78:	10 41 c6             	adc    BYTE PTR [ecx-0x3a],al
  40bb7b:	0e                   	push   cs
  40bb7c:	0c 41                	or     al,0x41
  40bb7e:	c7                   	(bad)  
  40bb7f:	0e                   	push   cs
  40bb80:	08 41 c5             	or     BYTE PTR [ecx-0x3b],al
  40bb83:	0e                   	push   cs
  40bb84:	04 43                	add    al,0x43
  40bb86:	0b 00                	or     eax,DWORD PTR [eax]
  40bb88:	34 00                	xor    al,0x0
  40bb8a:	00 00                	add    BYTE PTR [eax],al
  40bb8c:	f8                   	clc    
  40bb8d:	01 00                	add    DWORD PTR [eax],eax
  40bb8f:	00 c0                	add    al,al
  40bb91:	86 ff                	xchg   bh,bh
  40bb93:	ff ab 00 00 00 00    	jmp    FWORD PTR [ebx+0x0]
  40bb99:	41                   	inc    ecx
  40bb9a:	0e                   	push   cs
  40bb9b:	08 86 02 41 0e 0c    	or     BYTE PTR [esi+0xc0e4102],al
  40bba1:	83 03 45             	add    DWORD PTR [ebx],0x45
  40bba4:	0e                   	push   cs
  40bba5:	50                   	push   eax
  40bba6:	02 76 0a             	add    dh,BYTE PTR [esi+0xa]
  40bba9:	0e                   	push   cs
  40bbaa:	0c 41                	or     al,0x41
  40bbac:	c3                   	ret    
  40bbad:	0e                   	push   cs
  40bbae:	08 41 c6             	or     BYTE PTR [ecx-0x3a],al
  40bbb1:	0e                   	push   cs
  40bbb2:	04 41                	add    al,0x41
  40bbb4:	0b 68 0e             	or     ebp,DWORD PTR [eax+0xe]
  40bbb7:	0c 41                	or     al,0x41
  40bbb9:	c3                   	ret    
  40bbba:	0e                   	push   cs
  40bbbb:	08 41 c6             	or     BYTE PTR [ecx-0x3a],al
  40bbbe:	0e                   	push   cs
  40bbbf:	04 44                	add    al,0x44
  40bbc1:	00 00                	add    BYTE PTR [eax],al
  40bbc3:	00 30                	add    BYTE PTR [eax],dh
  40bbc5:	02 00                	add    al,BYTE PTR [eax]
  40bbc7:	00 38                	add    BYTE PTR [eax],bh
  40bbc9:	87 ff                	xchg   edi,edi
  40bbcb:	ff                   	(bad)  
  40bbcc:	dd 00                	fld    QWORD PTR [eax]
  40bbce:	00 00                	add    BYTE PTR [eax],al
  40bbd0:	00 41 0e             	add    BYTE PTR [ecx+0xe],al
  40bbd3:	08 87 02 41 0e 0c    	or     BYTE PTR [edi+0xc0e4102],al
  40bbd9:	86 03                	xchg   BYTE PTR [ebx],al
  40bbdb:	41                   	inc    ecx
  40bbdc:	0e                   	push   cs
  40bbdd:	10 83 04 45 0e 50    	adc    BYTE PTR [ebx+0x500e4504],al
  40bbe3:	02 9d 0a 0e 10 41    	add    bl,BYTE PTR [ebp+0x41100e0a]
  40bbe9:	c3                   	ret    
  40bbea:	0e                   	push   cs
  40bbeb:	0c 41                	or     al,0x41
  40bbed:	c6                   	(bad)  
  40bbee:	0e                   	push   cs
  40bbef:	08 41 c7             	or     BYTE PTR [ecx-0x39],al
  40bbf2:	0e                   	push   cs
  40bbf3:	04 48                	add    al,0x48
  40bbf5:	0b 69 0e             	or     ebp,DWORD PTR [ecx+0xe]
  40bbf8:	10 41 c3             	adc    BYTE PTR [ecx-0x3d],al
  40bbfb:	0e                   	push   cs
  40bbfc:	0c 41                	or     al,0x41
  40bbfe:	c6                   	(bad)  
  40bbff:	0e                   	push   cs
  40bc00:	08 41 c7             	or     BYTE PTR [ecx-0x39],al
  40bc03:	0e                   	push   cs
  40bc04:	04 00                	add    al,0x0
  40bc06:	00 00                	add    BYTE PTR [eax],al
  40bc08:	44                   	inc    esp
  40bc09:	00 00                	add    BYTE PTR [eax],al
  40bc0b:	00 78 02             	add    BYTE PTR [eax+0x2],bh
  40bc0e:	00 00                	add    BYTE PTR [eax],al
  40bc10:	d0 87 ff ff 75 01    	rol    BYTE PTR [edi+0x175ffff],1
  40bc16:	00 00                	add    BYTE PTR [eax],al
  40bc18:	00 41 0e             	add    BYTE PTR [ecx+0xe],al
  40bc1b:	08 87 02 41 0e 0c    	or     BYTE PTR [edi+0xc0e4102],al
  40bc21:	86 03                	xchg   BYTE PTR [ebx],al
  40bc23:	41                   	inc    ecx
  40bc24:	0e                   	push   cs
  40bc25:	10 83 04 45 0e 50    	adc    BYTE PTR [ebx+0x500e4504],al
  40bc2b:	02 d4                	add    dl,ah
  40bc2d:	0a 0e                	or     cl,BYTE PTR [esi]
  40bc2f:	10 41 c3             	adc    BYTE PTR [ecx-0x3d],al
  40bc32:	0e                   	push   cs
  40bc33:	0c 41                	or     al,0x41
  40bc35:	c6                   	(bad)  
  40bc36:	0e                   	push   cs
  40bc37:	08 41 c7             	or     BYTE PTR [ecx-0x39],al
  40bc3a:	0e                   	push   cs
  40bc3b:	04 41                	add    al,0x41
  40bc3d:	0b 6f 0a             	or     ebp,DWORD PTR [edi+0xa]
  40bc40:	0e                   	push   cs
  40bc41:	10 41 c3             	adc    BYTE PTR [ecx-0x3d],al
  40bc44:	0e                   	push   cs
  40bc45:	0c 41                	or     al,0x41
  40bc47:	c6                   	(bad)  
  40bc48:	0e                   	push   cs
  40bc49:	08 41 c7             	or     BYTE PTR [ecx-0x39],al
  40bc4c:	0e                   	push   cs
  40bc4d:	04 41                	add    al,0x41
  40bc4f:	0b 30                	or     esi,DWORD PTR [eax]
  40bc51:	00 00                	add    BYTE PTR [eax],al
  40bc53:	00 c0                	add    al,al
  40bc55:	02 00                	add    al,BYTE PTR [eax]
  40bc57:	00 08                	add    BYTE PTR [eax],cl
  40bc59:	89 ff                	mov    edi,edi
  40bc5b:	ff c5                	inc    ebp
  40bc5d:	05 00 00 00 41       	add    eax,0x41000000
  40bc62:	0e                   	push   cs
  40bc63:	08 85 02 42 0d 05    	or     BYTE PTR [ebp+0x50d4202],al
  40bc69:	41                   	inc    ecx
  40bc6a:	87 03                	xchg   DWORD PTR [ebx],eax
  40bc6c:	47                   	inc    edi
  40bc6d:	86 04 83             	xchg   BYTE PTR [ebx+eax*4],al
  40bc70:	05 03 7b 04 0a       	add    eax,0xa047b03
  40bc75:	c3                   	ret    
  40bc76:	41                   	inc    ecx
  40bc77:	c6 41 c7 41          	mov    BYTE PTR [ecx-0x39],0x41
  40bc7b:	c5 0c 04             	lds    ecx,FWORD PTR [esp+eax*1]
  40bc7e:	04 47                	add    al,0x47
  40bc80:	0b 00                	or     eax,DWORD PTR [eax]
  40bc82:	00 00                	add    BYTE PTR [eax],al
  40bc84:	3c 00                	cmp    al,0x0
  40bc86:	00 00                	add    BYTE PTR [eax],al
  40bc88:	f4                   	hlt    
  40bc89:	02 00                	add    al,BYTE PTR [eax]
  40bc8b:	00 a4 8e ff ff 68 09 	add    BYTE PTR [esi+ecx*4+0x968ffff],ah
  40bc92:	00 00                	add    BYTE PTR [eax],al
  40bc94:	00 41 0e             	add    BYTE PTR [ecx+0xe],al
  40bc97:	08 85 02 41 0e 0c    	or     BYTE PTR [ebp+0xc0e4102],al
  40bc9d:	87 03                	xchg   DWORD PTR [ebx],eax
  40bc9f:	41                   	inc    ecx
  40bca0:	0e                   	push   cs
  40bca1:	10 86 04 41 0e 14    	adc    BYTE PTR [esi+0x140e4104],al
  40bca7:	83 05 43 0e 70 03 32 	add    DWORD PTR ds:0x3700e43,0x32
  40bcae:	01 0a                	add    DWORD PTR [edx],ecx
  40bcb0:	0e                   	push   cs
  40bcb1:	14 41                	adc    al,0x41
  40bcb3:	c3                   	ret    
  40bcb4:	0e                   	push   cs
  40bcb5:	10 41 c6             	adc    BYTE PTR [ecx-0x3a],al
  40bcb8:	0e                   	push   cs
  40bcb9:	0c 41                	or     al,0x41
  40bcbb:	c7                   	(bad)  
  40bcbc:	0e                   	push   cs
  40bcbd:	08 41 c5             	or     BYTE PTR [ecx-0x3b],al
  40bcc0:	0e                   	push   cs
  40bcc1:	04 43                	add    al,0x43
  40bcc3:	0b 14 00             	or     edx,DWORD PTR [eax+eax*1]

0040bcc4 <.eh_frame>:
  40bcc4:	14 00                	adc    al,0x0
  40bcc6:	00 00                	add    BYTE PTR [eax],al
  40bcc8:	00 00                	add    BYTE PTR [eax],al
  40bcca:	00 00                	add    BYTE PTR [eax],al
  40bccc:	01 7a 52             	add    DWORD PTR [edx+0x52],edi
  40bccf:	00 01                	add    BYTE PTR [ecx],al
  40bcd1:	7c 08                	jl     40bcdb <.eh_frame+0x17>
  40bcd3:	01 1b                	add    DWORD PTR [ebx],ebx
  40bcd5:	0c 04                	or     al,0x4
  40bcd7:	04 88                	add    al,0x88
  40bcd9:	01 00                	add    DWORD PTR [eax],eax
  40bcdb:	00 4c 00 00          	add    BYTE PTR [eax+eax*1+0x0],cl
  40bcdf:	00 1c 00             	add    BYTE PTR [eax+eax*1],bl
  40bce2:	00 00                	add    BYTE PTR [eax],al
  40bce4:	bc 97 ff ff 7b       	mov    esp,0x7bffff97
  40bce9:	01 00                	add    DWORD PTR [eax],eax
  40bceb:	00 00                	add    BYTE PTR [eax],al
  40bced:	41                   	inc    ecx
  40bcee:	0e                   	push   cs
  40bcef:	08 85 02 42 0d 05    	or     BYTE PTR [ebp+0x50d4202],al
  40bcf5:	45                   	inc    ebp
  40bcf6:	86 03                	xchg   BYTE PTR [ebx],al
  40bcf8:	83 04 02 a1          	add    DWORD PTR [edx+eax*1],0xffffffa1
  40bcfc:	0a c3                	or     al,bl
  40bcfe:	41                   	inc    ecx
  40bcff:	c6 41 c5 0c          	mov    BYTE PTR [ecx-0x3b],0xc
  40bd03:	04 04                	add    al,0x4
  40bd05:	45                   	inc    ebp
  40bd06:	0b 59 0a             	or     ebx,DWORD PTR [ecx+0xa]
  40bd09:	c3                   	ret    
  40bd0a:	41                   	inc    ecx
  40bd0b:	c6 41 c5 0c          	mov    BYTE PTR [ecx-0x3b],0xc
  40bd0f:	04 04                	add    al,0x4
  40bd11:	45                   	inc    ebp
  40bd12:	0b 4e 0a             	or     ecx,DWORD PTR [esi+0xa]
  40bd15:	c3                   	ret    
  40bd16:	41                   	inc    ecx
  40bd17:	c6 41 c5 0c          	mov    BYTE PTR [ecx-0x3b],0xc
  40bd1b:	04 04                	add    al,0x4
  40bd1d:	41                   	inc    ecx
  40bd1e:	0b 02                	or     eax,DWORD PTR [edx]
  40bd20:	68 0a c3 41 c6       	push   0xc641c30a
  40bd25:	41                   	inc    ecx
  40bd26:	c5 0c 04             	lds    ecx,FWORD PTR [esp+eax*1]
  40bd29:	04 45                	add    al,0x45
  40bd2b:	0b 2c 00             	or     ebp,DWORD PTR [eax+eax*1]
  40bd2e:	00 00                	add    BYTE PTR [eax],al
  40bd30:	6c                   	ins    BYTE PTR es:[edi],dx
  40bd31:	00 00                	add    BYTE PTR [eax],al
  40bd33:	00 ec                	add    ah,ch
  40bd35:	98                   	cwde   
  40bd36:	ff                   	(bad)  
  40bd37:	ff 97 00 00 00 00    	call   DWORD PTR [edi+0x0]
  40bd3d:	41                   	inc    ecx
  40bd3e:	0e                   	push   cs
  40bd3f:	08 86 02 43 0e 0c    	or     BYTE PTR [esi+0xc0e4302],al
  40bd45:	83 03 43             	add    DWORD PTR [ebx],0x43
  40bd48:	0e                   	push   cs
  40bd49:	40                   	inc    eax
  40bd4a:	02 7a 0a             	add    bh,BYTE PTR [edx+0xa]
  40bd4d:	0e                   	push   cs
  40bd4e:	0c 41                	or     al,0x41
  40bd50:	c3                   	ret    
  40bd51:	0e                   	push   cs
  40bd52:	08 41 c6             	or     BYTE PTR [ecx-0x3a],al
  40bd55:	0e                   	push   cs
  40bd56:	04 41                	add    al,0x41
  40bd58:	0b 00                	or     eax,DWORD PTR [eax]
  40bd5a:	00 00                	add    BYTE PTR [eax],al
  40bd5c:	68 00 00 00 9c       	push   0x9c000000
  40bd61:	00 00                	add    BYTE PTR [eax],al
  40bd63:	00 5c 99 ff          	add    BYTE PTR [ecx+ebx*4-0x1],bl
  40bd67:	ff 6d 01             	jmp    FWORD PTR [ebp+0x1]
  40bd6a:	00 00                	add    BYTE PTR [eax],al
  40bd6c:	00 41 0e             	add    BYTE PTR [ecx+0xe],al
  40bd6f:	08 85 02 41 0e 0c    	or     BYTE PTR [ebp+0xc0e4102],al
  40bd75:	87 03                	xchg   DWORD PTR [ebx],eax
  40bd77:	41                   	inc    ecx
  40bd78:	0e                   	push   cs
  40bd79:	10 86 04 41 0e 14    	adc    BYTE PTR [esi+0x140e4104],al
  40bd7f:	83 05 43 0e 50 02 de 	add    DWORD PTR ds:0x2500e43,0xffffffde
  40bd86:	0a 0e                	or     cl,BYTE PTR [esi]
  40bd88:	14 43                	adc    al,0x43
  40bd8a:	c3                   	ret    
  40bd8b:	0e                   	push   cs
  40bd8c:	10 41 c6             	adc    BYTE PTR [ecx-0x3a],al
  40bd8f:	0e                   	push   cs
  40bd90:	0c 41                	or     al,0x41
  40bd92:	c7                   	(bad)  
  40bd93:	0e                   	push   cs
  40bd94:	08 41 c5             	or     BYTE PTR [ecx-0x3b],al
  40bd97:	0e                   	push   cs
  40bd98:	04 45                	add    al,0x45
  40bd9a:	0b 02                	or     eax,DWORD PTR [edx]
  40bd9c:	59                   	pop    ecx
  40bd9d:	0a 0e                	or     cl,BYTE PTR [esi]
  40bd9f:	14 43                	adc    al,0x43
  40bda1:	c3                   	ret    
  40bda2:	0e                   	push   cs
  40bda3:	10 41 c6             	adc    BYTE PTR [ecx-0x3a],al
  40bda6:	0e                   	push   cs
  40bda7:	0c 41                	or     al,0x41
  40bda9:	c7                   	(bad)  
  40bdaa:	0e                   	push   cs
  40bdab:	08 41 c5             	or     BYTE PTR [ecx-0x3b],al
  40bdae:	0e                   	push   cs
  40bdaf:	04 41                	add    al,0x41
  40bdb1:	0b 43 0a             	or     eax,DWORD PTR [ebx+0xa]
  40bdb4:	0e                   	push   cs
  40bdb5:	14 43                	adc    al,0x43
  40bdb7:	c3                   	ret    
  40bdb8:	0e                   	push   cs
  40bdb9:	10 41 c6             	adc    BYTE PTR [ecx-0x3a],al
  40bdbc:	0e                   	push   cs
  40bdbd:	0c 41                	or     al,0x41
  40bdbf:	c7                   	(bad)  
  40bdc0:	0e                   	push   cs
  40bdc1:	08 41 c5             	or     BYTE PTR [ecx-0x3b],al
  40bdc4:	0e                   	push   cs
  40bdc5:	04 47                	add    al,0x47
  40bdc7:	0b 20                	or     esp,DWORD PTR [eax]
  40bdc9:	00 00                	add    BYTE PTR [eax],al
  40bdcb:	00 08                	add    BYTE PTR [eax],cl
  40bdcd:	01 00                	add    DWORD PTR [eax],eax
  40bdcf:	00 60 9a             	add    BYTE PTR [eax-0x66],ah
  40bdd2:	ff                   	(bad)  
  40bdd3:	ff 87 00 00 00 00    	inc    DWORD PTR [edi+0x0]
  40bdd9:	41                   	inc    ecx
  40bdda:	0e                   	push   cs
  40bddb:	08 83 02 45 0e 40    	or     BYTE PTR [ebx+0x400e4502],al
  40bde1:	02 76 0a             	add    dh,BYTE PTR [esi+0xa]
  40bde4:	0e                   	push   cs
  40bde5:	08 41 c3             	or     BYTE PTR [ecx-0x3d],al
  40bde8:	0e                   	push   cs
  40bde9:	04 43                	add    al,0x43
  40bdeb:	0b 14 00             	or     edx,DWORD PTR [eax+eax*1]

0040bdec <.eh_frame>:
  40bdec:	14 00                	adc    al,0x0
  40bdee:	00 00                	add    BYTE PTR [eax],al
  40bdf0:	00 00                	add    BYTE PTR [eax],al
  40bdf2:	00 00                	add    BYTE PTR [eax],al
  40bdf4:	01 7a 52             	add    DWORD PTR [edx+0x52],edi
  40bdf7:	00 01                	add    BYTE PTR [ecx],al
  40bdf9:	7c 08                	jl     40be03 <.eh_frame+0x17>
  40bdfb:	01 1b                	add    DWORD PTR [ebx],ebx
  40bdfd:	0c 04                	or     al,0x4
  40bdff:	04 88                	add    al,0x88
  40be01:	01 00                	add    DWORD PTR [eax],eax
  40be03:	00 24 00             	add    BYTE PTR [eax+eax*1],ah
  40be06:	00 00                	add    BYTE PTR [eax],al
  40be08:	1c 00                	sbb    al,0x0
  40be0a:	00 00                	add    BYTE PTR [eax],al
  40be0c:	b4 9a                	mov    ah,0x9a
  40be0e:	ff                   	(bad)  
  40be0f:	ff 89 00 00 00 00    	dec    DWORD PTR [ecx+0x0]
  40be15:	41                   	inc    ecx
  40be16:	0e                   	push   cs
  40be17:	08 85 02 42 0d 05    	or     BYTE PTR [ebp+0x50d4202],al
  40be1d:	62 0a                	bound  ecx,QWORD PTR [edx]
  40be1f:	c5 0c 04             	lds    ecx,FWORD PTR [esp+eax*1]
  40be22:	04 41                	add    al,0x41
  40be24:	0b 02                	or     eax,DWORD PTR [edx]
  40be26:	62                   	(bad)  
  40be27:	c5 0c 04             	lds    ecx,FWORD PTR [esp+eax*1]
  40be2a:	04 00                	add    al,0x0
  40be2c:	34 00                	xor    al,0x0
  40be2e:	00 00                	add    BYTE PTR [eax],al
  40be30:	44                   	inc    esp
  40be31:	00 00                	add    BYTE PTR [eax],al
  40be33:	00 1c 9b             	add    BYTE PTR [ebx+ebx*4],bl
  40be36:	ff                   	(bad)  
  40be37:	ff 76 00             	push   DWORD PTR [esi+0x0]
  40be3a:	00 00                	add    BYTE PTR [eax],al
  40be3c:	00 41 0e             	add    BYTE PTR [ecx+0xe],al
  40be3f:	08 87 02 41 0e 0c    	or     BYTE PTR [edi+0xc0e4102],al
  40be45:	86 03                	xchg   BYTE PTR [ebx],al
  40be47:	41                   	inc    ecx
  40be48:	0e                   	push   cs
  40be49:	10 83 04 43 0e 30    	adc    BYTE PTR [ebx+0x300e4304],al
  40be4f:	02 64 0a 0e          	add    ah,BYTE PTR [edx+ecx*1+0xe]
  40be53:	10 41 c3             	adc    BYTE PTR [ecx-0x3d],al
  40be56:	0e                   	push   cs
  40be57:	0c 41                	or     al,0x41
  40be59:	c6                   	(bad)  
  40be5a:	0e                   	push   cs
  40be5b:	08 41 c7             	or     BYTE PTR [ecx-0x39],al
  40be5e:	0e                   	push   cs
  40be5f:	04 43                	add    al,0x43
  40be61:	0b 00                	or     eax,DWORD PTR [eax]
  40be63:	00 80 00 00 00 7c    	add    BYTE PTR [eax+0x7c000000],al
  40be69:	00 00                	add    BYTE PTR [eax],al
  40be6b:	00 64 9b ff          	add    BYTE PTR [ebx+ebx*4-0x1],ah
  40be6f:	ff 4b 01             	dec    DWORD PTR [ebx+0x1]
  40be72:	00 00                	add    BYTE PTR [eax],al
  40be74:	00 41 0e             	add    BYTE PTR [ecx+0xe],al
  40be77:	08 85 02 41 0e 0c    	or     BYTE PTR [ebp+0xc0e4102],al
  40be7d:	87 03                	xchg   DWORD PTR [ebx],eax
  40be7f:	41                   	inc    ecx
  40be80:	0e                   	push   cs
  40be81:	10 86 04 43 0e 14    	adc    BYTE PTR [esi+0x140e4304],al
  40be87:	83 05 43 0e 50 02 a2 	add    DWORD PTR ds:0x2500e43,0xffffffa2
  40be8e:	0a 0e                	or     cl,BYTE PTR [esi]
  40be90:	14 41                	adc    al,0x41
  40be92:	c3                   	ret    
  40be93:	0e                   	push   cs
  40be94:	10 41 c6             	adc    BYTE PTR [ecx-0x3a],al
  40be97:	0e                   	push   cs
  40be98:	0c 41                	or     al,0x41
  40be9a:	c7                   	(bad)  
  40be9b:	0e                   	push   cs
  40be9c:	08 41 c5             	or     BYTE PTR [ecx-0x3b],al
  40be9f:	0e                   	push   cs
  40bea0:	04 41                	add    al,0x41
  40bea2:	0b 4b 0a             	or     ecx,DWORD PTR [ebx+0xa]
  40bea5:	0e                   	push   cs
  40bea6:	14 43                	adc    al,0x43
  40bea8:	c3                   	ret    
  40bea9:	0e                   	push   cs
  40beaa:	10 41 c6             	adc    BYTE PTR [ecx-0x3a],al
  40bead:	0e                   	push   cs
  40beae:	0c 41                	or     al,0x41
  40beb0:	c7                   	(bad)  
  40beb1:	0e                   	push   cs
  40beb2:	08 41 c5             	or     BYTE PTR [ecx-0x3b],al
  40beb5:	0e                   	push   cs
  40beb6:	04 41                	add    al,0x41
  40beb8:	0b 4d 0a             	or     ecx,DWORD PTR [ebp+0xa]
  40bebb:	0e                   	push   cs
  40bebc:	14 41                	adc    al,0x41
  40bebe:	c3                   	ret    
  40bebf:	0e                   	push   cs
  40bec0:	10 44 c6 0e          	adc    BYTE PTR [esi+eax*8+0xe],al
  40bec4:	0c 41                	or     al,0x41
  40bec6:	c7                   	(bad)  
  40bec7:	0e                   	push   cs
  40bec8:	08 41 c5             	or     BYTE PTR [ecx-0x3b],al
  40becb:	0e                   	push   cs
  40becc:	04 41                	add    al,0x41
  40bece:	0b 02                	or     eax,DWORD PTR [edx]
  40bed0:	53                   	push   ebx
  40bed1:	0a 0e                	or     cl,BYTE PTR [esi]
  40bed3:	14 43                	adc    al,0x43
  40bed5:	c3                   	ret    
  40bed6:	0e                   	push   cs
  40bed7:	10 41 c6             	adc    BYTE PTR [ecx-0x3a],al
  40beda:	0e                   	push   cs
  40bedb:	0c 41                	or     al,0x41
  40bedd:	c7                   	(bad)  
  40bede:	0e                   	push   cs
  40bedf:	08 41 c5             	or     BYTE PTR [ecx-0x3b],al
  40bee2:	0e                   	push   cs
  40bee3:	04 41                	add    al,0x41
  40bee5:	0b 00                	or     eax,DWORD PTR [eax]
	...

0040bee8 <.eh_frame>:
  40bee8:	14 00                	adc    al,0x0
  40beea:	00 00                	add    BYTE PTR [eax],al
  40beec:	00 00                	add    BYTE PTR [eax],al
  40beee:	00 00                	add    BYTE PTR [eax],al
  40bef0:	01 7a 52             	add    DWORD PTR [edx+0x52],edi
  40bef3:	00 01                	add    BYTE PTR [ecx],al
  40bef5:	7c 08                	jl     40beff <.eh_frame+0x17>
  40bef7:	01 1b                	add    DWORD PTR [ebx],ebx
  40bef9:	0c 04                	or     al,0x4
  40befb:	04 88                	add    al,0x88
  40befd:	01 00                	add    DWORD PTR [eax],eax
  40beff:	00 84 00 00 00 1c 00 	add    BYTE PTR [eax+eax*1+0x1c0000],al
  40bf06:	00 00                	add    BYTE PTR [eax],al
  40bf08:	18 9c ff ff 9f 14 00 	sbb    BYTE PTR [edi+edi*8+0x149fff],bl
  40bf0f:	00 00                	add    BYTE PTR [eax],al
  40bf11:	41                   	inc    ecx
  40bf12:	0e                   	push   cs
  40bf13:	08 85 02 41 0e 0c    	or     BYTE PTR [ebp+0xc0e4102],al
  40bf19:	87 03                	xchg   DWORD PTR [ebx],eax
  40bf1b:	41                   	inc    ecx
  40bf1c:	0e                   	push   cs
  40bf1d:	10 86 04 41 0e 14    	adc    BYTE PTR [esi+0x140e4104],al
  40bf23:	83 05 43 0e 80 01 03 	add    DWORD PTR ds:0x1800e43,0x3
  40bf2a:	20 01                	and    BYTE PTR [ecx],al
  40bf2c:	0a 0e                	or     cl,BYTE PTR [esi]
  40bf2e:	14 41                	adc    al,0x41
  40bf30:	c3                   	ret    
  40bf31:	0e                   	push   cs
  40bf32:	10 41 c6             	adc    BYTE PTR [ecx-0x3a],al
  40bf35:	0e                   	push   cs
  40bf36:	0c 41                	or     al,0x41
  40bf38:	c7                   	(bad)  
  40bf39:	0e                   	push   cs
  40bf3a:	08 41 c5             	or     BYTE PTR [ecx-0x3b],al
  40bf3d:	0e                   	push   cs
  40bf3e:	04 45                	add    al,0x45
  40bf40:	0b 6f 0a             	or     ebp,DWORD PTR [edi+0xa]
  40bf43:	0e                   	push   cs
  40bf44:	14 41                	adc    al,0x41
  40bf46:	c3                   	ret    
  40bf47:	0e                   	push   cs
  40bf48:	10 41 c6             	adc    BYTE PTR [ecx-0x3a],al
  40bf4b:	0e                   	push   cs
  40bf4c:	0c 41                	or     al,0x41
  40bf4e:	c7                   	(bad)  
  40bf4f:	0e                   	push   cs
  40bf50:	08 41 c5             	or     BYTE PTR [ecx-0x3b],al
  40bf53:	0e                   	push   cs
  40bf54:	04 41                	add    al,0x41
  40bf56:	0b 6f 0a             	or     ebp,DWORD PTR [edi+0xa]
  40bf59:	0e                   	push   cs
  40bf5a:	14 41                	adc    al,0x41
  40bf5c:	c3                   	ret    
  40bf5d:	0e                   	push   cs
  40bf5e:	10 41 c6             	adc    BYTE PTR [ecx-0x3a],al
  40bf61:	0e                   	push   cs
  40bf62:	0c 41                	or     al,0x41
  40bf64:	c7                   	(bad)  
  40bf65:	0e                   	push   cs
  40bf66:	08 41 c5             	or     BYTE PTR [ecx-0x3b],al
  40bf69:	0e                   	push   cs
  40bf6a:	04 41                	add    al,0x41
  40bf6c:	0b 03                	or     eax,DWORD PTR [ebx]
  40bf6e:	35 07 0a 0e 14       	xor    eax,0x140e0a07
  40bf73:	41                   	inc    ecx
  40bf74:	c3                   	ret    
  40bf75:	0e                   	push   cs
  40bf76:	10 41 c6             	adc    BYTE PTR [ecx-0x3a],al
  40bf79:	0e                   	push   cs
  40bf7a:	0c 41                	or     al,0x41
  40bf7c:	c7                   	(bad)  
  40bf7d:	0e                   	push   cs
  40bf7e:	08 41 c5             	or     BYTE PTR [ecx-0x3b],al
  40bf81:	0e                   	push   cs
  40bf82:	04 41                	add    al,0x41
  40bf84:	0b 00                	or     eax,DWORD PTR [eax]
	...

0040bf88 <.eh_frame>:
  40bf88:	14 00                	adc    al,0x0
  40bf8a:	00 00                	add    BYTE PTR [eax],al
  40bf8c:	00 00                	add    BYTE PTR [eax],al
  40bf8e:	00 00                	add    BYTE PTR [eax],al
  40bf90:	01 7a 52             	add    DWORD PTR [edx+0x52],edi
  40bf93:	00 01                	add    BYTE PTR [ecx],al
  40bf95:	7c 08                	jl     40bf9f <.eh_frame+0x17>
  40bf97:	01 1b                	add    DWORD PTR [ebx],ebx
  40bf99:	0c 04                	or     al,0x4
  40bf9b:	04 88                	add    al,0x88
  40bf9d:	01 00                	add    DWORD PTR [eax],eax
  40bf9f:	00 54 00 00          	add    BYTE PTR [eax+eax*1+0x0],dl
  40bfa3:	00 1c 00             	add    BYTE PTR [eax+eax*1],bl
  40bfa6:	00 00                	add    BYTE PTR [eax],al
  40bfa8:	18 b0 ff ff 12 01    	sbb    BYTE PTR [eax+0x112ffff],dh
  40bfae:	00 00                	add    BYTE PTR [eax],al
  40bfb0:	00 41 0e             	add    BYTE PTR [ecx+0xe],al
  40bfb3:	08 85 02 41 0e 0c    	or     BYTE PTR [ebp+0xc0e4102],al
  40bfb9:	87 03                	xchg   DWORD PTR [ebx],eax
  40bfbb:	41                   	inc    ecx
  40bfbc:	0e                   	push   cs
  40bfbd:	10 86 04 41 0e 14    	adc    BYTE PTR [esi+0x140e4104],al
  40bfc3:	83 05 43 0e 24 02 c2 	add    DWORD PTR ds:0x2240e43,0xffffffc2
  40bfca:	0a 0e                	or     cl,BYTE PTR [esi]
  40bfcc:	14 41                	adc    al,0x41
  40bfce:	c3                   	ret    
  40bfcf:	0e                   	push   cs
  40bfd0:	10 41 c6             	adc    BYTE PTR [ecx-0x3a],al
  40bfd3:	0e                   	push   cs
  40bfd4:	0c 41                	or     al,0x41
  40bfd6:	c7                   	(bad)  
  40bfd7:	0e                   	push   cs
  40bfd8:	08 41 c5             	or     BYTE PTR [ecx-0x3b],al
  40bfdb:	0e                   	push   cs
  40bfdc:	04 43                	add    al,0x43
  40bfde:	0b 79 0a             	or     edi,DWORD PTR [ecx+0xa]
  40bfe1:	0e                   	push   cs
  40bfe2:	14 41                	adc    al,0x41
  40bfe4:	c3                   	ret    
  40bfe5:	0e                   	push   cs
  40bfe6:	10 41 c6             	adc    BYTE PTR [ecx-0x3a],al
  40bfe9:	0e                   	push   cs
  40bfea:	0c 41                	or     al,0x41
  40bfec:	c7                   	(bad)  
  40bfed:	0e                   	push   cs
  40bfee:	08 41 c5             	or     BYTE PTR [ecx-0x3b],al
  40bff1:	0e                   	push   cs
  40bff2:	04 41                	add    al,0x41
  40bff4:	0b 00                	or     eax,DWORD PTR [eax]
  40bff6:	00 00                	add    BYTE PTR [eax],al
  40bff8:	24 00                	and    al,0x0
  40bffa:	00 00                	add    BYTE PTR [eax],al
  40bffc:	74 00                	je     40bffe <.eh_frame+0x76>
  40bffe:	00 00                	add    BYTE PTR [eax],al
  40c000:	e0 b0                	loopne 40bfb2 <.eh_frame+0x2a>
  40c002:	ff                   	(bad)  
  40c003:	ff                   	(bad)  
  40c004:	3e 00 00             	add    BYTE PTR ds:[eax],al
  40c007:	00 00                	add    BYTE PTR [eax],al
  40c009:	41                   	inc    ecx
  40c00a:	0e                   	push   cs
  40c00b:	08 83 02 70 0a c3    	or     BYTE PTR [ebx-0x3cf58ffe],al
  40c011:	0e                   	push   cs
  40c012:	04 41                	add    al,0x41
  40c014:	0b 47 0a             	or     eax,DWORD PTR [edi+0xa]
  40c017:	c3                   	ret    
  40c018:	0e                   	push   cs
  40c019:	04 41                	add    al,0x41
  40c01b:	0b 43 c3             	or     eax,DWORD PTR [ebx-0x3d]
  40c01e:	0e                   	push   cs
  40c01f:	04 14                	add    al,0x14

0040c020 <.eh_frame>:
  40c020:	14 00                	adc    al,0x0
  40c022:	00 00                	add    BYTE PTR [eax],al
  40c024:	00 00                	add    BYTE PTR [eax],al
  40c026:	00 00                	add    BYTE PTR [eax],al
  40c028:	01 7a 52             	add    DWORD PTR [edx+0x52],edi
  40c02b:	00 01                	add    BYTE PTR [ecx],al
  40c02d:	7c 08                	jl     40c037 <.eh_frame+0x17>
  40c02f:	01 1b                	add    DWORD PTR [ebx],ebx
  40c031:	0c 04                	or     al,0x4
  40c033:	04 88                	add    al,0x88
  40c035:	01 00                	add    DWORD PTR [eax],eax
  40c037:	00 1c 00             	add    BYTE PTR [eax+eax*1],bl
  40c03a:	00 00                	add    BYTE PTR [eax],al
  40c03c:	1c 00                	sbb    al,0x0
  40c03e:	00 00                	add    BYTE PTR [eax],al
  40c040:	e0 b0                	loopne 40bff2 <.eh_frame+0x6a>
  40c042:	ff                   	(bad)  
  40c043:	ff 32                	push   DWORD PTR [edx]
  40c045:	00 00                	add    BYTE PTR [eax],al
  40c047:	00 00                	add    BYTE PTR [eax],al
  40c049:	41                   	inc    ecx
  40c04a:	0e                   	push   cs
  40c04b:	08 83 02 45 0e 20    	or     BYTE PTR [ebx+0x200e4502],al
  40c051:	67 0e                	addr16 push cs
  40c053:	08 44 c3 0e          	or     BYTE PTR [ebx+eax*8+0xe],al
  40c057:	04 28                	add    al,0x28
  40c059:	00 00                	add    BYTE PTR [eax],al
  40c05b:	00 3c 00             	add    BYTE PTR [eax+eax*1],bh
  40c05e:	00 00                	add    BYTE PTR [eax],al
  40c060:	00 b1 ff ff 43 00    	add    BYTE PTR [ecx+0x43ffff],dh
  40c066:	00 00                	add    BYTE PTR [eax],al
  40c068:	00 41 0e             	add    BYTE PTR [ecx+0xe],al
  40c06b:	08 86 02 41 0e 0c    	or     BYTE PTR [esi+0xc0e4102],al
  40c071:	83 03 43             	add    DWORD PTR [ebx],0x43
  40c074:	0e                   	push   cs
  40c075:	20 7b 0e             	and    BYTE PTR [ebx+0xe],bh
  40c078:	0c 41                	or     al,0x41
  40c07a:	c3                   	ret    
  40c07b:	0e                   	push   cs
  40c07c:	08 41 c6             	or     BYTE PTR [ecx-0x3a],al
  40c07f:	0e                   	push   cs
  40c080:	04 00                	add    al,0x0
  40c082:	00 00                	add    BYTE PTR [eax],al
  40c084:	10 00                	adc    BYTE PTR [eax],al
  40c086:	00 00                	add    BYTE PTR [eax],al
  40c088:	68 00 00 00 24       	push   0x24000000
  40c08d:	b1 ff                	mov    cl,0xff
  40c08f:	ff 20                	jmp    DWORD PTR [eax]
  40c091:	00 00                	add    BYTE PTR [eax],al
  40c093:	00 00                	add    BYTE PTR [eax],al
  40c095:	00 00                	add    BYTE PTR [eax],al
  40c097:	00 3c 00             	add    BYTE PTR [eax+eax*1],bh
  40c09a:	00 00                	add    BYTE PTR [eax],al
  40c09c:	7c 00                	jl     40c09e <.eh_frame+0x7e>
  40c09e:	00 00                	add    BYTE PTR [eax],al
  40c0a0:	30 b1 ff ff fb 01    	xor    BYTE PTR [ecx+0x1fbffff],dh
  40c0a6:	00 00                	add    BYTE PTR [eax],al
  40c0a8:	00 41 0e             	add    BYTE PTR [ecx+0xe],al
  40c0ab:	08 85 02 41 0e 0c    	or     BYTE PTR [ebp+0xc0e4102],al
  40c0b1:	87 03                	xchg   DWORD PTR [ebx],eax
  40c0b3:	41                   	inc    ecx
  40c0b4:	0e                   	push   cs
  40c0b5:	10 86 04 41 0e 14    	adc    BYTE PTR [esi+0x140e4104],al
  40c0bb:	83 05 43 0e 60 03 ef 	add    DWORD PTR ds:0x3600e43,0xffffffef
  40c0c2:	01 0e                	add    DWORD PTR [esi],ecx
  40c0c4:	14 41                	adc    al,0x41
  40c0c6:	c3                   	ret    
  40c0c7:	0e                   	push   cs
  40c0c8:	10 41 c6             	adc    BYTE PTR [ecx-0x3a],al
  40c0cb:	0e                   	push   cs
  40c0cc:	0c 41                	or     al,0x41
  40c0ce:	c7                   	(bad)  
  40c0cf:	0e                   	push   cs
  40c0d0:	08 41 c5             	or     BYTE PTR [ecx-0x3b],al
  40c0d3:	0e                   	push   cs
  40c0d4:	04 00                	add    al,0x0
	...

0040c0d8 <.eh_frame>:
  40c0d8:	14 00                	adc    al,0x0
  40c0da:	00 00                	add    BYTE PTR [eax],al
  40c0dc:	00 00                	add    BYTE PTR [eax],al
  40c0de:	00 00                	add    BYTE PTR [eax],al
  40c0e0:	01 7a 52             	add    DWORD PTR [edx+0x52],edi
  40c0e3:	00 01                	add    BYTE PTR [ecx],al
  40c0e5:	7c 08                	jl     40c0ef <.eh_frame+0x17>
  40c0e7:	01 1b                	add    DWORD PTR [ebx],ebx
  40c0e9:	0c 04                	or     al,0x4
  40c0eb:	04 88                	add    al,0x88
  40c0ed:	01 00                	add    DWORD PTR [eax],eax
  40c0ef:	00 2c 00             	add    BYTE PTR [eax+eax*1],ch
  40c0f2:	00 00                	add    BYTE PTR [eax],al
  40c0f4:	1c 00                	sbb    al,0x0
  40c0f6:	00 00                	add    BYTE PTR [eax],al
  40c0f8:	d8 b2 ff ff c5 00    	fdiv   DWORD PTR [edx+0xc5ffff]
  40c0fe:	00 00                	add    BYTE PTR [eax],al
  40c100:	00 41 0e             	add    BYTE PTR [ecx+0xe],al
  40c103:	08 85 02 42 0d 05    	or     BYTE PTR [ebp+0x50d4202],al
  40c109:	41                   	inc    ecx
  40c10a:	83 03 7f             	add    DWORD PTR [ebx],0x7f
  40c10d:	0a c5                	or     al,ch
  40c10f:	c3                   	ret    
  40c110:	0c 04                	or     al,0x4
  40c112:	04 41                	add    al,0x41
  40c114:	0b 02                	or     eax,DWORD PTR [edx]
  40c116:	68 0a c3 c5 0c       	push   0xcc5c30a
  40c11b:	04 04                	add    al,0x4
  40c11d:	44                   	inc    esp
  40c11e:	0b 00                	or     eax,DWORD PTR [eax]
  40c120:	24 00                	and    al,0x0
  40c122:	00 00                	add    BYTE PTR [eax],al
  40c124:	4c                   	dec    esp
  40c125:	00 00                	add    BYTE PTR [eax],al
  40c127:	00 78 b3             	add    BYTE PTR [eax-0x4d],bh
  40c12a:	ff                   	(bad)  
  40c12b:	ff 44 00 00          	inc    DWORD PTR [eax+eax*1+0x0]
  40c12f:	00 00                	add    BYTE PTR [eax],al
  40c131:	41                   	inc    ecx
  40c132:	0e                   	push   cs
  40c133:	08 85 02 42 0d 05    	or     BYTE PTR [ebp+0x50d4202],al
  40c139:	60                   	pusha  
  40c13a:	0a c5                	or     al,ch
  40c13c:	0c 04                	or     al,0x4
  40c13e:	04 41                	add    al,0x41
  40c140:	0b 5f c5             	or     ebx,DWORD PTR [edi-0x3b]
  40c143:	0c 04                	or     al,0x4
  40c145:	04 00                	add    al,0x0
  40c147:	00 2c 00             	add    BYTE PTR [eax+eax*1],ch
  40c14a:	00 00                	add    BYTE PTR [eax],al
  40c14c:	74 00                	je     40c14e <.eh_frame+0x76>
  40c14e:	00 00                	add    BYTE PTR [eax],al
  40c150:	a0 b3 ff ff cd       	mov    al,ds:0xcdffffb3
  40c155:	00 00                	add    BYTE PTR [eax],al
  40c157:	00 00                	add    BYTE PTR [eax],al
  40c159:	41                   	inc    ecx
  40c15a:	0e                   	push   cs
  40c15b:	08 85 02 44 0d 05    	or     BYTE PTR [ebp+0x50d4402],al
  40c161:	46                   	inc    esi
  40c162:	87 03                	xchg   DWORD PTR [ebx],eax
  40c164:	86 04 83             	xchg   BYTE PTR [ebx+eax*4],al
  40c167:	05 02 82 0a c3       	add    eax,0xc30a8202
  40c16c:	41                   	inc    ecx
  40c16d:	c6 41 c7 41          	mov    BYTE PTR [ecx-0x39],0x41
  40c171:	c5 0c 04             	lds    ecx,FWORD PTR [esp+eax*1]
  40c174:	04 41                	add    al,0x41
  40c176:	0b 00                	or     eax,DWORD PTR [eax]
  40c178:	30 00                	xor    BYTE PTR [eax],al
  40c17a:	00 00                	add    BYTE PTR [eax],al
  40c17c:	a4                   	movs   BYTE PTR es:[edi],BYTE PTR ds:[esi]
  40c17d:	00 00                	add    BYTE PTR [eax],al
  40c17f:	00 40 b4             	add    BYTE PTR [eax-0x4c],al
  40c182:	ff                   	(bad)  
  40c183:	ff 64 00 00          	jmp    DWORD PTR [eax+eax*1+0x0]
  40c187:	00 00                	add    BYTE PTR [eax],al
  40c189:	41                   	inc    ecx
  40c18a:	0e                   	push   cs
  40c18b:	08 85 02 42 0d 05    	or     BYTE PTR [ebp+0x50d4202],al
  40c191:	44                   	inc    esp
  40c192:	83 03 74             	add    DWORD PTR [ebx],0x74
  40c195:	0a c5                	or     al,ch
  40c197:	c3                   	ret    
  40c198:	0c 04                	or     al,0x4
  40c19a:	04 45                	add    al,0x45
  40c19c:	0b 44 0a c5          	or     eax,DWORD PTR [edx+ecx*1-0x3b]
  40c1a0:	c3                   	ret    
  40c1a1:	0c 04                	or     al,0x4
  40c1a3:	04 4c                	add    al,0x4c
  40c1a5:	0b 53 c3             	or     edx,DWORD PTR [ebx-0x3d]
  40c1a8:	c5 0c 04             	lds    ecx,FWORD PTR [esp+eax*1]
  40c1ab:	04 3c                	add    al,0x3c
  40c1ad:	00 00                	add    BYTE PTR [eax],al
  40c1af:	00 d8                	add    al,bl
  40c1b1:	00 00                	add    BYTE PTR [eax],al
  40c1b3:	00 7c b4 ff          	add    BYTE PTR [esp+esi*4-0x1],bh
  40c1b7:	ff                   	(bad)  
  40c1b8:	de 00                	fiadd  WORD PTR [eax]
  40c1ba:	00 00                	add    BYTE PTR [eax],al
  40c1bc:	00 41 0e             	add    BYTE PTR [ecx+0xe],al
  40c1bf:	08 85 02 43 0e 0c    	or     BYTE PTR [ebp+0xc0e4302],al
  40c1c5:	87 03                	xchg   DWORD PTR [ebx],eax
  40c1c7:	41                   	inc    ecx
  40c1c8:	0e                   	push   cs
  40c1c9:	10 86 04 41 0e 14    	adc    BYTE PTR [esi+0x140e4104],al
  40c1cf:	83 05 43 0e 40 02 7a 	add    DWORD PTR ds:0x2400e43,0x7a
  40c1d6:	0a 0e                	or     cl,BYTE PTR [esi]
  40c1d8:	14 41                	adc    al,0x41
  40c1da:	c3                   	ret    
  40c1db:	0e                   	push   cs
  40c1dc:	10 41 c6             	adc    BYTE PTR [ecx-0x3a],al
  40c1df:	0e                   	push   cs
  40c1e0:	0c 41                	or     al,0x41
  40c1e2:	c7                   	(bad)  
  40c1e3:	0e                   	push   cs
  40c1e4:	08 41 c5             	or     BYTE PTR [ecx-0x3b],al
  40c1e7:	0e                   	push   cs
  40c1e8:	04 41                	add    al,0x41
  40c1ea:	0b 00                	or     eax,DWORD PTR [eax]
  40c1ec:	14 00                	adc    al,0x0
  40c1ee:	00 00                	add    BYTE PTR [eax],al
  40c1f0:	18 01                	sbb    BYTE PTR [ecx],al
  40c1f2:	00 00                	add    BYTE PTR [eax],al
  40c1f4:	1c b5                	sbb    al,0xb5
  40c1f6:	ff                   	(bad)  
  40c1f7:	ff 25 00 00 00 00    	jmp    DWORD PTR ds:0x0
  40c1fd:	43                   	inc    ebx
  40c1fe:	0e                   	push   cs
  40c1ff:	20 61 0e             	and    BYTE PTR [ecx+0xe],ah
  40c202:	04 00                	add    al,0x0
  40c204:	3c 00                	cmp    al,0x0
  40c206:	00 00                	add    BYTE PTR [eax],al
  40c208:	30 01                	xor    BYTE PTR [ecx],al
  40c20a:	00 00                	add    BYTE PTR [eax],al
  40c20c:	34 b5                	xor    al,0xb5
  40c20e:	ff                   	(bad)  
  40c20f:	ff 58 01             	call   FWORD PTR [eax+0x1]
  40c212:	00 00                	add    BYTE PTR [eax],al
  40c214:	00 41 0e             	add    BYTE PTR [ecx+0xe],al
  40c217:	08 85 02 41 0e 0c    	or     BYTE PTR [ebp+0xc0e4102],al
  40c21d:	87 03                	xchg   DWORD PTR [ebx],eax
  40c21f:	41                   	inc    ecx
  40c220:	0e                   	push   cs
  40c221:	10 86 04 41 0e 14    	adc    BYTE PTR [esi+0x140e4104],al
  40c227:	83 05 43 0e 50 03 48 	add    DWORD PTR ds:0x3500e43,0x48
  40c22e:	01 0a                	add    DWORD PTR [edx],ecx
  40c230:	0e                   	push   cs
  40c231:	14 41                	adc    al,0x41
  40c233:	c3                   	ret    
  40c234:	0e                   	push   cs
  40c235:	10 41 c6             	adc    BYTE PTR [ecx-0x3a],al
  40c238:	0e                   	push   cs
  40c239:	0c 41                	or     al,0x41
  40c23b:	c7                   	(bad)  
  40c23c:	0e                   	push   cs
  40c23d:	08 41 c5             	or     BYTE PTR [ecx-0x3b],al
  40c240:	0e                   	push   cs
  40c241:	04 41                	add    al,0x41
  40c243:	0b 3c 00             	or     edi,DWORD PTR [eax+eax*1]
  40c246:	00 00                	add    BYTE PTR [eax],al
  40c248:	70 01                	jo     40c24b <.eh_frame+0x173>
  40c24a:	00 00                	add    BYTE PTR [eax],al
  40c24c:	54                   	push   esp
  40c24d:	b6 ff                	mov    dh,0xff
  40c24f:	ff 88 01 00 00 00    	dec    DWORD PTR [eax+0x1]
  40c255:	41                   	inc    ecx
  40c256:	0e                   	push   cs
  40c257:	08 85 02 42 0d 05    	or     BYTE PTR [ebp+0x50d4202],al
  40c25d:	46                   	inc    esi
  40c25e:	87 03                	xchg   DWORD PTR [ebx],eax
  40c260:	86 04 83             	xchg   BYTE PTR [ebx+eax*4],al
  40c263:	05 02 6c 0a c3       	add    eax,0xc30a6c02
  40c268:	41                   	inc    ecx
  40c269:	c6 41 c7 41          	mov    BYTE PTR [ecx-0x39],0x41
  40c26d:	c5 0c 04             	lds    ecx,FWORD PTR [esp+eax*1]
  40c270:	04 48                	add    al,0x48
  40c272:	0b 02                	or     eax,DWORD PTR [edx]
  40c274:	63 0a                	arpl   WORD PTR [edx],cx
  40c276:	c3                   	ret    
  40c277:	41                   	inc    ecx
  40c278:	c6 41 c7 41          	mov    BYTE PTR [ecx-0x39],0x41
  40c27c:	c5 0c 04             	lds    ecx,FWORD PTR [esp+eax*1]
  40c27f:	04 41                	add    al,0x41
  40c281:	0b 00                	or     eax,DWORD PTR [eax]
  40c283:	00 3c 00             	add    BYTE PTR [eax+eax*1],bh
  40c286:	00 00                	add    BYTE PTR [eax],al
  40c288:	b0 01                	mov    al,0x1
  40c28a:	00 00                	add    BYTE PTR [eax],al
  40c28c:	a4                   	movs   BYTE PTR es:[edi],BYTE PTR ds:[esi]
  40c28d:	b7 ff                	mov    bh,0xff
  40c28f:	ff 0d 01 00 00 00    	dec    DWORD PTR ds:0x1
  40c295:	41                   	inc    ecx
  40c296:	0e                   	push   cs
  40c297:	08 85 02 41 0e 0c    	or     BYTE PTR [ebp+0xc0e4102],al
  40c29d:	87 03                	xchg   DWORD PTR [ebx],eax
  40c29f:	41                   	inc    ecx
  40c2a0:	0e                   	push   cs
  40c2a1:	10 86 04 41 0e 14    	adc    BYTE PTR [esi+0x140e4104],al
  40c2a7:	83 05 43 0e 40 02 e9 	add    DWORD PTR ds:0x2400e43,0xffffffe9
  40c2ae:	0a 0e                	or     cl,BYTE PTR [esi]
  40c2b0:	14 41                	adc    al,0x41
  40c2b2:	c3                   	ret    
  40c2b3:	0e                   	push   cs
  40c2b4:	10 41 c6             	adc    BYTE PTR [ecx-0x3a],al
  40c2b7:	0e                   	push   cs
  40c2b8:	0c 41                	or     al,0x41
  40c2ba:	c7                   	(bad)  
  40c2bb:	0e                   	push   cs
  40c2bc:	08 41 c5             	or     BYTE PTR [ecx-0x3b],al
  40c2bf:	0e                   	push   cs
  40c2c0:	04 41                	add    al,0x41
  40c2c2:	0b 00                	or     eax,DWORD PTR [eax]
  40c2c4:	20 00                	and    BYTE PTR [eax],al
  40c2c6:	00 00                	add    BYTE PTR [eax],al
  40c2c8:	f0 01 00             	lock add DWORD PTR [eax],eax
  40c2cb:	00 74 b8 ff          	add    BYTE PTR [eax+edi*4-0x1],dh
  40c2cf:	ff 44 00 00          	inc    DWORD PTR [eax+eax*1+0x0]
  40c2d3:	00 00                	add    BYTE PTR [eax],al
  40c2d5:	41                   	inc    ecx
  40c2d6:	0e                   	push   cs
  40c2d7:	08 83 02 79 0a c3    	or     BYTE PTR [ebx-0x3cf586fe],al
  40c2dd:	0e                   	push   cs
  40c2de:	04 46                	add    al,0x46
  40c2e0:	0b 43 c3             	or     eax,DWORD PTR [ebx-0x3d]
  40c2e3:	0e                   	push   cs
  40c2e4:	04 00                	add    al,0x0
  40c2e6:	00 00                	add    BYTE PTR [eax],al
  40c2e8:	54                   	push   esp
  40c2e9:	00 00                	add    BYTE PTR [eax],al
  40c2eb:	00 14 02             	add    BYTE PTR [edx+eax*1],dl
  40c2ee:	00 00                	add    BYTE PTR [eax],al
  40c2f0:	a0 b8 ff ff 7c       	mov    al,ds:0x7cffffb8
  40c2f5:	01 00                	add    DWORD PTR [eax],eax
  40c2f7:	00 00                	add    BYTE PTR [eax],al
  40c2f9:	41                   	inc    ecx
  40c2fa:	0e                   	push   cs
  40c2fb:	08 85 02 41 0e 0c    	or     BYTE PTR [ebp+0xc0e4102],al
  40c301:	87 03                	xchg   DWORD PTR [ebx],eax
  40c303:	41                   	inc    ecx
  40c304:	0e                   	push   cs
  40c305:	10 86 04 41 0e 14    	adc    BYTE PTR [esi+0x140e4104],al
  40c30b:	83 05 43 0e 40 03 36 	add    DWORD PTR ds:0x3400e43,0x36
  40c312:	01 0a                	add    DWORD PTR [edx],ecx
  40c314:	0e                   	push   cs
  40c315:	14 41                	adc    al,0x41
  40c317:	c3                   	ret    
  40c318:	0e                   	push   cs
  40c319:	10 41 c6             	adc    BYTE PTR [ecx-0x3a],al
  40c31c:	0e                   	push   cs
  40c31d:	0c 41                	or     al,0x41
  40c31f:	c7                   	(bad)  
  40c320:	0e                   	push   cs
  40c321:	08 41 c5             	or     BYTE PTR [ecx-0x3b],al
  40c324:	0e                   	push   cs
  40c325:	04 41                	add    al,0x41
  40c327:	0b 61 0a             	or     esp,DWORD PTR [ecx+0xa]
  40c32a:	0e                   	push   cs
  40c32b:	14 41                	adc    al,0x41
  40c32d:	c3                   	ret    
  40c32e:	0e                   	push   cs
  40c32f:	10 41 c6             	adc    BYTE PTR [ecx-0x3a],al
  40c332:	0e                   	push   cs
  40c333:	0c 41                	or     al,0x41
  40c335:	c7                   	(bad)  
  40c336:	0e                   	push   cs
  40c337:	08 41 c5             	or     BYTE PTR [ecx-0x3b],al
  40c33a:	0e                   	push   cs
  40c33b:	04 41                	add    al,0x41
  40c33d:	0b 00                	or     eax,DWORD PTR [eax]
  40c33f:	00 68 00             	add    BYTE PTR [eax+0x0],ch
  40c342:	00 00                	add    BYTE PTR [eax],al
  40c344:	6c                   	ins    BYTE PTR es:[edi],dx
  40c345:	02 00                	add    al,BYTE PTR [eax]
  40c347:	00 c8                	add    al,cl
  40c349:	b9 ff ff e8 00       	mov    ecx,0xe8ffff
  40c34e:	00 00                	add    BYTE PTR [eax],al
  40c350:	00 41 0e             	add    BYTE PTR [ecx+0xe],al
  40c353:	08 85 02 46 0e 0c    	or     BYTE PTR [ebp+0xc0e4602],al
  40c359:	87 03                	xchg   DWORD PTR [ebx],eax
  40c35b:	41                   	inc    ecx
  40c35c:	0e                   	push   cs
  40c35d:	10 86 04 41 0e 14    	adc    BYTE PTR [esi+0x140e4104],al
  40c363:	83 05 43 0e 28 02 5d 	add    DWORD PTR ds:0x2280e43,0x5d
  40c36a:	0a 0e                	or     cl,BYTE PTR [esi]
  40c36c:	14 41                	adc    al,0x41
  40c36e:	c3                   	ret    
  40c36f:	0e                   	push   cs
  40c370:	10 41 c6             	adc    BYTE PTR [ecx-0x3a],al
  40c373:	0e                   	push   cs
  40c374:	0c 41                	or     al,0x41
  40c376:	c7                   	(bad)  
  40c377:	0e                   	push   cs
  40c378:	08 41 c5             	or     BYTE PTR [ecx-0x3b],al
  40c37b:	0e                   	push   cs
  40c37c:	04 43                	add    al,0x43
  40c37e:	0b 02                	or     eax,DWORD PTR [edx]
  40c380:	5b                   	pop    ebx
  40c381:	0a 0e                	or     cl,BYTE PTR [esi]
  40c383:	14 41                	adc    al,0x41
  40c385:	c3                   	ret    
  40c386:	0e                   	push   cs
  40c387:	10 41 c6             	adc    BYTE PTR [ecx-0x3a],al
  40c38a:	0e                   	push   cs
  40c38b:	0c 41                	or     al,0x41
  40c38d:	c7                   	(bad)  
  40c38e:	0e                   	push   cs
  40c38f:	08 41 c5             	or     BYTE PTR [ecx-0x3b],al
  40c392:	0e                   	push   cs
  40c393:	04 41                	add    al,0x41
  40c395:	0b 53 0e             	or     edx,DWORD PTR [ebx+0xe]
  40c398:	14 41                	adc    al,0x41
  40c39a:	c3                   	ret    
  40c39b:	0e                   	push   cs
  40c39c:	10 41 c6             	adc    BYTE PTR [ecx-0x3a],al
  40c39f:	0e                   	push   cs
  40c3a0:	0c 41                	or     al,0x41
  40c3a2:	c7                   	(bad)  
  40c3a3:	0e                   	push   cs
  40c3a4:	08 41 c5             	or     BYTE PTR [ecx-0x3b],al
  40c3a7:	0e                   	push   cs
  40c3a8:	04 00                	add    al,0x0
  40c3aa:	00 00                	add    BYTE PTR [eax],al
  40c3ac:	54                   	push   esp
  40c3ad:	00 00                	add    BYTE PTR [eax],al
  40c3af:	00 d8                	add    al,bl
  40c3b1:	02 00                	add    al,BYTE PTR [eax]
  40c3b3:	00 4c ba ff          	add    BYTE PTR [edx+edi*4-0x1],cl
  40c3b7:	ff                   	(bad)  
  40c3b8:	ec                   	in     al,dx
  40c3b9:	00 00                	add    BYTE PTR [eax],al
  40c3bb:	00 00                	add    BYTE PTR [eax],al
  40c3bd:	41                   	inc    ecx
  40c3be:	0e                   	push   cs
  40c3bf:	08 85 02 41 0e 0c    	or     BYTE PTR [ebp+0xc0e4102],al
  40c3c5:	87 03                	xchg   DWORD PTR [ebx],eax
  40c3c7:	41                   	inc    ecx
  40c3c8:	0e                   	push   cs
  40c3c9:	10 86 04 41 0e 14    	adc    BYTE PTR [esi+0x140e4104],al
  40c3cf:	83 05 43 0e 30 02 7c 	add    DWORD PTR ds:0x2300e43,0x7c
  40c3d6:	0a 0e                	or     cl,BYTE PTR [esi]
  40c3d8:	14 41                	adc    al,0x41
  40c3da:	c3                   	ret    
  40c3db:	0e                   	push   cs
  40c3dc:	10 41 c6             	adc    BYTE PTR [ecx-0x3a],al
  40c3df:	0e                   	push   cs
  40c3e0:	0c 41                	or     al,0x41
  40c3e2:	c7                   	(bad)  
  40c3e3:	0e                   	push   cs
  40c3e4:	08 41 c5             	or     BYTE PTR [ecx-0x3b],al
  40c3e7:	0e                   	push   cs
  40c3e8:	04 41                	add    al,0x41
  40c3ea:	0b 02                	or     eax,DWORD PTR [edx]
  40c3ec:	56                   	push   esi
  40c3ed:	0a 0e                	or     cl,BYTE PTR [esi]
  40c3ef:	14 41                	adc    al,0x41
  40c3f1:	c3                   	ret    
  40c3f2:	0e                   	push   cs
  40c3f3:	10 41 c6             	adc    BYTE PTR [ecx-0x3a],al
  40c3f6:	0e                   	push   cs
  40c3f7:	0c 41                	or     al,0x41
  40c3f9:	c7                   	(bad)  
  40c3fa:	0e                   	push   cs
  40c3fb:	08 41 c5             	or     BYTE PTR [ecx-0x3b],al
  40c3fe:	0e                   	push   cs
  40c3ff:	04 41                	add    al,0x41
  40c401:	0b 00                	or     eax,DWORD PTR [eax]
  40c403:	00 10                	add    BYTE PTR [eax],dl
  40c405:	00 00                	add    BYTE PTR [eax],al
  40c407:	00 30                	add    BYTE PTR [eax],dh
  40c409:	03 00                	add    eax,DWORD PTR [eax]
  40c40b:	00 e4                	add    ah,ah
  40c40d:	ba ff ff 26 00       	mov    edx,0x26ffff
  40c412:	00 00                	add    BYTE PTR [eax],al
  40c414:	00 00                	add    BYTE PTR [eax],al
	...

0040c418 <.eh_frame>:
  40c418:	14 00                	adc    al,0x0
  40c41a:	00 00                	add    BYTE PTR [eax],al
  40c41c:	00 00                	add    BYTE PTR [eax],al
  40c41e:	00 00                	add    BYTE PTR [eax],al
  40c420:	01 7a 52             	add    DWORD PTR [edx+0x52],edi
  40c423:	00 01                	add    BYTE PTR [ecx],al
  40c425:	7c 08                	jl     40c42f <.eh_frame+0x17>
  40c427:	01 1b                	add    DWORD PTR [ebx],ebx
  40c429:	0c 04                	or     al,0x4
  40c42b:	04 88                	add    al,0x88
  40c42d:	01 00                	add    DWORD PTR [eax],eax
  40c42f:	00 7c 00 00          	add    BYTE PTR [eax+eax*1+0x0],bh
  40c433:	00 1c 00             	add    BYTE PTR [eax+eax*1],bl
  40c436:	00 00                	add    BYTE PTR [eax],al
  40c438:	88 bc ff ff 0d 01 00 	mov    BYTE PTR [edi+edi*8+0x10dff],bh
  40c43f:	00 00                	add    BYTE PTR [eax],al
  40c441:	41                   	inc    ecx
  40c442:	0e                   	push   cs
  40c443:	08 85 02 41 0e 0c    	or     BYTE PTR [ebp+0xc0e4102],al
  40c449:	87 03                	xchg   DWORD PTR [ebx],eax
  40c44b:	41                   	inc    ecx
  40c44c:	0e                   	push   cs
  40c44d:	10 86 04 41 0e 14    	adc    BYTE PTR [esi+0x140e4104],al
  40c453:	83 05 43 0e 28 02 41 	add    DWORD PTR ds:0x2280e43,0x41
  40c45a:	0a 0e                	or     cl,BYTE PTR [esi]
  40c45c:	14 41                	adc    al,0x41
  40c45e:	c3                   	ret    
  40c45f:	0e                   	push   cs
  40c460:	10 41 c6             	adc    BYTE PTR [ecx-0x3a],al
  40c463:	0e                   	push   cs
  40c464:	0c 41                	or     al,0x41
  40c466:	c7                   	(bad)  
  40c467:	0e                   	push   cs
  40c468:	08 41 c5             	or     BYTE PTR [ecx-0x3b],al
  40c46b:	0e                   	push   cs
  40c46c:	04 44                	add    al,0x44
  40c46e:	0b 6d 0a             	or     ebp,DWORD PTR [ebp+0xa]
  40c471:	0e                   	push   cs
  40c472:	14 41                	adc    al,0x41
  40c474:	c3                   	ret    
  40c475:	0e                   	push   cs
  40c476:	10 41 c6             	adc    BYTE PTR [ecx-0x3a],al
  40c479:	0e                   	push   cs
  40c47a:	0c 41                	or     al,0x41
  40c47c:	c7                   	(bad)  
  40c47d:	0e                   	push   cs
  40c47e:	08 41 c5             	or     BYTE PTR [ecx-0x3b],al
  40c481:	0e                   	push   cs
  40c482:	04 41                	add    al,0x41
  40c484:	0b 4b 0a             	or     ecx,DWORD PTR [ebx+0xa]
  40c487:	0e                   	push   cs
  40c488:	14 41                	adc    al,0x41
  40c48a:	c3                   	ret    
  40c48b:	0e                   	push   cs
  40c48c:	10 41 c6             	adc    BYTE PTR [ecx-0x3a],al
  40c48f:	0e                   	push   cs
  40c490:	0c 41                	or     al,0x41
  40c492:	c7                   	(bad)  
  40c493:	0e                   	push   cs
  40c494:	08 41 c5             	or     BYTE PTR [ecx-0x3b],al
  40c497:	0e                   	push   cs
  40c498:	04 41                	add    al,0x41
  40c49a:	0b 02                	or     eax,DWORD PTR [edx]
  40c49c:	76 0e                	jbe    40c4ac <.eh_frame+0x94>
  40c49e:	14 41                	adc    al,0x41
  40c4a0:	c3                   	ret    
  40c4a1:	0e                   	push   cs
  40c4a2:	10 41 c6             	adc    BYTE PTR [ecx-0x3a],al
  40c4a5:	0e                   	push   cs
  40c4a6:	0c 41                	or     al,0x41
  40c4a8:	c7                   	(bad)  
  40c4a9:	0e                   	push   cs
  40c4aa:	08 41 c5             	or     BYTE PTR [ecx-0x3b],al
  40c4ad:	0e                   	push   cs
  40c4ae:	04 00                	add    al,0x0

0040c4b0 <.eh_frame>:
  40c4b0:	14 00                	adc    al,0x0
  40c4b2:	00 00                	add    BYTE PTR [eax],al
  40c4b4:	00 00                	add    BYTE PTR [eax],al
  40c4b6:	00 00                	add    BYTE PTR [eax],al
  40c4b8:	01 7a 52             	add    DWORD PTR [edx+0x52],edi
  40c4bb:	00 01                	add    BYTE PTR [ecx],al
  40c4bd:	7c 08                	jl     40c4c7 <.eh_frame+0x17>
  40c4bf:	01 1b                	add    DWORD PTR [ebx],ebx
  40c4c1:	0c 04                	or     al,0x4
  40c4c3:	04 88                	add    al,0x88
  40c4c5:	01 00                	add    DWORD PTR [eax],eax
  40c4c7:	00 80 00 00 00 1c    	add    BYTE PTR [eax+0x1c000000],al
  40c4cd:	00 00                	add    BYTE PTR [eax],al
  40c4cf:	00 00                	add    BYTE PTR [eax],al
  40c4d1:	bd ff ff 50 01       	mov    ebp,0x150ffff
  40c4d6:	00 00                	add    BYTE PTR [eax],al
  40c4d8:	00 41 0e             	add    BYTE PTR [ecx+0xe],al
  40c4db:	08 85 02 41 0e 0c    	or     BYTE PTR [ebp+0xc0e4102],al
  40c4e1:	87 03                	xchg   DWORD PTR [ebx],eax
  40c4e3:	41                   	inc    ecx
  40c4e4:	0e                   	push   cs
  40c4e5:	10 86 04 41 0e 14    	adc    BYTE PTR [esi+0x140e4104],al
  40c4eb:	83 05 43 0e 30 78 0a 	add    DWORD PTR ds:0x78300e43,0xa
  40c4f2:	0e                   	push   cs
  40c4f3:	14 41                	adc    al,0x41
  40c4f5:	c3                   	ret    
  40c4f6:	0e                   	push   cs
  40c4f7:	10 41 c6             	adc    BYTE PTR [ecx-0x3a],al
  40c4fa:	0e                   	push   cs
  40c4fb:	0c 41                	or     al,0x41
  40c4fd:	c7                   	(bad)  
  40c4fe:	0e                   	push   cs
  40c4ff:	08 41 c5             	or     BYTE PTR [ecx-0x3b],al
  40c502:	0e                   	push   cs
  40c503:	04 41                	add    al,0x41
  40c505:	0b 74 0a 0e          	or     esi,DWORD PTR [edx+ecx*1+0xe]
  40c509:	14 41                	adc    al,0x41
  40c50b:	c3                   	ret    
  40c50c:	0e                   	push   cs
  40c50d:	10 41 c6             	adc    BYTE PTR [ecx-0x3a],al
  40c510:	0e                   	push   cs
  40c511:	0c 41                	or     al,0x41
  40c513:	c7                   	(bad)  
  40c514:	0e                   	push   cs
  40c515:	08 41 c5             	or     BYTE PTR [ecx-0x3b],al
  40c518:	0e                   	push   cs
  40c519:	04 44                	add    al,0x44
  40c51b:	0b 67 0a             	or     esp,DWORD PTR [edi+0xa]
  40c51e:	0e                   	push   cs
  40c51f:	14 41                	adc    al,0x41
  40c521:	c3                   	ret    
  40c522:	0e                   	push   cs
  40c523:	10 41 c6             	adc    BYTE PTR [ecx-0x3a],al
  40c526:	0e                   	push   cs
  40c527:	0c 41                	or     al,0x41
  40c529:	c7                   	(bad)  
  40c52a:	0e                   	push   cs
  40c52b:	08 41 c5             	or     BYTE PTR [ecx-0x3b],al
  40c52e:	0e                   	push   cs
  40c52f:	04 45                	add    al,0x45
  40c531:	0b 02                	or     eax,DWORD PTR [edx]
  40c533:	78 0a                	js     40c53f <.eh_frame+0x8f>
  40c535:	0e                   	push   cs
  40c536:	14 41                	adc    al,0x41
  40c538:	c3                   	ret    
  40c539:	0e                   	push   cs
  40c53a:	10 41 c6             	adc    BYTE PTR [ecx-0x3a],al
  40c53d:	0e                   	push   cs
  40c53e:	0c 41                	or     al,0x41
  40c540:	c7                   	(bad)  
  40c541:	0e                   	push   cs
  40c542:	08 41 c5             	or     BYTE PTR [ecx-0x3b],al
  40c545:	0e                   	push   cs
  40c546:	04 44                	add    al,0x44
  40c548:	0b 00                	or     eax,DWORD PTR [eax]
	...

0040c54c <___FRAME_END__>:
  40c54c:	00 00                	add    BYTE PTR [eax],al
  40c54e:	00 00                	add    BYTE PTR [eax],al
  40c550:	14 00                	adc    al,0x0
  40c552:	00 00                	add    BYTE PTR [eax],al
  40c554:	00 00                	add    BYTE PTR [eax],al
  40c556:	00 00                	add    BYTE PTR [eax],al
  40c558:	01 7a 52             	add    DWORD PTR [edx+0x52],edi
  40c55b:	00 01                	add    BYTE PTR [ecx],al
  40c55d:	7c 08                	jl     40c567 <___FRAME_END__+0x1b>
  40c55f:	01 1b                	add    DWORD PTR [ebx],ebx
  40c561:	0c 04                	or     al,0x4
  40c563:	04 88                	add    al,0x88
  40c565:	01 00                	add    DWORD PTR [eax],eax
  40c567:	00 1c 00             	add    BYTE PTR [eax+eax*1],bl
  40c56a:	00 00                	add    BYTE PTR [eax],al
  40c56c:	1c 00                	sbb    al,0x0
  40c56e:	00 00                	add    BYTE PTR [eax],al
  40c570:	c0 bd ff ff 19 00 00 	sar    BYTE PTR [ebp+0x19ffff],0x0
  40c577:	00 00                	add    BYTE PTR [eax],al
  40c579:	41                   	inc    ecx
  40c57a:	0e                   	push   cs
  40c57b:	08 85 02 42 0d 05    	or     BYTE PTR [ebp+0x50d4202],al
  40c581:	55                   	push   ebp
  40c582:	c5 0c 04             	lds    ecx,FWORD PTR [esp+eax*1]
  40c585:	04 00                	add    al,0x0
	...

Disassembly of section .bss:

0040d000 <__argv>:
  40d000:	00 00                	add    BYTE PTR [eax],al
	...

0040d004 <__argc>:
  40d004:	00 00                	add    BYTE PTR [eax],al
	...

0040d008 <_obj>:
	...

0040d020 <__CRT_fmode>:
  40d020:	00 00                	add    BYTE PTR [eax],al
	...

0040d024 <___cpu_features>:
  40d024:	00 00                	add    BYTE PTR [eax],al
	...

0040d028 <_initialized>:
  40d028:	00 00                	add    BYTE PTR [eax],al
	...

0040d02c <_mingw_initltssuo_force>:
  40d02c:	00 00                	add    BYTE PTR [eax],al
	...

0040d030 <_mingw_initltsdyn_force>:
  40d030:	00 00                	add    BYTE PTR [eax],al
	...

0040d034 <_mingw_initltsdrot_force>:
  40d034:	00 00                	add    BYTE PTR [eax],al
	...

0040d038 <__tls_index>:
  40d038:	00 00                	add    BYTE PTR [eax],al
	...

0040d03c <_key_dtor_list>:
  40d03c:	00 00                	add    BYTE PTR [eax],al
	...

0040d040 <___mingwthr_cs_init>:
  40d040:	00 00                	add    BYTE PTR [eax],al
	...

0040d044 <___mingwthr_cs>:
	...

0040d05c <_was_init.31107>:
  40d05c:	00 00                	add    BYTE PTR [eax],al
	...

0040d060 <.bss>:
  40d060:	00 00                	add    BYTE PTR [eax],al
	...

0040d064 <__CRT_MT>:
  40d064:	00 00                	add    BYTE PTR [eax],al
	...

0040d068 <_retfail.2586>:
  40d068:	00 00                	add    BYTE PTR [eax],al
	...

0040d06c <___mingw_output_format_flag>:
  40d06c:	00 00                	add    BYTE PTR [eax],al
	...

0040d070 <_s_mbstate.15273>:
  40d070:	00 00                	add    BYTE PTR [eax],al
	...

0040d074 <_internal_mbstate.15257>:
  40d074:	00 00                	add    BYTE PTR [eax],al
	...

0040d078 <_internal_mbstate.15246>:
  40d078:	00 00                	add    BYTE PTR [eax],al
	...

0040d07c <.bss>:
  40d07c:	00 00                	add    BYTE PTR [eax],al
	...

0040d080 <_p5s>:
	...

0040d0a0 <_private_mem>:
	...

0040d9a0 <_freelist>:
	...

0040d9c8 <_dtoa_CS_init>:
	...

0040d9e0 <_dtoa_CritSec>:
	...

0040da20 <.bss>:
	...

Disassembly of section .idata:

0040e000 <__head_libkernel32_a>:
  40e000:	50                   	push   eax
  40e001:	e0 00                	loopne 40e003 <__head_libkernel32_a+0x3>
	...
  40e00b:	00 b8 e5 00 00 44    	add    BYTE PTR [eax+0x440000e5],bh
  40e011:	e1 00                	loope  40e013 <__head_libkernel32_a+0x13>
	...

0040e014 <__head_libmoldname_a>:
  40e014:	a8 e0                	test   al,0xe0
	...
  40e01e:	00 00                	add    BYTE PTR [eax],al
  40e020:	d0 e5                	shl    ch,1
  40e022:	00 00                	add    BYTE PTR [eax],al
  40e024:	9c                   	pushf  
  40e025:	e1 00                	loope  40e027 <__head_libmoldname_a+0x13>
	...

0040e028 <__head_libmsvcrt_a>:
  40e028:	b4 e0                	mov    ah,0xe0
	...
  40e032:	00 00                	add    BYTE PTR [eax],al
  40e034:	68 e6 00 00 a8       	push   0xa80000e6
  40e039:	e1 00                	loope  40e03b <__head_libmsvcrt_a+0x13>
	...

0040e050 <hname>:
  40e050:	38 e2                	cmp    dl,ah
	...

0040e054 <.idata$4>:
  40e054:	50                   	push   eax
  40e055:	e2 00                	loop   40e057 <.idata$4+0x3>
	...

0040e058 <.idata$4>:
  40e058:	68 e2 00 00 76       	push   0x760000e2

0040e05c <.idata$4>:
  40e05c:	76 e2                	jbe    40e040 <__head_libmsvcrt_a+0x18>
	...

0040e060 <.idata$4>:
  40e060:	82                   	(bad)  
  40e061:	e2 00                	loop   40e063 <.idata$4+0x3>
	...

0040e064 <.idata$4>:
  40e064:	94                   	xchg   esp,eax
  40e065:	e2 00                	loop   40e067 <.idata$4+0x3>
	...

0040e068 <.idata$4>:
  40e068:	a4                   	movs   BYTE PTR es:[edi],BYTE PTR ds:[esi]
  40e069:	e2 00                	loop   40e06b <.idata$4+0x3>
	...

0040e06c <.idata$4>:
  40e06c:	b6 e2                	mov    dh,0xe2
	...

0040e070 <.idata$4>:
  40e070:	c6                   	(bad)  
  40e071:	e2 00                	loop   40e073 <.idata$4+0x3>
	...

0040e074 <.idata$4>:
  40e074:	da e2                	(bad)  
	...

0040e078 <.idata$4>:
  40e078:	ec                   	in     al,dx
  40e079:	e2 00                	loop   40e07b <.idata$4+0x3>
	...

0040e07c <.idata$4>:
  40e07c:	08 e3                	or     bl,ah
	...

0040e080 <.idata$4>:
  40e080:	1e                   	push   ds
  40e081:	e3 00                	jecxz  40e083 <.idata$4+0x3>
	...

0040e084 <.idata$4>:
  40e084:	32 e3                	xor    ah,bl
	...

0040e088 <.idata$4>:
  40e088:	4a                   	dec    edx
  40e089:	e3 00                	jecxz  40e08b <.idata$4+0x3>
	...

0040e08c <.idata$4>:
  40e08c:	60                   	pusha  
  40e08d:	e3 00                	jecxz  40e08f <.idata$4+0x3>
	...

0040e090 <.idata$4>:
  40e090:	7e e3                	jle    40e075 <.idata$4+0x1>
	...

0040e094 <.idata$4>:
  40e094:	86 e3                	xchg   bl,ah
	...

0040e098 <.idata$4>:
  40e098:	94                   	xchg   esp,eax
  40e099:	e3 00                	jecxz  40e09b <.idata$4+0x3>
	...

0040e09c <.idata$4>:
  40e09c:	a6                   	cmps   BYTE PTR ds:[esi],BYTE PTR es:[edi]
  40e09d:	e3 00                	jecxz  40e09f <.idata$4+0x3>
	...

0040e0a0 <.idata$4>:
  40e0a0:	b6 e3                	mov    dh,0xe3
	...

0040e0a4 <.idata$4>:
  40e0a4:	00 00                	add    BYTE PTR [eax],al
	...

0040e0a8 <hname>:
  40e0a8:	cc                   	int3   
  40e0a9:	e3 00                	jecxz  40e0ab <hname+0x3>
	...

0040e0ac <.idata$4>:
  40e0ac:	d6                   	(bad)  
  40e0ad:	e3 00                	jecxz  40e0af <.idata$4+0x3>
	...

0040e0b0 <.idata$4>:
  40e0b0:	00 00                	add    BYTE PTR [eax],al
	...

0040e0b4 <hname>:
  40e0b4:	e2 e3                	loop   40e099 <.idata$4+0x1>
	...

0040e0b8 <.idata$4>:
  40e0b8:	f2 e3 00             	repnz jecxz 40e0bb <.idata$4+0x3>
	...

0040e0bc <.idata$4>:
  40e0bc:	02 e4                	add    ah,ah
	...

0040e0c0 <.idata$4>:
  40e0c0:	12 e4                	adc    ah,ah
	...

0040e0c4 <.idata$4>:
  40e0c4:	20 e4                	and    ah,ah
	...

0040e0c8 <.idata$4>:
  40e0c8:	32 e4                	xor    ah,ah
	...

0040e0cc <.idata$4>:
  40e0cc:	3c e4                	cmp    al,0xe4
	...

0040e0d0 <.idata$4>:
  40e0d0:	46                   	inc    esi
  40e0d1:	e4 00                	in     al,0x0
	...

0040e0d4 <.idata$4>:
  40e0d4:	52                   	push   edx
  40e0d5:	e4 00                	in     al,0x0
	...

0040e0d8 <.idata$4>:
  40e0d8:	5a                   	pop    edx
  40e0d9:	e4 00                	in     al,0x0
	...

0040e0dc <.idata$4>:
  40e0dc:	64 e4 00             	fs in  al,0x0
	...

0040e0e0 <.idata$4>:
  40e0e0:	70 e4                	jo     40e0c6 <.idata$4+0x2>
	...

0040e0e4 <.idata$4>:
  40e0e4:	78 e4                	js     40e0ca <.idata$4+0x2>
	...

0040e0e8 <.idata$4>:
  40e0e8:	82                   	(bad)  
  40e0e9:	e4 00                	in     al,0x0
	...

0040e0ec <.idata$4>:
  40e0ec:	8a e4                	mov    ah,ah
	...

0040e0f0 <.idata$4>:
  40e0f0:	94                   	xchg   esp,eax
  40e0f1:	e4 00                	in     al,0x0
	...

0040e0f4 <.idata$4>:
  40e0f4:	9c                   	pushf  
  40e0f5:	e4 00                	in     al,0x0
	...

0040e0f8 <.idata$4>:
  40e0f8:	a4                   	movs   BYTE PTR es:[edi],BYTE PTR ds:[esi]
  40e0f9:	e4 00                	in     al,0x0
	...

0040e0fc <.idata$4>:
  40e0fc:	ae                   	scas   al,BYTE PTR es:[edi]
  40e0fd:	e4 00                	in     al,0x0
	...

0040e100 <.idata$4>:
  40e100:	b8 e4 00 00 c2       	mov    eax,0xc20000e4

0040e104 <.idata$4>:
  40e104:	c2 e4 00             	ret    0xe4
	...

0040e108 <.idata$4>:
  40e108:	d0 e4                	shl    ah,1
	...

0040e10c <.idata$4>:
  40e10c:	da e4                	(bad)  
	...

0040e110 <.idata$4>:
  40e110:	e6 e4                	out    0xe4,al
	...

0040e114 <.idata$4>:
  40e114:	f0 e4 00             	lock in al,0x0
	...

0040e118 <.idata$4>:
  40e118:	fa                   	cli    
  40e119:	e4 00                	in     al,0x0
	...

0040e11c <.idata$4>:
  40e11c:	04 e5                	add    al,0xe5
	...

0040e120 <.idata$4>:
  40e120:	10 e5                	adc    ch,ah
	...

0040e124 <.idata$4>:
  40e124:	1a e5                	sbb    ah,ch
	...

0040e128 <.idata$4>:
  40e128:	24 e5                	and    al,0xe5
	...

0040e12c <.idata$4>:
  40e12c:	2e e5 00             	cs in  eax,0x0
	...

0040e130 <.idata$4>:
  40e130:	38 e5                	cmp    ch,ah
	...

0040e134 <.idata$4>:
  40e134:	42                   	inc    edx
  40e135:	e5 00                	in     eax,0x0
	...

0040e138 <.idata$4>:
  40e138:	4e                   	dec    esi
  40e139:	e5 00                	in     eax,0x0
	...

0040e13c <.idata$4>:
  40e13c:	58                   	pop    eax
  40e13d:	e5 00                	in     eax,0x0
	...

0040e140 <.idata$4>:
  40e140:	00 00                	add    BYTE PTR [eax],al
	...

0040e144 <__IAT_start__>:
  40e144:	38 e2                	cmp    dl,ah
	...

0040e148 <__imp__EnterCriticalSection@4>:
  40e148:	50                   	push   eax
  40e149:	e2 00                	loop   40e14b <__imp__EnterCriticalSection@4+0x3>
	...

0040e14c <__imp__ExitProcess@4>:
  40e14c:	68 e2 00 00 76       	push   0x760000e2

0040e150 <__imp__FindClose@4>:
  40e150:	76 e2                	jbe    40e134 <.idata$4>
	...

0040e154 <__imp__FindFirstFileA@8>:
  40e154:	82                   	(bad)  
  40e155:	e2 00                	loop   40e157 <__imp__FindFirstFileA@8+0x3>
	...

0040e158 <__imp__FindNextFileA@8>:
  40e158:	94                   	xchg   esp,eax
  40e159:	e2 00                	loop   40e15b <__imp__FindNextFileA@8+0x3>
	...

0040e15c <__imp__GetCommandLineA@0>:
  40e15c:	a4                   	movs   BYTE PTR es:[edi],BYTE PTR ds:[esi]
  40e15d:	e2 00                	loop   40e15f <__imp__GetCommandLineA@0+0x3>
	...

0040e160 <__imp__GetLastError@0>:
  40e160:	b6 e2                	mov    dh,0xe2
	...

0040e164 <__imp__GetModuleHandleA@4>:
  40e164:	c6                   	(bad)  
  40e165:	e2 00                	loop   40e167 <__imp__GetModuleHandleA@4+0x3>
	...

0040e168 <__imp__GetProcAddress@8>:
  40e168:	da e2                	(bad)  
	...

0040e16c <__imp__InitializeCriticalSection@4>:
  40e16c:	ec                   	in     al,dx
  40e16d:	e2 00                	loop   40e16f <__imp__InitializeCriticalSection@4+0x3>
	...

0040e170 <__imp__InterlockedExchange@8>:
  40e170:	08 e3                	or     bl,ah
	...

0040e174 <__imp__IsDBCSLeadByteEx@8>:
  40e174:	1e                   	push   ds
  40e175:	e3 00                	jecxz  40e177 <__imp__IsDBCSLeadByteEx@8+0x3>
	...

0040e178 <__imp__LeaveCriticalSection@4>:
  40e178:	32 e3                	xor    ah,bl
	...

0040e17c <__imp__MultiByteToWideChar@24>:
  40e17c:	4a                   	dec    edx
  40e17d:	e3 00                	jecxz  40e17f <__imp__MultiByteToWideChar@24+0x3>
	...

0040e180 <__imp__SetUnhandledExceptionFilter@4>:
  40e180:	60                   	pusha  
  40e181:	e3 00                	jecxz  40e183 <__imp__SetUnhandledExceptionFilter@4+0x3>
	...

0040e184 <__imp__Sleep@4>:
  40e184:	7e e3                	jle    40e169 <__imp__GetProcAddress@8+0x1>
	...

0040e188 <__imp__TlsGetValue@4>:
  40e188:	86 e3                	xchg   bl,ah
	...

0040e18c <__imp__VirtualProtect@16>:
  40e18c:	94                   	xchg   esp,eax
  40e18d:	e3 00                	jecxz  40e18f <__imp__VirtualProtect@16+0x3>
	...

0040e190 <__imp__VirtualQuery@12>:
  40e190:	a6                   	cmps   BYTE PTR ds:[esi],BYTE PTR es:[edi]
  40e191:	e3 00                	jecxz  40e193 <__imp__VirtualQuery@12+0x3>
	...

0040e194 <__imp__WideCharToMultiByte@32>:
  40e194:	b6 e3                	mov    dh,0xe3
	...

0040e198 <.idata$5>:
  40e198:	00 00                	add    BYTE PTR [eax],al
	...

0040e19c <__imp__strdup>:
  40e19c:	cc                   	int3   
  40e19d:	e3 00                	jecxz  40e19f <__imp__strdup+0x3>
	...

0040e1a0 <__imp__stricoll>:
  40e1a0:	d6                   	(bad)  
  40e1a1:	e3 00                	jecxz  40e1a3 <__imp__stricoll+0x3>
	...

0040e1a4 <.idata$5>:
  40e1a4:	00 00                	add    BYTE PTR [eax],al
	...

0040e1a8 <__imp____getmainargs>:
  40e1a8:	e2 e3                	loop   40e18d <__imp__VirtualProtect@16+0x1>
	...

0040e1ac <__imp____mb_cur_max>:
  40e1ac:	f2 e3 00             	repnz jecxz 40e1af <__imp____mb_cur_max+0x3>
	...

0040e1b0 <__imp____p__environ>:
  40e1b0:	02 e4                	add    ah,ah
	...

0040e1b4 <__imp____p__fmode>:
  40e1b4:	12 e4                	adc    ah,ah
	...

0040e1b8 <__imp____set_app_type>:
  40e1b8:	20 e4                	and    ah,ah
	...

0040e1bc <__imp___cexit>:
  40e1bc:	32 e4                	xor    ah,ah
	...

0040e1c0 <__imp___errno>:
  40e1c0:	3c e4                	cmp    al,0xe4
	...

0040e1c4 <__imp___fullpath>:
  40e1c4:	46                   	inc    esi
  40e1c5:	e4 00                	in     al,0x0
	...

0040e1c8 <__imp___iob>:
  40e1c8:	52                   	push   edx
  40e1c9:	e4 00                	in     al,0x0
	...

0040e1cc <__imp___onexit>:
  40e1cc:	5a                   	pop    edx
  40e1cd:	e4 00                	in     al,0x0
	...

0040e1d0 <__imp___setmode>:
  40e1d0:	64 e4 00             	fs in  al,0x0
	...

0040e1d4 <__imp__abort>:
  40e1d4:	70 e4                	jo     40e1ba <__imp____set_app_type+0x2>
	...

0040e1d8 <__imp__atexit>:
  40e1d8:	78 e4                	js     40e1be <__imp___cexit+0x2>
	...

0040e1dc <__imp__atoi>:
  40e1dc:	82                   	(bad)  
  40e1dd:	e4 00                	in     al,0x0
	...

0040e1e0 <__imp__calloc>:
  40e1e0:	8a e4                	mov    ah,ah
	...

0040e1e4 <__imp__fputc>:
  40e1e4:	94                   	xchg   esp,eax
  40e1e5:	e4 00                	in     al,0x0
	...

0040e1e8 <__imp__free>:
  40e1e8:	9c                   	pushf  
  40e1e9:	e4 00                	in     al,0x0
	...

0040e1ec <__imp__fwrite>:
  40e1ec:	a4                   	movs   BYTE PTR es:[edi],BYTE PTR ds:[esi]
  40e1ed:	e4 00                	in     al,0x0
	...

0040e1f0 <__imp__getenv>:
  40e1f0:	ae                   	scas   al,BYTE PTR es:[edi]
  40e1f1:	e4 00                	in     al,0x0
	...

0040e1f4 <__imp__isspace>:
  40e1f4:	b8 e4 00 00 c2       	mov    eax,0xc20000e4

0040e1f8 <__imp__localeconv>:
  40e1f8:	c2 e4 00             	ret    0xe4
	...

0040e1fc <__imp__malloc>:
  40e1fc:	d0 e4                	shl    ah,1
	...

0040e200 <__imp__mbstowcs>:
  40e200:	da e4                	(bad)  
	...

0040e204 <__imp__memcpy>:
  40e204:	e6 e4                	out    0xe4,al
	...

0040e208 <__imp__printf>:
  40e208:	f0 e4 00             	lock in al,0x0
	...

0040e20c <__imp__realloc>:
  40e20c:	fa                   	cli    
  40e20d:	e4 00                	in     al,0x0
	...

0040e210 <__imp__setlocale>:
  40e210:	04 e5                	add    al,0xe5
	...

0040e214 <__imp__signal>:
  40e214:	10 e5                	adc    ch,ah
	...

0040e218 <__imp__strchr>:
  40e218:	1a e5                	sbb    ah,ch
	...

0040e21c <__imp__strcoll>:
  40e21c:	24 e5                	and    al,0xe5
	...

0040e220 <__imp__strlen>:
  40e220:	2e e5 00             	cs in  eax,0x0
	...

0040e224 <__imp__tolower>:
  40e224:	38 e5                	cmp    ch,ah
	...

0040e228 <__imp__vfprintf>:
  40e228:	42                   	inc    edx
  40e229:	e5 00                	in     eax,0x0
	...

0040e22c <__imp__wcslen>:
  40e22c:	4e                   	dec    esi
  40e22d:	e5 00                	in     eax,0x0
	...

0040e230 <__imp__wcstombs>:
  40e230:	58                   	pop    eax
  40e231:	e5 00                	in     eax,0x0
	...

0040e234 <.idata$5>:
  40e234:	00 00                	add    BYTE PTR [eax],al
	...

0040e238 <__IAT_end__>:
  40e238:	cf                   	iret   
  40e239:	00 44 65 6c          	add    BYTE PTR [ebp+eiz*2+0x6c],al
  40e23d:	65 74 65             	gs je  40e2a5 <.idata$6+0x1>
  40e240:	43                   	inc    ebx
  40e241:	72 69                	jb     40e2ac <.idata$6+0x8>
  40e243:	74 69                	je     40e2ae <.idata$6+0xa>
  40e245:	63 61 6c             	arpl   WORD PTR [ecx+0x6c],sp
  40e248:	53                   	push   ebx
  40e249:	65 63 74 69 6f       	arpl   WORD PTR gs:[ecx+ebp*2+0x6f],si
  40e24e:	6e                   	outs   dx,BYTE PTR ds:[esi]
	...

0040e250 <.idata$6>:
  40e250:	ec                   	in     al,dx
  40e251:	00 45 6e             	add    BYTE PTR [ebp+0x6e],al
  40e254:	74 65                	je     40e2bb <.idata$6+0x5>
  40e256:	72 43                	jb     40e29b <.idata$6+0x7>
  40e258:	72 69                	jb     40e2c3 <.idata$6+0xd>
  40e25a:	74 69                	je     40e2c5 <.idata$6+0xf>
  40e25c:	63 61 6c             	arpl   WORD PTR [ecx+0x6c],sp
  40e25f:	53                   	push   ebx
  40e260:	65 63 74 69 6f       	arpl   WORD PTR gs:[ecx+ebp*2+0x6f],si
  40e265:	6e                   	outs   dx,BYTE PTR ds:[esi]
	...

0040e268 <.idata$6>:
  40e268:	17                   	pop    ss
  40e269:	01 45 78             	add    DWORD PTR [ebp+0x78],eax
  40e26c:	69 74 50 72 6f 63 65 	imul   esi,DWORD PTR [eax+edx*2+0x72],0x7365636f
  40e273:	73 
  40e274:	73 00                	jae    40e276 <.idata$6>

0040e276 <.idata$6>:
  40e276:	2c 01                	sub    al,0x1
  40e278:	46                   	inc    esi
  40e279:	69 6e 64 43 6c 6f 73 	imul   ebp,DWORD PTR [esi+0x64],0x736f6c43
  40e280:	65 00 30             	add    BYTE PTR gs:[eax],dh

0040e282 <.idata$6>:
  40e282:	30 01                	xor    BYTE PTR [ecx],al
  40e284:	46                   	inc    esi
  40e285:	69 6e 64 46 69 72 73 	imul   ebp,DWORD PTR [esi+0x64],0x73726946
  40e28c:	74 46                	je     40e2d4 <.idata$6+0xe>
  40e28e:	69 6c 65 41 00 00 41 	imul   ebp,DWORD PTR [ebp+eiz*2+0x41],0x1410000
  40e295:	01 

0040e294 <.idata$6>:
  40e294:	41                   	inc    ecx
  40e295:	01 46 69             	add    DWORD PTR [esi+0x69],eax
  40e298:	6e                   	outs   dx,BYTE PTR ds:[esi]
  40e299:	64 4e                	fs dec esi
  40e29b:	65 78 74             	gs js  40e312 <.idata$6+0xa>
  40e29e:	46                   	inc    esi
  40e29f:	69 6c 65 41 00 84 01 	imul   ebp,DWORD PTR [ebp+eiz*2+0x41],0x47018400
  40e2a6:	47 

0040e2a4 <.idata$6>:
  40e2a4:	84 01                	test   BYTE PTR [ecx],al
  40e2a6:	47                   	inc    edi
  40e2a7:	65 74 43             	gs je  40e2ed <.idata$6+0x1>
  40e2aa:	6f                   	outs   dx,DWORD PTR ds:[esi]
  40e2ab:	6d                   	ins    DWORD PTR es:[edi],dx
  40e2ac:	6d                   	ins    DWORD PTR es:[edi],dx
  40e2ad:	61                   	popa   
  40e2ae:	6e                   	outs   dx,BYTE PTR ds:[esi]
  40e2af:	64 4c                	fs dec esp
  40e2b1:	69 6e 65 41 00 fe 01 	imul   ebp,DWORD PTR [esi+0x65],0x1fe0041

0040e2b6 <.idata$6>:
  40e2b6:	fe 01                	inc    BYTE PTR [ecx]
  40e2b8:	47                   	inc    edi
  40e2b9:	65 74 4c             	gs je  40e308 <.idata$6>
  40e2bc:	61                   	popa   
  40e2bd:	73 74                	jae    40e333 <.idata$6+0x1>
  40e2bf:	45                   	inc    ebp
  40e2c0:	72 72                	jb     40e334 <.idata$6+0x2>
  40e2c2:	6f                   	outs   dx,DWORD PTR ds:[esi]
  40e2c3:	72 00                	jb     40e2c5 <.idata$6+0xf>
	...

0040e2c6 <.idata$6>:
  40e2c6:	11 02                	adc    DWORD PTR [edx],eax
  40e2c8:	47                   	inc    edi
  40e2c9:	65 74 4d             	gs je  40e319 <.idata$6+0x11>
  40e2cc:	6f                   	outs   dx,DWORD PTR ds:[esi]
  40e2cd:	64 75 6c             	fs jne 40e33c <.idata$6+0xa>
  40e2d0:	65 48                	gs dec eax
  40e2d2:	61                   	popa   
  40e2d3:	6e                   	outs   dx,BYTE PTR ds:[esi]
  40e2d4:	64 6c                	fs ins BYTE PTR es:[edi],dx
  40e2d6:	65 41                	gs inc ecx
	...

0040e2da <.idata$6>:
  40e2da:	41                   	inc    ecx
  40e2db:	02 47 65             	add    al,BYTE PTR [edi+0x65]
  40e2de:	74 50                	je     40e330 <.idata$6+0x12>
  40e2e0:	72 6f                	jb     40e351 <.idata$6+0x7>
  40e2e2:	63 41 64             	arpl   WORD PTR [ecx+0x64],ax
  40e2e5:	64 72 65             	fs jb  40e34d <.idata$6+0x3>
  40e2e8:	73 73                	jae    40e35d <.idata$6+0x13>
	...

0040e2ec <.idata$6>:
  40e2ec:	de 02                	fiadd  WORD PTR [edx]
  40e2ee:	49                   	dec    ecx
  40e2ef:	6e                   	outs   dx,BYTE PTR ds:[esi]
  40e2f0:	69 74 69 61 6c 69 7a 	imul   esi,DWORD PTR [ecx+ebp*2+0x61],0x657a696c
  40e2f7:	65 
  40e2f8:	43                   	inc    ebx
  40e2f9:	72 69                	jb     40e364 <.idata$6+0x4>
  40e2fb:	74 69                	je     40e366 <.idata$6+0x6>
  40e2fd:	63 61 6c             	arpl   WORD PTR [ecx+0x6c],sp
  40e300:	53                   	push   ebx
  40e301:	65 63 74 69 6f       	arpl   WORD PTR gs:[ecx+ebp*2+0x6f],si
  40e306:	6e                   	outs   dx,BYTE PTR ds:[esi]
	...

0040e308 <.idata$6>:
  40e308:	e8 02 49 6e 74       	call   74af2c0f <.debug_line+0x746dec0f>
  40e30d:	65 72 6c             	gs jb  40e37c <.idata$6+0x1c>
  40e310:	6f                   	outs   dx,DWORD PTR ds:[esi]
  40e311:	63 6b 65             	arpl   WORD PTR [ebx+0x65],bp
  40e314:	64 45                	fs inc ebp
  40e316:	78 63                	js     40e37b <.idata$6+0x1b>
  40e318:	68 61 6e 67 65       	push   0x65676e61
	...

0040e31e <.idata$6>:
  40e31e:	fb                   	sti    
  40e31f:	02 49 73             	add    cl,BYTE PTR [ecx+0x73]
  40e322:	44                   	inc    esp
  40e323:	42                   	inc    edx
  40e324:	43                   	inc    ebx
  40e325:	53                   	push   ebx
  40e326:	4c                   	dec    esp
  40e327:	65 61                	gs popa 
  40e329:	64 42                	fs inc edx
  40e32b:	79 74                	jns    40e3a1 <.idata$6+0xd>
  40e32d:	65 45                	gs inc ebp
  40e32f:	78 00                	js     40e331 <.idata$6+0x13>
	...

0040e332 <.idata$6>:
  40e332:	2e 03 4c 65 61       	add    ecx,DWORD PTR cs:[ebp+eiz*2+0x61]
  40e337:	76 65                	jbe    40e39e <.idata$6+0xa>
  40e339:	43                   	inc    ebx
  40e33a:	72 69                	jb     40e3a5 <.idata$6+0x11>
  40e33c:	74 69                	je     40e3a7 <.idata$6+0x1>
  40e33e:	63 61 6c             	arpl   WORD PTR [ecx+0x6c],sp
  40e341:	53                   	push   ebx
  40e342:	65 63 74 69 6f       	arpl   WORD PTR gs:[ecx+ebp*2+0x6f],si
  40e347:	6e                   	outs   dx,BYTE PTR ds:[esi]
	...

0040e34a <.idata$6>:
  40e34a:	5c                   	pop    esp
  40e34b:	03 4d 75             	add    ecx,DWORD PTR [ebp+0x75]
  40e34e:	6c                   	ins    BYTE PTR es:[edi],dx
  40e34f:	74 69                	je     40e3ba <.idata$6+0x4>
  40e351:	42                   	inc    edx
  40e352:	79 74                	jns    40e3c8 <.idata$6+0x12>
  40e354:	65 54                	gs push esp
  40e356:	6f                   	outs   dx,DWORD PTR ds:[esi]
  40e357:	57                   	push   edi
  40e358:	69 64 65 43 68 61 72 	imul   esp,DWORD PTR [ebp+eiz*2+0x43],0x726168
  40e35f:	00 

0040e360 <.idata$6>:
  40e360:	74 04                	je     40e366 <.idata$6+0x6>
  40e362:	53                   	push   ebx
  40e363:	65 74 55             	gs je  40e3bb <.idata$6+0x5>
  40e366:	6e                   	outs   dx,BYTE PTR ds:[esi]
  40e367:	68 61 6e 64 6c       	push   0x6c646e61
  40e36c:	65 64 45             	gs fs inc ebp
  40e36f:	78 63                	js     40e3d4 <.idata$6+0x8>
  40e371:	65 70 74             	gs jo  40e3e8 <.idata$6+0x6>
  40e374:	69 6f 6e 46 69 6c 74 	imul   ebp,DWORD PTR [edi+0x6e],0x746c6946
  40e37b:	65 72 00             	gs jb  40e37e <.idata$6>

0040e37e <.idata$6>:
  40e37e:	80 04 53 6c          	add    BYTE PTR [ebx+edx*2],0x6c
  40e382:	65 65 70 00          	gs gs jo 40e386 <.idata$6>

0040e386 <.idata$6>:
  40e386:	95                   	xchg   ebp,eax
  40e387:	04 54                	add    al,0x54
  40e389:	6c                   	ins    BYTE PTR es:[edi],dx
  40e38a:	73 47                	jae    40e3d3 <.idata$6+0x7>
  40e38c:	65 74 56             	gs je  40e3e5 <.idata$6+0x3>
  40e38f:	61                   	popa   
  40e390:	6c                   	ins    BYTE PTR es:[edi],dx
  40e391:	75 65                	jne    40e3f8 <.idata$6+0x6>
	...

0040e394 <.idata$6>:
  40e394:	bd 04 56 69 72       	mov    ebp,0x72695604
  40e399:	74 75                	je     40e410 <.idata$6+0xe>
  40e39b:	61                   	popa   
  40e39c:	6c                   	ins    BYTE PTR es:[edi],dx
  40e39d:	50                   	push   eax
  40e39e:	72 6f                	jb     40e40f <.idata$6+0xd>
  40e3a0:	74 65                	je     40e407 <.idata$6+0x5>
  40e3a2:	63 74 00 00          	arpl   WORD PTR [eax+eax*1+0x0],si

0040e3a6 <.idata$6>:
  40e3a6:	bf 04 56 69 72       	mov    edi,0x72695604
  40e3ab:	74 75                	je     40e422 <.idata$6+0x2>
  40e3ad:	61                   	popa   
  40e3ae:	6c                   	ins    BYTE PTR es:[edi],dx
  40e3af:	51                   	push   ecx
  40e3b0:	75 65                	jne    40e417 <.idata$6+0x5>
  40e3b2:	72 79                	jb     40e42d <.idata$6+0xd>
	...

0040e3b6 <.idata$6>:
  40e3b6:	df 04 57             	fild   WORD PTR [edi+edx*2]
  40e3b9:	69 64 65 43 68 61 72 	imul   esp,DWORD PTR [ebp+eiz*2+0x43],0x54726168
  40e3c0:	54 
  40e3c1:	6f                   	outs   dx,DWORD PTR ds:[esi]
  40e3c2:	4d                   	dec    ebp
  40e3c3:	75 6c                	jne    40e431 <.idata$6+0x11>
  40e3c5:	74 69                	je     40e430 <.idata$6+0x10>
  40e3c7:	42                   	inc    edx
  40e3c8:	79 74                	jns    40e43e <.idata$6+0x2>
  40e3ca:	65 00 50 00          	add    BYTE PTR gs:[eax+0x0],dl

0040e3cc <.idata$6>:
  40e3cc:	50                   	push   eax
  40e3cd:	00 5f 73             	add    BYTE PTR [edi+0x73],bl
  40e3d0:	74 72                	je     40e444 <.idata$6+0x8>
  40e3d2:	64 75 70             	fs jne 40e445 <.idata$6+0x9>
	...

0040e3d6 <.idata$6>:
  40e3d6:	52                   	push   edx
  40e3d7:	00 5f 73             	add    BYTE PTR [edi+0x73],bl
  40e3da:	74 72                	je     40e44e <.idata$6+0x8>
  40e3dc:	69 63 6f 6c 6c 00 37 	imul   esp,DWORD PTR [ebx+0x6f],0x37006c6c

0040e3e2 <.idata$6>:
  40e3e2:	37                   	aaa    
  40e3e3:	00 5f 5f             	add    BYTE PTR [edi+0x5f],bl
  40e3e6:	67 65 74 6d          	addr16 gs je 40e457 <.idata$6+0x5>
  40e3ea:	61                   	popa   
  40e3eb:	69 6e 61 72 67 73 00 	imul   ebp,DWORD PTR [esi+0x61],0x736772

0040e3f2 <.idata$6>:
  40e3f2:	41                   	inc    ecx
  40e3f3:	00 5f 5f             	add    BYTE PTR [edi+0x5f],bl
  40e3f6:	6d                   	ins    DWORD PTR es:[edi],dx
  40e3f7:	62 5f 63             	bound  ebx,QWORD PTR [edi+0x63]
  40e3fa:	75 72                	jne    40e46e <.idata$6+0xa>
  40e3fc:	5f                   	pop    edi
  40e3fd:	6d                   	ins    DWORD PTR es:[edi],dx
  40e3fe:	61                   	popa   
  40e3ff:	78 00                	js     40e401 <.idata$6+0xf>
	...

0040e402 <.idata$6>:
  40e402:	4d                   	dec    ebp
  40e403:	00 5f 5f             	add    BYTE PTR [edi+0x5f],bl
  40e406:	70 5f                	jo     40e467 <.idata$6+0x3>
  40e408:	5f                   	pop    edi
  40e409:	65 6e                	outs   dx,BYTE PTR gs:[esi]
  40e40b:	76 69                	jbe    40e476 <.idata$6+0x6>
  40e40d:	72 6f                	jb     40e47e <.idata$6+0x6>
  40e40f:	6e                   	outs   dx,BYTE PTR ds:[esi]
	...

0040e412 <.idata$6>:
  40e412:	4f                   	dec    edi
  40e413:	00 5f 5f             	add    BYTE PTR [edi+0x5f],bl
  40e416:	70 5f                	jo     40e477 <.idata$6+0x7>
  40e418:	5f                   	pop    edi
  40e419:	66 6d                	ins    WORD PTR es:[edi],dx
  40e41b:	6f                   	outs   dx,DWORD PTR ds:[esi]
  40e41c:	64 65 00 00          	fs add BYTE PTR gs:[eax],al

0040e420 <.idata$6>:
  40e420:	63 00                	arpl   WORD PTR [eax],ax
  40e422:	5f                   	pop    edi
  40e423:	5f                   	pop    edi
  40e424:	73 65                	jae    40e48b <.idata$6+0x1>
  40e426:	74 5f                	je     40e487 <.idata$6+0x5>
  40e428:	61                   	popa   
  40e429:	70 70                	jo     40e49b <.idata$6+0x7>
  40e42b:	5f                   	pop    edi
  40e42c:	74 79                	je     40e4a7 <.idata$6+0x3>
  40e42e:	70 65                	jo     40e495 <.idata$6+0x1>
	...

0040e432 <.idata$6>:
  40e432:	93                   	xchg   ebx,eax
  40e433:	00 5f 63             	add    BYTE PTR [edi+0x63],bl
  40e436:	65 78 69             	gs js  40e4a2 <.idata$6+0x6>
  40e439:	74 00                	je     40e43b <.idata$6+0x9>
	...

0040e43c <.idata$6>:
  40e43c:	b6 00                	mov    dh,0x0
  40e43e:	5f                   	pop    edi
  40e43f:	65 72 72             	gs jb  40e4b4 <.idata$6+0x6>
  40e442:	6e                   	outs   dx,BYTE PTR ds:[esi]
  40e443:	6f                   	outs   dx,DWORD PTR ds:[esi]
	...

0040e446 <.idata$6>:
  40e446:	e4 00                	in     al,0x0
  40e448:	5f                   	pop    edi
  40e449:	66 75 6c             	data16 jne 40e4b8 <.idata$6>
  40e44c:	6c                   	ins    BYTE PTR es:[edi],dx
  40e44d:	70 61                	jo     40e4b0 <.idata$6+0x2>
  40e44f:	74 68                	je     40e4b9 <.idata$6+0x1>
	...

0040e452 <.idata$6>:
  40e452:	0a 01                	or     al,BYTE PTR [ecx]
  40e454:	5f                   	pop    edi
  40e455:	69 6f 62 00 00 7f 01 	imul   ebp,DWORD PTR [edi+0x62],0x17f0000

0040e45a <.idata$6>:
  40e45a:	7f 01                	jg     40e45d <.idata$6+0x3>
  40e45c:	5f                   	pop    edi
  40e45d:	6f                   	outs   dx,DWORD PTR ds:[esi]
  40e45e:	6e                   	outs   dx,BYTE PTR ds:[esi]
  40e45f:	65 78 69             	gs js  40e4cb <.idata$6+0x9>
  40e462:	74 00                	je     40e464 <.idata$6>

0040e464 <.idata$6>:
  40e464:	aa                   	stos   BYTE PTR es:[edi],al
  40e465:	01 5f 73             	add    DWORD PTR [edi+0x73],ebx
  40e468:	65 74 6d             	gs je  40e4d8 <.idata$6+0x8>
  40e46b:	6f                   	outs   dx,DWORD PTR ds:[esi]
  40e46c:	64 65 00 00          	fs add BYTE PTR gs:[eax],al

0040e470 <.idata$6>:
  40e470:	47                   	inc    edi
  40e471:	02 61 62             	add    ah,BYTE PTR [ecx+0x62]
  40e474:	6f                   	outs   dx,DWORD PTR ds:[esi]
  40e475:	72 74                	jb     40e4eb <.idata$6+0x5>
	...

0040e478 <.idata$6>:
  40e478:	4e                   	dec    esi
  40e479:	02 61 74             	add    ah,BYTE PTR [ecx+0x74]
  40e47c:	65 78 69             	gs js  40e4e8 <.idata$6+0x2>
  40e47f:	74 00                	je     40e481 <.idata$6+0x9>
	...

0040e482 <.idata$6>:
  40e482:	50                   	push   eax
  40e483:	02 61 74             	add    ah,BYTE PTR [ecx+0x74]
  40e486:	6f                   	outs   dx,DWORD PTR ds:[esi]
  40e487:	69 00 00 53 02 63    	imul   eax,DWORD PTR [eax],0x63025300

0040e48a <.idata$6>:
  40e48a:	53                   	push   ebx
  40e48b:	02 63 61             	add    ah,BYTE PTR [ebx+0x61]
  40e48e:	6c                   	ins    BYTE PTR es:[edi],dx
  40e48f:	6c                   	ins    BYTE PTR es:[edi],dx
  40e490:	6f                   	outs   dx,DWORD PTR ds:[esi]
  40e491:	63 00                	arpl   WORD PTR [eax],ax
	...

0040e494 <.idata$6>:
  40e494:	6c                   	ins    BYTE PTR es:[edi],dx
  40e495:	02 66 70             	add    ah,BYTE PTR [esi+0x70]
  40e498:	75 74                	jne    40e50e <.idata$6+0xa>
  40e49a:	63 00                	arpl   WORD PTR [eax],ax

0040e49c <.idata$6>:
  40e49c:	71 02                	jno    40e4a0 <.idata$6+0x4>
  40e49e:	66 72 65             	data16 jb 40e506 <.idata$6+0x2>
  40e4a1:	65 00 00             	add    BYTE PTR gs:[eax],al

0040e4a4 <.idata$6>:
  40e4a4:	79 02                	jns    40e4a8 <.idata$6+0x4>
  40e4a6:	66 77 72             	data16 ja 40e51b <.idata$6+0x1>
  40e4a9:	69 74 65 00 00 7d 02 	imul   esi,DWORD PTR [ebp+eiz*2+0x0],0x67027d00
  40e4b0:	67 

0040e4ae <.idata$6>:
  40e4ae:	7d 02                	jge    40e4b2 <.idata$6+0x4>
  40e4b0:	67 65 74 65          	addr16 gs je 40e519 <.idata$6+0x9>
  40e4b4:	6e                   	outs   dx,BYTE PTR ds:[esi]
  40e4b5:	76 00                	jbe    40e4b7 <.idata$6+0x9>
	...

0040e4b8 <.idata$6>:
  40e4b8:	8c 02                	mov    WORD PTR [edx],es
  40e4ba:	69 73 73 70 61 63 65 	imul   esi,DWORD PTR [ebx+0x73],0x65636170
	...

0040e4c2 <.idata$6>:
  40e4c2:	9f                   	lahf   
  40e4c3:	02 6c 6f 63          	add    ch,BYTE PTR [edi+ebp*2+0x63]
  40e4c7:	61                   	popa   
  40e4c8:	6c                   	ins    BYTE PTR es:[edi],dx
  40e4c9:	65 63 6f 6e          	arpl   WORD PTR gs:[edi+0x6e],bp
  40e4cd:	76 00                	jbe    40e4cf <.idata$6+0xd>
	...

0040e4d0 <.idata$6>:
  40e4d0:	a4                   	movs   BYTE PTR es:[edi],BYTE PTR ds:[esi]
  40e4d1:	02 6d 61             	add    ch,BYTE PTR [ebp+0x61]
  40e4d4:	6c                   	ins    BYTE PTR es:[edi],dx
  40e4d5:	6c                   	ins    BYTE PTR es:[edi],dx
  40e4d6:	6f                   	outs   dx,DWORD PTR ds:[esi]
  40e4d7:	63 00                	arpl   WORD PTR [eax],ax
	...

0040e4da <.idata$6>:
  40e4da:	a6                   	cmps   BYTE PTR ds:[esi],BYTE PTR es:[edi]
  40e4db:	02 6d 62             	add    ch,BYTE PTR [ebp+0x62]
  40e4de:	73 74                	jae    40e554 <.idata$6+0x6>
  40e4e0:	6f                   	outs   dx,DWORD PTR ds:[esi]
  40e4e1:	77 63                	ja     40e546 <.idata$6+0x4>
  40e4e3:	73 00                	jae    40e4e5 <.idata$6+0xb>
	...

0040e4e6 <.idata$6>:
  40e4e6:	aa                   	stos   BYTE PTR es:[edi],al
  40e4e7:	02 6d 65             	add    ch,BYTE PTR [ebp+0x65]
  40e4ea:	6d                   	ins    DWORD PTR es:[edi],dx
  40e4eb:	63 70 79             	arpl   WORD PTR [eax+0x79],si
	...

0040e4f0 <.idata$6>:
  40e4f0:	b1 02                	mov    cl,0x2
  40e4f2:	70 72                	jo     40e566 <.idata$7+0x2>
  40e4f4:	69 6e 74 66 00 00 ba 	imul   ebp,DWORD PTR [esi+0x74],0xba000066

0040e4fa <.idata$6>:
  40e4fa:	ba 02 72 65 61       	mov    edx,0x61657202
  40e4ff:	6c                   	ins    BYTE PTR es:[edi],dx
  40e500:	6c                   	ins    BYTE PTR es:[edi],dx
  40e501:	6f                   	outs   dx,DWORD PTR ds:[esi]
  40e502:	63 00                	arpl   WORD PTR [eax],ax

0040e504 <.idata$6>:
  40e504:	c0 02 73             	rol    BYTE PTR [edx],0x73
  40e507:	65 74 6c             	gs je  40e576 <.idata$7+0x2>
  40e50a:	6f                   	outs   dx,DWORD PTR ds:[esi]
  40e50b:	63 61 6c             	arpl   WORD PTR [ecx+0x6c],sp
  40e50e:	65 00 c2             	gs add dl,al

0040e510 <.idata$6>:
  40e510:	c2 02 73             	ret    0x7302
  40e513:	69 67 6e 61 6c 00 00 	imul   esp,DWORD PTR [edi+0x6e],0x6c61

0040e51a <.idata$6>:
  40e51a:	ca 02 73             	retf   0x7302
  40e51d:	74 72                	je     40e591 <.idata$7+0x1>
  40e51f:	63 68 72             	arpl   WORD PTR [eax+0x72],bp
	...

0040e524 <.idata$6>:
  40e524:	cc                   	int3   
  40e525:	02 73 74             	add    dh,BYTE PTR [ebx+0x74]
  40e528:	72 63                	jb     40e58d <.idata$7+0x1>
  40e52a:	6f                   	outs   dx,DWORD PTR ds:[esi]
  40e52b:	6c                   	ins    BYTE PTR es:[edi],dx
  40e52c:	6c                   	ins    BYTE PTR es:[edi],dx
	...

0040e52e <.idata$6>:
  40e52e:	d1 02                	rol    DWORD PTR [edx],1
  40e530:	73 74                	jae    40e5a6 <.idata$7+0x2>
  40e532:	72 6c                	jb     40e5a0 <.idata$7>
  40e534:	65 6e                	outs   dx,BYTE PTR gs:[esi]
	...

0040e538 <.idata$6>:
  40e538:	e6 02                	out    0x2,al
  40e53a:	74 6f                	je     40e5ab <.idata$7+0x3>
  40e53c:	6c                   	ins    BYTE PTR es:[edi],dx
  40e53d:	6f                   	outs   dx,DWORD PTR ds:[esi]
  40e53e:	77 65                	ja     40e5a5 <.idata$7+0x1>
  40e540:	72 00                	jb     40e542 <.idata$6>

0040e542 <.idata$6>:
  40e542:	ec                   	in     al,dx
  40e543:	02 76 66             	add    dh,BYTE PTR [esi+0x66]
  40e546:	70 72                	jo     40e5ba <__libkernel32_a_iname+0x2>
  40e548:	69 6e 74 66 00 00 f9 	imul   ebp,DWORD PTR [esi+0x74],0xf9000066

0040e54e <.idata$6>:
  40e54e:	f9                   	stc    
  40e54f:	02 77 63             	add    dh,BYTE PTR [edi+0x63]
  40e552:	73 6c                	jae    40e5c0 <__libkernel32_a_iname+0x8>
  40e554:	65 6e                	outs   dx,BYTE PTR gs:[esi]
	...

0040e558 <.idata$6>:
  40e558:	04 03                	add    al,0x3
  40e55a:	77 63                	ja     40e5bf <__libkernel32_a_iname+0x7>
  40e55c:	73 74                	jae    40e5d2 <__libmoldname_a_iname+0x2>
  40e55e:	6f                   	outs   dx,DWORD PTR ds:[esi]
  40e55f:	6d                   	ins    DWORD PTR es:[edi],dx
  40e560:	62 73 00             	bound  esi,QWORD PTR [ebx+0x0]
	...

0040e564 <.idata$7>:
  40e564:	00 e0                	add    al,ah
	...

0040e568 <.idata$7>:
  40e568:	00 e0                	add    al,ah
	...

0040e56c <.idata$7>:
  40e56c:	00 e0                	add    al,ah
	...

0040e570 <.idata$7>:
  40e570:	00 e0                	add    al,ah
	...

0040e574 <.idata$7>:
  40e574:	00 e0                	add    al,ah
	...

0040e578 <.idata$7>:
  40e578:	00 e0                	add    al,ah
	...

0040e57c <.idata$7>:
  40e57c:	00 e0                	add    al,ah
	...

0040e580 <.idata$7>:
  40e580:	00 e0                	add    al,ah
	...

0040e584 <.idata$7>:
  40e584:	00 e0                	add    al,ah
	...

0040e588 <.idata$7>:
  40e588:	00 e0                	add    al,ah
	...

0040e58c <.idata$7>:
  40e58c:	00 e0                	add    al,ah
	...

0040e590 <.idata$7>:
  40e590:	00 e0                	add    al,ah
	...

0040e594 <.idata$7>:
  40e594:	00 e0                	add    al,ah
	...

0040e598 <.idata$7>:
  40e598:	00 e0                	add    al,ah
	...

0040e59c <.idata$7>:
  40e59c:	00 e0                	add    al,ah
	...

0040e5a0 <.idata$7>:
  40e5a0:	00 e0                	add    al,ah
	...

0040e5a4 <.idata$7>:
  40e5a4:	00 e0                	add    al,ah
	...

0040e5a8 <.idata$7>:
  40e5a8:	00 e0                	add    al,ah
	...

0040e5ac <.idata$7>:
  40e5ac:	00 e0                	add    al,ah
	...

0040e5b0 <.idata$7>:
  40e5b0:	00 e0                	add    al,ah
	...

0040e5b4 <.idata$7>:
  40e5b4:	00 e0                	add    al,ah
	...

0040e5b8 <__libkernel32_a_iname>:
  40e5b8:	4b                   	dec    ebx
  40e5b9:	45                   	inc    ebp
  40e5ba:	52                   	push   edx
  40e5bb:	4e                   	dec    esi
  40e5bc:	45                   	inc    ebp
  40e5bd:	4c                   	dec    esp
  40e5be:	33 32                	xor    esi,DWORD PTR [edx]
  40e5c0:	2e 64 6c             	cs fs ins BYTE PTR es:[edi],dx
  40e5c3:	6c                   	ins    BYTE PTR es:[edi],dx
  40e5c4:	00 00                	add    BYTE PTR [eax],al
	...

0040e5c8 <.idata$7>:
  40e5c8:	14 e0                	adc    al,0xe0
	...

0040e5cc <.idata$7>:
  40e5cc:	14 e0                	adc    al,0xe0
	...

0040e5d0 <__libmoldname_a_iname>:
  40e5d0:	6d                   	ins    DWORD PTR es:[edi],dx
  40e5d1:	73 76                	jae    40e649 <.idata$7+0x1>
  40e5d3:	63 72 74             	arpl   WORD PTR [edx+0x74],si
  40e5d6:	2e 64 6c             	cs fs ins BYTE PTR es:[edi],dx
  40e5d9:	6c                   	ins    BYTE PTR es:[edi],dx
	...

0040e5dc <.idata$7>:
  40e5dc:	28 e0                	sub    al,ah
	...

0040e5e0 <.idata$7>:
  40e5e0:	28 e0                	sub    al,ah
	...

0040e5e4 <.idata$7>:
  40e5e4:	28 e0                	sub    al,ah
	...

0040e5e8 <.idata$7>:
  40e5e8:	28 e0                	sub    al,ah
	...

0040e5ec <.idata$7>:
  40e5ec:	28 e0                	sub    al,ah
	...

0040e5f0 <.idata$7>:
  40e5f0:	28 e0                	sub    al,ah
	...

0040e5f4 <.idata$7>:
  40e5f4:	28 e0                	sub    al,ah
	...

0040e5f8 <.idata$7>:
  40e5f8:	28 e0                	sub    al,ah
	...

0040e5fc <.idata$7>:
  40e5fc:	28 e0                	sub    al,ah
	...

0040e600 <.idata$7>:
  40e600:	28 e0                	sub    al,ah
	...

0040e604 <.idata$7>:
  40e604:	28 e0                	sub    al,ah
	...

0040e608 <.idata$7>:
  40e608:	28 e0                	sub    al,ah
	...

0040e60c <.idata$7>:
  40e60c:	28 e0                	sub    al,ah
	...

0040e610 <.idata$7>:
  40e610:	28 e0                	sub    al,ah
	...

0040e614 <.idata$7>:
  40e614:	28 e0                	sub    al,ah
	...

0040e618 <.idata$7>:
  40e618:	28 e0                	sub    al,ah
	...

0040e61c <.idata$7>:
  40e61c:	28 e0                	sub    al,ah
	...

0040e620 <.idata$7>:
  40e620:	28 e0                	sub    al,ah
	...

0040e624 <.idata$7>:
  40e624:	28 e0                	sub    al,ah
	...

0040e628 <.idata$7>:
  40e628:	28 e0                	sub    al,ah
	...

0040e62c <.idata$7>:
  40e62c:	28 e0                	sub    al,ah
	...

0040e630 <.idata$7>:
  40e630:	28 e0                	sub    al,ah
	...

0040e634 <.idata$7>:
  40e634:	28 e0                	sub    al,ah
	...

0040e638 <.idata$7>:
  40e638:	28 e0                	sub    al,ah
	...

0040e63c <.idata$7>:
  40e63c:	28 e0                	sub    al,ah
	...

0040e640 <.idata$7>:
  40e640:	28 e0                	sub    al,ah
	...

0040e644 <.idata$7>:
  40e644:	28 e0                	sub    al,ah
	...

0040e648 <.idata$7>:
  40e648:	28 e0                	sub    al,ah
	...

0040e64c <.idata$7>:
  40e64c:	28 e0                	sub    al,ah
	...

0040e650 <.idata$7>:
  40e650:	28 e0                	sub    al,ah
	...

0040e654 <.idata$7>:
  40e654:	28 e0                	sub    al,ah
	...

0040e658 <.idata$7>:
  40e658:	28 e0                	sub    al,ah
	...

0040e65c <.idata$7>:
  40e65c:	28 e0                	sub    al,ah
	...

0040e660 <.idata$7>:
  40e660:	28 e0                	sub    al,ah
	...

0040e664 <.idata$7>:
  40e664:	28 e0                	sub    al,ah
	...

0040e668 <__libmsvcrt_a_iname>:
  40e668:	6d                   	ins    DWORD PTR es:[edi],dx
  40e669:	73 76                	jae    40e6e1 <__libmsvcrt_a_iname+0x79>
  40e66b:	63 72 74             	arpl   WORD PTR [edx+0x74],si
  40e66e:	2e 64 6c             	cs fs ins BYTE PTR es:[edi],dx
  40e671:	6c                   	ins    BYTE PTR es:[edi],dx
	...

Disassembly of section .CRT:

0040f000 <___crt_xc_end__>:
  40f000:	00 00                	add    BYTE PTR [eax],al
	...

0040f004 <___xl_c>:
  40f004:	20 19                	and    BYTE PTR [ecx],bl
  40f006:	40                   	inc    eax
	...

0040f008 <___xl_d>:
  40f008:	d0 18                	rcr    BYTE PTR [eax],1
  40f00a:	40                   	inc    eax
	...

0040f00c <___xl_z>:
  40f00c:	00 00                	add    BYTE PTR [eax],al
	...

0040f010 <___crt_xp_end__>:
  40f010:	00 00                	add    BYTE PTR [eax],al
	...

0040f014 <___xd_z>:
  40f014:	00 00                	add    BYTE PTR [eax],al
	...

Disassembly of section .tls:

00410000 <___tls_start__>:
  410000:	00 00                	add    BYTE PTR [eax],al
	...

00410004 <__tls_used>:
  410004:	01 00                	add    DWORD PTR [eax],eax
  410006:	41                   	inc    ecx
  410007:	00 1c 00             	add    BYTE PTR [eax+eax*1],bl
  41000a:	41                   	inc    ecx
  41000b:	00 38                	add    BYTE PTR [eax],bh
  41000d:	d0 40 00             	rol    BYTE PTR [eax+0x0],1
  410010:	04 f0                	add    al,0xf0
  410012:	40                   	inc    eax
	...

0041001c <__tls_end>:
  41001c:	00 00                	add    BYTE PTR [eax],al
	...

Disassembly of section .debug_aranges:

00411000 <.debug_aranges>:
  411000:	1c 00                	sbb    al,0x0
  411002:	00 00                	add    BYTE PTR [eax],al
  411004:	02 00                	add    al,BYTE PTR [eax]
  411006:	00 00                	add    BYTE PTR [eax],al
  411008:	00 00                	add    BYTE PTR [eax],al
  41100a:	04 00                	add    al,0x0
  41100c:	00 00                	add    BYTE PTR [eax],al
  41100e:	00 00                	add    BYTE PTR [eax],al
  411010:	e0 13                	loopne 411025 <.debug_aranges+0x25>
  411012:	40                   	inc    eax
  411013:	00 43 00             	add    BYTE PTR [ebx+0x0],al
	...

Disassembly of section .debug_info:

00412000 <.debug_info>:
  412000:	e1 01                	loope  412003 <.debug_info+0x3>
  412002:	00 00                	add    BYTE PTR [eax],al
  412004:	04 00                	add    al,0x0
  412006:	00 00                	add    BYTE PTR [eax],al
  412008:	00 00                	add    BYTE PTR [eax],al
  41200a:	04 01                	add    al,0x1
  41200c:	47                   	inc    edi
  41200d:	4e                   	dec    esi
  41200e:	55                   	push   ebp
  41200f:	20 43 20             	and    BYTE PTR [ebx+0x20],al
  412012:	34 2e                	xor    al,0x2e
  412014:	38 2e                	cmp    BYTE PTR [esi],ch
  412016:	31 20                	xor    DWORD PTR [eax],esp
  412018:	2d 6d 74 75 6e       	sub    eax,0x6e75746d
  41201d:	65 3d 67 65 6e 65    	gs cmp eax,0x656e6567
  412023:	72 69                	jb     41208e <.debug_info+0x8e>
  412025:	63 20                	arpl   WORD PTR [eax],sp
  412027:	2d 6d 61 72 63       	sub    eax,0x6372616d
  41202c:	68 3d 70 65 6e       	push   0x6e65703d
  412031:	74 69                	je     41209c <.debug_info+0x9c>
  412033:	75 6d                	jne    4120a2 <.debug_info+0xa2>
  412035:	70 72                	jo     4120a9 <.debug_info+0xa9>
  412037:	6f                   	outs   dx,DWORD PTR ds:[esi]
  412038:	20 2d 67 00 01 6d    	and    BYTE PTR ds:0x6d010067,ch
  41203e:	61                   	popa   
  41203f:	69 6e 2e 63 00 45 3a 	imul   ebp,DWORD PTR [esi+0x2e],0x3a450063
  412046:	5c                   	pop    esp
  412047:	53                   	push   ebx
  412048:	6f                   	outs   dx,DWORD PTR ds:[esi]
  412049:	75 72                	jne    4120bd <.debug_info+0xbd>
  41204b:	63 65 5c             	arpl   WORD PTR [ebp+0x5c],sp
  41204e:	47                   	inc    edi
  41204f:	69 74 48 75 62 5c 73 	imul   esi,DWORD PTR [eax+ecx*2+0x75],0x74735c62
  412056:	74 
  412057:	75 64                	jne    4120bd <.debug_info+0xbd>
  412059:	79 69                	jns    4120c4 <.debug_info+0xc4>
  41205b:	6e                   	outs   dx,BYTE PTR ds:[esi]
  41205c:	67 5c                	addr16 pop esp
  41205e:	32 30                	xor    dh,BYTE PTR [eax]
  412060:	31 37                	xor    DWORD PTR [edi],esi
  412062:	5f                   	pop    edi
  412063:	30 34 5c             	xor    BYTE PTR [esp+ebx*2],dh
  412066:	61                   	popa   
  412067:	73 6d                	jae    4120d6 <.debug_info+0xd6>
  412069:	5f                   	pop    edi
  41206a:	30 31                	xor    BYTE PTR [ecx],dh
  41206c:	00 e0                	add    al,ah
  41206e:	13 40 00             	adc    eax,DWORD PTR [eax+0x0]
  412071:	43                   	inc    ebx
  412072:	00 00                	add    BYTE PTR [eax],al
  412074:	00 00                	add    BYTE PTR [eax],al
  412076:	00 00                	add    BYTE PTR [eax],al
  412078:	00 02                	add    BYTE PTR [edx],al
  41207a:	04 07                	add    al,0x7
  41207c:	75 6e                	jne    4120ec <.debug_info+0xec>
  41207e:	73 69                	jae    4120e9 <.debug_info+0xe9>
  412080:	67 6e                	outs   dx,BYTE PTR ds:[si]
  412082:	65 64 20 69 6e       	gs and BYTE PTR fs:[ecx+0x6e],ch
  412087:	74 00                	je     412089 <.debug_info+0x89>
  412089:	02 02                	add    al,BYTE PTR [edx]
  41208b:	07                   	pop    es
  41208c:	73 68                	jae    4120f6 <.debug_info+0xf6>
  41208e:	6f                   	outs   dx,DWORD PTR ds:[esi]
  41208f:	72 74                	jb     412105 <.debug_info+0x105>
  412091:	20 75 6e             	and    BYTE PTR [ebp+0x6e],dh
  412094:	73 69                	jae    4120ff <.debug_info+0xff>
  412096:	67 6e                	outs   dx,BYTE PTR ds:[si]
  412098:	65 64 20 69 6e       	gs and BYTE PTR fs:[ecx+0x6e],ch
  41209d:	74 00                	je     41209f <.debug_info+0x9f>
  41209f:	02 01                	add    al,BYTE PTR [ecx]
  4120a1:	06                   	push   es
  4120a2:	63 68 61             	arpl   WORD PTR [eax+0x61],bp
  4120a5:	72 00                	jb     4120a7 <.debug_info+0xa7>
  4120a7:	03 5f 69             	add    ebx,DWORD PTR [edi+0x69]
  4120aa:	6f                   	outs   dx,DWORD PTR ds:[esi]
  4120ab:	62 75 66             	bound  esi,QWORD PTR [ebp+0x66]
  4120ae:	00 20                	add    BYTE PTR [eax],ah
  4120b0:	02 82 2e 01 00 00    	add    al,BYTE PTR [edx+0x12e]
  4120b6:	04 5f                	add    al,0x5f
  4120b8:	70 74                	jo     41212e <.debug_info+0x12e>
  4120ba:	72 00                	jb     4120bc <.debug_info+0xbc>
  4120bc:	02 84 2e 01 00 00 00 	add    al,BYTE PTR [esi+ebp*1+0x1]
  4120c3:	04 5f                	add    al,0x5f
  4120c5:	63 6e 74             	arpl   WORD PTR [esi+0x74],bp
  4120c8:	00 02                	add    BYTE PTR [edx],al
  4120ca:	85 34 01             	test   DWORD PTR [ecx+eax*1],esi
  4120cd:	00 00                	add    BYTE PTR [eax],al
  4120cf:	04 04                	add    al,0x4
  4120d1:	5f                   	pop    edi
  4120d2:	62 61 73             	bound  esp,QWORD PTR [ecx+0x73]
  4120d5:	65 00 02             	add    BYTE PTR gs:[edx],al
  4120d8:	86 2e                	xchg   BYTE PTR [esi],ch
  4120da:	01 00                	add    DWORD PTR [eax],eax
  4120dc:	00 08                	add    BYTE PTR [eax],cl
  4120de:	04 5f                	add    al,0x5f
  4120e0:	66 6c                	data16 ins BYTE PTR es:[edi],dx
  4120e2:	61                   	popa   
  4120e3:	67 00 02             	add    BYTE PTR [bp+si],al
  4120e6:	87 34 01             	xchg   DWORD PTR [ecx+eax*1],esi
  4120e9:	00 00                	add    BYTE PTR [eax],al
  4120eb:	0c 04                	or     al,0x4
  4120ed:	5f                   	pop    edi
  4120ee:	66 69 6c 65 00 02 88 	imul   bp,WORD PTR [ebp+eiz*2+0x0],0x8802
  4120f5:	34 01                	xor    al,0x1
  4120f7:	00 00                	add    BYTE PTR [eax],al
  4120f9:	10 04 5f             	adc    BYTE PTR [edi+ebx*2],al
  4120fc:	63 68 61             	arpl   WORD PTR [eax+0x61],bp
  4120ff:	72 62                	jb     412163 <.debug_info+0x163>
  412101:	75 66                	jne    412169 <.debug_info+0x169>
  412103:	00 02                	add    BYTE PTR [edx],al
  412105:	89 34 01             	mov    DWORD PTR [ecx+eax*1],esi
  412108:	00 00                	add    BYTE PTR [eax],al
  41210a:	14 04                	adc    al,0x4
  41210c:	5f                   	pop    edi
  41210d:	62 75 66             	bound  esi,QWORD PTR [ebp+0x66]
  412110:	73 69                	jae    41217b <.debug_info+0x17b>
  412112:	7a 00                	jp     412114 <.debug_info+0x114>
  412114:	02 8a 34 01 00 00    	add    cl,BYTE PTR [edx+0x134]
  41211a:	18 04 5f             	sbb    BYTE PTR [edi+ebx*2],al
  41211d:	74 6d                	je     41218c <.debug_info+0x18c>
  41211f:	70 66                	jo     412187 <.debug_info+0x187>
  412121:	6e                   	outs   dx,BYTE PTR ds:[esi]
  412122:	61                   	popa   
  412123:	6d                   	ins    DWORD PTR es:[edi],dx
  412124:	65 00 02             	add    BYTE PTR gs:[edx],al
  412127:	8b 2e                	mov    ebp,DWORD PTR [esi]
  412129:	01 00                	add    DWORD PTR [eax],eax
  41212b:	00 1c 00             	add    BYTE PTR [eax+eax*1],bl
  41212e:	05 04 9f 00 00       	add    eax,0x9f04
  412133:	00 02                	add    BYTE PTR [edx],al
  412135:	04 05                	add    al,0x5
  412137:	69 6e 74 00 06 46 49 	imul   ebp,DWORD PTR [esi+0x74],0x49460600
  41213e:	4c                   	dec    esp
  41213f:	45                   	inc    ebp
  412140:	00 02                	add    BYTE PTR [edx],al
  412142:	8c a7 00 00 00 02    	mov    WORD PTR [edi+0x2000000],fs
  412148:	08 05 6c 6f 6e 67    	or     BYTE PTR ds:0x676e6f6c,al
  41214e:	20 6c 6f 6e          	and    BYTE PTR [edi+ebp*2+0x6e],ch
  412152:	67 20 69 6e          	and    BYTE PTR [bx+di+0x6e],ch
  412156:	74 00                	je     412158 <.debug_info+0x158>
  412158:	02 04 05 6c 6f 6e 67 	add    al,BYTE PTR [eax*1+0x676e6f6c]
  41215f:	20 69 6e             	and    BYTE PTR [ecx+0x6e],ch
  412162:	74 00                	je     412164 <.debug_info+0x164>
  412164:	02 02                	add    al,BYTE PTR [edx]
  412166:	05 73 68 6f 72       	add    eax,0x726f6873
  41216b:	74 20                	je     41218d <.debug_info+0x18d>
  41216d:	69 6e 74 00 02 04 07 	imul   ebp,DWORD PTR [esi+0x74],0x7040200
  412174:	6c                   	ins    BYTE PTR es:[edi],dx
  412175:	6f                   	outs   dx,DWORD PTR ds:[esi]
  412176:	6e                   	outs   dx,BYTE PTR ds:[esi]
  412177:	67 20 75 6e          	and    BYTE PTR [di+0x6e],dh
  41217b:	73 69                	jae    4121e6 <.debug_info+0x1e6>
  41217d:	67 6e                	outs   dx,BYTE PTR ds:[si]
  41217f:	65 64 20 69 6e       	gs and BYTE PTR fs:[ecx+0x6e],ch
  412184:	74 00                	je     412186 <.debug_info+0x186>
  412186:	07                   	pop    es
  412187:	6d                   	ins    DWORD PTR es:[edi],dx
  412188:	61                   	popa   
  412189:	69 6e 00 01 04 34 01 	imul   ebp,DWORD PTR [esi+0x0],0x1340401
  412190:	00 00                	add    BYTE PTR [eax],al
  412192:	e0 13                	loopne 4121a7 <.debug_info+0x1a7>
  412194:	40                   	inc    eax
  412195:	00 43 00             	add    BYTE PTR [ebx+0x0],al
  412198:	00 00                	add    BYTE PTR [eax],al
  41219a:	01 9c b1 01 00 00 08 	add    DWORD PTR [ecx+esi*4+0x8000001],ebx
  4121a1:	73 74                	jae    412217 <.debug_info+0x217>
  4121a3:	72 5f                	jb     412204 <.debug_info+0x204>
  4121a5:	61                   	popa   
  4121a6:	00 01                	add    BYTE PTR [ecx],al
  4121a8:	05 b1 01 00 00       	add    eax,0x1b1
  4121ad:	02 74 1c 00          	add    dh,BYTE PTR [esp+ebx*1+0x0]
  4121b1:	09 9f 00 00 00 c1    	or     DWORD PTR [edi-0x3f000000],ebx
  4121b7:	01 00                	add    DWORD PTR [eax],eax
  4121b9:	00 0a                	add    BYTE PTR [edx],cl
  4121bb:	c1 01 00             	rol    DWORD PTR [ecx],0x0
  4121be:	00 13                	add    BYTE PTR [ebx],dl
  4121c0:	00 02                	add    BYTE PTR [edx],al
  4121c2:	04 07                	add    al,0x7
  4121c4:	73 69                	jae    41222f <.debug_info+0x22f>
  4121c6:	7a 65                	jp     41222d <.debug_info+0x22d>
  4121c8:	74 79                	je     412243 <.debug_info+0x243>
  4121ca:	70 65                	jo     412231 <.debug_info+0x231>
  4121cc:	00 09                	add    BYTE PTR [ecx],cl
  4121ce:	3b 01                	cmp    eax,DWORD PTR [ecx]
  4121d0:	00 00                	add    BYTE PTR [eax],al
  4121d2:	d8 01                	fadd   DWORD PTR [ecx]
  4121d4:	00 00                	add    BYTE PTR [eax],al
  4121d6:	0b 00                	or     eax,DWORD PTR [eax]
  4121d8:	0c 5f                	or     al,0x5f
  4121da:	69 6f 62 00 02 9b cd 	imul   ebp,DWORD PTR [edi+0x62],0xcd9b0200
  4121e1:	01 00                	add    DWORD PTR [eax],eax
	...

Disassembly of section .debug_abbrev:

00413000 <.debug_abbrev>:
  413000:	01 11                	add    DWORD PTR [ecx],edx
  413002:	01 25 08 13 0b 03    	add    DWORD PTR ds:0x30b1308,esp
  413008:	08 1b                	or     BYTE PTR [ebx],bl
  41300a:	08 11                	or     BYTE PTR [ecx],dl
  41300c:	01 12                	add    DWORD PTR [edx],edx
  41300e:	06                   	push   es
  41300f:	10 17                	adc    BYTE PTR [edi],dl
  413011:	00 00                	add    BYTE PTR [eax],al
  413013:	02 24 00             	add    ah,BYTE PTR [eax+eax*1]
  413016:	0b 0b                	or     ecx,DWORD PTR [ebx]
  413018:	3e 0b 03             	or     eax,DWORD PTR ds:[ebx]
  41301b:	08 00                	or     BYTE PTR [eax],al
  41301d:	00 03                	add    BYTE PTR [ebx],al
  41301f:	13 01                	adc    eax,DWORD PTR [ecx]
  413021:	03 08                	add    ecx,DWORD PTR [eax]
  413023:	0b 0b                	or     ecx,DWORD PTR [ebx]
  413025:	3a 0b                	cmp    cl,BYTE PTR [ebx]
  413027:	3b 0b                	cmp    ecx,DWORD PTR [ebx]
  413029:	01 13                	add    DWORD PTR [ebx],edx
  41302b:	00 00                	add    BYTE PTR [eax],al
  41302d:	04 0d                	add    al,0xd
  41302f:	00 03                	add    BYTE PTR [ebx],al
  413031:	08 3a                	or     BYTE PTR [edx],bh
  413033:	0b 3b                	or     edi,DWORD PTR [ebx]
  413035:	0b 49 13             	or     ecx,DWORD PTR [ecx+0x13]
  413038:	38 0b                	cmp    BYTE PTR [ebx],cl
  41303a:	00 00                	add    BYTE PTR [eax],al
  41303c:	05 0f 00 0b 0b       	add    eax,0xb0b000f
  413041:	49                   	dec    ecx
  413042:	13 00                	adc    eax,DWORD PTR [eax]
  413044:	00 06                	add    BYTE PTR [esi],al
  413046:	16                   	push   ss
  413047:	00 03                	add    BYTE PTR [ebx],al
  413049:	08 3a                	or     BYTE PTR [edx],bh
  41304b:	0b 3b                	or     edi,DWORD PTR [ebx]
  41304d:	0b 49 13             	or     ecx,DWORD PTR [ecx+0x13]
  413050:	00 00                	add    BYTE PTR [eax],al
  413052:	07                   	pop    es
  413053:	2e 01 3f             	add    DWORD PTR cs:[edi],edi
  413056:	19 03                	sbb    DWORD PTR [ebx],eax
  413058:	08 3a                	or     BYTE PTR [edx],bh
  41305a:	0b 3b                	or     edi,DWORD PTR [ebx]
  41305c:	0b 27                	or     esp,DWORD PTR [edi]
  41305e:	19 49 13             	sbb    DWORD PTR [ecx+0x13],ecx
  413061:	11 01                	adc    DWORD PTR [ecx],eax
  413063:	12 06                	adc    al,BYTE PTR [esi]
  413065:	40                   	inc    eax
  413066:	18 96 42 19 01 13    	sbb    BYTE PTR [esi+0x13011942],dl
  41306c:	00 00                	add    BYTE PTR [eax],al
  41306e:	08 34 00             	or     BYTE PTR [eax+eax*1],dh
  413071:	03 08                	add    ecx,DWORD PTR [eax]
  413073:	3a 0b                	cmp    cl,BYTE PTR [ebx]
  413075:	3b 0b                	cmp    ecx,DWORD PTR [ebx]
  413077:	49                   	dec    ecx
  413078:	13 02                	adc    eax,DWORD PTR [edx]
  41307a:	18 00                	sbb    BYTE PTR [eax],al
  41307c:	00 09                	add    BYTE PTR [ecx],cl
  41307e:	01 01                	add    DWORD PTR [ecx],eax
  413080:	49                   	dec    ecx
  413081:	13 01                	adc    eax,DWORD PTR [ecx]
  413083:	13 00                	adc    eax,DWORD PTR [eax]
  413085:	00 0a                	add    BYTE PTR [edx],cl
  413087:	21 00                	and    DWORD PTR [eax],eax
  413089:	49                   	dec    ecx
  41308a:	13 2f                	adc    ebp,DWORD PTR [edi]
  41308c:	0b 00                	or     eax,DWORD PTR [eax]
  41308e:	00 0b                	add    BYTE PTR [ebx],cl
  413090:	21 00                	and    DWORD PTR [eax],eax
  413092:	00 00                	add    BYTE PTR [eax],al
  413094:	0c 34                	or     al,0x34
  413096:	00 03                	add    BYTE PTR [ebx],al
  413098:	08 3a                	or     BYTE PTR [edx],bh
  41309a:	0b 3b                	or     edi,DWORD PTR [ebx]
  41309c:	0b 49 13             	or     ecx,DWORD PTR [ecx+0x13]
  41309f:	3f                   	aas    
  4130a0:	19 3c 19             	sbb    DWORD PTR [ecx+ebx*1],edi
  4130a3:	00 00                	add    BYTE PTR [eax],al
	...

Disassembly of section .debug_line:

00414000 <.debug_line>:
  414000:	53                   	push   ebx
  414001:	00 00                	add    BYTE PTR [eax],al
  414003:	00 02                	add    BYTE PTR [edx],al
  414005:	00 39                	add    BYTE PTR [ecx],bh
  414007:	00 00                	add    BYTE PTR [eax],al
  414009:	00 01                	add    BYTE PTR [ecx],al
  41400b:	01 fb                	add    ebx,edi
  41400d:	0e                   	push   cs
  41400e:	0d 00 01 01 01       	or     eax,0x1010100
  414013:	01 00                	add    DWORD PTR [eax],eax
  414015:	00 00                	add    BYTE PTR [eax],al
  414017:	01 00                	add    DWORD PTR [eax],eax
  414019:	00 01                	add    BYTE PTR [ecx],al
  41401b:	63 3a                	arpl   WORD PTR [edx],di
  41401d:	2f                   	das    
  41401e:	6d                   	ins    DWORD PTR es:[edi],dx
  41401f:	69 6e 67 77 2f 69 6e 	imul   ebp,DWORD PTR [esi+0x67],0x6e692f77
  414026:	63 6c 75 64          	arpl   WORD PTR [ebp+esi*2+0x64],bp
  41402a:	65 00 00             	add    BYTE PTR gs:[eax],al
  41402d:	6d                   	ins    DWORD PTR es:[edi],dx
  41402e:	61                   	popa   
  41402f:	69 6e 2e 63 00 00 00 	imul   ebp,DWORD PTR [esi+0x2e],0x63
  414036:	00 73 74             	add    BYTE PTR [ebx+0x74],dh
  414039:	64 69 6f 2e 68 00 01 	imul   ebp,DWORD PTR fs:[edi+0x2e],0x10068
  414040:	00 
  414041:	00 00                	add    BYTE PTR [eax],al
  414043:	00 05 02 e0 13 40    	add    BYTE PTR ds:0x4013e002,al
  414049:	00 15 90 5b 02 22    	add    BYTE PTR ds:0x22025b90,dl
  41404f:	13 bc 59 02 02 00 01 	adc    edi,DWORD PTR [ecx+ebx*2+0x1000202]
  414056:	01                   	.byte 0x1
