
main.exe:     file format pei-i386


Disassembly of section .text:

00401000 <__gnu_exception_handler@4>:
  401000:	53                   	push   ebx
  401001:	83 ec 18             	sub    esp,0x18
  401004:	8b 44 24 20          	mov    eax,DWORD PTR [esp+0x20]
  401008:	8b 00                	mov    eax,DWORD PTR [eax]
  40100a:	8b 00                	mov    eax,DWORD PTR [eax]
  40100c:	3d 91 00 00 c0       	cmp    eax,0xc0000091
  401011:	77 4d                	ja     401060 <__gnu_exception_handler@4+0x60>
  401013:	3d 8d 00 00 c0       	cmp    eax,0xc000008d
  401018:	73 5b                	jae    401075 <__gnu_exception_handler@4+0x75>
  40101a:	3d 05 00 00 c0       	cmp    eax,0xc0000005
  40101f:	0f 85 8e 00 00 00    	jne    4010b3 <__gnu_exception_handler@4+0xb3>
  401025:	c7 44 24 04 00 00 00 	mov    DWORD PTR [esp+0x4],0x0
  40102c:	00 
  40102d:	c7 04 24 0b 00 00 00 	mov    DWORD PTR [esp],0xb
  401034:	e8 0f 6f 00 00       	call   407f48 <_signal>
  401039:	83 f8 01             	cmp    eax,0x1
  40103c:	0f 84 c1 00 00 00    	je     401103 <__gnu_exception_handler@4+0x103>
  401042:	85 c0                	test   eax,eax
  401044:	0f 85 a6 00 00 00    	jne    4010f0 <__gnu_exception_handler@4+0xf0>
  40104a:	8d b6 00 00 00 00    	lea    esi,[esi+0x0]
  401050:	31 c0                	xor    eax,eax
  401052:	83 c4 18             	add    esp,0x18
  401055:	5b                   	pop    ebx
  401056:	c2 04 00             	ret    0x4
  401059:	8d b4 26 00 00 00 00 	lea    esi,[esi+eiz*1+0x0]
  401060:	3d 94 00 00 c0       	cmp    eax,0xc0000094
  401065:	74 19                	je     401080 <__gnu_exception_handler@4+0x80>
  401067:	3d 96 00 00 c0       	cmp    eax,0xc0000096
  40106c:	74 4c                	je     4010ba <__gnu_exception_handler@4+0xba>
  40106e:	3d 93 00 00 c0       	cmp    eax,0xc0000093
  401073:	75 db                	jne    401050 <__gnu_exception_handler@4+0x50>
  401075:	bb 01 00 00 00       	mov    ebx,0x1
  40107a:	eb 06                	jmp    401082 <__gnu_exception_handler@4+0x82>
  40107c:	8d 74 26 00          	lea    esi,[esi+eiz*1+0x0]
  401080:	31 db                	xor    ebx,ebx
  401082:	c7 44 24 04 00 00 00 	mov    DWORD PTR [esp+0x4],0x0
  401089:	00 
  40108a:	c7 04 24 08 00 00 00 	mov    DWORD PTR [esp],0x8
  401091:	e8 b2 6e 00 00       	call   407f48 <_signal>
  401096:	83 f8 01             	cmp    eax,0x1
  401099:	0f 84 a1 00 00 00    	je     401140 <__gnu_exception_handler@4+0x140>
  40109f:	85 c0                	test   eax,eax
  4010a1:	74 ad                	je     401050 <__gnu_exception_handler@4+0x50>
  4010a3:	c7 04 24 08 00 00 00 	mov    DWORD PTR [esp],0x8
  4010aa:	ff d0                	call   eax
  4010ac:	b8 ff ff ff ff       	mov    eax,0xffffffff
  4010b1:	eb 9f                	jmp    401052 <__gnu_exception_handler@4+0x52>
  4010b3:	3d 1d 00 00 c0       	cmp    eax,0xc000001d
  4010b8:	75 96                	jne    401050 <__gnu_exception_handler@4+0x50>
  4010ba:	c7 44 24 04 00 00 00 	mov    DWORD PTR [esp+0x4],0x0
  4010c1:	00 
  4010c2:	c7 04 24 04 00 00 00 	mov    DWORD PTR [esp],0x4
  4010c9:	e8 7a 6e 00 00       	call   407f48 <_signal>
  4010ce:	83 f8 01             	cmp    eax,0x1
  4010d1:	74 4c                	je     40111f <__gnu_exception_handler@4+0x11f>
  4010d3:	85 c0                	test   eax,eax
  4010d5:	0f 84 75 ff ff ff    	je     401050 <__gnu_exception_handler@4+0x50>
  4010db:	c7 04 24 04 00 00 00 	mov    DWORD PTR [esp],0x4
  4010e2:	ff d0                	call   eax
  4010e4:	b8 ff ff ff ff       	mov    eax,0xffffffff
  4010e9:	e9 64 ff ff ff       	jmp    401052 <__gnu_exception_handler@4+0x52>
  4010ee:	66 90                	xchg   ax,ax
  4010f0:	c7 04 24 0b 00 00 00 	mov    DWORD PTR [esp],0xb
  4010f7:	ff d0                	call   eax
  4010f9:	b8 ff ff ff ff       	mov    eax,0xffffffff
  4010fe:	e9 4f ff ff ff       	jmp    401052 <__gnu_exception_handler@4+0x52>
  401103:	c7 44 24 04 01 00 00 	mov    DWORD PTR [esp+0x4],0x1
  40110a:	00 
  40110b:	c7 04 24 0b 00 00 00 	mov    DWORD PTR [esp],0xb
  401112:	e8 31 6e 00 00       	call   407f48 <_signal>
  401117:	83 c8 ff             	or     eax,0xffffffff
  40111a:	e9 33 ff ff ff       	jmp    401052 <__gnu_exception_handler@4+0x52>
  40111f:	c7 44 24 04 01 00 00 	mov    DWORD PTR [esp+0x4],0x1
  401126:	00 
  401127:	c7 04 24 04 00 00 00 	mov    DWORD PTR [esp],0x4
  40112e:	e8 15 6e 00 00       	call   407f48 <_signal>
  401133:	83 c8 ff             	or     eax,0xffffffff
  401136:	e9 17 ff ff ff       	jmp    401052 <__gnu_exception_handler@4+0x52>
  40113b:	90                   	nop
  40113c:	8d 74 26 00          	lea    esi,[esi+eiz*1+0x0]
  401140:	c7 44 24 04 01 00 00 	mov    DWORD PTR [esp+0x4],0x1
  401147:	00 
  401148:	c7 04 24 08 00 00 00 	mov    DWORD PTR [esp],0x8
  40114f:	e8 f4 6d 00 00       	call   407f48 <_signal>
  401154:	85 db                	test   ebx,ebx
  401156:	b8 ff ff ff ff       	mov    eax,0xffffffff
  40115b:	0f 84 f1 fe ff ff    	je     401052 <__gnu_exception_handler@4+0x52>
  401161:	89 44 24 0c          	mov    DWORD PTR [esp+0xc],eax
  401165:	e8 a6 06 00 00       	call   401810 <__fpreset>
  40116a:	8b 44 24 0c          	mov    eax,DWORD PTR [esp+0xc]
  40116e:	e9 df fe ff ff       	jmp    401052 <__gnu_exception_handler@4+0x52>
  401173:	8d b6 00 00 00 00    	lea    esi,[esi+0x0]
  401179:	8d bc 27 00 00 00 00 	lea    edi,[edi+eiz*1+0x0]

00401180 <___mingw_CRTStartup>:
  401180:	55                   	push   ebp
  401181:	89 e5                	mov    ebp,esp
  401183:	53                   	push   ebx
  401184:	83 ec 14             	sub    esp,0x14
  401187:	a1 70 a0 40 00       	mov    eax,ds:0x40a070
  40118c:	85 c0                	test   eax,eax
  40118e:	74 1c                	je     4011ac <___mingw_CRTStartup+0x2c>
  401190:	c7 44 24 08 00 00 00 	mov    DWORD PTR [esp+0x8],0x0
  401197:	00 
  401198:	c7 44 24 04 02 00 00 	mov    DWORD PTR [esp+0x4],0x2
  40119f:	00 
  4011a0:	c7 04 24 00 00 00 00 	mov    DWORD PTR [esp],0x0
  4011a7:	ff d0                	call   eax
  4011a9:	83 ec 0c             	sub    esp,0xc
  4011ac:	c7 04 24 00 10 40 00 	mov    DWORD PTR [esp],0x401000
  4011b3:	e8 70 6e 00 00       	call   408028 <_SetUnhandledExceptionFilter@4>
  4011b8:	83 ec 04             	sub    esp,0x4
  4011bb:	e8 70 05 00 00       	call   401730 <___cpu_features_init>
  4011c0:	e8 4b 06 00 00       	call   401810 <__fpreset>
  4011c5:	e8 56 02 00 00       	call   401420 <__setargv>
  4011ca:	a1 20 d0 40 00       	mov    eax,ds:0x40d020
  4011cf:	85 c0                	test   eax,eax
  4011d1:	74 42                	je     401215 <___mingw_CRTStartup+0x95>
  4011d3:	8b 1d c8 e1 40 00    	mov    ebx,DWORD PTR ds:0x40e1c8
  4011d9:	a3 04 90 40 00       	mov    ds:0x409004,eax
  4011de:	89 44 24 04          	mov    DWORD PTR [esp+0x4],eax
  4011e2:	8b 43 10             	mov    eax,DWORD PTR [ebx+0x10]
  4011e5:	89 04 24             	mov    DWORD PTR [esp],eax
  4011e8:	e8 db 6d 00 00       	call   407fc8 <__setmode>
  4011ed:	a1 20 d0 40 00       	mov    eax,ds:0x40d020
  4011f2:	89 44 24 04          	mov    DWORD PTR [esp+0x4],eax
  4011f6:	8b 43 30             	mov    eax,DWORD PTR [ebx+0x30]
  4011f9:	89 04 24             	mov    DWORD PTR [esp],eax
  4011fc:	e8 c7 6d 00 00       	call   407fc8 <__setmode>
  401201:	a1 20 d0 40 00       	mov    eax,ds:0x40d020
  401206:	89 44 24 04          	mov    DWORD PTR [esp+0x4],eax
  40120a:	8b 43 50             	mov    eax,DWORD PTR [ebx+0x50]
  40120d:	89 04 24             	mov    DWORD PTR [esp],eax
  401210:	e8 b3 6d 00 00       	call   407fc8 <__setmode>
  401215:	e8 ce 6d 00 00       	call   407fe8 <___p__fmode>
  40121a:	8b 15 04 90 40 00    	mov    edx,DWORD PTR ds:0x409004
  401220:	89 10                	mov    DWORD PTR [eax],edx
  401222:	e8 09 0b 00 00       	call   401d30 <__pei386_runtime_relocator>
  401227:	83 e4 f0             	and    esp,0xfffffff0
  40122a:	e8 71 06 00 00       	call   4018a0 <___main>
  40122f:	e8 bc 6d 00 00       	call   407ff0 <___p__environ>
  401234:	8b 00                	mov    eax,DWORD PTR [eax]
  401236:	89 44 24 08          	mov    DWORD PTR [esp+0x8],eax
  40123a:	a1 00 d0 40 00       	mov    eax,ds:0x40d000
  40123f:	89 44 24 04          	mov    DWORD PTR [esp+0x4],eax
  401243:	a1 04 d0 40 00       	mov    eax,ds:0x40d004
  401248:	89 04 24             	mov    DWORD PTR [esp],eax
  40124b:	e8 90 01 00 00       	call   4013e0 <_main>
  401250:	89 c3                	mov    ebx,eax
  401252:	e8 89 6d 00 00       	call   407fe0 <__cexit>
  401257:	89 1c 24             	mov    DWORD PTR [esp],ebx
  40125a:	e8 31 6e 00 00       	call   408090 <_ExitProcess@4>
  40125f:	90                   	nop

00401260 <__mingw32_init_mainargs>:
  401260:	83 ec 3c             	sub    esp,0x3c
  401263:	8d 44 24 2c          	lea    eax,[esp+0x2c]
  401267:	89 44 24 10          	mov    DWORD PTR [esp+0x10],eax
  40126b:	a1 00 90 40 00       	mov    eax,ds:0x409000
  401270:	c7 44 24 04 00 d0 40 	mov    DWORD PTR [esp+0x4],0x40d000
  401277:	00 
  401278:	c7 04 24 04 d0 40 00 	mov    DWORD PTR [esp],0x40d004
  40127f:	c7 44 24 2c 00 00 00 	mov    DWORD PTR [esp+0x2c],0x0
  401286:	00 
  401287:	83 e0 01             	and    eax,0x1
  40128a:	89 44 24 0c          	mov    DWORD PTR [esp+0xc],eax
  40128e:	8d 44 24 28          	lea    eax,[esp+0x28]
  401292:	89 44 24 08          	mov    DWORD PTR [esp+0x8],eax
  401296:	e8 5d 6d 00 00       	call   407ff8 <___getmainargs>
  40129b:	83 c4 3c             	add    esp,0x3c
  40129e:	c3                   	ret    
  40129f:	90                   	nop

004012a0 <_mainCRTStartup>:
  4012a0:	83 ec 1c             	sub    esp,0x1c
  4012a3:	c7 04 24 01 00 00 00 	mov    DWORD PTR [esp],0x1
  4012aa:	ff 15 b8 e1 40 00    	call   DWORD PTR ds:0x40e1b8
  4012b0:	e8 cb fe ff ff       	call   401180 <___mingw_CRTStartup>
  4012b5:	8d 74 26 00          	lea    esi,[esi+eiz*1+0x0]
  4012b9:	8d bc 27 00 00 00 00 	lea    edi,[edi+eiz*1+0x0]

004012c0 <_WinMainCRTStartup>:
  4012c0:	83 ec 1c             	sub    esp,0x1c
  4012c3:	c7 04 24 02 00 00 00 	mov    DWORD PTR [esp],0x2
  4012ca:	ff 15 b8 e1 40 00    	call   DWORD PTR ds:0x40e1b8
  4012d0:	e8 ab fe ff ff       	call   401180 <___mingw_CRTStartup>
  4012d5:	8d 74 26 00          	lea    esi,[esi+eiz*1+0x0]
  4012d9:	8d bc 27 00 00 00 00 	lea    edi,[edi+eiz*1+0x0]

004012e0 <_atexit>:
  4012e0:	a1 d8 e1 40 00       	mov    eax,ds:0x40e1d8
  4012e5:	ff e0                	jmp    eax
  4012e7:	89 f6                	mov    esi,esi
  4012e9:	8d bc 27 00 00 00 00 	lea    edi,[edi+eiz*1+0x0]

004012f0 <__onexit>:
  4012f0:	a1 cc e1 40 00       	mov    eax,ds:0x40e1cc
  4012f5:	ff e0                	jmp    eax
  4012f7:	90                   	nop
  4012f8:	90                   	nop
  4012f9:	90                   	nop
  4012fa:	90                   	nop
  4012fb:	90                   	nop
  4012fc:	90                   	nop
  4012fd:	90                   	nop
  4012fe:	90                   	nop
  4012ff:	90                   	nop

00401300 <___gcc_register_frame>:
  401300:	55                   	push   ebp
  401301:	89 e5                	mov    ebp,esp
  401303:	83 ec 18             	sub    esp,0x18
  401306:	c7 04 24 00 a0 40 00 	mov    DWORD PTR [esp],0x40a000
  40130d:	e8 4e 6d 00 00       	call   408060 <_GetModuleHandleA@4>
  401312:	ba 00 00 00 00       	mov    edx,0x0
  401317:	83 ec 04             	sub    esp,0x4
  40131a:	85 c0                	test   eax,eax
  40131c:	74 15                	je     401333 <___gcc_register_frame+0x33>
  40131e:	c7 44 24 04 13 a0 40 	mov    DWORD PTR [esp+0x4],0x40a013
  401325:	00 
  401326:	89 04 24             	mov    DWORD PTR [esp],eax
  401329:	e8 2a 6d 00 00       	call   408058 <_GetProcAddress@8>
  40132e:	83 ec 08             	sub    esp,0x8
  401331:	89 c2                	mov    edx,eax
  401333:	85 d2                	test   edx,edx
  401335:	74 11                	je     401348 <___gcc_register_frame+0x48>
  401337:	c7 44 24 04 08 d0 40 	mov    DWORD PTR [esp+0x4],0x40d008
  40133e:	00 
  40133f:	c7 04 24 c0 b0 40 00 	mov    DWORD PTR [esp],0x40b0c0
  401346:	ff d2                	call   edx
  401348:	a1 24 90 40 00       	mov    eax,ds:0x409024
  40134d:	85 c0                	test   eax,eax
  40134f:	74 3a                	je     40138b <___gcc_register_frame+0x8b>
  401351:	c7 04 24 29 a0 40 00 	mov    DWORD PTR [esp],0x40a029
  401358:	e8 03 6d 00 00       	call   408060 <_GetModuleHandleA@4>
  40135d:	ba 00 00 00 00       	mov    edx,0x0
  401362:	83 ec 04             	sub    esp,0x4
  401365:	85 c0                	test   eax,eax
  401367:	74 15                	je     40137e <___gcc_register_frame+0x7e>
  401369:	c7 44 24 04 37 a0 40 	mov    DWORD PTR [esp+0x4],0x40a037
  401370:	00 
  401371:	89 04 24             	mov    DWORD PTR [esp],eax
  401374:	e8 df 6c 00 00       	call   408058 <_GetProcAddress@8>
  401379:	83 ec 08             	sub    esp,0x8
  40137c:	89 c2                	mov    edx,eax
  40137e:	85 d2                	test   edx,edx
  401380:	74 09                	je     40138b <___gcc_register_frame+0x8b>
  401382:	c7 04 24 24 90 40 00 	mov    DWORD PTR [esp],0x409024
  401389:	ff d2                	call   edx
  40138b:	c9                   	leave  
  40138c:	c3                   	ret    
  40138d:	8d 76 00             	lea    esi,[esi+0x0]

00401390 <___gcc_deregister_frame>:
  401390:	55                   	push   ebp
  401391:	89 e5                	mov    ebp,esp
  401393:	83 ec 18             	sub    esp,0x18
  401396:	c7 04 24 00 a0 40 00 	mov    DWORD PTR [esp],0x40a000
  40139d:	e8 be 6c 00 00       	call   408060 <_GetModuleHandleA@4>
  4013a2:	ba 00 00 00 00       	mov    edx,0x0
  4013a7:	83 ec 04             	sub    esp,0x4
  4013aa:	85 c0                	test   eax,eax
  4013ac:	74 15                	je     4013c3 <___gcc_deregister_frame+0x33>
  4013ae:	c7 44 24 04 4b a0 40 	mov    DWORD PTR [esp+0x4],0x40a04b
  4013b5:	00 
  4013b6:	89 04 24             	mov    DWORD PTR [esp],eax
  4013b9:	e8 9a 6c 00 00       	call   408058 <_GetProcAddress@8>
  4013be:	83 ec 08             	sub    esp,0x8
  4013c1:	89 c2                	mov    edx,eax
  4013c3:	85 d2                	test   edx,edx
  4013c5:	74 09                	je     4013d0 <___gcc_deregister_frame+0x40>
  4013c7:	c7 04 24 c0 b0 40 00 	mov    DWORD PTR [esp],0x40b0c0
  4013ce:	ff d2                	call   edx
  4013d0:	c9                   	leave  
  4013d1:	c3                   	ret    
  4013d2:	90                   	nop
  4013d3:	90                   	nop
  4013d4:	90                   	nop
  4013d5:	90                   	nop
  4013d6:	90                   	nop
  4013d7:	90                   	nop
  4013d8:	90                   	nop
  4013d9:	90                   	nop
  4013da:	90                   	nop
  4013db:	90                   	nop
  4013dc:	90                   	nop
  4013dd:	90                   	nop
  4013de:	90                   	nop
  4013df:	90                   	nop

004013e0 <_main>:
  4013e0:	55                   	push   ebp
  4013e1:	89 e5                	mov    ebp,esp
  4013e3:	83 e4 f0             	and    esp,0xfffffff0
  4013e6:	83 ec 20             	sub    esp,0x20
  4013e9:	e8 b2 04 00 00       	call   4018a0 <___main>
  4013ee:	c7 44 24 1c 00 00 00 	mov    DWORD PTR [esp+0x1c],0x0
  4013f5:	00 
  4013f6:	eb 11                	jmp    401409 <_main+0x29>
  4013f8:	c7 04 24 64 a0 40 00 	mov    DWORD PTR [esp],0x40a064
  4013ff:	e8 5c 6b 00 00       	call   407f60 <_puts>
  401404:	83 44 24 1c 01       	add    DWORD PTR [esp+0x1c],0x1
  401409:	83 7c 24 1c 09       	cmp    DWORD PTR [esp+0x1c],0x9
  40140e:	7e e8                	jle    4013f8 <_main+0x18>
  401410:	b8 00 00 00 00       	mov    eax,0x0
  401415:	c9                   	leave  
  401416:	c3                   	ret    
  401417:	90                   	nop

00401418 <.text>:
  401418:	66 90                	xchg   ax,ax
  40141a:	66 90                	xchg   ax,ax
  40141c:	66 90                	xchg   ax,ax
  40141e:	66 90                	xchg   ax,ax

00401420 <__setargv>:
  401420:	55                   	push   ebp
  401421:	89 e5                	mov    ebp,esp
  401423:	57                   	push   edi
  401424:	56                   	push   esi
  401425:	53                   	push   ebx
  401426:	83 ec 4c             	sub    esp,0x4c
  401429:	f6 05 00 90 40 00 02 	test   BYTE PTR ds:0x409000,0x2
  401430:	0f 84 ba 02 00 00    	je     4016f0 <__setargv+0x2d0>
  401436:	e8 35 6c 00 00       	call   408070 <_GetCommandLineA@0>
  40143b:	89 65 c0             	mov    DWORD PTR [ebp-0x40],esp
  40143e:	89 04 24             	mov    DWORD PTR [esp],eax
  401441:	89 c6                	mov    esi,eax
  401443:	e8 e8 6a 00 00       	call   407f30 <_strlen>
  401448:	8d 44 00 11          	lea    eax,[eax+eax*1+0x11]
  40144c:	83 e0 f0             	and    eax,0xfffffff0
  40144f:	e8 bc 0a 00 00       	call   401f10 <___chkstk_ms>
  401454:	29 c4                	sub    esp,eax
  401456:	8d 44 24 10          	lea    eax,[esp+0x10]
  40145a:	89 c2                	mov    edx,eax
  40145c:	89 45 c4             	mov    DWORD PTR [ebp-0x3c],eax
  40145f:	a1 00 90 40 00       	mov    eax,ds:0x409000
  401464:	c7 45 e4 00 00 00 00 	mov    DWORD PTR [ebp-0x1c],0x0
  40146b:	c7 45 d0 00 00 00 00 	mov    DWORD PTR [ebp-0x30],0x0
  401472:	c7 45 cc 00 00 00 00 	mov    DWORD PTR [ebp-0x34],0x0
  401479:	83 e0 40             	and    eax,0x40
  40147c:	83 f8 01             	cmp    eax,0x1
  40147f:	19 c0                	sbb    eax,eax
  401481:	89 45 c8             	mov    DWORD PTR [ebp-0x38],eax
  401484:	31 c0                	xor    eax,eax
  401486:	81 65 c8 00 c0 ff ff 	and    DWORD PTR [ebp-0x38],0xffffc000
  40148d:	81 45 c8 10 40 00 00 	add    DWORD PTR [ebp-0x38],0x4010
  401494:	89 55 d4             	mov    DWORD PTR [ebp-0x2c],edx
  401497:	83 c6 01             	add    esi,0x1
  40149a:	0f b6 5e ff          	movzx  ebx,BYTE PTR [esi-0x1]
  40149e:	0f be cb             	movsx  ecx,bl
  4014a1:	85 c9                	test   ecx,ecx
  4014a3:	74 7b                	je     401520 <__setargv+0x100>
  4014a5:	80 fb 3f             	cmp    bl,0x3f
  4014a8:	0f 84 13 01 00 00    	je     4015c1 <__setargv+0x1a1>
  4014ae:	0f 8f ec 00 00 00    	jg     4015a0 <__setargv+0x180>
  4014b4:	80 fb 27             	cmp    bl,0x27
  4014b7:	0f 84 e3 01 00 00    	je     4016a0 <__setargv+0x280>
  4014bd:	80 fb 2a             	cmp    bl,0x2a
  4014c0:	0f 84 fb 00 00 00    	je     4015c1 <__setargv+0x1a1>
  4014c6:	80 fb 22             	cmp    bl,0x22
  4014c9:	0f 85 36 01 00 00    	jne    401605 <__setargv+0x1e5>
  4014cf:	89 c3                	mov    ebx,eax
  4014d1:	d1 fb                	sar    ebx,1
  4014d3:	0f 84 3e 02 00 00    	je     401717 <__setargv+0x2f7>
  4014d9:	8b 55 d4             	mov    edx,DWORD PTR [ebp-0x2c]
  4014dc:	01 d3                	add    ebx,edx
  4014de:	66 90                	xchg   ax,ax
  4014e0:	83 c2 01             	add    edx,0x1
  4014e3:	39 da                	cmp    edx,ebx
  4014e5:	c6 42 ff 5c          	mov    BYTE PTR [edx-0x1],0x5c
  4014e9:	75 f5                	jne    4014e0 <__setargv+0xc0>
  4014eb:	a8 01                	test   al,0x1
  4014ed:	0f 85 93 00 00 00    	jne    401586 <__setargv+0x166>
  4014f3:	83 7d d0 27          	cmp    DWORD PTR [ebp-0x30],0x27
  4014f7:	0f 84 89 00 00 00    	je     401586 <__setargv+0x166>
  4014fd:	83 c6 01             	add    esi,0x1
  401500:	31 c0                	xor    eax,eax
  401502:	89 5d d4             	mov    DWORD PTR [ebp-0x2c],ebx
  401505:	0f b6 5e ff          	movzx  ebx,BYTE PTR [esi-0x1]
  401509:	31 4d d0             	xor    DWORD PTR [ebp-0x30],ecx
  40150c:	c7 45 cc 01 00 00 00 	mov    DWORD PTR [ebp-0x34],0x1
  401513:	0f be cb             	movsx  ecx,bl
  401516:	85 c9                	test   ecx,ecx
  401518:	75 8b                	jne    4014a5 <__setargv+0x85>
  40151a:	8d b6 00 00 00 00    	lea    esi,[esi+0x0]
  401520:	85 c0                	test   eax,eax
  401522:	8b 55 d4             	mov    edx,DWORD PTR [ebp-0x2c]
  401525:	0f 84 f4 01 00 00    	je     40171f <__setargv+0x2ff>
  40152b:	01 d0                	add    eax,edx
  40152d:	8d 76 00             	lea    esi,[esi+0x0]
  401530:	83 c2 01             	add    edx,0x1
  401533:	39 c2                	cmp    edx,eax
  401535:	c6 42 ff 5c          	mov    BYTE PTR [edx-0x1],0x5c
  401539:	75 f5                	jne    401530 <__setargv+0x110>
  40153b:	8b 55 cc             	mov    edx,DWORD PTR [ebp-0x34]
  40153e:	85 d2                	test   edx,edx
  401540:	75 05                	jne    401547 <__setargv+0x127>
  401542:	39 45 c4             	cmp    DWORD PTR [ebp-0x3c],eax
  401545:	73 24                	jae    40156b <__setargv+0x14b>
  401547:	c6 00 00             	mov    BYTE PTR [eax],0x0
  40154a:	8d 45 d8             	lea    eax,[ebp-0x28]
  40154d:	89 44 24 0c          	mov    DWORD PTR [esp+0xc],eax
  401551:	c7 44 24 08 00 00 00 	mov    DWORD PTR [esp+0x8],0x0
  401558:	00 
  401559:	8b 45 c8             	mov    eax,DWORD PTR [ebp-0x38]
  40155c:	89 44 24 04          	mov    DWORD PTR [esp+0x4],eax
  401560:	8b 45 c4             	mov    eax,DWORD PTR [ebp-0x3c]
  401563:	89 04 24             	mov    DWORD PTR [esp],eax
  401566:	e8 d5 15 00 00       	call   402b40 <___mingw_glob>
  40156b:	8b 45 dc             	mov    eax,DWORD PTR [ebp-0x24]
  40156e:	a3 04 d0 40 00       	mov    ds:0x40d004,eax
  401573:	8b 45 e0             	mov    eax,DWORD PTR [ebp-0x20]
  401576:	a3 00 d0 40 00       	mov    ds:0x40d000,eax
  40157b:	8b 65 c0             	mov    esp,DWORD PTR [ebp-0x40]
  40157e:	8d 65 f4             	lea    esp,[ebp-0xc]
  401581:	5b                   	pop    ebx
  401582:	5e                   	pop    esi
  401583:	5f                   	pop    edi
  401584:	5d                   	pop    ebp
  401585:	c3                   	ret    
  401586:	8d 43 01             	lea    eax,[ebx+0x1]
  401589:	89 45 d4             	mov    DWORD PTR [ebp-0x2c],eax
  40158c:	31 c0                	xor    eax,eax
  40158e:	c6 03 22             	mov    BYTE PTR [ebx],0x22
  401591:	c7 45 cc 01 00 00 00 	mov    DWORD PTR [ebp-0x34],0x1
  401598:	e9 fa fe ff ff       	jmp    401497 <__setargv+0x77>
  40159d:	8d 76 00             	lea    esi,[esi+0x0]
  4015a0:	80 fb 5c             	cmp    bl,0x5c
  4015a3:	0f 84 3f 01 00 00    	je     4016e8 <__setargv+0x2c8>
  4015a9:	80 fb 7f             	cmp    bl,0x7f
  4015ac:	74 13                	je     4015c1 <__setargv+0x1a1>
  4015ae:	80 fb 5b             	cmp    bl,0x5b
  4015b1:	75 52                	jne    401605 <__setargv+0x1e5>
  4015b3:	f6 05 00 90 40 00 20 	test   BYTE PTR ds:0x409000,0x20
  4015ba:	bf 01 00 00 00       	mov    edi,0x1
  4015bf:	74 0a                	je     4015cb <__setargv+0x1ab>
  4015c1:	8b 55 d0             	mov    edx,DWORD PTR [ebp-0x30]
  4015c4:	85 d2                	test   edx,edx
  4015c6:	0f 95 c2             	setne  dl
  4015c9:	89 d7                	mov    edi,edx
  4015cb:	85 c0                	test   eax,eax
  4015cd:	0f 84 34 01 00 00    	je     401707 <__setargv+0x2e7>
  4015d3:	8b 55 d4             	mov    edx,DWORD PTR [ebp-0x2c]
  4015d6:	01 d0                	add    eax,edx
  4015d8:	83 c2 01             	add    edx,0x1
  4015db:	39 c2                	cmp    edx,eax
  4015dd:	c6 42 ff 5c          	mov    BYTE PTR [edx-0x1],0x5c
  4015e1:	75 f5                	jne    4015d8 <__setargv+0x1b8>
  4015e3:	89 fa                	mov    edx,edi
  4015e5:	84 d2                	test   dl,dl
  4015e7:	0f 85 a3 00 00 00    	jne    401690 <__setargv+0x270>
  4015ed:	83 f9 7f             	cmp    ecx,0x7f
  4015f0:	0f 84 9a 00 00 00    	je     401690 <__setargv+0x270>
  4015f6:	8d 48 01             	lea    ecx,[eax+0x1]
  4015f9:	88 18                	mov    BYTE PTR [eax],bl
  4015fb:	31 c0                	xor    eax,eax
  4015fd:	89 4d d4             	mov    DWORD PTR [ebp-0x2c],ecx
  401600:	e9 92 fe ff ff       	jmp    401497 <__setargv+0x77>
  401605:	8b 7d d4             	mov    edi,DWORD PTR [ebp-0x2c]
  401608:	8b 55 d4             	mov    edx,DWORD PTR [ebp-0x2c]
  40160b:	01 c7                	add    edi,eax
  40160d:	85 c0                	test   eax,eax
  40160f:	0f 84 fa 00 00 00    	je     40170f <__setargv+0x2ef>
  401615:	83 c2 01             	add    edx,0x1
  401618:	39 fa                	cmp    edx,edi
  40161a:	c6 42 ff 5c          	mov    BYTE PTR [edx-0x1],0x5c
  40161e:	75 f5                	jne    401615 <__setargv+0x1f5>
  401620:	8b 45 d0             	mov    eax,DWORD PTR [ebp-0x30]
  401623:	85 c0                	test   eax,eax
  401625:	75 59                	jne    401680 <__setargv+0x260>
  401627:	89 0c 24             	mov    DWORD PTR [esp],ecx
  40162a:	e8 59 69 00 00       	call   407f88 <_isspace>
  40162f:	85 c0                	test   eax,eax
  401631:	74 4d                	je     401680 <__setargv+0x260>
  401633:	8b 4d cc             	mov    ecx,DWORD PTR [ebp-0x34]
  401636:	85 c9                	test   ecx,ecx
  401638:	75 09                	jne    401643 <__setargv+0x223>
  40163a:	39 7d c4             	cmp    DWORD PTR [ebp-0x3c],edi
  40163d:	0f 83 ba 00 00 00    	jae    4016fd <__setargv+0x2dd>
  401643:	8d 45 d8             	lea    eax,[ebp-0x28]
  401646:	c6 07 00             	mov    BYTE PTR [edi],0x0
  401649:	89 44 24 0c          	mov    DWORD PTR [esp+0xc],eax
  40164d:	c7 44 24 08 00 00 00 	mov    DWORD PTR [esp+0x8],0x0
  401654:	00 
  401655:	8b 45 c8             	mov    eax,DWORD PTR [ebp-0x38]
  401658:	89 44 24 04          	mov    DWORD PTR [esp+0x4],eax
  40165c:	8b 7d c4             	mov    edi,DWORD PTR [ebp-0x3c]
  40165f:	89 3c 24             	mov    DWORD PTR [esp],edi
  401662:	e8 d9 14 00 00       	call   402b40 <___mingw_glob>
  401667:	31 c0                	xor    eax,eax
  401669:	83 4d c8 01          	or     DWORD PTR [ebp-0x38],0x1
  40166d:	89 7d d4             	mov    DWORD PTR [ebp-0x2c],edi
  401670:	c7 45 cc 00 00 00 00 	mov    DWORD PTR [ebp-0x34],0x0
  401677:	e9 1b fe ff ff       	jmp    401497 <__setargv+0x77>
  40167c:	8d 74 26 00          	lea    esi,[esi+eiz*1+0x0]
  401680:	8d 47 01             	lea    eax,[edi+0x1]
  401683:	89 45 d4             	mov    DWORD PTR [ebp-0x2c],eax
  401686:	31 c0                	xor    eax,eax
  401688:	88 1f                	mov    BYTE PTR [edi],bl
  40168a:	e9 08 fe ff ff       	jmp    401497 <__setargv+0x77>
  40168f:	90                   	nop
  401690:	c6 00 7f             	mov    BYTE PTR [eax],0x7f
  401693:	83 c0 01             	add    eax,0x1
  401696:	e9 5b ff ff ff       	jmp    4015f6 <__setargv+0x1d6>
  40169b:	90                   	nop
  40169c:	8d 74 26 00          	lea    esi,[esi+eiz*1+0x0]
  4016a0:	f6 05 00 90 40 00 10 	test   BYTE PTR ds:0x409000,0x10
  4016a7:	0f 84 58 ff ff ff    	je     401605 <__setargv+0x1e5>
  4016ad:	89 c3                	mov    ebx,eax
  4016af:	d1 fb                	sar    ebx,1
  4016b1:	74 73                	je     401726 <__setargv+0x306>
  4016b3:	8b 55 d4             	mov    edx,DWORD PTR [ebp-0x2c]
  4016b6:	01 d3                	add    ebx,edx
  4016b8:	83 c2 01             	add    edx,0x1
  4016bb:	39 da                	cmp    edx,ebx
  4016bd:	c6 42 ff 5c          	mov    BYTE PTR [edx-0x1],0x5c
  4016c1:	75 f5                	jne    4016b8 <__setargv+0x298>
  4016c3:	a8 01                	test   al,0x1
  4016c5:	75 0a                	jne    4016d1 <__setargv+0x2b1>
  4016c7:	83 7d d0 22          	cmp    DWORD PTR [ebp-0x30],0x22
  4016cb:	0f 85 2c fe ff ff    	jne    4014fd <__setargv+0xdd>
  4016d1:	8d 43 01             	lea    eax,[ebx+0x1]
  4016d4:	89 45 d4             	mov    DWORD PTR [ebp-0x2c],eax
  4016d7:	31 c0                	xor    eax,eax
  4016d9:	c6 03 27             	mov    BYTE PTR [ebx],0x27
  4016dc:	c7 45 cc 01 00 00 00 	mov    DWORD PTR [ebp-0x34],0x1
  4016e3:	e9 af fd ff ff       	jmp    401497 <__setargv+0x77>
  4016e8:	83 c0 01             	add    eax,0x1
  4016eb:	e9 a7 fd ff ff       	jmp    401497 <__setargv+0x77>
  4016f0:	e8 6b fb ff ff       	call   401260 <__mingw32_init_mainargs>
  4016f5:	8d 65 f4             	lea    esp,[ebp-0xc]
  4016f8:	5b                   	pop    ebx
  4016f9:	5e                   	pop    esi
  4016fa:	5f                   	pop    edi
  4016fb:	5d                   	pop    ebp
  4016fc:	c3                   	ret    
  4016fd:	89 7d d4             	mov    DWORD PTR [ebp-0x2c],edi
  401700:	31 c0                	xor    eax,eax
  401702:	e9 90 fd ff ff       	jmp    401497 <__setargv+0x77>
  401707:	8b 45 d4             	mov    eax,DWORD PTR [ebp-0x2c]
  40170a:	e9 d4 fe ff ff       	jmp    4015e3 <__setargv+0x1c3>
  40170f:	8b 7d d4             	mov    edi,DWORD PTR [ebp-0x2c]
  401712:	e9 09 ff ff ff       	jmp    401620 <__setargv+0x200>
  401717:	8b 5d d4             	mov    ebx,DWORD PTR [ebp-0x2c]
  40171a:	e9 cc fd ff ff       	jmp    4014eb <__setargv+0xcb>
  40171f:	89 d0                	mov    eax,edx
  401721:	e9 15 fe ff ff       	jmp    40153b <__setargv+0x11b>
  401726:	8b 5d d4             	mov    ebx,DWORD PTR [ebp-0x2c]
  401729:	eb 98                	jmp    4016c3 <__setargv+0x2a3>
  40172b:	90                   	nop
  40172c:	90                   	nop
  40172d:	90                   	nop
  40172e:	90                   	nop
  40172f:	90                   	nop

00401730 <___cpu_features_init>:
  401730:	9c                   	pushf  
  401731:	9c                   	pushf  
  401732:	58                   	pop    eax
  401733:	89 c2                	mov    edx,eax
  401735:	35 00 00 20 00       	xor    eax,0x200000
  40173a:	50                   	push   eax
  40173b:	9d                   	popf   
  40173c:	9c                   	pushf  
  40173d:	58                   	pop    eax
  40173e:	9d                   	popf   
  40173f:	31 d0                	xor    eax,edx
  401741:	a9 00 00 20 00       	test   eax,0x200000
  401746:	0f 84 a5 00 00 00    	je     4017f1 <___cpu_features_init+0xc1>
  40174c:	53                   	push   ebx
  40174d:	31 c0                	xor    eax,eax
  40174f:	0f a2                	cpuid  
  401751:	85 c0                	test   eax,eax
  401753:	0f 84 97 00 00 00    	je     4017f0 <___cpu_features_init+0xc0>
  401759:	b8 01 00 00 00       	mov    eax,0x1
  40175e:	0f a2                	cpuid  
  401760:	f6 c6 01             	test   dh,0x1
  401763:	74 07                	je     40176c <___cpu_features_init+0x3c>
  401765:	83 0d 24 d0 40 00 01 	or     DWORD PTR ds:0x40d024,0x1
  40176c:	f6 c6 80             	test   dh,0x80
  40176f:	74 07                	je     401778 <___cpu_features_init+0x48>
  401771:	83 0d 24 d0 40 00 02 	or     DWORD PTR ds:0x40d024,0x2
  401778:	f7 c2 00 00 80 00    	test   edx,0x800000
  40177e:	74 07                	je     401787 <___cpu_features_init+0x57>
  401780:	83 0d 24 d0 40 00 04 	or     DWORD PTR ds:0x40d024,0x4
  401787:	f7 c2 00 00 00 01    	test   edx,0x1000000
  40178d:	74 07                	je     401796 <___cpu_features_init+0x66>
  40178f:	83 0d 24 d0 40 00 08 	or     DWORD PTR ds:0x40d024,0x8
  401796:	f7 c2 00 00 00 02    	test   edx,0x2000000
  40179c:	74 07                	je     4017a5 <___cpu_features_init+0x75>
  40179e:	83 0d 24 d0 40 00 10 	or     DWORD PTR ds:0x40d024,0x10
  4017a5:	81 e2 00 00 00 04    	and    edx,0x4000000
  4017ab:	74 07                	je     4017b4 <___cpu_features_init+0x84>
  4017ad:	83 0d 24 d0 40 00 20 	or     DWORD PTR ds:0x40d024,0x20
  4017b4:	f6 c1 01             	test   cl,0x1
  4017b7:	74 07                	je     4017c0 <___cpu_features_init+0x90>
  4017b9:	83 0d 24 d0 40 00 40 	or     DWORD PTR ds:0x40d024,0x40
  4017c0:	80 e5 20             	and    ch,0x20
  4017c3:	75 2e                	jne    4017f3 <___cpu_features_init+0xc3>
  4017c5:	b8 00 00 00 80       	mov    eax,0x80000000
  4017ca:	0f a2                	cpuid  
  4017cc:	3d 00 00 00 80       	cmp    eax,0x80000000
  4017d1:	76 1d                	jbe    4017f0 <___cpu_features_init+0xc0>
  4017d3:	b8 01 00 00 80       	mov    eax,0x80000001
  4017d8:	0f a2                	cpuid  
  4017da:	85 d2                	test   edx,edx
  4017dc:	78 22                	js     401800 <___cpu_features_init+0xd0>
  4017de:	81 e2 00 00 00 40    	and    edx,0x40000000
  4017e4:	74 0a                	je     4017f0 <___cpu_features_init+0xc0>
  4017e6:	81 0d 24 d0 40 00 00 	or     DWORD PTR ds:0x40d024,0x200
  4017ed:	02 00 00 
  4017f0:	5b                   	pop    ebx
  4017f1:	f3 c3                	repz ret 
  4017f3:	81 0d 24 d0 40 00 80 	or     DWORD PTR ds:0x40d024,0x80
  4017fa:	00 00 00 
  4017fd:	eb c6                	jmp    4017c5 <___cpu_features_init+0x95>
  4017ff:	90                   	nop
  401800:	81 0d 24 d0 40 00 00 	or     DWORD PTR ds:0x40d024,0x100
  401807:	01 00 00 
  40180a:	eb d2                	jmp    4017de <___cpu_features_init+0xae>
  40180c:	90                   	nop
  40180d:	90                   	nop
  40180e:	90                   	nop
  40180f:	90                   	nop

00401810 <__fpreset>:
  401810:	db e3                	fninit 
  401812:	c3                   	ret    
  401813:	90                   	nop
  401814:	90                   	nop
  401815:	90                   	nop
  401816:	90                   	nop
  401817:	90                   	nop
  401818:	90                   	nop
  401819:	90                   	nop
  40181a:	90                   	nop
  40181b:	90                   	nop
  40181c:	90                   	nop
  40181d:	90                   	nop
  40181e:	90                   	nop
  40181f:	90                   	nop

00401820 <___do_global_dtors>:
  401820:	a1 08 90 40 00       	mov    eax,ds:0x409008
  401825:	8b 00                	mov    eax,DWORD PTR [eax]
  401827:	85 c0                	test   eax,eax
  401829:	74 1f                	je     40184a <___do_global_dtors+0x2a>
  40182b:	83 ec 0c             	sub    esp,0xc
  40182e:	66 90                	xchg   ax,ax
  401830:	ff d0                	call   eax
  401832:	a1 08 90 40 00       	mov    eax,ds:0x409008
  401837:	8d 50 04             	lea    edx,[eax+0x4]
  40183a:	8b 40 04             	mov    eax,DWORD PTR [eax+0x4]
  40183d:	89 15 08 90 40 00    	mov    DWORD PTR ds:0x409008,edx
  401843:	85 c0                	test   eax,eax
  401845:	75 e9                	jne    401830 <___do_global_dtors+0x10>
  401847:	83 c4 0c             	add    esp,0xc
  40184a:	f3 c3                	repz ret 
  40184c:	8d 74 26 00          	lea    esi,[esi+eiz*1+0x0]

00401850 <___do_global_ctors>:
  401850:	53                   	push   ebx
  401851:	83 ec 18             	sub    esp,0x18
  401854:	8b 1d 40 83 40 00    	mov    ebx,DWORD PTR ds:0x408340
  40185a:	83 fb ff             	cmp    ebx,0xffffffff
  40185d:	74 24                	je     401883 <___do_global_ctors+0x33>
  40185f:	85 db                	test   ebx,ebx
  401861:	74 0f                	je     401872 <___do_global_ctors+0x22>
  401863:	ff 14 9d 40 83 40 00 	call   DWORD PTR [ebx*4+0x408340]
  40186a:	83 eb 01             	sub    ebx,0x1
  40186d:	8d 76 00             	lea    esi,[esi+0x0]
  401870:	75 f1                	jne    401863 <___do_global_ctors+0x13>
  401872:	c7 04 24 20 18 40 00 	mov    DWORD PTR [esp],0x401820
  401879:	e8 62 fa ff ff       	call   4012e0 <_atexit>
  40187e:	83 c4 18             	add    esp,0x18
  401881:	5b                   	pop    ebx
  401882:	c3                   	ret    
  401883:	31 db                	xor    ebx,ebx
  401885:	eb 02                	jmp    401889 <___do_global_ctors+0x39>
  401887:	89 c3                	mov    ebx,eax
  401889:	8d 43 01             	lea    eax,[ebx+0x1]
  40188c:	8b 14 85 40 83 40 00 	mov    edx,DWORD PTR [eax*4+0x408340]
  401893:	85 d2                	test   edx,edx
  401895:	75 f0                	jne    401887 <___do_global_ctors+0x37>
  401897:	eb c6                	jmp    40185f <___do_global_ctors+0xf>
  401899:	8d b4 26 00 00 00 00 	lea    esi,[esi+eiz*1+0x0]

004018a0 <___main>:
  4018a0:	8b 0d 28 d0 40 00    	mov    ecx,DWORD PTR ds:0x40d028
  4018a6:	85 c9                	test   ecx,ecx
  4018a8:	74 06                	je     4018b0 <___main+0x10>
  4018aa:	f3 c3                	repz ret 
  4018ac:	8d 74 26 00          	lea    esi,[esi+eiz*1+0x0]
  4018b0:	c7 05 28 d0 40 00 01 	mov    DWORD PTR ds:0x40d028,0x1
  4018b7:	00 00 00 
  4018ba:	eb 94                	jmp    401850 <___do_global_ctors>
  4018bc:	90                   	nop
  4018bd:	90                   	nop
  4018be:	90                   	nop
  4018bf:	90                   	nop

004018c0 <___dyn_tls_dtor@12>:
  4018c0:	83 ec 1c             	sub    esp,0x1c
  4018c3:	8b 44 24 24          	mov    eax,DWORD PTR [esp+0x24]
  4018c7:	85 c0                	test   eax,eax
  4018c9:	74 15                	je     4018e0 <___dyn_tls_dtor@12+0x20>
  4018cb:	83 f8 03             	cmp    eax,0x3
  4018ce:	74 10                	je     4018e0 <___dyn_tls_dtor@12+0x20>
  4018d0:	b8 01 00 00 00       	mov    eax,0x1
  4018d5:	83 c4 1c             	add    esp,0x1c
  4018d8:	c2 0c 00             	ret    0xc
  4018db:	90                   	nop
  4018dc:	8d 74 26 00          	lea    esi,[esi+eiz*1+0x0]
  4018e0:	8b 54 24 28          	mov    edx,DWORD PTR [esp+0x28]
  4018e4:	89 44 24 04          	mov    DWORD PTR [esp+0x4],eax
  4018e8:	8b 44 24 20          	mov    eax,DWORD PTR [esp+0x20]
  4018ec:	89 54 24 08          	mov    DWORD PTR [esp+0x8],edx
  4018f0:	89 04 24             	mov    DWORD PTR [esp],eax
  4018f3:	e8 58 02 00 00       	call   401b50 <___mingw_TLScallback>
  4018f8:	b8 01 00 00 00       	mov    eax,0x1
  4018fd:	83 c4 1c             	add    esp,0x1c
  401900:	c2 0c 00             	ret    0xc
  401903:	8d b6 00 00 00 00    	lea    esi,[esi+0x0]
  401909:	8d bc 27 00 00 00 00 	lea    edi,[edi+eiz*1+0x0]

00401910 <___dyn_tls_init@12>:
  401910:	56                   	push   esi
  401911:	53                   	push   ebx
  401912:	83 ec 14             	sub    esp,0x14
  401915:	83 3d 64 d0 40 00 02 	cmp    DWORD PTR ds:0x40d064,0x2
  40191c:	8b 44 24 24          	mov    eax,DWORD PTR [esp+0x24]
  401920:	74 0a                	je     40192c <___dyn_tls_init@12+0x1c>
  401922:	c7 05 64 d0 40 00 02 	mov    DWORD PTR ds:0x40d064,0x2
  401929:	00 00 00 
  40192c:	83 f8 02             	cmp    eax,0x2
  40192f:	74 12                	je     401943 <___dyn_tls_init@12+0x33>
  401931:	83 f8 01             	cmp    eax,0x1
  401934:	74 42                	je     401978 <___dyn_tls_init@12+0x68>
  401936:	83 c4 14             	add    esp,0x14
  401939:	b8 01 00 00 00       	mov    eax,0x1
  40193e:	5b                   	pop    ebx
  40193f:	5e                   	pop    esi
  401940:	c2 0c 00             	ret    0xc
  401943:	be 14 f0 40 00       	mov    esi,0x40f014
  401948:	81 ee 14 f0 40 00    	sub    esi,0x40f014
  40194e:	c1 fe 02             	sar    esi,0x2
  401951:	85 f6                	test   esi,esi
  401953:	7e e1                	jle    401936 <___dyn_tls_init@12+0x26>
  401955:	31 db                	xor    ebx,ebx
  401957:	8b 04 9d 14 f0 40 00 	mov    eax,DWORD PTR [ebx*4+0x40f014]
  40195e:	85 c0                	test   eax,eax
  401960:	74 02                	je     401964 <___dyn_tls_init@12+0x54>
  401962:	ff d0                	call   eax
  401964:	83 c3 01             	add    ebx,0x1
  401967:	39 f3                	cmp    ebx,esi
  401969:	75 ec                	jne    401957 <___dyn_tls_init@12+0x47>
  40196b:	83 c4 14             	add    esp,0x14
  40196e:	b8 01 00 00 00       	mov    eax,0x1
  401973:	5b                   	pop    ebx
  401974:	5e                   	pop    esi
  401975:	c2 0c 00             	ret    0xc
  401978:	8b 44 24 28          	mov    eax,DWORD PTR [esp+0x28]
  40197c:	c7 44 24 04 01 00 00 	mov    DWORD PTR [esp+0x4],0x1
  401983:	00 
  401984:	89 44 24 08          	mov    DWORD PTR [esp+0x8],eax
  401988:	8b 44 24 20          	mov    eax,DWORD PTR [esp+0x20]
  40198c:	89 04 24             	mov    DWORD PTR [esp],eax
  40198f:	e8 bc 01 00 00       	call   401b50 <___mingw_TLScallback>
  401994:	eb a0                	jmp    401936 <___dyn_tls_init@12+0x26>
  401996:	8d 76 00             	lea    esi,[esi+0x0]
  401999:	8d bc 27 00 00 00 00 	lea    edi,[edi+eiz*1+0x0]

004019a0 <___tlregdtor>:
  4019a0:	31 c0                	xor    eax,eax
  4019a2:	c3                   	ret    
  4019a3:	90                   	nop
  4019a4:	90                   	nop
  4019a5:	90                   	nop
  4019a6:	90                   	nop
  4019a7:	90                   	nop
  4019a8:	90                   	nop
  4019a9:	90                   	nop
  4019aa:	90                   	nop
  4019ab:	90                   	nop
  4019ac:	90                   	nop
  4019ad:	90                   	nop
  4019ae:	90                   	nop
  4019af:	90                   	nop

004019b0 <___mingwthr_run_key_dtors.part.0>:
  4019b0:	55                   	push   ebp
  4019b1:	89 e5                	mov    ebp,esp
  4019b3:	56                   	push   esi
  4019b4:	53                   	push   ebx
  4019b5:	83 ec 10             	sub    esp,0x10
  4019b8:	c7 04 24 44 d0 40 00 	mov    DWORD PTR [esp],0x40d044
  4019bf:	e8 d4 66 00 00       	call   408098 <_EnterCriticalSection@4>
  4019c4:	8b 1d 3c d0 40 00    	mov    ebx,DWORD PTR ds:0x40d03c
  4019ca:	83 ec 04             	sub    esp,0x4
  4019cd:	85 db                	test   ebx,ebx
  4019cf:	74 2b                	je     4019fc <___mingwthr_run_key_dtors.part.0+0x4c>
  4019d1:	8b 03                	mov    eax,DWORD PTR [ebx]
  4019d3:	89 04 24             	mov    DWORD PTR [esp],eax
  4019d6:	e8 3d 66 00 00       	call   408018 <_TlsGetValue@4>
  4019db:	83 ec 04             	sub    esp,0x4
  4019de:	89 c6                	mov    esi,eax
  4019e0:	e8 83 66 00 00       	call   408068 <_GetLastError@0>
  4019e5:	85 c0                	test   eax,eax
  4019e7:	75 0c                	jne    4019f5 <___mingwthr_run_key_dtors.part.0+0x45>
  4019e9:	85 f6                	test   esi,esi
  4019eb:	74 08                	je     4019f5 <___mingwthr_run_key_dtors.part.0+0x45>
  4019ed:	8b 43 04             	mov    eax,DWORD PTR [ebx+0x4]
  4019f0:	89 34 24             	mov    DWORD PTR [esp],esi
  4019f3:	ff d0                	call   eax
  4019f5:	8b 5b 08             	mov    ebx,DWORD PTR [ebx+0x8]
  4019f8:	85 db                	test   ebx,ebx
  4019fa:	75 d5                	jne    4019d1 <___mingwthr_run_key_dtors.part.0+0x21>
  4019fc:	c7 04 24 44 d0 40 00 	mov    DWORD PTR [esp],0x40d044
  401a03:	e8 30 66 00 00       	call   408038 <_LeaveCriticalSection@4>
  401a08:	83 ec 04             	sub    esp,0x4
  401a0b:	8d 65 f8             	lea    esp,[ebp-0x8]
  401a0e:	5b                   	pop    ebx
  401a0f:	5e                   	pop    esi
  401a10:	5d                   	pop    ebp
  401a11:	c3                   	ret    
  401a12:	8d b4 26 00 00 00 00 	lea    esi,[esi+eiz*1+0x0]
  401a19:	8d bc 27 00 00 00 00 	lea    edi,[edi+eiz*1+0x0]

00401a20 <____w64_mingwthr_add_key_dtor>:
  401a20:	55                   	push   ebp
  401a21:	89 e5                	mov    ebp,esp
  401a23:	56                   	push   esi
  401a24:	31 f6                	xor    esi,esi
  401a26:	53                   	push   ebx
  401a27:	83 ec 10             	sub    esp,0x10
  401a2a:	a1 40 d0 40 00       	mov    eax,ds:0x40d040
  401a2f:	85 c0                	test   eax,eax
  401a31:	75 0d                	jne    401a40 <____w64_mingwthr_add_key_dtor+0x20>
  401a33:	8d 65 f8             	lea    esp,[ebp-0x8]
  401a36:	89 f0                	mov    eax,esi
  401a38:	5b                   	pop    ebx
  401a39:	5e                   	pop    esi
  401a3a:	5d                   	pop    ebp
  401a3b:	c3                   	ret    
  401a3c:	8d 74 26 00          	lea    esi,[esi+eiz*1+0x0]
  401a40:	c7 44 24 04 0c 00 00 	mov    DWORD PTR [esp+0x4],0xc
  401a47:	00 
  401a48:	c7 04 24 01 00 00 00 	mov    DWORD PTR [esp],0x1
  401a4f:	e8 5c 65 00 00       	call   407fb0 <_calloc>
  401a54:	85 c0                	test   eax,eax
  401a56:	89 c3                	mov    ebx,eax
  401a58:	74 40                	je     401a9a <____w64_mingwthr_add_key_dtor+0x7a>
  401a5a:	8b 45 08             	mov    eax,DWORD PTR [ebp+0x8]
  401a5d:	c7 04 24 44 d0 40 00 	mov    DWORD PTR [esp],0x40d044
  401a64:	89 03                	mov    DWORD PTR [ebx],eax
  401a66:	8b 45 0c             	mov    eax,DWORD PTR [ebp+0xc]
  401a69:	89 43 04             	mov    DWORD PTR [ebx+0x4],eax
  401a6c:	e8 27 66 00 00       	call   408098 <_EnterCriticalSection@4>
  401a71:	a1 3c d0 40 00       	mov    eax,ds:0x40d03c
  401a76:	89 1d 3c d0 40 00    	mov    DWORD PTR ds:0x40d03c,ebx
  401a7c:	89 43 08             	mov    DWORD PTR [ebx+0x8],eax
  401a7f:	83 ec 04             	sub    esp,0x4
  401a82:	c7 04 24 44 d0 40 00 	mov    DWORD PTR [esp],0x40d044
  401a89:	e8 aa 65 00 00       	call   408038 <_LeaveCriticalSection@4>
  401a8e:	89 f0                	mov    eax,esi
  401a90:	83 ec 04             	sub    esp,0x4
  401a93:	8d 65 f8             	lea    esp,[ebp-0x8]
  401a96:	5b                   	pop    ebx
  401a97:	5e                   	pop    esi
  401a98:	5d                   	pop    ebp
  401a99:	c3                   	ret    
  401a9a:	be ff ff ff ff       	mov    esi,0xffffffff
  401a9f:	eb 92                	jmp    401a33 <____w64_mingwthr_add_key_dtor+0x13>
  401aa1:	eb 0d                	jmp    401ab0 <____w64_mingwthr_remove_key_dtor>
  401aa3:	90                   	nop
  401aa4:	90                   	nop
  401aa5:	90                   	nop
  401aa6:	90                   	nop
  401aa7:	90                   	nop
  401aa8:	90                   	nop
  401aa9:	90                   	nop
  401aaa:	90                   	nop
  401aab:	90                   	nop
  401aac:	90                   	nop
  401aad:	90                   	nop
  401aae:	90                   	nop
  401aaf:	90                   	nop

00401ab0 <____w64_mingwthr_remove_key_dtor>:
  401ab0:	55                   	push   ebp
  401ab1:	89 e5                	mov    ebp,esp
  401ab3:	53                   	push   ebx
  401ab4:	83 ec 14             	sub    esp,0x14
  401ab7:	a1 40 d0 40 00       	mov    eax,ds:0x40d040
  401abc:	8b 5d 08             	mov    ebx,DWORD PTR [ebp+0x8]
  401abf:	85 c0                	test   eax,eax
  401ac1:	75 0d                	jne    401ad0 <____w64_mingwthr_remove_key_dtor+0x20>
  401ac3:	31 c0                	xor    eax,eax
  401ac5:	8b 5d fc             	mov    ebx,DWORD PTR [ebp-0x4]
  401ac8:	c9                   	leave  
  401ac9:	c3                   	ret    
  401aca:	8d b6 00 00 00 00    	lea    esi,[esi+0x0]
  401ad0:	c7 04 24 44 d0 40 00 	mov    DWORD PTR [esp],0x40d044
  401ad7:	e8 bc 65 00 00       	call   408098 <_EnterCriticalSection@4>
  401adc:	8b 15 3c d0 40 00    	mov    edx,DWORD PTR ds:0x40d03c
  401ae2:	83 ec 04             	sub    esp,0x4
  401ae5:	85 d2                	test   edx,edx
  401ae7:	74 17                	je     401b00 <____w64_mingwthr_remove_key_dtor+0x50>
  401ae9:	8b 02                	mov    eax,DWORD PTR [edx]
  401aeb:	39 d8                	cmp    eax,ebx
  401aed:	75 0a                	jne    401af9 <____w64_mingwthr_remove_key_dtor+0x49>
  401aef:	eb 44                	jmp    401b35 <____w64_mingwthr_remove_key_dtor+0x85>
  401af1:	8b 08                	mov    ecx,DWORD PTR [eax]
  401af3:	39 d9                	cmp    ecx,ebx
  401af5:	74 1f                	je     401b16 <____w64_mingwthr_remove_key_dtor+0x66>
  401af7:	89 c2                	mov    edx,eax
  401af9:	8b 42 08             	mov    eax,DWORD PTR [edx+0x8]
  401afc:	85 c0                	test   eax,eax
  401afe:	75 f1                	jne    401af1 <____w64_mingwthr_remove_key_dtor+0x41>
  401b00:	c7 04 24 44 d0 40 00 	mov    DWORD PTR [esp],0x40d044
  401b07:	e8 2c 65 00 00       	call   408038 <_LeaveCriticalSection@4>
  401b0c:	83 ec 04             	sub    esp,0x4
  401b0f:	31 c0                	xor    eax,eax
  401b11:	8b 5d fc             	mov    ebx,DWORD PTR [ebp-0x4]
  401b14:	c9                   	leave  
  401b15:	c3                   	ret    
  401b16:	8b 48 08             	mov    ecx,DWORD PTR [eax+0x8]
  401b19:	89 4a 08             	mov    DWORD PTR [edx+0x8],ecx
  401b1c:	89 04 24             	mov    DWORD PTR [esp],eax
  401b1f:	e8 7c 64 00 00       	call   407fa0 <_free>
  401b24:	c7 04 24 44 d0 40 00 	mov    DWORD PTR [esp],0x40d044
  401b2b:	e8 08 65 00 00       	call   408038 <_LeaveCriticalSection@4>
  401b30:	83 ec 04             	sub    esp,0x4
  401b33:	eb da                	jmp    401b0f <____w64_mingwthr_remove_key_dtor+0x5f>
  401b35:	8b 42 08             	mov    eax,DWORD PTR [edx+0x8]
  401b38:	a3 3c d0 40 00       	mov    ds:0x40d03c,eax
  401b3d:	89 d0                	mov    eax,edx
  401b3f:	eb db                	jmp    401b1c <____w64_mingwthr_remove_key_dtor+0x6c>
  401b41:	eb 0d                	jmp    401b50 <___mingw_TLScallback>
  401b43:	90                   	nop
  401b44:	90                   	nop
  401b45:	90                   	nop
  401b46:	90                   	nop
  401b47:	90                   	nop
  401b48:	90                   	nop
  401b49:	90                   	nop
  401b4a:	90                   	nop
  401b4b:	90                   	nop
  401b4c:	90                   	nop
  401b4d:	90                   	nop
  401b4e:	90                   	nop
  401b4f:	90                   	nop

00401b50 <___mingw_TLScallback>:
  401b50:	55                   	push   ebp
  401b51:	89 e5                	mov    ebp,esp
  401b53:	83 ec 18             	sub    esp,0x18
  401b56:	8b 45 0c             	mov    eax,DWORD PTR [ebp+0xc]
  401b59:	83 f8 01             	cmp    eax,0x1
  401b5c:	74 45                	je     401ba3 <___mingw_TLScallback+0x53>
  401b5e:	72 15                	jb     401b75 <___mingw_TLScallback+0x25>
  401b60:	83 f8 03             	cmp    eax,0x3
  401b63:	75 09                	jne    401b6e <___mingw_TLScallback+0x1e>
  401b65:	a1 40 d0 40 00       	mov    eax,ds:0x40d040
  401b6a:	85 c0                	test   eax,eax
  401b6c:	75 63                	jne    401bd1 <___mingw_TLScallback+0x81>
  401b6e:	b8 01 00 00 00       	mov    eax,0x1
  401b73:	c9                   	leave  
  401b74:	c3                   	ret    
  401b75:	a1 40 d0 40 00       	mov    eax,ds:0x40d040
  401b7a:	85 c0                	test   eax,eax
  401b7c:	75 5a                	jne    401bd8 <___mingw_TLScallback+0x88>
  401b7e:	a1 40 d0 40 00       	mov    eax,ds:0x40d040
  401b83:	83 f8 01             	cmp    eax,0x1
  401b86:	75 e6                	jne    401b6e <___mingw_TLScallback+0x1e>
  401b88:	c7 04 24 44 d0 40 00 	mov    DWORD PTR [esp],0x40d044
  401b8f:	c7 05 40 d0 40 00 00 	mov    DWORD PTR ds:0x40d040,0x0
  401b96:	00 00 00 
  401b99:	e8 02 65 00 00       	call   4080a0 <_DeleteCriticalSection@4>
  401b9e:	83 ec 04             	sub    esp,0x4
  401ba1:	eb cb                	jmp    401b6e <___mingw_TLScallback+0x1e>
  401ba3:	a1 40 d0 40 00       	mov    eax,ds:0x40d040
  401ba8:	85 c0                	test   eax,eax
  401baa:	74 14                	je     401bc0 <___mingw_TLScallback+0x70>
  401bac:	c7 05 40 d0 40 00 01 	mov    DWORD PTR ds:0x40d040,0x1
  401bb3:	00 00 00 
  401bb6:	b8 01 00 00 00       	mov    eax,0x1
  401bbb:	c9                   	leave  
  401bbc:	c3                   	ret    
  401bbd:	8d 76 00             	lea    esi,[esi+0x0]
  401bc0:	c7 04 24 44 d0 40 00 	mov    DWORD PTR [esp],0x40d044
  401bc7:	e8 84 64 00 00       	call   408050 <_InitializeCriticalSection@4>
  401bcc:	83 ec 04             	sub    esp,0x4
  401bcf:	eb db                	jmp    401bac <___mingw_TLScallback+0x5c>
  401bd1:	e8 da fd ff ff       	call   4019b0 <___mingwthr_run_key_dtors.part.0>
  401bd6:	eb 96                	jmp    401b6e <___mingw_TLScallback+0x1e>
  401bd8:	90                   	nop
  401bd9:	8d b4 26 00 00 00 00 	lea    esi,[esi+eiz*1+0x0]
  401be0:	e8 cb fd ff ff       	call   4019b0 <___mingwthr_run_key_dtors.part.0>
  401be5:	eb 97                	jmp    401b7e <___mingw_TLScallback+0x2e>
  401be7:	90                   	nop
  401be8:	90                   	nop
  401be9:	90                   	nop
  401bea:	90                   	nop
  401beb:	90                   	nop
  401bec:	90                   	nop
  401bed:	90                   	nop
  401bee:	90                   	nop
  401bef:	90                   	nop

00401bf0 <___report_error>:
  401bf0:	56                   	push   esi
  401bf1:	53                   	push   ebx
  401bf2:	83 ec 14             	sub    esp,0x14
  401bf5:	a1 c8 e1 40 00       	mov    eax,ds:0x40e1c8
  401bfa:	c7 44 24 08 17 00 00 	mov    DWORD PTR [esp+0x8],0x17
  401c01:	00 
  401c02:	8d 74 24 24          	lea    esi,[esp+0x24]
  401c06:	c7 44 24 04 01 00 00 	mov    DWORD PTR [esp+0x4],0x1
  401c0d:	00 
  401c0e:	c7 04 24 74 a0 40 00 	mov    DWORD PTR [esp],0x40a074
  401c15:	8d 58 40             	lea    ebx,[eax+0x40]
  401c18:	89 5c 24 0c          	mov    DWORD PTR [esp+0xc],ebx
  401c1c:	e8 77 63 00 00       	call   407f98 <_fwrite>
  401c21:	8b 44 24 20          	mov    eax,DWORD PTR [esp+0x20]
  401c25:	89 74 24 08          	mov    DWORD PTR [esp+0x8],esi
  401c29:	89 1c 24             	mov    DWORD PTR [esp],ebx
  401c2c:	89 44 24 04          	mov    DWORD PTR [esp+0x4],eax
  401c30:	e8 eb 62 00 00       	call   407f20 <_vfprintf>
  401c35:	e8 86 63 00 00       	call   407fc0 <_abort>
  401c3a:	8d b6 00 00 00 00    	lea    esi,[esi+0x0]

00401c40 <___write_memory.part.0>:
  401c40:	55                   	push   ebp
  401c41:	89 e5                	mov    ebp,esp
  401c43:	57                   	push   edi
  401c44:	89 cf                	mov    edi,ecx
  401c46:	56                   	push   esi
  401c47:	89 d6                	mov    esi,edx
  401c49:	53                   	push   ebx
  401c4a:	89 c3                	mov    ebx,eax
  401c4c:	83 ec 4c             	sub    esp,0x4c
  401c4f:	8d 45 cc             	lea    eax,[ebp-0x34]
  401c52:	c7 44 24 08 1c 00 00 	mov    DWORD PTR [esp+0x8],0x1c
  401c59:	00 
  401c5a:	89 44 24 04          	mov    DWORD PTR [esp+0x4],eax
  401c5e:	89 1c 24             	mov    DWORD PTR [esp],ebx
  401c61:	e8 a2 63 00 00       	call   408008 <_VirtualQuery@12>
  401c66:	83 ec 0c             	sub    esp,0xc
  401c69:	85 c0                	test   eax,eax
  401c6b:	0f 84 9a 00 00 00    	je     401d0b <___write_memory.part.0+0xcb>
  401c71:	8b 45 e0             	mov    eax,DWORD PTR [ebp-0x20]
  401c74:	83 f8 04             	cmp    eax,0x4
  401c77:	75 18                	jne    401c91 <___write_memory.part.0+0x51>
  401c79:	89 7c 24 08          	mov    DWORD PTR [esp+0x8],edi
  401c7d:	89 74 24 04          	mov    DWORD PTR [esp+0x4],esi
  401c81:	89 1c 24             	mov    DWORD PTR [esp],ebx
  401c84:	e8 df 62 00 00       	call   407f68 <_memcpy>
  401c89:	8d 65 f4             	lea    esp,[ebp-0xc]
  401c8c:	5b                   	pop    ebx
  401c8d:	5e                   	pop    esi
  401c8e:	5f                   	pop    edi
  401c8f:	5d                   	pop    ebp
  401c90:	c3                   	ret    
  401c91:	83 f8 40             	cmp    eax,0x40
  401c94:	74 e3                	je     401c79 <___write_memory.part.0+0x39>
  401c96:	8b 45 d8             	mov    eax,DWORD PTR [ebp-0x28]
  401c99:	8d 55 c8             	lea    edx,[ebp-0x38]
  401c9c:	89 54 24 0c          	mov    DWORD PTR [esp+0xc],edx
  401ca0:	c7 44 24 08 40 00 00 	mov    DWORD PTR [esp+0x8],0x40
  401ca7:	00 
  401ca8:	89 55 c4             	mov    DWORD PTR [ebp-0x3c],edx
  401cab:	89 44 24 04          	mov    DWORD PTR [esp+0x4],eax
  401caf:	8b 45 cc             	mov    eax,DWORD PTR [ebp-0x34]
  401cb2:	89 04 24             	mov    DWORD PTR [esp],eax
  401cb5:	e8 56 63 00 00       	call   408010 <_VirtualProtect@16>
  401cba:	8b 4d e0             	mov    ecx,DWORD PTR [ebp-0x20]
  401cbd:	89 4d c0             	mov    DWORD PTR [ebp-0x40],ecx
  401cc0:	83 ec 10             	sub    esp,0x10
  401cc3:	89 7c 24 08          	mov    DWORD PTR [esp+0x8],edi
  401cc7:	89 74 24 04          	mov    DWORD PTR [esp+0x4],esi
  401ccb:	89 1c 24             	mov    DWORD PTR [esp],ebx
  401cce:	e8 95 62 00 00       	call   407f68 <_memcpy>
  401cd3:	8b 4d c0             	mov    ecx,DWORD PTR [ebp-0x40]
  401cd6:	83 f9 04             	cmp    ecx,0x4
  401cd9:	74 ae                	je     401c89 <___write_memory.part.0+0x49>
  401cdb:	83 f9 40             	cmp    ecx,0x40
  401cde:	74 a9                	je     401c89 <___write_memory.part.0+0x49>
  401ce0:	8b 45 c8             	mov    eax,DWORD PTR [ebp-0x38]
  401ce3:	8b 55 c4             	mov    edx,DWORD PTR [ebp-0x3c]
  401ce6:	89 44 24 08          	mov    DWORD PTR [esp+0x8],eax
  401cea:	8b 45 d8             	mov    eax,DWORD PTR [ebp-0x28]
  401ced:	89 54 24 0c          	mov    DWORD PTR [esp+0xc],edx
  401cf1:	89 44 24 04          	mov    DWORD PTR [esp+0x4],eax
  401cf5:	8b 45 cc             	mov    eax,DWORD PTR [ebp-0x34]
  401cf8:	89 04 24             	mov    DWORD PTR [esp],eax
  401cfb:	e8 10 63 00 00       	call   408010 <_VirtualProtect@16>
  401d00:	83 ec 10             	sub    esp,0x10
  401d03:	8d 65 f4             	lea    esp,[ebp-0xc]
  401d06:	5b                   	pop    ebx
  401d07:	5e                   	pop    esi
  401d08:	5f                   	pop    edi
  401d09:	5d                   	pop    ebp
  401d0a:	c3                   	ret    
  401d0b:	89 5c 24 08          	mov    DWORD PTR [esp+0x8],ebx
  401d0f:	c7 44 24 04 1c 00 00 	mov    DWORD PTR [esp+0x4],0x1c
  401d16:	00 
  401d17:	c7 04 24 8c a0 40 00 	mov    DWORD PTR [esp],0x40a08c
  401d1e:	e8 cd fe ff ff       	call   401bf0 <___report_error>
  401d23:	8d b6 00 00 00 00    	lea    esi,[esi+0x0]
  401d29:	8d bc 27 00 00 00 00 	lea    edi,[edi+eiz*1+0x0]

00401d30 <__pei386_runtime_relocator>:
  401d30:	a1 5c d0 40 00       	mov    eax,ds:0x40d05c
  401d35:	85 c0                	test   eax,eax
  401d37:	74 07                	je     401d40 <__pei386_runtime_relocator+0x10>
  401d39:	c3                   	ret    
  401d3a:	8d b6 00 00 00 00    	lea    esi,[esi+0x0]
  401d40:	b8 40 a7 40 00       	mov    eax,0x40a740
  401d45:	2d 40 a7 40 00       	sub    eax,0x40a740
  401d4a:	83 f8 07             	cmp    eax,0x7
  401d4d:	c7 05 5c d0 40 00 01 	mov    DWORD PTR ds:0x40d05c,0x1
  401d54:	00 00 00 
  401d57:	7e e0                	jle    401d39 <__pei386_runtime_relocator+0x9>
  401d59:	57                   	push   edi
  401d5a:	56                   	push   esi
  401d5b:	53                   	push   ebx
  401d5c:	83 ec 20             	sub    esp,0x20
  401d5f:	83 f8 0b             	cmp    eax,0xb
  401d62:	0f 8e de 00 00 00    	jle    401e46 <__pei386_runtime_relocator+0x116>
  401d68:	8b 35 40 a7 40 00    	mov    esi,DWORD PTR ds:0x40a740
  401d6e:	85 f6                	test   esi,esi
  401d70:	0f 85 8a 00 00 00    	jne    401e00 <__pei386_runtime_relocator+0xd0>
  401d76:	8b 1d 44 a7 40 00    	mov    ebx,DWORD PTR ds:0x40a744
  401d7c:	85 db                	test   ebx,ebx
  401d7e:	0f 85 7c 00 00 00    	jne    401e00 <__pei386_runtime_relocator+0xd0>
  401d84:	8b 0d 48 a7 40 00    	mov    ecx,DWORD PTR ds:0x40a748
  401d8a:	bb 4c a7 40 00       	mov    ebx,0x40a74c
  401d8f:	85 c9                	test   ecx,ecx
  401d91:	0f 84 b4 00 00 00    	je     401e4b <__pei386_runtime_relocator+0x11b>
  401d97:	bb 40 a7 40 00       	mov    ebx,0x40a740
  401d9c:	8b 43 08             	mov    eax,DWORD PTR [ebx+0x8]
  401d9f:	83 f8 01             	cmp    eax,0x1
  401da2:	0f 85 49 01 00 00    	jne    401ef1 <__pei386_runtime_relocator+0x1c1>
  401da8:	83 c3 0c             	add    ebx,0xc
  401dab:	81 fb 40 a7 40 00    	cmp    ebx,0x40a740
  401db1:	0f 83 88 00 00 00    	jae    401e3f <__pei386_runtime_relocator+0x10f>
  401db7:	0f b6 53 08          	movzx  edx,BYTE PTR [ebx+0x8]
  401dbb:	8b 73 04             	mov    esi,DWORD PTR [ebx+0x4]
  401dbe:	8b 0b                	mov    ecx,DWORD PTR [ebx]
  401dc0:	83 fa 10             	cmp    edx,0x10
  401dc3:	8d 86 00 00 40 00    	lea    eax,[esi+0x400000]
  401dc9:	8b b9 00 00 40 00    	mov    edi,DWORD PTR [ecx+0x400000]
  401dcf:	0f 84 8b 00 00 00    	je     401e60 <__pei386_runtime_relocator+0x130>
  401dd5:	83 fa 20             	cmp    edx,0x20
  401dd8:	0f 84 f2 00 00 00    	je     401ed0 <__pei386_runtime_relocator+0x1a0>
  401dde:	83 fa 08             	cmp    edx,0x8
  401de1:	0f 84 af 00 00 00    	je     401e96 <__pei386_runtime_relocator+0x166>
  401de7:	89 54 24 04          	mov    DWORD PTR [esp+0x4],edx
  401deb:	c7 04 24 f4 a0 40 00 	mov    DWORD PTR [esp],0x40a0f4
  401df2:	c7 44 24 1c 00 00 00 	mov    DWORD PTR [esp+0x1c],0x0
  401df9:	00 
  401dfa:	e8 f1 fd ff ff       	call   401bf0 <___report_error>
  401dff:	90                   	nop
  401e00:	bb 40 a7 40 00       	mov    ebx,0x40a740
  401e05:	81 fb 40 a7 40 00    	cmp    ebx,0x40a740
  401e0b:	73 32                	jae    401e3f <__pei386_runtime_relocator+0x10f>
  401e0d:	8d 76 00             	lea    esi,[esi+0x0]
  401e10:	8b 53 04             	mov    edx,DWORD PTR [ebx+0x4]
  401e13:	b9 04 00 00 00       	mov    ecx,0x4
  401e18:	83 c3 08             	add    ebx,0x8
  401e1b:	8d 82 00 00 40 00    	lea    eax,[edx+0x400000]
  401e21:	8b 92 00 00 40 00    	mov    edx,DWORD PTR [edx+0x400000]
  401e27:	03 53 f8             	add    edx,DWORD PTR [ebx-0x8]
  401e2a:	89 54 24 1c          	mov    DWORD PTR [esp+0x1c],edx
  401e2e:	8d 54 24 1c          	lea    edx,[esp+0x1c]
  401e32:	e8 09 fe ff ff       	call   401c40 <___write_memory.part.0>
  401e37:	81 fb 40 a7 40 00    	cmp    ebx,0x40a740
  401e3d:	72 d1                	jb     401e10 <__pei386_runtime_relocator+0xe0>
  401e3f:	83 c4 20             	add    esp,0x20
  401e42:	5b                   	pop    ebx
  401e43:	5e                   	pop    esi
  401e44:	5f                   	pop    edi
  401e45:	c3                   	ret    
  401e46:	bb 40 a7 40 00       	mov    ebx,0x40a740
  401e4b:	8b 13                	mov    edx,DWORD PTR [ebx]
  401e4d:	85 d2                	test   edx,edx
  401e4f:	75 b4                	jne    401e05 <__pei386_runtime_relocator+0xd5>
  401e51:	8b 43 04             	mov    eax,DWORD PTR [ebx+0x4]
  401e54:	85 c0                	test   eax,eax
  401e56:	0f 84 40 ff ff ff    	je     401d9c <__pei386_runtime_relocator+0x6c>
  401e5c:	eb a7                	jmp    401e05 <__pei386_runtime_relocator+0xd5>
  401e5e:	66 90                	xchg   ax,ax
  401e60:	0f b7 b6 00 00 40 00 	movzx  esi,WORD PTR [esi+0x400000]
  401e67:	66 85 f6             	test   si,si
  401e6a:	0f b7 d6             	movzx  edx,si
  401e6d:	79 06                	jns    401e75 <__pei386_runtime_relocator+0x145>
  401e6f:	81 ca 00 00 ff ff    	or     edx,0xffff0000
  401e75:	29 ca                	sub    edx,ecx
  401e77:	b9 02 00 00 00       	mov    ecx,0x2
  401e7c:	81 ea 00 00 40 00    	sub    edx,0x400000
  401e82:	01 fa                	add    edx,edi
  401e84:	89 54 24 1c          	mov    DWORD PTR [esp+0x1c],edx
  401e88:	8d 54 24 1c          	lea    edx,[esp+0x1c]
  401e8c:	e8 af fd ff ff       	call   401c40 <___write_memory.part.0>
  401e91:	e9 12 ff ff ff       	jmp    401da8 <__pei386_runtime_relocator+0x78>
  401e96:	0f b6 10             	movzx  edx,BYTE PTR [eax]
  401e99:	84 d2                	test   dl,dl
  401e9b:	0f b6 f2             	movzx  esi,dl
  401e9e:	79 06                	jns    401ea6 <__pei386_runtime_relocator+0x176>
  401ea0:	81 ce 00 ff ff ff    	or     esi,0xffffff00
  401ea6:	81 ee 00 00 40 00    	sub    esi,0x400000
  401eac:	89 f2                	mov    edx,esi
  401eae:	29 ca                	sub    edx,ecx
  401eb0:	b9 01 00 00 00       	mov    ecx,0x1
  401eb5:	01 fa                	add    edx,edi
  401eb7:	89 54 24 1c          	mov    DWORD PTR [esp+0x1c],edx
  401ebb:	8d 54 24 1c          	lea    edx,[esp+0x1c]
  401ebf:	e8 7c fd ff ff       	call   401c40 <___write_memory.part.0>
  401ec4:	e9 df fe ff ff       	jmp    401da8 <__pei386_runtime_relocator+0x78>
  401ec9:	8d b4 26 00 00 00 00 	lea    esi,[esi+eiz*1+0x0]
  401ed0:	81 c1 00 00 40 00    	add    ecx,0x400000
  401ed6:	29 cf                	sub    edi,ecx
  401ed8:	b9 04 00 00 00       	mov    ecx,0x4
  401edd:	03 38                	add    edi,DWORD PTR [eax]
  401edf:	8d 54 24 1c          	lea    edx,[esp+0x1c]
  401ee3:	89 7c 24 1c          	mov    DWORD PTR [esp+0x1c],edi
  401ee7:	e8 54 fd ff ff       	call   401c40 <___write_memory.part.0>
  401eec:	e9 b7 fe ff ff       	jmp    401da8 <__pei386_runtime_relocator+0x78>
  401ef1:	89 44 24 04          	mov    DWORD PTR [esp+0x4],eax
  401ef5:	c7 04 24 c0 a0 40 00 	mov    DWORD PTR [esp],0x40a0c0
  401efc:	e8 ef fc ff ff       	call   401bf0 <___report_error>
  401f01:	90                   	nop
  401f02:	90                   	nop
  401f03:	90                   	nop
  401f04:	90                   	nop
  401f05:	90                   	nop
  401f06:	90                   	nop
  401f07:	90                   	nop
  401f08:	90                   	nop
  401f09:	90                   	nop
  401f0a:	90                   	nop
  401f0b:	90                   	nop
  401f0c:	90                   	nop
  401f0d:	90                   	nop
  401f0e:	90                   	nop
  401f0f:	90                   	nop

00401f10 <___chkstk_ms>:
  401f10:	51                   	push   ecx
  401f11:	50                   	push   eax
  401f12:	3d 00 10 00 00       	cmp    eax,0x1000
  401f17:	8d 4c 24 0c          	lea    ecx,[esp+0xc]
  401f1b:	72 15                	jb     401f32 <___chkstk_ms+0x22>
  401f1d:	81 e9 00 10 00 00    	sub    ecx,0x1000
  401f23:	83 09 00             	or     DWORD PTR [ecx],0x0
  401f26:	2d 00 10 00 00       	sub    eax,0x1000
  401f2b:	3d 00 10 00 00       	cmp    eax,0x1000
  401f30:	77 eb                	ja     401f1d <___chkstk_ms+0xd>
  401f32:	29 c1                	sub    ecx,eax
  401f34:	83 09 00             	or     DWORD PTR [ecx],0x0
  401f37:	58                   	pop    eax
  401f38:	59                   	pop    ecx
  401f39:	c3                   	ret    
  401f3a:	90                   	nop
  401f3b:	90                   	nop

00401f3c <.text>:
  401f3c:	66 90                	xchg   ax,ax
  401f3e:	66 90                	xchg   ax,ax

00401f40 <_is_glob_pattern>:
  401f40:	57                   	push   edi
  401f41:	85 c0                	test   eax,eax
  401f43:	56                   	push   esi
  401f44:	53                   	push   ebx
  401f45:	89 c3                	mov    ebx,eax
  401f47:	74 44                	je     401f8d <_is_glob_pattern+0x4d>
  401f49:	0f be 0b             	movsx  ecx,BYTE PTR [ebx]
  401f4c:	89 d6                	mov    esi,edx
  401f4e:	31 c0                	xor    eax,eax
  401f50:	83 e6 20             	and    esi,0x20
  401f53:	8d 53 01             	lea    edx,[ebx+0x1]
  401f56:	85 c9                	test   ecx,ecx
  401f58:	74 33                	je     401f8d <_is_glob_pattern+0x4d>
  401f5a:	8d b6 00 00 00 00    	lea    esi,[esi+0x0]
  401f60:	85 f6                	test   esi,esi
  401f62:	89 f7                	mov    edi,esi
  401f64:	75 05                	jne    401f6b <_is_glob_pattern+0x2b>
  401f66:	83 f9 7f             	cmp    ecx,0x7f
  401f69:	74 45                	je     401fb0 <_is_glob_pattern+0x70>
  401f6b:	85 c0                	test   eax,eax
  401f6d:	75 26                	jne    401f95 <_is_glob_pattern+0x55>
  401f6f:	83 f9 3f             	cmp    ecx,0x3f
  401f72:	74 51                	je     401fc5 <_is_glob_pattern+0x85>
  401f74:	83 f9 2a             	cmp    ecx,0x2a
  401f77:	74 4c                	je     401fc5 <_is_glob_pattern+0x85>
  401f79:	31 c0                	xor    eax,eax
  401f7b:	83 f9 5b             	cmp    ecx,0x5b
  401f7e:	0f 94 c0             	sete   al
  401f81:	89 d3                	mov    ebx,edx
  401f83:	0f be 0b             	movsx  ecx,BYTE PTR [ebx]
  401f86:	8d 53 01             	lea    edx,[ebx+0x1]
  401f89:	85 c9                	test   ecx,ecx
  401f8b:	75 d3                	jne    401f60 <_is_glob_pattern+0x20>
  401f8d:	31 ff                	xor    edi,edi
  401f8f:	89 f8                	mov    eax,edi
  401f91:	5b                   	pop    ebx
  401f92:	5e                   	pop    esi
  401f93:	5f                   	pop    edi
  401f94:	c3                   	ret    
  401f95:	83 f9 5d             	cmp    ecx,0x5d
  401f98:	74 26                	je     401fc0 <_is_glob_pattern+0x80>
  401f9a:	83 f9 21             	cmp    ecx,0x21
  401f9d:	89 d3                	mov    ebx,edx
  401f9f:	0f 95 c1             	setne  cl
  401fa2:	0f b6 c9             	movzx  ecx,cl
  401fa5:	01 c8                	add    eax,ecx
  401fa7:	eb da                	jmp    401f83 <_is_glob_pattern+0x43>
  401fa9:	8d b4 26 00 00 00 00 	lea    esi,[esi+eiz*1+0x0]
  401fb0:	80 7b 01 00          	cmp    BYTE PTR [ebx+0x1],0x0
  401fb4:	8d 53 02             	lea    edx,[ebx+0x2]
  401fb7:	75 b2                	jne    401f6b <_is_glob_pattern+0x2b>
  401fb9:	eb d4                	jmp    401f8f <_is_glob_pattern+0x4f>
  401fbb:	90                   	nop
  401fbc:	8d 74 26 00          	lea    esi,[esi+eiz*1+0x0]
  401fc0:	83 f8 01             	cmp    eax,0x1
  401fc3:	7e d5                	jle    401f9a <_is_glob_pattern+0x5a>
  401fc5:	bf 01 00 00 00       	mov    edi,0x1
  401fca:	89 f8                	mov    eax,edi
  401fcc:	5b                   	pop    ebx
  401fcd:	5e                   	pop    esi
  401fce:	5f                   	pop    edi
  401fcf:	c3                   	ret    

00401fd0 <_glob_in_set>:
  401fd0:	55                   	push   ebp
  401fd1:	57                   	push   edi
  401fd2:	56                   	push   esi
  401fd3:	53                   	push   ebx
  401fd4:	83 ec 04             	sub    esp,0x4
  401fd7:	0f b6 18             	movzx  ebx,BYTE PTR [eax]
  401fda:	89 0c 24             	mov    DWORD PTR [esp],ecx
  401fdd:	0f be fb             	movsx  edi,bl
  401fe0:	83 ff 5d             	cmp    edi,0x5d
  401fe3:	0f 84 d7 00 00 00    	je     4020c0 <_glob_in_set+0xf0>
  401fe9:	83 ff 2d             	cmp    edi,0x2d
  401fec:	89 d9                	mov    ecx,ebx
  401fee:	75 2e                	jne    40201e <_glob_in_set+0x4e>
  401ff0:	e9 cb 00 00 00       	jmp    4020c0 <_glob_in_set+0xf0>
  401ff5:	85 db                	test   ebx,ebx
  401ff7:	0f 84 b3 00 00 00    	je     4020b0 <_glob_in_set+0xe0>
  401ffd:	83 fb 5c             	cmp    ebx,0x5c
  402000:	0f 84 aa 00 00 00    	je     4020b0 <_glob_in_set+0xe0>
  402006:	83 fb 2f             	cmp    ebx,0x2f
  402009:	0f 84 a1 00 00 00    	je     4020b0 <_glob_in_set+0xe0>
  40200f:	89 df                	mov    edi,ebx
  402011:	0f b6 0e             	movzx  ecx,BYTE PTR [esi]
  402014:	89 f0                	mov    eax,esi
  402016:	39 d7                	cmp    edi,edx
  402018:	0f 84 ca 00 00 00    	je     4020e8 <_glob_in_set+0x118>
  40201e:	0f be d9             	movsx  ebx,cl
  402021:	83 fb 5d             	cmp    ebx,0x5d
  402024:	8d 70 01             	lea    esi,[eax+0x1]
  402027:	0f 84 83 00 00 00    	je     4020b0 <_glob_in_set+0xe0>
  40202d:	83 fb 2d             	cmp    ebx,0x2d
  402030:	75 c3                	jne    401ff5 <_glob_in_set+0x25>
  402032:	0f b6 58 01          	movzx  ebx,BYTE PTR [eax+0x1]
  402036:	80 fb 5d             	cmp    bl,0x5d
  402039:	0f 84 95 00 00 00    	je     4020d4 <_glob_in_set+0x104>
  40203f:	0f be eb             	movsx  ebp,bl
  402042:	85 ed                	test   ebp,ebp
  402044:	89 eb                	mov    ebx,ebp
  402046:	74 68                	je     4020b0 <_glob_in_set+0xe0>
  402048:	39 ef                	cmp    edi,ebp
  40204a:	8d 70 02             	lea    esi,[eax+0x2]
  40204d:	0f 8d 85 01 00 00    	jge    4021d8 <_glob_in_set+0x208>
  402053:	39 d7                	cmp    edi,edx
  402055:	8d 47 01             	lea    eax,[edi+0x1]
  402058:	75 14                	jne    40206e <_glob_in_set+0x9e>
  40205a:	e9 c1 00 00 00       	jmp    402120 <_glob_in_set+0x150>
  40205f:	90                   	nop
  402060:	83 c0 01             	add    eax,0x1
  402063:	8d 78 ff             	lea    edi,[eax-0x1]
  402066:	39 fa                	cmp    edx,edi
  402068:	0f 84 b2 00 00 00    	je     402120 <_glob_in_set+0x150>
  40206e:	39 c5                	cmp    ebp,eax
  402070:	7f ee                	jg     402060 <_glob_in_set+0x90>
  402072:	39 c5                	cmp    ebp,eax
  402074:	7d 87                	jge    401ffd <_glob_in_set+0x2d>
  402076:	39 c2                	cmp    edx,eax
  402078:	74 15                	je     40208f <_glob_in_set+0xbf>
  40207a:	83 c5 01             	add    ebp,0x1
  40207d:	8d 76 00             	lea    esi,[esi+0x0]
  402080:	39 e8                	cmp    eax,ebp
  402082:	0f 84 75 ff ff ff    	je     401ffd <_glob_in_set+0x2d>
  402088:	83 e8 01             	sub    eax,0x1
  40208b:	39 c2                	cmp    edx,eax
  40208d:	75 f1                	jne    402080 <_glob_in_set+0xb0>
  40208f:	8b 0c 24             	mov    ecx,DWORD PTR [esp]
  402092:	83 e1 20             	and    ecx,0x20
  402095:	0f b6 06             	movzx  eax,BYTE PTR [esi]
  402098:	3c 5d                	cmp    al,0x5d
  40209a:	0f 84 a3 00 00 00    	je     402143 <_glob_in_set+0x173>
  4020a0:	3c 7f                	cmp    al,0x7f
  4020a2:	0f 84 bd 00 00 00    	je     402165 <_glob_in_set+0x195>
  4020a8:	83 c6 01             	add    esi,0x1
  4020ab:	84 c0                	test   al,al
  4020ad:	75 e6                	jne    402095 <_glob_in_set+0xc5>
  4020af:	90                   	nop
  4020b0:	83 c4 04             	add    esp,0x4
  4020b3:	31 c0                	xor    eax,eax
  4020b5:	5b                   	pop    ebx
  4020b6:	5e                   	pop    esi
  4020b7:	5f                   	pop    edi
  4020b8:	5d                   	pop    ebp
  4020b9:	c3                   	ret    
  4020ba:	8d b6 00 00 00 00    	lea    esi,[esi+0x0]
  4020c0:	39 d7                	cmp    edi,edx
  4020c2:	0f 84 b8 00 00 00    	je     402180 <_glob_in_set+0x1b0>
  4020c8:	0f b6 48 01          	movzx  ecx,BYTE PTR [eax+0x1]
  4020cc:	83 c0 01             	add    eax,0x1
  4020cf:	e9 4a ff ff ff       	jmp    40201e <_glob_in_set+0x4e>
  4020d4:	bf 2d 00 00 00       	mov    edi,0x2d
  4020d9:	89 f0                	mov    eax,esi
  4020db:	39 d7                	cmp    edi,edx
  4020dd:	b9 5d 00 00 00       	mov    ecx,0x5d
  4020e2:	0f 85 36 ff ff ff    	jne    40201e <_glob_in_set+0x4e>
  4020e8:	8b 14 24             	mov    edx,DWORD PTR [esp]
  4020eb:	83 e2 20             	and    edx,0x20
  4020ee:	eb 0a                	jmp    4020fa <_glob_in_set+0x12a>
  4020f0:	83 c0 01             	add    eax,0x1
  4020f3:	84 c9                	test   cl,cl
  4020f5:	74 b9                	je     4020b0 <_glob_in_set+0xe0>
  4020f7:	0f b6 08             	movzx  ecx,BYTE PTR [eax]
  4020fa:	80 f9 5d             	cmp    cl,0x5d
  4020fd:	0f 84 c2 00 00 00    	je     4021c5 <_glob_in_set+0x1f5>
  402103:	80 f9 7f             	cmp    cl,0x7f
  402106:	75 e8                	jne    4020f0 <_glob_in_set+0x120>
  402108:	85 d2                	test   edx,edx
  40210a:	0f 85 c0 00 00 00    	jne    4021d0 <_glob_in_set+0x200>
  402110:	0f b6 48 01          	movzx  ecx,BYTE PTR [eax+0x1]
  402114:	83 c0 01             	add    eax,0x1
  402117:	eb d7                	jmp    4020f0 <_glob_in_set+0x120>
  402119:	8d b4 26 00 00 00 00 	lea    esi,[esi+eiz*1+0x0]
  402120:	8b 0c 24             	mov    ecx,DWORD PTR [esp]
  402123:	83 e1 20             	and    ecx,0x20
  402126:	0f b6 06             	movzx  eax,BYTE PTR [esi]
  402129:	3c 5d                	cmp    al,0x5d
  40212b:	74 16                	je     402143 <_glob_in_set+0x173>
  40212d:	3c 7f                	cmp    al,0x7f
  40212f:	74 1f                	je     402150 <_glob_in_set+0x180>
  402131:	83 c6 01             	add    esi,0x1
  402134:	84 c0                	test   al,al
  402136:	0f 84 74 ff ff ff    	je     4020b0 <_glob_in_set+0xe0>
  40213c:	0f b6 06             	movzx  eax,BYTE PTR [esi]
  40213f:	3c 5d                	cmp    al,0x5d
  402141:	75 ea                	jne    40212d <_glob_in_set+0x15d>
  402143:	83 c4 04             	add    esp,0x4
  402146:	5b                   	pop    ebx
  402147:	8d 46 01             	lea    eax,[esi+0x1]
  40214a:	5e                   	pop    esi
  40214b:	5f                   	pop    edi
  40214c:	5d                   	pop    ebp
  40214d:	c3                   	ret    
  40214e:	66 90                	xchg   ax,ax
  402150:	85 c9                	test   ecx,ecx
  402152:	75 0c                	jne    402160 <_glob_in_set+0x190>
  402154:	0f b6 46 01          	movzx  eax,BYTE PTR [esi+0x1]
  402158:	83 c6 01             	add    esi,0x1
  40215b:	eb d4                	jmp    402131 <_glob_in_set+0x161>
  40215d:	8d 76 00             	lea    esi,[esi+0x0]
  402160:	83 c6 01             	add    esi,0x1
  402163:	eb c1                	jmp    402126 <_glob_in_set+0x156>
  402165:	85 c9                	test   ecx,ecx
  402167:	75 0c                	jne    402175 <_glob_in_set+0x1a5>
  402169:	0f b6 46 01          	movzx  eax,BYTE PTR [esi+0x1]
  40216d:	83 c6 01             	add    esi,0x1
  402170:	e9 33 ff ff ff       	jmp    4020a8 <_glob_in_set+0xd8>
  402175:	83 c6 01             	add    esi,0x1
  402178:	e9 18 ff ff ff       	jmp    402095 <_glob_in_set+0xc5>
  40217d:	8d 76 00             	lea    esi,[esi+0x0]
  402180:	8b 0c 24             	mov    ecx,DWORD PTR [esp]
  402183:	83 c0 01             	add    eax,0x1
  402186:	83 e1 20             	and    ecx,0x20
  402189:	8d b4 26 00 00 00 00 	lea    esi,[esi+eiz*1+0x0]
  402190:	0f b6 10             	movzx  edx,BYTE PTR [eax]
  402193:	80 fa 5d             	cmp    dl,0x5d
  402196:	74 2d                	je     4021c5 <_glob_in_set+0x1f5>
  402198:	80 fa 7f             	cmp    dl,0x7f
  40219b:	74 13                	je     4021b0 <_glob_in_set+0x1e0>
  40219d:	83 c0 01             	add    eax,0x1
  4021a0:	84 d2                	test   dl,dl
  4021a2:	75 ec                	jne    402190 <_glob_in_set+0x1c0>
  4021a4:	e9 07 ff ff ff       	jmp    4020b0 <_glob_in_set+0xe0>
  4021a9:	8d b4 26 00 00 00 00 	lea    esi,[esi+eiz*1+0x0]
  4021b0:	85 c9                	test   ecx,ecx
  4021b2:	75 0c                	jne    4021c0 <_glob_in_set+0x1f0>
  4021b4:	0f b6 50 01          	movzx  edx,BYTE PTR [eax+0x1]
  4021b8:	83 c0 01             	add    eax,0x1
  4021bb:	eb e0                	jmp    40219d <_glob_in_set+0x1cd>
  4021bd:	8d 76 00             	lea    esi,[esi+0x0]
  4021c0:	83 c0 01             	add    eax,0x1
  4021c3:	eb cb                	jmp    402190 <_glob_in_set+0x1c0>
  4021c5:	83 c4 04             	add    esp,0x4
  4021c8:	83 c0 01             	add    eax,0x1
  4021cb:	5b                   	pop    ebx
  4021cc:	5e                   	pop    esi
  4021cd:	5f                   	pop    edi
  4021ce:	5d                   	pop    ebp
  4021cf:	c3                   	ret    
  4021d0:	83 c0 01             	add    eax,0x1
  4021d3:	e9 1f ff ff ff       	jmp    4020f7 <_glob_in_set+0x127>
  4021d8:	89 f8                	mov    eax,edi
  4021da:	e9 93 fe ff ff       	jmp    402072 <_glob_in_set+0xa2>
  4021df:	90                   	nop

004021e0 <_glob_initialise>:
  4021e0:	55                   	push   ebp
  4021e1:	57                   	push   edi
  4021e2:	56                   	push   esi
  4021e3:	89 c6                	mov    esi,eax
  4021e5:	53                   	push   ebx
  4021e6:	83 ec 1c             	sub    esp,0x1c
  4021e9:	85 c0                	test   eax,eax
  4021eb:	74 47                	je     402234 <_glob_initialise+0x54>
  4021ed:	8b 40 0c             	mov    eax,DWORD PTR [eax+0xc]
  4021f0:	8d 78 01             	lea    edi,[eax+0x1]
  4021f3:	8d 2c bd 00 00 00 00 	lea    ebp,[edi*4+0x0]
  4021fa:	89 2c 24             	mov    DWORD PTR [esp],ebp
  4021fd:	e8 76 5d 00 00       	call   407f78 <_malloc>
  402202:	89 c3                	mov    ebx,eax
  402204:	85 db                	test   ebx,ebx
  402206:	89 46 08             	mov    DWORD PTR [esi+0x8],eax
  402209:	b8 03 00 00 00       	mov    eax,0x3
  40220e:	74 26                	je     402236 <_glob_initialise+0x56>
  402210:	85 ff                	test   edi,edi
  402212:	89 fa                	mov    edx,edi
  402214:	c7 46 04 00 00 00 00 	mov    DWORD PTR [esi+0x4],0x0
  40221b:	7e 17                	jle    402234 <_glob_initialise+0x54>
  40221d:	8d 4d fc             	lea    ecx,[ebp-0x4]
  402220:	eb 03                	jmp    402225 <_glob_initialise+0x45>
  402222:	8b 5e 08             	mov    ebx,DWORD PTR [esi+0x8]
  402225:	c7 04 0b 00 00 00 00 	mov    DWORD PTR [ebx+ecx*1],0x0
  40222c:	83 e9 04             	sub    ecx,0x4
  40222f:	83 ea 01             	sub    edx,0x1
  402232:	75 ee                	jne    402222 <_glob_initialise+0x42>
  402234:	31 c0                	xor    eax,eax
  402236:	83 c4 1c             	add    esp,0x1c
  402239:	5b                   	pop    ebx
  40223a:	5e                   	pop    esi
  40223b:	5f                   	pop    edi
  40223c:	5d                   	pop    ebp
  40223d:	c3                   	ret    
  40223e:	66 90                	xchg   ax,ax

00402240 <_glob_strcmp>:
  402240:	55                   	push   ebp
  402241:	57                   	push   edi
  402242:	89 c7                	mov    edi,eax
  402244:	56                   	push   esi
  402245:	53                   	push   ebx
  402246:	83 ec 2c             	sub    esp,0x2c
  402249:	80 3a 2e             	cmp    BYTE PTR [edx],0x2e
  40224c:	89 4c 24 10          	mov    DWORD PTR [esp+0x10],ecx
  402250:	0f 84 5a 01 00 00    	je     4023b0 <_glob_strcmp+0x170>
  402256:	0f b6 08             	movzx  ecx,BYTE PTR [eax]
  402259:	8b 74 24 10          	mov    esi,DWORD PTR [esp+0x10]
  40225d:	8d 6a 01             	lea    ebp,[edx+0x1]
  402260:	89 f0                	mov    eax,esi
  402262:	83 e0 20             	and    eax,0x20
  402265:	89 44 24 14          	mov    DWORD PTR [esp+0x14],eax
  402269:	89 f0                	mov    eax,esi
  40226b:	25 00 40 00 00       	and    eax,0x4000
  402270:	89 44 24 18          	mov    DWORD PTR [esp+0x18],eax
  402274:	0f be d1             	movsx  edx,cl
  402277:	85 d2                	test   edx,edx
  402279:	8d 75 ff             	lea    esi,[ebp-0x1]
  40227c:	8d 47 01             	lea    eax,[edi+0x1]
  40227f:	0f 84 70 01 00 00    	je     4023f5 <_glob_strcmp+0x1b5>
  402285:	80 f9 3f             	cmp    cl,0x3f
  402288:	0f 84 e4 00 00 00    	je     402372 <_glob_strcmp+0x132>
  40228e:	80 f9 5b             	cmp    cl,0x5b
  402291:	0f 84 ab 00 00 00    	je     402342 <_glob_strcmp+0x102>
  402297:	80 f9 2a             	cmp    cl,0x2a
  40229a:	74 5c                	je     4022f8 <_glob_strcmp+0xb8>
  40229c:	8b 4c 24 14          	mov    ecx,DWORD PTR [esp+0x14]
  4022a0:	85 c9                	test   ecx,ecx
  4022a2:	0f 84 d8 00 00 00    	je     402380 <_glob_strcmp+0x140>
  4022a8:	89 c7                	mov    edi,eax
  4022aa:	0f be 5d ff          	movsx  ebx,BYTE PTR [ebp-0x1]
  4022ae:	84 db                	test   bl,bl
  4022b0:	0f 84 92 01 00 00    	je     402448 <_glob_strcmp+0x208>
  4022b6:	8b 44 24 18          	mov    eax,DWORD PTR [esp+0x18]
  4022ba:	85 c0                	test   eax,eax
  4022bc:	0f 85 de 00 00 00    	jne    4023a0 <_glob_strcmp+0x160>
  4022c2:	89 14 24             	mov    DWORD PTR [esp],edx
  4022c5:	89 54 24 1c          	mov    DWORD PTR [esp+0x1c],edx
  4022c9:	e8 5a 5c 00 00       	call   407f28 <_tolower>
  4022ce:	89 1c 24             	mov    DWORD PTR [esp],ebx
  4022d1:	89 c6                	mov    esi,eax
  4022d3:	e8 50 5c 00 00       	call   407f28 <_tolower>
  4022d8:	8b 54 24 1c          	mov    edx,DWORD PTR [esp+0x1c]
  4022dc:	29 c6                	sub    esi,eax
  4022de:	85 f6                	test   esi,esi
  4022e0:	0f 84 81 00 00 00    	je     402367 <_glob_strcmp+0x127>
  4022e6:	89 d0                	mov    eax,edx
  4022e8:	29 d8                	sub    eax,ebx
  4022ea:	8d b6 00 00 00 00    	lea    esi,[esi+0x0]
  4022f0:	83 c4 2c             	add    esp,0x2c
  4022f3:	5b                   	pop    ebx
  4022f4:	5e                   	pop    esi
  4022f5:	5f                   	pop    edi
  4022f6:	5d                   	pop    ebp
  4022f7:	c3                   	ret    
  4022f8:	0f b6 57 01          	movzx  edx,BYTE PTR [edi+0x1]
  4022fc:	89 c3                	mov    ebx,eax
  4022fe:	80 fa 2a             	cmp    dl,0x2a
  402301:	75 0b                	jne    40230e <_glob_strcmp+0xce>
  402303:	83 c3 01             	add    ebx,0x1
  402306:	0f b6 13             	movzx  edx,BYTE PTR [ebx]
  402309:	80 fa 2a             	cmp    dl,0x2a
  40230c:	74 f5                	je     402303 <_glob_strcmp+0xc3>
  40230e:	31 c0                	xor    eax,eax
  402310:	84 d2                	test   dl,dl
  402312:	74 dc                	je     4022f0 <_glob_strcmp+0xb0>
  402314:	8b 7c 24 10          	mov    edi,DWORD PTR [esp+0x10]
  402318:	81 cf 00 00 01 00    	or     edi,0x10000
  40231e:	eb 09                	jmp    402329 <_glob_strcmp+0xe9>
  402320:	83 c6 01             	add    esi,0x1
  402323:	80 7e ff 00          	cmp    BYTE PTR [esi-0x1],0x0
  402327:	74 c7                	je     4022f0 <_glob_strcmp+0xb0>
  402329:	89 f9                	mov    ecx,edi
  40232b:	89 f2                	mov    edx,esi
  40232d:	89 d8                	mov    eax,ebx
  40232f:	e8 0c ff ff ff       	call   402240 <_glob_strcmp>
  402334:	85 c0                	test   eax,eax
  402336:	75 e8                	jne    402320 <_glob_strcmp+0xe0>
  402338:	83 c4 2c             	add    esp,0x2c
  40233b:	31 c0                	xor    eax,eax
  40233d:	5b                   	pop    ebx
  40233e:	5e                   	pop    esi
  40233f:	5f                   	pop    edi
  402340:	5d                   	pop    ebp
  402341:	c3                   	ret    
  402342:	0f be 55 ff          	movsx  edx,BYTE PTR [ebp-0x1]
  402346:	85 d2                	test   edx,edx
  402348:	0f 84 0b 01 00 00    	je     402459 <_glob_strcmp+0x219>
  40234e:	80 7f 01 21          	cmp    BYTE PTR [edi+0x1],0x21
  402352:	74 7c                	je     4023d0 <_glob_strcmp+0x190>
  402354:	8b 4c 24 10          	mov    ecx,DWORD PTR [esp+0x10]
  402358:	e8 73 fc ff ff       	call   401fd0 <_glob_in_set>
  40235d:	85 c0                	test   eax,eax
  40235f:	89 c7                	mov    edi,eax
  402361:	0f 84 d7 00 00 00    	je     40243e <_glob_strcmp+0x1fe>
  402367:	0f b6 0f             	movzx  ecx,BYTE PTR [edi]
  40236a:	83 c5 01             	add    ebp,0x1
  40236d:	e9 02 ff ff ff       	jmp    402274 <_glob_strcmp+0x34>
  402372:	80 7d ff 00          	cmp    BYTE PTR [ebp-0x1],0x0
  402376:	0f 84 d3 00 00 00    	je     40244f <_glob_strcmp+0x20f>
  40237c:	89 c7                	mov    edi,eax
  40237e:	eb e7                	jmp    402367 <_glob_strcmp+0x127>
  402380:	83 fa 7f             	cmp    edx,0x7f
  402383:	0f 85 1f ff ff ff    	jne    4022a8 <_glob_strcmp+0x68>
  402389:	0f be 57 01          	movsx  edx,BYTE PTR [edi+0x1]
  40238d:	83 c7 02             	add    edi,0x2
  402390:	85 d2                	test   edx,edx
  402392:	0f 85 12 ff ff ff    	jne    4022aa <_glob_strcmp+0x6a>
  402398:	e9 0b ff ff ff       	jmp    4022a8 <_glob_strcmp+0x68>
  40239d:	8d 76 00             	lea    esi,[esi+0x0]
  4023a0:	89 d6                	mov    esi,edx
  4023a2:	29 de                	sub    esi,ebx
  4023a4:	e9 35 ff ff ff       	jmp    4022de <_glob_strcmp+0x9e>
  4023a9:	8d b4 26 00 00 00 00 	lea    esi,[esi+eiz*1+0x0]
  4023b0:	0f be 00             	movsx  eax,BYTE PTR [eax]
  4023b3:	3c 2e                	cmp    al,0x2e
  4023b5:	74 32                	je     4023e9 <_glob_strcmp+0x1a9>
  4023b7:	89 c1                	mov    ecx,eax
  4023b9:	83 e8 2e             	sub    eax,0x2e
  4023bc:	f7 44 24 10 00 00 01 	test   DWORD PTR [esp+0x10],0x10000
  4023c3:	00 
  4023c4:	0f 85 8f fe ff ff    	jne    402259 <_glob_strcmp+0x19>
  4023ca:	e9 21 ff ff ff       	jmp    4022f0 <_glob_strcmp+0xb0>
  4023cf:	90                   	nop
  4023d0:	8b 4c 24 10          	mov    ecx,DWORD PTR [esp+0x10]
  4023d4:	8d 5f 02             	lea    ebx,[edi+0x2]
  4023d7:	89 d8                	mov    eax,ebx
  4023d9:	e8 f2 fb ff ff       	call   401fd0 <_glob_in_set>
  4023de:	85 c0                	test   eax,eax
  4023e0:	74 1d                	je     4023ff <_glob_strcmp+0x1bf>
  4023e2:	89 df                	mov    edi,ebx
  4023e4:	e9 7e ff ff ff       	jmp    402367 <_glob_strcmp+0x127>
  4023e9:	b9 2e 00 00 00       	mov    ecx,0x2e
  4023ee:	66 90                	xchg   ax,ax
  4023f0:	e9 64 fe ff ff       	jmp    402259 <_glob_strcmp+0x19>
  4023f5:	0f be 06             	movsx  eax,BYTE PTR [esi]
  4023f8:	f7 d8                	neg    eax
  4023fa:	e9 f1 fe ff ff       	jmp    4022f0 <_glob_strcmp+0xb0>
  4023ff:	0f b6 47 02          	movzx  eax,BYTE PTR [edi+0x2]
  402403:	8b 54 24 14          	mov    edx,DWORD PTR [esp+0x14]
  402407:	3c 5d                	cmp    al,0x5d
  402409:	75 0f                	jne    40241a <_glob_strcmp+0x1da>
  40240b:	eb 56                	jmp    402463 <_glob_strcmp+0x223>
  40240d:	8d 76 00             	lea    esi,[esi+0x0]
  402410:	83 c3 01             	add    ebx,0x1
  402413:	84 c0                	test   al,al
  402415:	74 27                	je     40243e <_glob_strcmp+0x1fe>
  402417:	0f b6 03             	movzx  eax,BYTE PTR [ebx]
  40241a:	3c 5d                	cmp    al,0x5d
  40241c:	74 16                	je     402434 <_glob_strcmp+0x1f4>
  40241e:	3c 7f                	cmp    al,0x7f
  402420:	75 ee                	jne    402410 <_glob_strcmp+0x1d0>
  402422:	85 d2                	test   edx,edx
  402424:	75 09                	jne    40242f <_glob_strcmp+0x1ef>
  402426:	0f b6 43 01          	movzx  eax,BYTE PTR [ebx+0x1]
  40242a:	83 c3 01             	add    ebx,0x1
  40242d:	eb e1                	jmp    402410 <_glob_strcmp+0x1d0>
  40242f:	83 c3 01             	add    ebx,0x1
  402432:	eb e3                	jmp    402417 <_glob_strcmp+0x1d7>
  402434:	83 c3 01             	add    ebx,0x1
  402437:	89 df                	mov    edi,ebx
  402439:	e9 29 ff ff ff       	jmp    402367 <_glob_strcmp+0x127>
  40243e:	b8 5d 00 00 00       	mov    eax,0x5d
  402443:	e9 a8 fe ff ff       	jmp    4022f0 <_glob_strcmp+0xb0>
  402448:	31 db                	xor    ebx,ebx
  40244a:	e9 97 fe ff ff       	jmp    4022e6 <_glob_strcmp+0xa6>
  40244f:	b8 3f 00 00 00       	mov    eax,0x3f
  402454:	e9 97 fe ff ff       	jmp    4022f0 <_glob_strcmp+0xb0>
  402459:	b8 5b 00 00 00       	mov    eax,0x5b
  40245e:	e9 8d fe ff ff       	jmp    4022f0 <_glob_strcmp+0xb0>
  402463:	8d 5f 03             	lea    ebx,[edi+0x3]
  402466:	0f b6 47 03          	movzx  eax,BYTE PTR [edi+0x3]
  40246a:	8b 54 24 14          	mov    edx,DWORD PTR [esp+0x14]
  40246e:	eb aa                	jmp    40241a <_glob_strcmp+0x1da>

00402470 <_glob_registry.part.1>:
  402470:	57                   	push   edi
  402471:	89 c7                	mov    edi,eax
  402473:	56                   	push   esi
  402474:	53                   	push   ebx
  402475:	83 ec 10             	sub    esp,0x10
  402478:	8b 40 04             	mov    eax,DWORD PTR [eax+0x4]
  40247b:	8b 4f 0c             	mov    ecx,DWORD PTR [edi+0xc]
  40247e:	85 c0                	test   eax,eax
  402480:	8d 70 ff             	lea    esi,[eax-0x1]
  402483:	8d 1c 8d 00 00 00 00 	lea    ebx,[ecx*4+0x0]
  40248a:	7e 1d                	jle    4024a9 <_glob_registry.part.1+0x39>
  40248c:	8d 74 26 00          	lea    esi,[esi+eiz*1+0x0]
  402490:	8b 57 08             	mov    edx,DWORD PTR [edi+0x8]
  402493:	83 ee 01             	sub    esi,0x1
  402496:	8b 14 1a             	mov    edx,DWORD PTR [edx+ebx*1]
  402499:	83 c3 04             	add    ebx,0x4
  40249c:	89 14 24             	mov    DWORD PTR [esp],edx
  40249f:	e8 fc 5a 00 00       	call   407fa0 <_free>
  4024a4:	83 fe ff             	cmp    esi,0xffffffff
  4024a7:	75 e7                	jne    402490 <_glob_registry.part.1+0x20>
  4024a9:	8b 47 08             	mov    eax,DWORD PTR [edi+0x8]
  4024ac:	89 04 24             	mov    DWORD PTR [esp],eax
  4024af:	e8 ec 5a 00 00       	call   407fa0 <_free>
  4024b4:	83 c4 10             	add    esp,0x10
  4024b7:	31 c0                	xor    eax,eax
  4024b9:	5b                   	pop    ebx
  4024ba:	5e                   	pop    esi
  4024bb:	5f                   	pop    edi
  4024bc:	c3                   	ret    
  4024bd:	8d 76 00             	lea    esi,[esi+0x0]

004024c0 <_glob_store_entry.part.2>:
  4024c0:	57                   	push   edi
  4024c1:	56                   	push   esi
  4024c2:	89 c6                	mov    esi,eax
  4024c4:	53                   	push   ebx
  4024c5:	89 d3                	mov    ebx,edx
  4024c7:	83 ec 10             	sub    esp,0x10
  4024ca:	8b 52 04             	mov    edx,DWORD PTR [edx+0x4]
  4024cd:	03 53 0c             	add    edx,DWORD PTR [ebx+0xc]
  4024d0:	8d 04 95 08 00 00 00 	lea    eax,[edx*4+0x8]
  4024d7:	89 44 24 04          	mov    DWORD PTR [esp+0x4],eax
  4024db:	8b 43 08             	mov    eax,DWORD PTR [ebx+0x8]
  4024de:	89 04 24             	mov    DWORD PTR [esp],eax
  4024e1:	e8 72 5a 00 00       	call   407f58 <_realloc>
  4024e6:	85 c0                	test   eax,eax
  4024e8:	89 c2                	mov    edx,eax
  4024ea:	74 29                	je     402515 <_glob_store_entry.part.2+0x55>
  4024ec:	8b 7b 04             	mov    edi,DWORD PTR [ebx+0x4]
  4024ef:	89 43 08             	mov    DWORD PTR [ebx+0x8],eax
  4024f2:	8b 43 0c             	mov    eax,DWORD PTR [ebx+0xc]
  4024f5:	8d 4f 01             	lea    ecx,[edi+0x1]
  4024f8:	01 c7                	add    edi,eax
  4024fa:	01 c8                	add    eax,ecx
  4024fc:	89 4b 04             	mov    DWORD PTR [ebx+0x4],ecx
  4024ff:	89 34 ba             	mov    DWORD PTR [edx+edi*4],esi
  402502:	8b 53 08             	mov    edx,DWORD PTR [ebx+0x8]
  402505:	c7 04 82 00 00 00 00 	mov    DWORD PTR [edx+eax*4],0x0
  40250c:	83 c4 10             	add    esp,0x10
  40250f:	31 c0                	xor    eax,eax
  402511:	5b                   	pop    ebx
  402512:	5e                   	pop    esi
  402513:	5f                   	pop    edi
  402514:	c3                   	ret    
  402515:	83 c4 10             	add    esp,0x10
  402518:	b8 01 00 00 00       	mov    eax,0x1
  40251d:	5b                   	pop    ebx
  40251e:	5e                   	pop    esi
  40251f:	5f                   	pop    edi
  402520:	c3                   	ret    
  402521:	eb 0d                	jmp    402530 <_glob_store_entry>
  402523:	90                   	nop
  402524:	90                   	nop
  402525:	90                   	nop
  402526:	90                   	nop
  402527:	90                   	nop
  402528:	90                   	nop
  402529:	90                   	nop
  40252a:	90                   	nop
  40252b:	90                   	nop
  40252c:	90                   	nop
  40252d:	90                   	nop
  40252e:	90                   	nop
  40252f:	90                   	nop

00402530 <_glob_store_entry>:
  402530:	85 c0                	test   eax,eax
  402532:	75 0c                	jne    402540 <_glob_store_entry+0x10>
  402534:	b8 01 00 00 00       	mov    eax,0x1
  402539:	c3                   	ret    
  40253a:	8d b6 00 00 00 00    	lea    esi,[esi+0x0]
  402540:	85 d2                	test   edx,edx
  402542:	74 f0                	je     402534 <_glob_store_entry+0x4>
  402544:	e9 77 ff ff ff       	jmp    4024c0 <_glob_store_entry.part.2>
  402549:	8d b4 26 00 00 00 00 	lea    esi,[esi+eiz*1+0x0]

00402550 <_glob_store_collated_entries>:
  402550:	56                   	push   esi
  402551:	89 d6                	mov    esi,edx
  402553:	53                   	push   ebx
  402554:	89 c3                	mov    ebx,eax
  402556:	83 ec 14             	sub    esp,0x14
  402559:	8b 00                	mov    eax,DWORD PTR [eax]
  40255b:	85 c0                	test   eax,eax
  40255d:	74 05                	je     402564 <_glob_store_collated_entries+0x14>
  40255f:	e8 ec ff ff ff       	call   402550 <_glob_store_collated_entries>
  402564:	8b 43 08             	mov    eax,DWORD PTR [ebx+0x8]
  402567:	89 f2                	mov    edx,esi
  402569:	e8 c2 ff ff ff       	call   402530 <_glob_store_entry>
  40256e:	8b 43 04             	mov    eax,DWORD PTR [ebx+0x4]
  402571:	85 c0                	test   eax,eax
  402573:	74 07                	je     40257c <_glob_store_collated_entries+0x2c>
  402575:	89 f2                	mov    edx,esi
  402577:	e8 d4 ff ff ff       	call   402550 <_glob_store_collated_entries>
  40257c:	89 1c 24             	mov    DWORD PTR [esp],ebx
  40257f:	e8 1c 5a 00 00       	call   407fa0 <_free>
  402584:	83 c4 14             	add    esp,0x14
  402587:	5b                   	pop    ebx
  402588:	5e                   	pop    esi
  402589:	c3                   	ret    
  40258a:	8d b6 00 00 00 00    	lea    esi,[esi+0x0]

00402590 <_glob_match>:
  402590:	55                   	push   ebp
  402591:	89 e5                	mov    ebp,esp
  402593:	57                   	push   edi
  402594:	56                   	push   esi
  402595:	53                   	push   ebx
  402596:	89 c3                	mov    ebx,eax
  402598:	83 ec 6c             	sub    esp,0x6c
  40259b:	89 55 cc             	mov    DWORD PTR [ebp-0x34],edx
  40259e:	89 4d a4             	mov    DWORD PTR [ebp-0x5c],ecx
  4025a1:	89 04 24             	mov    DWORD PTR [esp],eax
  4025a4:	e8 87 59 00 00       	call   407f30 <_strlen>
  4025a9:	8d 50 01             	lea    edx,[eax+0x1]
  4025ac:	83 c0 10             	add    eax,0x10
  4025af:	83 e0 f0             	and    eax,0xfffffff0
  4025b2:	e8 59 f9 ff ff       	call   401f10 <___chkstk_ms>
  4025b7:	29 c4                	sub    esp,eax
  4025b9:	8d 44 24 0c          	lea    eax,[esp+0xc]
  4025bd:	89 54 24 08          	mov    DWORD PTR [esp+0x8],edx
  4025c1:	89 5c 24 04          	mov    DWORD PTR [esp+0x4],ebx
  4025c5:	89 04 24             	mov    DWORD PTR [esp],eax
  4025c8:	e8 9b 59 00 00       	call   407f68 <_memcpy>
  4025cd:	89 04 24             	mov    DWORD PTR [esp],eax
  4025d0:	e8 4b 06 00 00       	call   402c20 <___mingw_dirname>
  4025d5:	c7 45 e4 00 00 00 00 	mov    DWORD PTR [ebp-0x1c],0x0
  4025dc:	89 45 b8             	mov    DWORD PTR [ebp-0x48],eax
  4025df:	8d 45 d8             	lea    eax,[ebp-0x28]
  4025e2:	e8 f9 fb ff ff       	call   4021e0 <_glob_initialise>
  4025e7:	85 c0                	test   eax,eax
  4025e9:	74 08                	je     4025f3 <_glob_match+0x63>
  4025eb:	8d 65 f4             	lea    esp,[ebp-0xc]
  4025ee:	5b                   	pop    ebx
  4025ef:	5e                   	pop    esi
  4025f0:	5f                   	pop    edi
  4025f1:	5d                   	pop    ebp
  4025f2:	c3                   	ret    
  4025f3:	8b 55 cc             	mov    edx,DWORD PTR [ebp-0x34]
  4025f6:	8b 45 b8             	mov    eax,DWORD PTR [ebp-0x48]
  4025f9:	e8 42 f9 ff ff       	call   401f40 <_is_glob_pattern>
  4025fe:	85 c0                	test   eax,eax
  402600:	0f 84 5a 02 00 00    	je     402860 <_glob_match+0x2d0>
  402606:	8b 55 cc             	mov    edx,DWORD PTR [ebp-0x34]
  402609:	8d 45 d8             	lea    eax,[ebp-0x28]
  40260c:	89 04 24             	mov    DWORD PTR [esp],eax
  40260f:	8b 4d a4             	mov    ecx,DWORD PTR [ebp-0x5c]
  402612:	8b 45 b8             	mov    eax,DWORD PTR [ebp-0x48]
  402615:	80 ce 80             	or     dh,0x80
  402618:	e8 73 ff ff ff       	call   402590 <_glob_match>
  40261d:	85 c0                	test   eax,eax
  40261f:	75 ca                	jne    4025eb <_glob_match+0x5b>
  402621:	0f b6 43 01          	movzx  eax,BYTE PTR [ebx+0x1]
  402625:	3c 5c                	cmp    al,0x5c
  402627:	0f 84 5b 03 00 00    	je     402988 <_glob_match+0x3f8>
  40262d:	3c 2f                	cmp    al,0x2f
  40262f:	0f 84 53 03 00 00    	je     402988 <_glob_match+0x3f8>
  402635:	8b 75 b8             	mov    esi,DWORD PTR [ebp-0x48]
  402638:	bf 20 a1 40 00       	mov    edi,0x40a120
  40263d:	b9 02 00 00 00       	mov    ecx,0x2
  402642:	f3 a6                	repz cmps BYTE PTR ds:[esi],BYTE PTR es:[edi]
  402644:	0f 85 3e 03 00 00    	jne    402988 <_glob_match+0x3f8>
  40264a:	c6 45 a3 5c          	mov    BYTE PTR [ebp-0x5d],0x5c
  40264e:	f6 45 cc 10          	test   BYTE PTR [ebp-0x34],0x10
  402652:	89 5d c0             	mov    DWORD PTR [ebp-0x40],ebx
  402655:	c7 45 b8 00 00 00 00 	mov    DWORD PTR [ebp-0x48],0x0
  40265c:	0f 85 33 04 00 00    	jne    402a95 <_glob_match+0x505>
  402662:	8b 45 e0             	mov    eax,DWORD PTR [ebp-0x20]
  402665:	89 45 c8             	mov    DWORD PTR [ebp-0x38],eax
  402668:	8b 00                	mov    eax,DWORD PTR [eax]
  40266a:	85 c0                	test   eax,eax
  40266c:	0f 84 71 04 00 00    	je     402ae3 <_glob_match+0x553>
  402672:	8b 4d cc             	mov    ecx,DWORD PTR [ebp-0x34]
  402675:	c7 45 c4 02 00 00 00 	mov    DWORD PTR [ebp-0x3c],0x2
  40267c:	89 cf                	mov    edi,ecx
  40267e:	83 e7 04             	and    edi,0x4
  402681:	89 7d 98             	mov    DWORD PTR [ebp-0x68],edi
  402684:	89 cf                	mov    edi,ecx
  402686:	81 e7 00 80 00 00    	and    edi,0x8000
  40268c:	89 7d d0             	mov    DWORD PTR [ebp-0x30],edi
  40268f:	90                   	nop
  402690:	83 7d c4 01          	cmp    DWORD PTR [ebp-0x3c],0x1
  402694:	0f 84 58 02 00 00    	je     4028f2 <_glob_match+0x362>
  40269a:	89 04 24             	mov    DWORD PTR [esp],eax
  40269d:	e8 ee 0a 00 00       	call   403190 <___mingw_opendir>
  4026a2:	85 c0                	test   eax,eax
  4026a4:	89 45 d4             	mov    DWORD PTR [ebp-0x2c],eax
  4026a7:	0f 84 76 03 00 00    	je     402a23 <_glob_match+0x493>
  4026ad:	8b 45 b8             	mov    eax,DWORD PTR [ebp-0x48]
  4026b0:	85 c0                	test   eax,eax
  4026b2:	0f 84 bd 03 00 00    	je     402a75 <_glob_match+0x4e5>
  4026b8:	8b 45 c8             	mov    eax,DWORD PTR [ebp-0x38]
  4026bb:	8b 00                	mov    eax,DWORD PTR [eax]
  4026bd:	89 04 24             	mov    DWORD PTR [esp],eax
  4026c0:	e8 6b 58 00 00       	call   407f30 <_strlen>
  4026c5:	89 45 b4             	mov    DWORD PTR [ebp-0x4c],eax
  4026c8:	8b 45 cc             	mov    eax,DWORD PTR [ebp-0x34]
  4026cb:	c7 45 bc 00 00 00 00 	mov    DWORD PTR [ebp-0x44],0x0
  4026d2:	83 e0 40             	and    eax,0x40
  4026d5:	89 45 a8             	mov    DWORD PTR [ebp-0x58],eax
  4026d8:	8b 45 d4             	mov    eax,DWORD PTR [ebp-0x2c]
  4026db:	89 04 24             	mov    DWORD PTR [esp],eax
  4026de:	e8 4d 0c 00 00       	call   403330 <___mingw_readdir>
  4026e3:	85 c0                	test   eax,eax
  4026e5:	89 c6                	mov    esi,eax
  4026e7:	0f 84 e8 01 00 00    	je     4028d5 <_glob_match+0x345>
  4026ed:	8b 45 d0             	mov    eax,DWORD PTR [ebp-0x30]
  4026f0:	85 c0                	test   eax,eax
  4026f2:	74 06                	je     4026fa <_glob_match+0x16a>
  4026f4:	83 7e 08 10          	cmp    DWORD PTR [esi+0x8],0x10
  4026f8:	75 de                	jne    4026d8 <_glob_match+0x148>
  4026fa:	8b 4d cc             	mov    ecx,DWORD PTR [ebp-0x34]
  4026fd:	8d 5e 0c             	lea    ebx,[esi+0xc]
  402700:	8b 45 c0             	mov    eax,DWORD PTR [ebp-0x40]
  402703:	89 da                	mov    edx,ebx
  402705:	e8 36 fb ff ff       	call   402240 <_glob_strcmp>
  40270a:	85 c0                	test   eax,eax
  40270c:	75 ca                	jne    4026d8 <_glob_match+0x148>
  40270e:	0f b7 56 06          	movzx  edx,WORD PTR [esi+0x6]
  402712:	8b 4d b4             	mov    ecx,DWORD PTR [ebp-0x4c]
  402715:	89 65 b0             	mov    DWORD PTR [ebp-0x50],esp
  402718:	8d 44 11 11          	lea    eax,[ecx+edx*1+0x11]
  40271c:	83 e0 f0             	and    eax,0xfffffff0
  40271f:	e8 ec f7 ff ff       	call   401f10 <___chkstk_ms>
  402724:	29 c4                	sub    esp,eax
  402726:	31 c0                	xor    eax,eax
  402728:	8d 7c 24 0c          	lea    edi,[esp+0xc]
  40272c:	85 c9                	test   ecx,ecx
  40272e:	89 7d ac             	mov    DWORD PTR [ebp-0x54],edi
  402731:	0f 85 ed 01 00 00    	jne    402924 <_glob_match+0x394>
  402737:	83 c2 01             	add    edx,0x1
  40273a:	01 f8                	add    eax,edi
  40273c:	89 54 24 08          	mov    DWORD PTR [esp+0x8],edx
  402740:	89 5c 24 04          	mov    DWORD PTR [esp+0x4],ebx
  402744:	89 e3                	mov    ebx,esp
  402746:	89 04 24             	mov    DWORD PTR [esp],eax
  402749:	e8 1a 58 00 00       	call   407f68 <_memcpy>
  40274e:	89 3c 24             	mov    DWORD PTR [esp],edi
  402751:	e8 da 57 00 00       	call   407f30 <_strlen>
  402756:	83 c0 10             	add    eax,0x10
  402759:	83 e0 f0             	and    eax,0xfffffff0
  40275c:	e8 af f7 ff ff       	call   401f10 <___chkstk_ms>
  402761:	8b 75 ac             	mov    esi,DWORD PTR [ebp-0x54]
  402764:	29 c4                	sub    esp,eax
  402766:	8d 4c 24 0c          	lea    ecx,[esp+0xc]
  40276a:	89 ca                	mov    edx,ecx
  40276c:	eb 0f                	jmp    40277d <_glob_match+0x1ed>
  40276e:	66 90                	xchg   ax,ax
  402770:	83 c2 01             	add    edx,0x1
  402773:	83 c6 01             	add    esi,0x1
  402776:	84 c0                	test   al,al
  402778:	88 42 ff             	mov    BYTE PTR [edx-0x1],al
  40277b:	74 1b                	je     402798 <_glob_match+0x208>
  40277d:	0f b6 06             	movzx  eax,BYTE PTR [esi]
  402780:	3c 7f                	cmp    al,0x7f
  402782:	75 ec                	jne    402770 <_glob_match+0x1e0>
  402784:	0f b6 46 01          	movzx  eax,BYTE PTR [esi+0x1]
  402788:	83 c6 01             	add    esi,0x1
  40278b:	83 c2 01             	add    edx,0x1
  40278e:	83 c6 01             	add    esi,0x1
  402791:	84 c0                	test   al,al
  402793:	88 42 ff             	mov    BYTE PTR [edx-0x1],al
  402796:	75 e5                	jne    40277d <_glob_match+0x1ed>
  402798:	89 0c 24             	mov    DWORD PTR [esp],ecx
  40279b:	e8 78 5b 00 00       	call   408318 <_strdup>
  4027a0:	89 dc                	mov    esp,ebx
  4027a2:	85 c0                	test   eax,eax
  4027a4:	89 c6                	mov    esi,eax
  4027a6:	0f 84 c6 01 00 00    	je     402972 <_glob_match+0x3e2>
  4027ac:	31 c0                	xor    eax,eax
  4027ae:	83 7d c4 02          	cmp    DWORD PTR [ebp-0x3c],0x2
  4027b2:	0f 94 c0             	sete   al
  4027b5:	83 e8 01             	sub    eax,0x1
  4027b8:	21 45 c4             	and    DWORD PTR [ebp-0x3c],eax
  4027bb:	8b 45 a8             	mov    eax,DWORD PTR [ebp-0x58]
  4027be:	85 c0                	test   eax,eax
  4027c0:	0f 85 9d 01 00 00    	jne    402963 <_glob_match+0x3d3>
  4027c6:	8b 5d bc             	mov    ebx,DWORD PTR [ebp-0x44]
  4027c9:	85 db                	test   ebx,ebx
  4027cb:	0f 84 bb 02 00 00    	je     402a8c <_glob_match+0x4fc>
  4027d1:	8b 7d cc             	mov    edi,DWORD PTR [ebp-0x34]
  4027d4:	81 e7 00 40 00 00    	and    edi,0x4000
  4027da:	eb 18                	jmp    4027f4 <_glob_match+0x264>
  4027dc:	8d 74 26 00          	lea    esi,[esi+eiz*1+0x0]
  4027e0:	e8 53 57 00 00       	call   407f38 <_strcoll>
  4027e5:	8b 0b                	mov    ecx,DWORD PTR [ebx]
  4027e7:	8b 53 04             	mov    edx,DWORD PTR [ebx+0x4]
  4027ea:	85 c0                	test   eax,eax
  4027ec:	7e 22                	jle    402810 <_glob_match+0x280>
  4027ee:	85 d2                	test   edx,edx
  4027f0:	74 24                	je     402816 <_glob_match+0x286>
  4027f2:	89 d3                	mov    ebx,edx
  4027f4:	8b 43 08             	mov    eax,DWORD PTR [ebx+0x8]
  4027f7:	85 ff                	test   edi,edi
  4027f9:	89 34 24             	mov    DWORD PTR [esp],esi
  4027fc:	89 44 24 04          	mov    DWORD PTR [esp+0x4],eax
  402800:	75 de                	jne    4027e0 <_glob_match+0x250>
  402802:	e8 09 5b 00 00       	call   408310 <_stricoll>
  402807:	8b 0b                	mov    ecx,DWORD PTR [ebx]
  402809:	8b 53 04             	mov    edx,DWORD PTR [ebx+0x4]
  40280c:	85 c0                	test   eax,eax
  40280e:	7f de                	jg     4027ee <_glob_match+0x25e>
  402810:	89 ca                	mov    edx,ecx
  402812:	85 d2                	test   edx,edx
  402814:	75 dc                	jne    4027f2 <_glob_match+0x262>
  402816:	89 c1                	mov    ecx,eax
  402818:	89 4d ac             	mov    DWORD PTR [ebp-0x54],ecx
  40281b:	c7 04 24 0c 00 00 00 	mov    DWORD PTR [esp],0xc
  402822:	e8 51 57 00 00       	call   407f78 <_malloc>
  402827:	85 c0                	test   eax,eax
  402829:	74 22                	je     40284d <_glob_match+0x2bd>
  40282b:	85 db                	test   ebx,ebx
  40282d:	89 70 08             	mov    DWORD PTR [eax+0x8],esi
  402830:	c7 40 04 00 00 00 00 	mov    DWORD PTR [eax+0x4],0x0
  402837:	c7 00 00 00 00 00    	mov    DWORD PTR [eax],0x0
  40283d:	74 0e                	je     40284d <_glob_match+0x2bd>
  40283f:	8b 4d ac             	mov    ecx,DWORD PTR [ebp-0x54]
  402842:	85 c9                	test   ecx,ecx
  402844:	0f 8e 16 02 00 00    	jle    402a60 <_glob_match+0x4d0>
  40284a:	89 43 04             	mov    DWORD PTR [ebx+0x4],eax
  40284d:	8b 7d bc             	mov    edi,DWORD PTR [ebp-0x44]
  402850:	85 ff                	test   edi,edi
  402852:	0f 84 15 02 00 00    	je     402a6d <_glob_match+0x4dd>
  402858:	8b 65 b0             	mov    esp,DWORD PTR [ebp-0x50]
  40285b:	e9 78 fe ff ff       	jmp    4026d8 <_glob_match+0x148>
  402860:	8b 45 b8             	mov    eax,DWORD PTR [ebp-0x48]
  402863:	89 e6                	mov    esi,esp
  402865:	89 04 24             	mov    DWORD PTR [esp],eax
  402868:	e8 c3 56 00 00       	call   407f30 <_strlen>
  40286d:	83 c0 10             	add    eax,0x10
  402870:	83 e0 f0             	and    eax,0xfffffff0
  402873:	e8 98 f6 ff ff       	call   401f10 <___chkstk_ms>
  402878:	8b 55 b8             	mov    edx,DWORD PTR [ebp-0x48]
  40287b:	29 c4                	sub    esp,eax
  40287d:	8d 7c 24 0c          	lea    edi,[esp+0xc]
  402881:	89 f9                	mov    ecx,edi
  402883:	eb 0d                	jmp    402892 <_glob_match+0x302>
  402885:	83 c1 01             	add    ecx,0x1
  402888:	83 c2 01             	add    edx,0x1
  40288b:	84 c0                	test   al,al
  40288d:	88 41 ff             	mov    BYTE PTR [ecx-0x1],al
  402890:	74 1b                	je     4028ad <_glob_match+0x31d>
  402892:	0f b6 02             	movzx  eax,BYTE PTR [edx]
  402895:	3c 7f                	cmp    al,0x7f
  402897:	75 ec                	jne    402885 <_glob_match+0x2f5>
  402899:	0f b6 42 01          	movzx  eax,BYTE PTR [edx+0x1]
  40289d:	83 c2 01             	add    edx,0x1
  4028a0:	83 c1 01             	add    ecx,0x1
  4028a3:	83 c2 01             	add    edx,0x1
  4028a6:	84 c0                	test   al,al
  4028a8:	88 41 ff             	mov    BYTE PTR [ecx-0x1],al
  4028ab:	75 e5                	jne    402892 <_glob_match+0x302>
  4028ad:	89 3c 24             	mov    DWORD PTR [esp],edi
  4028b0:	e8 63 5a 00 00       	call   408318 <_strdup>
  4028b5:	89 f4                	mov    esp,esi
  4028b7:	89 c1                	mov    ecx,eax
  4028b9:	b8 01 00 00 00       	mov    eax,0x1
  4028be:	85 c9                	test   ecx,ecx
  4028c0:	0f 84 25 fd ff ff    	je     4025eb <_glob_match+0x5b>
  4028c6:	8d 55 d8             	lea    edx,[ebp-0x28]
  4028c9:	89 c8                	mov    eax,ecx
  4028cb:	e8 f0 fb ff ff       	call   4024c0 <_glob_store_entry.part.2>
  4028d0:	e9 48 fd ff ff       	jmp    40261d <_glob_match+0x8d>
  4028d5:	8b 45 d4             	mov    eax,DWORD PTR [ebp-0x2c]
  4028d8:	89 04 24             	mov    DWORD PTR [esp],eax
  4028db:	e8 a0 0a 00 00       	call   403380 <___mingw_closedir>
  4028e0:	8b 75 bc             	mov    esi,DWORD PTR [ebp-0x44]
  4028e3:	85 f6                	test   esi,esi
  4028e5:	74 0b                	je     4028f2 <_glob_match+0x362>
  4028e7:	8b 55 08             	mov    edx,DWORD PTR [ebp+0x8]
  4028ea:	8b 45 bc             	mov    eax,DWORD PTR [ebp-0x44]
  4028ed:	e8 5e fc ff ff       	call   402550 <_glob_store_collated_entries>
  4028f2:	83 45 c8 04          	add    DWORD PTR [ebp-0x38],0x4
  4028f6:	8b 7d c8             	mov    edi,DWORD PTR [ebp-0x38]
  4028f9:	8b 47 fc             	mov    eax,DWORD PTR [edi-0x4]
  4028fc:	89 04 24             	mov    DWORD PTR [esp],eax
  4028ff:	e8 9c 56 00 00       	call   407fa0 <_free>
  402904:	8b 07                	mov    eax,DWORD PTR [edi]
  402906:	85 c0                	test   eax,eax
  402908:	0f 85 82 fd ff ff    	jne    402690 <_glob_match+0x100>
  40290e:	8b 45 e0             	mov    eax,DWORD PTR [ebp-0x20]
  402911:	89 04 24             	mov    DWORD PTR [esp],eax
  402914:	e8 87 56 00 00       	call   407fa0 <_free>
  402919:	8b 45 c4             	mov    eax,DWORD PTR [ebp-0x3c]
  40291c:	8d 65 f4             	lea    esp,[ebp-0xc]
  40291f:	5b                   	pop    ebx
  402920:	5e                   	pop    esi
  402921:	5f                   	pop    edi
  402922:	5d                   	pop    ebp
  402923:	c3                   	ret    
  402924:	8b 45 c8             	mov    eax,DWORD PTR [ebp-0x38]
  402927:	8b 75 b4             	mov    esi,DWORD PTR [ebp-0x4c]
  40292a:	89 55 9c             	mov    DWORD PTR [ebp-0x64],edx
  40292d:	8b 00                	mov    eax,DWORD PTR [eax]
  40292f:	89 74 24 08          	mov    DWORD PTR [esp+0x8],esi
  402933:	89 3c 24             	mov    DWORD PTR [esp],edi
  402936:	89 44 24 04          	mov    DWORD PTR [esp+0x4],eax
  40293a:	e8 29 56 00 00       	call   407f68 <_memcpy>
  40293f:	0f b6 44 34 0b       	movzx  eax,BYTE PTR [esp+esi*1+0xb]
  402944:	8b 55 9c             	mov    edx,DWORD PTR [ebp-0x64]
  402947:	3c 5c                	cmp    al,0x5c
  402949:	74 35                	je     402980 <_glob_match+0x3f0>
  40294b:	3c 2f                	cmp    al,0x2f
  40294d:	74 31                	je     402980 <_glob_match+0x3f0>
  40294f:	8b 75 b4             	mov    esi,DWORD PTR [ebp-0x4c]
  402952:	0f b6 4d a3          	movzx  ecx,BYTE PTR [ebp-0x5d]
  402956:	89 f0                	mov    eax,esi
  402958:	83 c0 01             	add    eax,0x1
  40295b:	88 0c 37             	mov    BYTE PTR [edi+esi*1],cl
  40295e:	e9 d4 fd ff ff       	jmp    402737 <_glob_match+0x1a7>
  402963:	8b 55 08             	mov    edx,DWORD PTR [ebp+0x8]
  402966:	89 f0                	mov    eax,esi
  402968:	e8 c3 fb ff ff       	call   402530 <_glob_store_entry>
  40296d:	e9 e6 fe ff ff       	jmp    402858 <_glob_match+0x2c8>
  402972:	c7 45 c4 03 00 00 00 	mov    DWORD PTR [ebp-0x3c],0x3
  402979:	e9 da fe ff ff       	jmp    402858 <_glob_match+0x2c8>
  40297e:	66 90                	xchg   ax,ax
  402980:	8b 45 b4             	mov    eax,DWORD PTR [ebp-0x4c]
  402983:	e9 af fd ff ff       	jmp    402737 <_glob_match+0x1a7>
  402988:	8b 45 b8             	mov    eax,DWORD PTR [ebp-0x48]
  40298b:	89 04 24             	mov    DWORD PTR [esp],eax
  40298e:	e8 9d 55 00 00       	call   407f30 <_strlen>
  402993:	01 d8                	add    eax,ebx
  402995:	39 c3                	cmp    ebx,eax
  402997:	0f 83 94 01 00 00    	jae    402b31 <_glob_match+0x5a1>
  40299d:	0f b6 10             	movzx  edx,BYTE PTR [eax]
  4029a0:	80 fa 2f             	cmp    dl,0x2f
  4029a3:	0f 84 7d 01 00 00    	je     402b26 <_glob_match+0x596>
  4029a9:	80 fa 5c             	cmp    dl,0x5c
  4029ac:	75 1d                	jne    4029cb <_glob_match+0x43b>
  4029ae:	66 90                	xchg   ax,ax
  4029b0:	e9 71 01 00 00       	jmp    402b26 <_glob_match+0x596>
  4029b5:	0f b6 40 ff          	movzx  eax,BYTE PTR [eax-0x1]
  4029b9:	3c 5c                	cmp    al,0x5c
  4029bb:	0f 84 c0 00 00 00    	je     402a81 <_glob_match+0x4f1>
  4029c1:	3c 2f                	cmp    al,0x2f
  4029c3:	0f 84 b8 00 00 00    	je     402a81 <_glob_match+0x4f1>
  4029c9:	89 d0                	mov    eax,edx
  4029cb:	8d 50 ff             	lea    edx,[eax-0x1]
  4029ce:	39 da                	cmp    edx,ebx
  4029d0:	75 e3                	jne    4029b5 <_glob_match+0x425>
  4029d2:	0f b6 40 ff          	movzx  eax,BYTE PTR [eax-0x1]
  4029d6:	89 55 c0             	mov    DWORD PTR [ebp-0x40],edx
  4029d9:	88 45 a3             	mov    BYTE PTR [ebp-0x5d],al
  4029dc:	80 7d a3 5c          	cmp    BYTE PTR [ebp-0x5d],0x5c
  4029e0:	0f 85 0c 01 00 00    	jne    402af2 <_glob_match+0x562>
  4029e6:	8b 45 c0             	mov    eax,DWORD PTR [ebp-0x40]
  4029e9:	0f b6 4d a3          	movzx  ecx,BYTE PTR [ebp-0x5d]
  4029ed:	83 c0 01             	add    eax,0x1
  4029f0:	0f b6 10             	movzx  edx,BYTE PTR [eax]
  4029f3:	80 fa 5c             	cmp    dl,0x5c
  4029f6:	75 0d                	jne    402a05 <_glob_match+0x475>
  4029f8:	83 c0 01             	add    eax,0x1
  4029fb:	89 d1                	mov    ecx,edx
  4029fd:	0f b6 10             	movzx  edx,BYTE PTR [eax]
  402a00:	80 fa 5c             	cmp    dl,0x5c
  402a03:	74 f3                	je     4029f8 <_glob_match+0x468>
  402a05:	80 fa 2f             	cmp    dl,0x2f
  402a08:	74 ee                	je     4029f8 <_glob_match+0x468>
  402a0a:	89 45 c0             	mov    DWORD PTR [ebp-0x40],eax
  402a0d:	88 4d a3             	mov    BYTE PTR [ebp-0x5d],cl
  402a10:	8b 45 b8             	mov    eax,DWORD PTR [ebp-0x48]
  402a13:	85 c0                	test   eax,eax
  402a15:	0f 85 47 fc ff ff    	jne    402662 <_glob_match+0xd2>
  402a1b:	8b 5d c0             	mov    ebx,DWORD PTR [ebp-0x40]
  402a1e:	e9 2b fc ff ff       	jmp    40264e <_glob_match+0xbe>
  402a23:	8b 5d 98             	mov    ebx,DWORD PTR [ebp-0x68]
  402a26:	85 db                	test   ebx,ebx
  402a28:	75 28                	jne    402a52 <_glob_match+0x4c2>
  402a2a:	8b 7d a4             	mov    edi,DWORD PTR [ebp-0x5c]
  402a2d:	85 ff                	test   edi,edi
  402a2f:	0f 84 bd fe ff ff    	je     4028f2 <_glob_match+0x362>
  402a35:	e8 9e 55 00 00       	call   407fd8 <__errno>
  402a3a:	8b 00                	mov    eax,DWORD PTR [eax]
  402a3c:	89 44 24 04          	mov    DWORD PTR [esp+0x4],eax
  402a40:	8b 45 c8             	mov    eax,DWORD PTR [ebp-0x38]
  402a43:	8b 00                	mov    eax,DWORD PTR [eax]
  402a45:	89 04 24             	mov    DWORD PTR [esp],eax
  402a48:	ff d7                	call   edi
  402a4a:	85 c0                	test   eax,eax
  402a4c:	0f 84 a0 fe ff ff    	je     4028f2 <_glob_match+0x362>
  402a52:	c7 45 c4 01 00 00 00 	mov    DWORD PTR [ebp-0x3c],0x1
  402a59:	e9 94 fe ff ff       	jmp    4028f2 <_glob_match+0x362>
  402a5e:	66 90                	xchg   ax,ax
  402a60:	8b 7d bc             	mov    edi,DWORD PTR [ebp-0x44]
  402a63:	89 03                	mov    DWORD PTR [ebx],eax
  402a65:	85 ff                	test   edi,edi
  402a67:	0f 85 eb fd ff ff    	jne    402858 <_glob_match+0x2c8>
  402a6d:	89 45 bc             	mov    DWORD PTR [ebp-0x44],eax
  402a70:	e9 e3 fd ff ff       	jmp    402858 <_glob_match+0x2c8>
  402a75:	c7 45 b4 00 00 00 00 	mov    DWORD PTR [ebp-0x4c],0x0
  402a7c:	e9 47 fc ff ff       	jmp    4026c8 <_glob_match+0x138>
  402a81:	89 55 c0             	mov    DWORD PTR [ebp-0x40],edx
  402a84:	88 45 a3             	mov    BYTE PTR [ebp-0x5d],al
  402a87:	e9 50 ff ff ff       	jmp    4029dc <_glob_match+0x44c>
  402a8c:	31 db                	xor    ebx,ebx
  402a8e:	31 c9                	xor    ecx,ecx
  402a90:	e9 83 fd ff ff       	jmp    402818 <_glob_match+0x288>
  402a95:	8b 55 cc             	mov    edx,DWORD PTR [ebp-0x34]
  402a98:	89 d8                	mov    eax,ebx
  402a9a:	e8 a1 f4 ff ff       	call   401f40 <_is_glob_pattern>
  402a9f:	85 c0                	test   eax,eax
  402aa1:	0f 85 bb fb ff ff    	jne    402662 <_glob_match+0xd2>
  402aa7:	89 1c 24             	mov    DWORD PTR [esp],ebx
  402aaa:	89 e6                	mov    esi,esp
  402aac:	e8 7f 54 00 00       	call   407f30 <_strlen>
  402ab1:	83 c0 10             	add    eax,0x10
  402ab4:	83 e0 f0             	and    eax,0xfffffff0
  402ab7:	e8 54 f4 ff ff       	call   401f10 <___chkstk_ms>
  402abc:	29 c4                	sub    esp,eax
  402abe:	8d 4c 24 0c          	lea    ecx,[esp+0xc]
  402ac2:	89 ca                	mov    edx,ecx
  402ac4:	eb 0d                	jmp    402ad3 <_glob_match+0x543>
  402ac6:	83 c2 01             	add    edx,0x1
  402ac9:	83 c3 01             	add    ebx,0x1
  402acc:	84 c0                	test   al,al
  402ace:	88 42 ff             	mov    BYTE PTR [edx-0x1],al
  402ad1:	74 32                	je     402b05 <_glob_match+0x575>
  402ad3:	0f b6 03             	movzx  eax,BYTE PTR [ebx]
  402ad6:	3c 7f                	cmp    al,0x7f
  402ad8:	75 ec                	jne    402ac6 <_glob_match+0x536>
  402ada:	0f b6 43 01          	movzx  eax,BYTE PTR [ebx+0x1]
  402ade:	83 c3 01             	add    ebx,0x1
  402ae1:	eb e3                	jmp    402ac6 <_glob_match+0x536>
  402ae3:	8b 45 c8             	mov    eax,DWORD PTR [ebp-0x38]
  402ae6:	c7 45 c4 02 00 00 00 	mov    DWORD PTR [ebp-0x3c],0x2
  402aed:	e9 1f fe ff ff       	jmp    402911 <_glob_match+0x381>
  402af2:	80 7d a3 2f          	cmp    BYTE PTR [ebp-0x5d],0x2f
  402af6:	0f 84 ea fe ff ff    	je     4029e6 <_glob_match+0x456>
  402afc:	c6 45 a3 5c          	mov    BYTE PTR [ebp-0x5d],0x5c
  402b00:	e9 0b ff ff ff       	jmp    402a10 <_glob_match+0x480>
  402b05:	89 0c 24             	mov    DWORD PTR [esp],ecx
  402b08:	e8 0b 58 00 00       	call   408318 <_strdup>
  402b0d:	8b 55 08             	mov    edx,DWORD PTR [ebp+0x8]
  402b10:	89 f4                	mov    esp,esi
  402b12:	e8 19 fa ff ff       	call   402530 <_glob_store_entry>
  402b17:	8b 45 e0             	mov    eax,DWORD PTR [ebp-0x20]
  402b1a:	c7 45 c4 00 00 00 00 	mov    DWORD PTR [ebp-0x3c],0x0
  402b21:	e9 eb fd ff ff       	jmp    402911 <_glob_match+0x381>
  402b26:	88 55 a3             	mov    BYTE PTR [ebp-0x5d],dl
  402b29:	89 45 c0             	mov    DWORD PTR [ebp-0x40],eax
  402b2c:	e9 ab fe ff ff       	jmp    4029dc <_glob_match+0x44c>
  402b31:	0f b6 08             	movzx  ecx,BYTE PTR [eax]
  402b34:	89 45 c0             	mov    DWORD PTR [ebp-0x40],eax
  402b37:	88 4d a3             	mov    BYTE PTR [ebp-0x5d],cl
  402b3a:	e9 9d fe ff ff       	jmp    4029dc <_glob_match+0x44c>
  402b3f:	90                   	nop

00402b40 <___mingw_glob>:
  402b40:	55                   	push   ebp
  402b41:	89 e5                	mov    ebp,esp
  402b43:	57                   	push   edi
  402b44:	56                   	push   esi
  402b45:	53                   	push   ebx
  402b46:	83 ec 1c             	sub    esp,0x1c
  402b49:	8b 75 14             	mov    esi,DWORD PTR [ebp+0x14]
  402b4c:	8b 5d 08             	mov    ebx,DWORD PTR [ebp+0x8]
  402b4f:	81 3e 22 a1 40 00    	cmp    DWORD PTR [esi],0x40a122
  402b55:	74 0d                	je     402b64 <___mingw_glob+0x24>
  402b57:	89 f0                	mov    eax,esi
  402b59:	e8 82 f6 ff ff       	call   4021e0 <_glob_initialise>
  402b5e:	c7 06 22 a1 40 00    	mov    DWORD PTR [esi],0x40a122
  402b64:	89 34 24             	mov    DWORD PTR [esp],esi
  402b67:	8b 4d 10             	mov    ecx,DWORD PTR [ebp+0x10]
  402b6a:	89 d8                	mov    eax,ebx
  402b6c:	8b 55 0c             	mov    edx,DWORD PTR [ebp+0xc]
  402b6f:	e8 1c fa ff ff       	call   402590 <_glob_match>
  402b74:	83 f8 02             	cmp    eax,0x2
  402b77:	89 c7                	mov    edi,eax
  402b79:	74 0a                	je     402b85 <___mingw_glob+0x45>
  402b7b:	8d 65 f4             	lea    esp,[ebp-0xc]
  402b7e:	89 f8                	mov    eax,edi
  402b80:	5b                   	pop    ebx
  402b81:	5e                   	pop    esi
  402b82:	5f                   	pop    edi
  402b83:	5d                   	pop    ebp
  402b84:	c3                   	ret    
  402b85:	f6 45 0c 10          	test   BYTE PTR [ebp+0xc],0x10
  402b89:	74 f0                	je     402b7b <___mingw_glob+0x3b>
  402b8b:	89 65 e4             	mov    DWORD PTR [ebp-0x1c],esp
  402b8e:	89 1c 24             	mov    DWORD PTR [esp],ebx
  402b91:	e8 9a 53 00 00       	call   407f30 <_strlen>
  402b96:	83 c0 10             	add    eax,0x10
  402b99:	83 e0 f0             	and    eax,0xfffffff0
  402b9c:	e8 6f f3 ff ff       	call   401f10 <___chkstk_ms>
  402ba1:	29 c4                	sub    esp,eax
  402ba3:	8d 4c 24 04          	lea    ecx,[esp+0x4]
  402ba7:	89 ca                	mov    edx,ecx
  402ba9:	eb 12                	jmp    402bbd <___mingw_glob+0x7d>
  402bab:	90                   	nop
  402bac:	8d 74 26 00          	lea    esi,[esi+eiz*1+0x0]
  402bb0:	83 c2 01             	add    edx,0x1
  402bb3:	83 c3 01             	add    ebx,0x1
  402bb6:	84 c0                	test   al,al
  402bb8:	88 42 ff             	mov    BYTE PTR [edx-0x1],al
  402bbb:	74 1b                	je     402bd8 <___mingw_glob+0x98>
  402bbd:	0f b6 03             	movzx  eax,BYTE PTR [ebx]
  402bc0:	3c 7f                	cmp    al,0x7f
  402bc2:	75 ec                	jne    402bb0 <___mingw_glob+0x70>
  402bc4:	0f b6 43 01          	movzx  eax,BYTE PTR [ebx+0x1]
  402bc8:	83 c3 01             	add    ebx,0x1
  402bcb:	83 c2 01             	add    edx,0x1
  402bce:	83 c3 01             	add    ebx,0x1
  402bd1:	84 c0                	test   al,al
  402bd3:	88 42 ff             	mov    BYTE PTR [edx-0x1],al
  402bd6:	75 e5                	jne    402bbd <___mingw_glob+0x7d>
  402bd8:	89 0c 24             	mov    DWORD PTR [esp],ecx
  402bdb:	e8 38 57 00 00       	call   408318 <_strdup>
  402be0:	8b 65 e4             	mov    esp,DWORD PTR [ebp-0x1c]
  402be3:	89 f2                	mov    edx,esi
  402be5:	e8 46 f9 ff ff       	call   402530 <_glob_store_entry>
  402bea:	8d 65 f4             	lea    esp,[ebp-0xc]
  402bed:	89 f8                	mov    eax,edi
  402bef:	5b                   	pop    ebx
  402bf0:	5e                   	pop    esi
  402bf1:	5f                   	pop    edi
  402bf2:	5d                   	pop    ebp
  402bf3:	c3                   	ret    
  402bf4:	8d b6 00 00 00 00    	lea    esi,[esi+0x0]
  402bfa:	8d bf 00 00 00 00    	lea    edi,[edi+0x0]

00402c00 <___mingw_globfree>:
  402c00:	8b 44 24 04          	mov    eax,DWORD PTR [esp+0x4]
  402c04:	81 38 22 a1 40 00    	cmp    DWORD PTR [eax],0x40a122
  402c0a:	74 04                	je     402c10 <___mingw_globfree+0x10>
  402c0c:	f3 c3                	repz ret 
  402c0e:	66 90                	xchg   ax,ax
  402c10:	e9 5b f8 ff ff       	jmp    402470 <_glob_registry.part.1>
  402c15:	90                   	nop
  402c16:	90                   	nop
  402c17:	90                   	nop
  402c18:	90                   	nop
  402c19:	90                   	nop
  402c1a:	90                   	nop
  402c1b:	90                   	nop
  402c1c:	90                   	nop
  402c1d:	90                   	nop
  402c1e:	90                   	nop
  402c1f:	90                   	nop

00402c20 <___mingw_dirname>:
  402c20:	55                   	push   ebp
  402c21:	89 e5                	mov    ebp,esp
  402c23:	57                   	push   edi
  402c24:	56                   	push   esi
  402c25:	53                   	push   ebx
  402c26:	83 ec 3c             	sub    esp,0x3c
  402c29:	8b 75 08             	mov    esi,DWORD PTR [ebp+0x8]
  402c2c:	c7 44 24 04 00 00 00 	mov    DWORD PTR [esp+0x4],0x0
  402c33:	00 
  402c34:	c7 04 24 02 00 00 00 	mov    DWORD PTR [esp],0x2
  402c3b:	e8 10 53 00 00       	call   407f50 <_setlocale>
  402c40:	85 c0                	test   eax,eax
  402c42:	89 c3                	mov    ebx,eax
  402c44:	74 0a                	je     402c50 <___mingw_dirname+0x30>
  402c46:	89 04 24             	mov    DWORD PTR [esp],eax
  402c49:	e8 ca 56 00 00       	call   408318 <_strdup>
  402c4e:	89 c3                	mov    ebx,eax
  402c50:	c7 44 24 04 34 a1 40 	mov    DWORD PTR [esp+0x4],0x40a134
  402c57:	00 
  402c58:	c7 04 24 02 00 00 00 	mov    DWORD PTR [esp],0x2
  402c5f:	e8 ec 52 00 00       	call   407f50 <_setlocale>
  402c64:	85 f6                	test   esi,esi
  402c66:	74 05                	je     402c6d <___mingw_dirname+0x4d>
  402c68:	80 3e 00             	cmp    BYTE PTR [esi],0x0
  402c6b:	75 73                	jne    402ce0 <___mingw_dirname+0xc0>
  402c6d:	c7 44 24 08 00 00 00 	mov    DWORD PTR [esp+0x8],0x0
  402c74:	00 
  402c75:	c7 44 24 04 36 a1 40 	mov    DWORD PTR [esp+0x4],0x40a136
  402c7c:	00 
  402c7d:	c7 04 24 00 00 00 00 	mov    DWORD PTR [esp],0x0
  402c84:	e8 87 52 00 00       	call   407f10 <_wcstombs>
  402c89:	8d 70 01             	lea    esi,[eax+0x1]
  402c8c:	89 74 24 04          	mov    DWORD PTR [esp+0x4],esi
  402c90:	a1 68 d0 40 00       	mov    eax,ds:0x40d068
  402c95:	89 04 24             	mov    DWORD PTR [esp],eax
  402c98:	e8 bb 52 00 00       	call   407f58 <_realloc>
  402c9d:	a3 68 d0 40 00       	mov    ds:0x40d068,eax
  402ca2:	89 74 24 08          	mov    DWORD PTR [esp+0x8],esi
  402ca6:	c7 44 24 04 36 a1 40 	mov    DWORD PTR [esp+0x4],0x40a136
  402cad:	00 
  402cae:	89 04 24             	mov    DWORD PTR [esp],eax
  402cb1:	e8 5a 52 00 00       	call   407f10 <_wcstombs>
  402cb6:	89 5c 24 04          	mov    DWORD PTR [esp+0x4],ebx
  402cba:	c7 04 24 02 00 00 00 	mov    DWORD PTR [esp],0x2
  402cc1:	e8 8a 52 00 00       	call   407f50 <_setlocale>
  402cc6:	89 1c 24             	mov    DWORD PTR [esp],ebx
  402cc9:	e8 d2 52 00 00       	call   407fa0 <_free>
  402cce:	a1 68 d0 40 00       	mov    eax,ds:0x40d068
  402cd3:	8d 65 f4             	lea    esp,[ebp-0xc]
  402cd6:	5b                   	pop    ebx
  402cd7:	5e                   	pop    esi
  402cd8:	5f                   	pop    edi
  402cd9:	5d                   	pop    ebp
  402cda:	c3                   	ret    
  402cdb:	90                   	nop
  402cdc:	8d 74 26 00          	lea    esi,[esi+eiz*1+0x0]
  402ce0:	89 65 d4             	mov    DWORD PTR [ebp-0x2c],esp
  402ce3:	c7 44 24 08 00 00 00 	mov    DWORD PTR [esp+0x8],0x0
  402cea:	00 
  402ceb:	89 74 24 04          	mov    DWORD PTR [esp+0x4],esi
  402cef:	c7 04 24 00 00 00 00 	mov    DWORD PTR [esp],0x0
  402cf6:	e8 75 52 00 00       	call   407f70 <_mbstowcs>
  402cfb:	89 c2                	mov    edx,eax
  402cfd:	8d 44 00 12          	lea    eax,[eax+eax*1+0x12]
  402d01:	83 e0 f0             	and    eax,0xfffffff0
  402d04:	e8 07 f2 ff ff       	call   401f10 <___chkstk_ms>
  402d09:	29 c4                	sub    esp,eax
  402d0b:	8d 44 24 0d          	lea    eax,[esp+0xd]
  402d0f:	89 45 e4             	mov    DWORD PTR [ebp-0x1c],eax
  402d12:	d1 6d e4             	shr    DWORD PTR [ebp-0x1c],1
  402d15:	8b 45 e4             	mov    eax,DWORD PTR [ebp-0x1c]
  402d18:	01 c0                	add    eax,eax
  402d1a:	89 45 e0             	mov    DWORD PTR [ebp-0x20],eax
  402d1d:	89 c7                	mov    edi,eax
  402d1f:	89 54 24 08          	mov    DWORD PTR [esp+0x8],edx
  402d23:	89 74 24 04          	mov    DWORD PTR [esp+0x4],esi
  402d27:	89 04 24             	mov    DWORD PTR [esp],eax
  402d2a:	e8 41 52 00 00       	call   407f70 <_mbstowcs>
  402d2f:	31 c9                	xor    ecx,ecx
  402d31:	66 89 0c 47          	mov    WORD PTR [edi+eax*2],cx
  402d35:	83 f8 01             	cmp    eax,0x1
  402d38:	89 45 d0             	mov    DWORD PTR [ebp-0x30],eax
  402d3b:	8b 45 e4             	mov    eax,DWORD PTR [ebp-0x1c]
  402d3e:	0f b7 04 00          	movzx  eax,WORD PTR [eax+eax*1]
  402d42:	66 89 45 da          	mov    WORD PTR [ebp-0x26],ax
  402d46:	0f 86 f2 00 00 00    	jbe    402e3e <___mingw_dirname+0x21e>
  402d4c:	66 83 f8 5c          	cmp    ax,0x5c
  402d50:	74 0a                	je     402d5c <___mingw_dirname+0x13c>
  402d52:	66 83 f8 2f          	cmp    ax,0x2f
  402d56:	0f 85 0a 01 00 00    	jne    402e66 <___mingw_dirname+0x246>
  402d5c:	8b 7d e0             	mov    edi,DWORD PTR [ebp-0x20]
  402d5f:	89 7d dc             	mov    DWORD PTR [ebp-0x24],edi
  402d62:	8b 7d e4             	mov    edi,DWORD PTR [ebp-0x1c]
  402d65:	66 3b 44 3f 02       	cmp    ax,WORD PTR [edi+edi*1+0x2]
  402d6a:	0f 84 4f 02 00 00    	je     402fbf <___mingw_dirname+0x39f>
  402d70:	0f b7 45 da          	movzx  eax,WORD PTR [ebp-0x26]
  402d74:	66 85 c0             	test   ax,ax
  402d77:	0f 84 fa 01 00 00    	je     402f77 <___mingw_dirname+0x357>
  402d7d:	8b 55 dc             	mov    edx,DWORD PTR [ebp-0x24]
  402d80:	89 d7                	mov    edi,edx
  402d82:	eb 14                	jmp    402d98 <___mingw_dirname+0x178>
  402d84:	66 83 f8 2f          	cmp    ax,0x2f
  402d88:	74 20                	je     402daa <___mingw_dirname+0x18a>
  402d8a:	0f b7 42 02          	movzx  eax,WORD PTR [edx+0x2]
  402d8e:	8d 4a 02             	lea    ecx,[edx+0x2]
  402d91:	66 85 c0             	test   ax,ax
  402d94:	74 36                	je     402dcc <___mingw_dirname+0x1ac>
  402d96:	89 ca                	mov    edx,ecx
  402d98:	66 83 f8 5c          	cmp    ax,0x5c
  402d9c:	75 e6                	jne    402d84 <___mingw_dirname+0x164>
  402d9e:	0f b7 02             	movzx  eax,WORD PTR [edx]
  402da1:	66 83 f8 5c          	cmp    ax,0x5c
  402da5:	75 0c                	jne    402db3 <___mingw_dirname+0x193>
  402da7:	83 c2 02             	add    edx,0x2
  402daa:	0f b7 02             	movzx  eax,WORD PTR [edx]
  402dad:	66 83 f8 5c          	cmp    ax,0x5c
  402db1:	74 f4                	je     402da7 <___mingw_dirname+0x187>
  402db3:	66 83 f8 2f          	cmp    ax,0x2f
  402db7:	74 ee                	je     402da7 <___mingw_dirname+0x187>
  402db9:	66 85 c0             	test   ax,ax
  402dbc:	74 0e                	je     402dcc <___mingw_dirname+0x1ac>
  402dbe:	0f b7 42 02          	movzx  eax,WORD PTR [edx+0x2]
  402dc2:	89 d7                	mov    edi,edx
  402dc4:	8d 4a 02             	lea    ecx,[edx+0x2]
  402dc7:	66 85 c0             	test   ax,ax
  402dca:	75 ca                	jne    402d96 <___mingw_dirname+0x176>
  402dcc:	8b 4d dc             	mov    ecx,DWORD PTR [ebp-0x24]
  402dcf:	39 f9                	cmp    ecx,edi
  402dd1:	72 7e                	jb     402e51 <___mingw_dirname+0x231>
  402dd3:	66 83 7d da 5c       	cmp    WORD PTR [ebp-0x26],0x5c
  402dd8:	74 0b                	je     402de5 <___mingw_dirname+0x1c5>
  402dda:	66 83 7d da 2f       	cmp    WORD PTR [ebp-0x26],0x2f
  402ddf:	0f 85 ba 01 00 00    	jne    402f9f <___mingw_dirname+0x37f>
  402de5:	8b 45 dc             	mov    eax,DWORD PTR [ebp-0x24]
  402de8:	83 c0 02             	add    eax,0x2
  402deb:	31 d2                	xor    edx,edx
  402ded:	66 89 10             	mov    WORD PTR [eax],dx
  402df0:	c7 44 24 08 00 00 00 	mov    DWORD PTR [esp+0x8],0x0
  402df7:	00 
  402df8:	8b 45 e0             	mov    eax,DWORD PTR [ebp-0x20]
  402dfb:	c7 04 24 00 00 00 00 	mov    DWORD PTR [esp],0x0
  402e02:	89 44 24 04          	mov    DWORD PTR [esp+0x4],eax
  402e06:	e8 05 51 00 00       	call   407f10 <_wcstombs>
  402e0b:	8d 78 01             	lea    edi,[eax+0x1]
  402e0e:	89 7c 24 04          	mov    DWORD PTR [esp+0x4],edi
  402e12:	a1 68 d0 40 00       	mov    eax,ds:0x40d068
  402e17:	89 04 24             	mov    DWORD PTR [esp],eax
  402e1a:	e8 39 51 00 00       	call   407f58 <_realloc>
  402e1f:	a3 68 d0 40 00       	mov    ds:0x40d068,eax
  402e24:	89 c6                	mov    esi,eax
  402e26:	89 7c 24 08          	mov    DWORD PTR [esp+0x8],edi
  402e2a:	8b 45 e0             	mov    eax,DWORD PTR [ebp-0x20]
  402e2d:	89 34 24             	mov    DWORD PTR [esp],esi
  402e30:	89 44 24 04          	mov    DWORD PTR [esp+0x4],eax
  402e34:	e8 d7 50 00 00       	call   407f10 <_wcstombs>
  402e39:	e9 e9 00 00 00       	jmp    402f27 <___mingw_dirname+0x307>
  402e3e:	8b 45 e0             	mov    eax,DWORD PTR [ebp-0x20]
  402e41:	89 45 dc             	mov    DWORD PTR [ebp-0x24],eax
  402e44:	e9 27 ff ff ff       	jmp    402d70 <___mingw_dirname+0x150>
  402e49:	66 83 fa 2f          	cmp    dx,0x2f
  402e4d:	75 46                	jne    402e95 <___mingw_dirname+0x275>
  402e4f:	89 c7                	mov    edi,eax
  402e51:	8d 47 fe             	lea    eax,[edi-0x2]
  402e54:	39 c1                	cmp    ecx,eax
  402e56:	73 3d                	jae    402e95 <___mingw_dirname+0x275>
  402e58:	0f b7 57 fe          	movzx  edx,WORD PTR [edi-0x2]
  402e5c:	66 83 fa 5c          	cmp    dx,0x5c
  402e60:	75 e7                	jne    402e49 <___mingw_dirname+0x229>
  402e62:	89 c7                	mov    edi,eax
  402e64:	eb eb                	jmp    402e51 <___mingw_dirname+0x231>
  402e66:	8b 45 e0             	mov    eax,DWORD PTR [ebp-0x20]
  402e69:	89 45 dc             	mov    DWORD PTR [ebp-0x24],eax
  402e6c:	8b 45 e4             	mov    eax,DWORD PTR [ebp-0x1c]
  402e6f:	66 83 7c 00 02 3a    	cmp    WORD PTR [eax+eax*1+0x2],0x3a
  402e75:	0f 85 f5 fe ff ff    	jne    402d70 <___mingw_dirname+0x150>
  402e7b:	8b 45 e0             	mov    eax,DWORD PTR [ebp-0x20]
  402e7e:	83 c0 04             	add    eax,0x4
  402e81:	89 45 dc             	mov    DWORD PTR [ebp-0x24],eax
  402e84:	8b 45 e4             	mov    eax,DWORD PTR [ebp-0x1c]
  402e87:	0f b7 44 00 04       	movzx  eax,WORD PTR [eax+eax*1+0x4]
  402e8c:	66 89 45 da          	mov    WORD PTR [ebp-0x26],ax
  402e90:	e9 db fe ff ff       	jmp    402d70 <___mingw_dirname+0x150>
  402e95:	39 45 dc             	cmp    DWORD PTR [ebp-0x24],eax
  402e98:	0f 84 37 01 00 00    	je     402fd5 <___mingw_dirname+0x3b5>
  402e9e:	31 d2                	xor    edx,edx
  402ea0:	66 89 50 02          	mov    WORD PTR [eax+0x2],dx
  402ea4:	8b 45 e4             	mov    eax,DWORD PTR [ebp-0x1c]
  402ea7:	0f b7 14 00          	movzx  edx,WORD PTR [eax+eax*1]
  402eab:	8b 45 e0             	mov    eax,DWORD PTR [ebp-0x20]
  402eae:	66 83 fa 5c          	cmp    dx,0x5c
  402eb2:	0f 85 c7 00 00 00    	jne    402f7f <___mingw_dirname+0x35f>
  402eb8:	83 c0 02             	add    eax,0x2
  402ebb:	0f b7 08             	movzx  ecx,WORD PTR [eax]
  402ebe:	66 83 f9 5c          	cmp    cx,0x5c
  402ec2:	74 f4                	je     402eb8 <___mingw_dirname+0x298>
  402ec4:	66 83 f9 2f          	cmp    cx,0x2f
  402ec8:	74 ee                	je     402eb8 <___mingw_dirname+0x298>
  402eca:	89 c1                	mov    ecx,eax
  402ecc:	2b 4d e0             	sub    ecx,DWORD PTR [ebp-0x20]
  402ecf:	83 f9 05             	cmp    ecx,0x5
  402ed2:	0f 8e b1 00 00 00    	jle    402f89 <___mingw_dirname+0x369>
  402ed8:	8b 45 e0             	mov    eax,DWORD PTR [ebp-0x20]
  402edb:	89 c1                	mov    ecx,eax
  402edd:	66 85 d2             	test   dx,dx
  402ee0:	74 21                	je     402f03 <___mingw_dirname+0x2e3>
  402ee2:	83 c1 02             	add    ecx,0x2
  402ee5:	66 83 fa 2f          	cmp    dx,0x2f
  402ee9:	66 89 51 fe          	mov    WORD PTR [ecx-0x2],dx
  402eed:	74 63                	je     402f52 <___mingw_dirname+0x332>
  402eef:	66 83 38 5c          	cmp    WORD PTR [eax],0x5c
  402ef3:	8d 78 02             	lea    edi,[eax+0x2]
  402ef6:	74 58                	je     402f50 <___mingw_dirname+0x330>
  402ef8:	0f b7 50 02          	movzx  edx,WORD PTR [eax+0x2]
  402efc:	89 f8                	mov    eax,edi
  402efe:	66 85 d2             	test   dx,dx
  402f01:	75 df                	jne    402ee2 <___mingw_dirname+0x2c2>
  402f03:	8b 45 d0             	mov    eax,DWORD PTR [ebp-0x30]
  402f06:	31 ff                	xor    edi,edi
  402f08:	66 89 39             	mov    WORD PTR [ecx],di
  402f0b:	89 44 24 08          	mov    DWORD PTR [esp+0x8],eax
  402f0f:	8b 45 e0             	mov    eax,DWORD PTR [ebp-0x20]
  402f12:	89 34 24             	mov    DWORD PTR [esp],esi
  402f15:	89 44 24 04          	mov    DWORD PTR [esp+0x4],eax
  402f19:	e8 f2 4f 00 00       	call   407f10 <_wcstombs>
  402f1e:	83 f8 ff             	cmp    eax,0xffffffff
  402f21:	74 04                	je     402f27 <___mingw_dirname+0x307>
  402f23:	c6 04 06 00          	mov    BYTE PTR [esi+eax*1],0x0
  402f27:	89 5c 24 04          	mov    DWORD PTR [esp+0x4],ebx
  402f2b:	c7 04 24 02 00 00 00 	mov    DWORD PTR [esp],0x2
  402f32:	e8 19 50 00 00       	call   407f50 <_setlocale>
  402f37:	89 1c 24             	mov    DWORD PTR [esp],ebx
  402f3a:	e8 61 50 00 00       	call   407fa0 <_free>
  402f3f:	8b 65 d4             	mov    esp,DWORD PTR [ebp-0x2c]
  402f42:	8d 65 f4             	lea    esp,[ebp-0xc]
  402f45:	5b                   	pop    ebx
  402f46:	89 f0                	mov    eax,esi
  402f48:	5e                   	pop    esi
  402f49:	5f                   	pop    edi
  402f4a:	5d                   	pop    ebp
  402f4b:	c3                   	ret    
  402f4c:	8d 74 26 00          	lea    esi,[esi+eiz*1+0x0]
  402f50:	89 f8                	mov    eax,edi
  402f52:	0f b7 10             	movzx  edx,WORD PTR [eax]
  402f55:	66 83 fa 2f          	cmp    dx,0x2f
  402f59:	75 59                	jne    402fb4 <___mingw_dirname+0x394>
  402f5b:	90                   	nop
  402f5c:	8d 74 26 00          	lea    esi,[esi+eiz*1+0x0]
  402f60:	83 c0 02             	add    eax,0x2
  402f63:	0f b7 10             	movzx  edx,WORD PTR [eax]
  402f66:	66 83 fa 5c          	cmp    dx,0x5c
  402f6a:	74 f4                	je     402f60 <___mingw_dirname+0x340>
  402f6c:	66 83 fa 2f          	cmp    dx,0x2f
  402f70:	74 ee                	je     402f60 <___mingw_dirname+0x340>
  402f72:	e9 66 ff ff ff       	jmp    402edd <___mingw_dirname+0x2bd>
  402f77:	8b 65 d4             	mov    esp,DWORD PTR [ebp-0x2c]
  402f7a:	e9 ee fc ff ff       	jmp    402c6d <___mingw_dirname+0x4d>
  402f7f:	66 83 fa 2f          	cmp    dx,0x2f
  402f83:	0f 84 2f ff ff ff    	je     402eb8 <___mingw_dirname+0x298>
  402f89:	8b 7d e4             	mov    edi,DWORD PTR [ebp-0x1c]
  402f8c:	66 39 54 3f 02       	cmp    WORD PTR [edi+edi*1+0x2],dx
  402f91:	0f 85 41 ff ff ff    	jne    402ed8 <___mingw_dirname+0x2b8>
  402f97:	0f b7 10             	movzx  edx,WORD PTR [eax]
  402f9a:	e9 3c ff ff ff       	jmp    402edb <___mingw_dirname+0x2bb>
  402f9f:	8b 7d dc             	mov    edi,DWORD PTR [ebp-0x24]
  402fa2:	b9 2e 00 00 00       	mov    ecx,0x2e
  402fa7:	89 f8                	mov    eax,edi
  402fa9:	83 c0 02             	add    eax,0x2
  402fac:	66 89 0f             	mov    WORD PTR [edi],cx
  402faf:	e9 37 fe ff ff       	jmp    402deb <___mingw_dirname+0x1cb>
  402fb4:	66 83 fa 5c          	cmp    dx,0x5c
  402fb8:	74 a6                	je     402f60 <___mingw_dirname+0x340>
  402fba:	e9 1e ff ff ff       	jmp    402edd <___mingw_dirname+0x2bd>
  402fbf:	66 83 7c 3f 04 00    	cmp    WORD PTR [edi+edi*1+0x4],0x0
  402fc5:	0f 85 a5 fd ff ff    	jne    402d70 <___mingw_dirname+0x150>
  402fcb:	90                   	nop
  402fcc:	8d 74 26 00          	lea    esi,[esi+eiz*1+0x0]
  402fd0:	e9 52 ff ff ff       	jmp    402f27 <___mingw_dirname+0x307>
  402fd5:	66 83 7d da 5c       	cmp    WORD PTR [ebp-0x26],0x5c
  402fda:	74 0e                	je     402fea <___mingw_dirname+0x3ca>
  402fdc:	66 83 7d da 2f       	cmp    WORD PTR [ebp-0x26],0x2f
  402fe1:	8b 45 dc             	mov    eax,DWORD PTR [ebp-0x24]
  402fe4:	0f 85 b4 fe ff ff    	jne    402e9e <___mingw_dirname+0x27e>
  402fea:	8b 45 dc             	mov    eax,DWORD PTR [ebp-0x24]
  402fed:	0f b7 4d da          	movzx  ecx,WORD PTR [ebp-0x26]
  402ff1:	66 39 48 02          	cmp    WORD PTR [eax+0x2],cx
  402ff5:	0f 85 a3 fe ff ff    	jne    402e9e <___mingw_dirname+0x27e>
  402ffb:	0f b7 50 04          	movzx  edx,WORD PTR [eax+0x4]
  402fff:	66 83 fa 2f          	cmp    dx,0x2f
  403003:	0f 84 95 fe ff ff    	je     402e9e <___mingw_dirname+0x27e>
  403009:	66 83 fa 5c          	cmp    dx,0x5c
  40300d:	89 f8                	mov    eax,edi
  40300f:	0f 85 89 fe ff ff    	jne    402e9e <___mingw_dirname+0x27e>
  403015:	8b 45 dc             	mov    eax,DWORD PTR [ebp-0x24]
  403018:	e9 81 fe ff ff       	jmp    402e9e <___mingw_dirname+0x27e>
  40301d:	90                   	nop
  40301e:	90                   	nop
  40301f:	90                   	nop

00403020 <_dirent_findnext>:
  403020:	55                   	push   ebp
  403021:	89 e5                	mov    ebp,esp
  403023:	56                   	push   esi
  403024:	89 d6                	mov    esi,edx
  403026:	53                   	push   ebx
  403027:	81 ec 50 01 00 00    	sub    esp,0x150
  40302d:	8d 95 b8 fe ff ff    	lea    edx,[ebp-0x148]
  403033:	89 54 24 04          	mov    DWORD PTR [esp+0x4],edx
  403037:	89 04 24             	mov    DWORD PTR [esp],eax
  40303a:	e8 39 50 00 00       	call   408078 <_FindNextFileA@8>
  40303f:	83 ec 08             	sub    esp,0x8
  403042:	85 c0                	test   eax,eax
  403044:	89 c3                	mov    ebx,eax
  403046:	75 20                	jne    403068 <_dirent_findnext+0x48>
  403048:	e8 1b 50 00 00       	call   408068 <_GetLastError@0>
  40304d:	31 db                	xor    ebx,ebx
  40304f:	83 f8 12             	cmp    eax,0x12
  403052:	74 0b                	je     40305f <_dirent_findnext+0x3f>
  403054:	e8 7f 4f 00 00       	call   407fd8 <__errno>
  403059:	c7 00 02 00 00 00    	mov    DWORD PTR [eax],0x2
  40305f:	8d 65 f8             	lea    esp,[ebp-0x8]
  403062:	89 d8                	mov    eax,ebx
  403064:	5b                   	pop    ebx
  403065:	5e                   	pop    esi
  403066:	5d                   	pop    ebp
  403067:	c3                   	ret    
  403068:	8d 85 e4 fe ff ff    	lea    eax,[ebp-0x11c]
  40306e:	89 44 24 0c          	mov    DWORD PTR [esp+0xc],eax
  403072:	8d 46 0c             	lea    eax,[esi+0xc]
  403075:	c7 44 24 08 3c a1 40 	mov    DWORD PTR [esp+0x8],0x40a13c
  40307c:	00 
  40307d:	c7 44 24 04 04 01 00 	mov    DWORD PTR [esp+0x4],0x104
  403084:	00 
  403085:	89 04 24             	mov    DWORD PTR [esp],eax
  403088:	e8 43 04 00 00       	call   4034d0 <___mingw_snprintf>
  40308d:	66 89 46 06          	mov    WORD PTR [esi+0x6],ax
  403091:	8b 85 b8 fe ff ff    	mov    eax,DWORD PTR [ebp-0x148]
  403097:	24 58                	and    al,0x58
  403099:	83 f8 10             	cmp    eax,0x10
  40309c:	76 12                	jbe    4030b0 <_dirent_findnext+0x90>
  40309e:	c7 46 08 18 00 00 00 	mov    DWORD PTR [esi+0x8],0x18
  4030a5:	8d 65 f8             	lea    esp,[ebp-0x8]
  4030a8:	89 d8                	mov    eax,ebx
  4030aa:	5b                   	pop    ebx
  4030ab:	5e                   	pop    esi
  4030ac:	5d                   	pop    ebp
  4030ad:	c3                   	ret    
  4030ae:	66 90                	xchg   ax,ax
  4030b0:	89 46 08             	mov    DWORD PTR [esi+0x8],eax
  4030b3:	8d 65 f8             	lea    esp,[ebp-0x8]
  4030b6:	89 d8                	mov    eax,ebx
  4030b8:	5b                   	pop    ebx
  4030b9:	5e                   	pop    esi
  4030ba:	5d                   	pop    ebp
  4030bb:	c3                   	ret    
  4030bc:	8d 74 26 00          	lea    esi,[esi+eiz*1+0x0]

004030c0 <_dirent_findfirst>:
  4030c0:	55                   	push   ebp
  4030c1:	89 e5                	mov    ebp,esp
  4030c3:	56                   	push   esi
  4030c4:	53                   	push   ebx
  4030c5:	89 d3                	mov    ebx,edx
  4030c7:	81 ec 50 01 00 00    	sub    esp,0x150
  4030cd:	8d 95 b8 fe ff ff    	lea    edx,[ebp-0x148]
  4030d3:	89 54 24 04          	mov    DWORD PTR [esp+0x4],edx
  4030d7:	89 04 24             	mov    DWORD PTR [esp],eax
  4030da:	e8 a1 4f 00 00       	call   408080 <_FindFirstFileA@8>
  4030df:	83 ec 08             	sub    esp,0x8
  4030e2:	83 f8 ff             	cmp    eax,0xffffffff
  4030e5:	89 c6                	mov    esi,eax
  4030e7:	74 4a                	je     403133 <_dirent_findfirst+0x73>
  4030e9:	8d 85 e4 fe ff ff    	lea    eax,[ebp-0x11c]
  4030ef:	89 44 24 0c          	mov    DWORD PTR [esp+0xc],eax
  4030f3:	8d 43 0c             	lea    eax,[ebx+0xc]
  4030f6:	c7 44 24 08 3c a1 40 	mov    DWORD PTR [esp+0x8],0x40a13c
  4030fd:	00 
  4030fe:	c7 44 24 04 04 01 00 	mov    DWORD PTR [esp+0x4],0x104
  403105:	00 
  403106:	89 04 24             	mov    DWORD PTR [esp],eax
  403109:	e8 c2 03 00 00       	call   4034d0 <___mingw_snprintf>
  40310e:	8b 8d b8 fe ff ff    	mov    ecx,DWORD PTR [ebp-0x148]
  403114:	80 e1 58             	and    cl,0x58
  403117:	83 f9 10             	cmp    ecx,0x10
  40311a:	66 89 43 06          	mov    WORD PTR [ebx+0x6],ax
  40311e:	89 4b 08             	mov    DWORD PTR [ebx+0x8],ecx
  403121:	76 07                	jbe    40312a <_dirent_findfirst+0x6a>
  403123:	c7 43 08 18 00 00 00 	mov    DWORD PTR [ebx+0x8],0x18
  40312a:	8d 65 f8             	lea    esp,[ebp-0x8]
  40312d:	89 f0                	mov    eax,esi
  40312f:	5b                   	pop    ebx
  403130:	5e                   	pop    esi
  403131:	5d                   	pop    ebp
  403132:	c3                   	ret    
  403133:	e8 a0 4e 00 00       	call   407fd8 <__errno>
  403138:	89 c3                	mov    ebx,eax
  40313a:	e8 29 4f 00 00       	call   408068 <_GetLastError@0>
  40313f:	83 f8 03             	cmp    eax,0x3
  403142:	89 03                	mov    DWORD PTR [ebx],eax
  403144:	74 2a                	je     403170 <_dirent_findfirst+0xb0>
  403146:	e8 8d 4e 00 00       	call   407fd8 <__errno>
  40314b:	81 38 0b 01 00 00    	cmp    DWORD PTR [eax],0x10b
  403151:	74 2d                	je     403180 <_dirent_findfirst+0xc0>
  403153:	e8 80 4e 00 00       	call   407fd8 <__errno>
  403158:	83 38 02             	cmp    DWORD PTR [eax],0x2
  40315b:	74 cd                	je     40312a <_dirent_findfirst+0x6a>
  40315d:	8d 76 00             	lea    esi,[esi+0x0]
  403160:	e8 73 4e 00 00       	call   407fd8 <__errno>
  403165:	c7 00 16 00 00 00    	mov    DWORD PTR [eax],0x16
  40316b:	eb bd                	jmp    40312a <_dirent_findfirst+0x6a>
  40316d:	8d 76 00             	lea    esi,[esi+0x0]
  403170:	e8 63 4e 00 00       	call   407fd8 <__errno>
  403175:	c7 00 02 00 00 00    	mov    DWORD PTR [eax],0x2
  40317b:	eb ad                	jmp    40312a <_dirent_findfirst+0x6a>
  40317d:	8d 76 00             	lea    esi,[esi+0x0]
  403180:	e8 53 4e 00 00       	call   407fd8 <__errno>
  403185:	c7 00 14 00 00 00    	mov    DWORD PTR [eax],0x14
  40318b:	eb 9d                	jmp    40312a <_dirent_findfirst+0x6a>
  40318d:	8d 76 00             	lea    esi,[esi+0x0]

00403190 <___mingw_opendir>:
  403190:	55                   	push   ebp
  403191:	57                   	push   edi
  403192:	56                   	push   esi
  403193:	53                   	push   ebx
  403194:	81 ec 2c 01 00 00    	sub    esp,0x12c
  40319a:	8b 84 24 40 01 00 00 	mov    eax,DWORD PTR [esp+0x140]
  4031a1:	85 c0                	test   eax,eax
  4031a3:	0f 84 67 01 00 00    	je     403310 <___mingw_opendir+0x180>
  4031a9:	80 38 00             	cmp    BYTE PTR [eax],0x0
  4031ac:	0f 84 40 01 00 00    	je     4032f2 <___mingw_opendir+0x162>
  4031b2:	8d 7c 24 1c          	lea    edi,[esp+0x1c]
  4031b6:	c7 44 24 08 04 01 00 	mov    DWORD PTR [esp+0x8],0x104
  4031bd:	00 
  4031be:	89 fb                	mov    ebx,edi
  4031c0:	89 44 24 04          	mov    DWORD PTR [esp+0x4],eax
  4031c4:	89 3c 24             	mov    DWORD PTR [esp],edi
  4031c7:	e8 04 4e 00 00       	call   407fd0 <__fullpath>
  4031cc:	80 7c 24 1c 00       	cmp    BYTE PTR [esp+0x1c],0x0
  4031d1:	74 5d                	je     403230 <___mingw_opendir+0xa0>
  4031d3:	8b 13                	mov    edx,DWORD PTR [ebx]
  4031d5:	83 c3 04             	add    ebx,0x4
  4031d8:	8d 82 ff fe fe fe    	lea    eax,[edx-0x1010101]
  4031de:	f7 d2                	not    edx
  4031e0:	21 d0                	and    eax,edx
  4031e2:	25 80 80 80 80       	and    eax,0x80808080
  4031e7:	74 ea                	je     4031d3 <___mingw_opendir+0x43>
  4031e9:	a9 80 80 00 00       	test   eax,0x8080
  4031ee:	0f 84 df 00 00 00    	je     4032d3 <___mingw_opendir+0x143>
  4031f4:	00 c0                	add    al,al
  4031f6:	83 db 03             	sbb    ebx,0x3
  4031f9:	29 fb                	sub    ebx,edi
  4031fb:	0f b6 44 1c 1b       	movzx  eax,BYTE PTR [esp+ebx*1+0x1b]
  403200:	3c 5c                	cmp    al,0x5c
  403202:	74 50                	je     403254 <___mingw_opendir+0xc4>
  403204:	3c 2f                	cmp    al,0x2f
  403206:	74 4c                	je     403254 <___mingw_opendir+0xc4>
  403208:	b9 5c 00 00 00       	mov    ecx,0x5c
  40320d:	66 89 0c 1f          	mov    WORD PTR [edi+ebx*1],cx
  403211:	89 fb                	mov    ebx,edi
  403213:	8b 13                	mov    edx,DWORD PTR [ebx]
  403215:	83 c3 04             	add    ebx,0x4
  403218:	8d 82 ff fe fe fe    	lea    eax,[edx-0x1010101]
  40321e:	f7 d2                	not    edx
  403220:	21 d0                	and    eax,edx
  403222:	25 80 80 80 80       	and    eax,0x80808080
  403227:	74 ea                	je     403213 <___mingw_opendir+0x83>
  403229:	eb 1b                	jmp    403246 <___mingw_opendir+0xb6>
  40322b:	90                   	nop
  40322c:	8d 74 26 00          	lea    esi,[esi+eiz*1+0x0]
  403230:	8b 13                	mov    edx,DWORD PTR [ebx]
  403232:	83 c3 04             	add    ebx,0x4
  403235:	8d 82 ff fe fe fe    	lea    eax,[edx-0x1010101]
  40323b:	f7 d2                	not    edx
  40323d:	21 d0                	and    eax,edx
  40323f:	25 80 80 80 80       	and    eax,0x80808080
  403244:	74 ea                	je     403230 <___mingw_opendir+0xa0>
  403246:	a9 80 80 00 00       	test   eax,0x8080
  40324b:	74 7b                	je     4032c8 <___mingw_opendir+0x138>
  40324d:	00 c0                	add    al,al
  40324f:	83 db 03             	sbb    ebx,0x3
  403252:	29 fb                	sub    ebx,edi
  403254:	ba 2a 00 00 00       	mov    edx,0x2a
  403259:	8d 83 1d 01 00 00    	lea    eax,[ebx+0x11d]
  40325f:	66 89 14 1f          	mov    WORD PTR [edi+ebx*1],dx
  403263:	89 04 24             	mov    DWORD PTR [esp],eax
  403266:	e8 0d 4d 00 00       	call   407f78 <_malloc>
  40326b:	85 c0                	test   eax,eax
  40326d:	89 c6                	mov    esi,eax
  40326f:	0f 84 8c 00 00 00    	je     403301 <___mingw_opendir+0x171>
  403275:	8d a8 18 01 00 00    	lea    ebp,[eax+0x118]
  40327b:	83 c3 02             	add    ebx,0x2
  40327e:	89 5c 24 08          	mov    DWORD PTR [esp+0x8],ebx
  403282:	89 7c 24 04          	mov    DWORD PTR [esp+0x4],edi
  403286:	89 2c 24             	mov    DWORD PTR [esp],ebp
  403289:	e8 da 4c 00 00       	call   407f68 <_memcpy>
  40328e:	89 f2                	mov    edx,esi
  403290:	89 e8                	mov    eax,ebp
  403292:	e8 29 fe ff ff       	call   4030c0 <_dirent_findfirst>
  403297:	83 f8 ff             	cmp    eax,0xffffffff
  40329a:	89 86 10 01 00 00    	mov    DWORD PTR [esi+0x110],eax
  4032a0:	74 7d                	je     40331f <___mingw_opendir+0x18f>
  4032a2:	b8 10 01 00 00       	mov    eax,0x110
  4032a7:	66 89 46 04          	mov    WORD PTR [esi+0x4],ax
  4032ab:	89 f0                	mov    eax,esi
  4032ad:	c7 86 14 01 00 00 00 	mov    DWORD PTR [esi+0x114],0x0
  4032b4:	00 00 00 
  4032b7:	c7 06 00 00 00 00    	mov    DWORD PTR [esi],0x0
  4032bd:	81 c4 2c 01 00 00    	add    esp,0x12c
  4032c3:	5b                   	pop    ebx
  4032c4:	5e                   	pop    esi
  4032c5:	5f                   	pop    edi
  4032c6:	5d                   	pop    ebp
  4032c7:	c3                   	ret    
  4032c8:	c1 e8 10             	shr    eax,0x10
  4032cb:	83 c3 02             	add    ebx,0x2
  4032ce:	e9 7a ff ff ff       	jmp    40324d <___mingw_opendir+0xbd>
  4032d3:	c1 e8 10             	shr    eax,0x10
  4032d6:	83 c3 02             	add    ebx,0x2
  4032d9:	00 c0                	add    al,al
  4032db:	83 db 03             	sbb    ebx,0x3
  4032de:	29 fb                	sub    ebx,edi
  4032e0:	0f b6 44 1c 1b       	movzx  eax,BYTE PTR [esp+ebx*1+0x1b]
  4032e5:	3c 5c                	cmp    al,0x5c
  4032e7:	0f 84 67 ff ff ff    	je     403254 <___mingw_opendir+0xc4>
  4032ed:	e9 12 ff ff ff       	jmp    403204 <___mingw_opendir+0x74>
  4032f2:	e8 e1 4c 00 00       	call   407fd8 <__errno>
  4032f7:	c7 00 02 00 00 00    	mov    DWORD PTR [eax],0x2
  4032fd:	31 c0                	xor    eax,eax
  4032ff:	eb bc                	jmp    4032bd <___mingw_opendir+0x12d>
  403301:	e8 d2 4c 00 00       	call   407fd8 <__errno>
  403306:	c7 00 0c 00 00 00    	mov    DWORD PTR [eax],0xc
  40330c:	31 c0                	xor    eax,eax
  40330e:	eb ad                	jmp    4032bd <___mingw_opendir+0x12d>
  403310:	e8 c3 4c 00 00       	call   407fd8 <__errno>
  403315:	c7 00 16 00 00 00    	mov    DWORD PTR [eax],0x16
  40331b:	31 c0                	xor    eax,eax
  40331d:	eb 9e                	jmp    4032bd <___mingw_opendir+0x12d>
  40331f:	89 34 24             	mov    DWORD PTR [esp],esi
  403322:	e8 79 4c 00 00       	call   407fa0 <_free>
  403327:	31 c0                	xor    eax,eax
  403329:	eb 92                	jmp    4032bd <___mingw_opendir+0x12d>
  40332b:	90                   	nop
  40332c:	8d 74 26 00          	lea    esi,[esi+eiz*1+0x0]

00403330 <___mingw_readdir>:
  403330:	53                   	push   ebx
  403331:	83 ec 08             	sub    esp,0x8
  403334:	8b 5c 24 10          	mov    ebx,DWORD PTR [esp+0x10]
  403338:	85 db                	test   ebx,ebx
  40333a:	74 2b                	je     403367 <___mingw_readdir+0x37>
  40333c:	8b 83 14 01 00 00    	mov    eax,DWORD PTR [ebx+0x114]
  403342:	8d 50 01             	lea    edx,[eax+0x1]
  403345:	85 c0                	test   eax,eax
  403347:	89 93 14 01 00 00    	mov    DWORD PTR [ebx+0x114],edx
  40334d:	7e 11                	jle    403360 <___mingw_readdir+0x30>
  40334f:	8b 83 10 01 00 00    	mov    eax,DWORD PTR [ebx+0x110]
  403355:	89 da                	mov    edx,ebx
  403357:	e8 c4 fc ff ff       	call   403020 <_dirent_findnext>
  40335c:	85 c0                	test   eax,eax
  40335e:	74 02                	je     403362 <___mingw_readdir+0x32>
  403360:	89 d8                	mov    eax,ebx
  403362:	83 c4 08             	add    esp,0x8
  403365:	5b                   	pop    ebx
  403366:	c3                   	ret    
  403367:	e8 6c 4c 00 00       	call   407fd8 <__errno>
  40336c:	c7 00 09 00 00 00    	mov    DWORD PTR [eax],0x9
  403372:	31 c0                	xor    eax,eax
  403374:	eb ec                	jmp    403362 <___mingw_readdir+0x32>
  403376:	8d 76 00             	lea    esi,[esi+0x0]
  403379:	8d bc 27 00 00 00 00 	lea    edi,[edi+eiz*1+0x0]

00403380 <___mingw_closedir>:
  403380:	55                   	push   ebp
  403381:	89 e5                	mov    ebp,esp
  403383:	53                   	push   ebx
  403384:	83 ec 14             	sub    esp,0x14
  403387:	8b 5d 08             	mov    ebx,DWORD PTR [ebp+0x8]
  40338a:	85 db                	test   ebx,ebx
  40338c:	74 24                	je     4033b2 <___mingw_closedir+0x32>
  40338e:	8b 83 10 01 00 00    	mov    eax,DWORD PTR [ebx+0x110]
  403394:	89 04 24             	mov    DWORD PTR [esp],eax
  403397:	e8 ec 4c 00 00       	call   408088 <_FindClose@4>
  40339c:	83 ec 04             	sub    esp,0x4
  40339f:	85 c0                	test   eax,eax
  4033a1:	74 0f                	je     4033b2 <___mingw_closedir+0x32>
  4033a3:	89 1c 24             	mov    DWORD PTR [esp],ebx
  4033a6:	e8 f5 4b 00 00       	call   407fa0 <_free>
  4033ab:	31 c0                	xor    eax,eax
  4033ad:	8b 5d fc             	mov    ebx,DWORD PTR [ebp-0x4]
  4033b0:	c9                   	leave  
  4033b1:	c3                   	ret    
  4033b2:	e8 21 4c 00 00       	call   407fd8 <__errno>
  4033b7:	c7 00 09 00 00 00    	mov    DWORD PTR [eax],0x9
  4033bd:	b8 ff ff ff ff       	mov    eax,0xffffffff
  4033c2:	eb e9                	jmp    4033ad <___mingw_closedir+0x2d>
  4033c4:	8d b6 00 00 00 00    	lea    esi,[esi+0x0]
  4033ca:	8d bf 00 00 00 00    	lea    edi,[edi+0x0]

004033d0 <___mingw_rewinddir>:
  4033d0:	55                   	push   ebp
  4033d1:	89 e5                	mov    ebp,esp
  4033d3:	53                   	push   ebx
  4033d4:	83 ec 14             	sub    esp,0x14
  4033d7:	8b 5d 08             	mov    ebx,DWORD PTR [ebp+0x8]
  4033da:	85 db                	test   ebx,ebx
  4033dc:	74 15                	je     4033f3 <___mingw_rewinddir+0x23>
  4033de:	8b 83 10 01 00 00    	mov    eax,DWORD PTR [ebx+0x110]
  4033e4:	89 04 24             	mov    DWORD PTR [esp],eax
  4033e7:	e8 9c 4c 00 00       	call   408088 <_FindClose@4>
  4033ec:	83 ec 04             	sub    esp,0x4
  4033ef:	85 c0                	test   eax,eax
  4033f1:	75 10                	jne    403403 <___mingw_rewinddir+0x33>
  4033f3:	e8 e0 4b 00 00       	call   407fd8 <__errno>
  4033f8:	c7 00 09 00 00 00    	mov    DWORD PTR [eax],0x9
  4033fe:	8b 5d fc             	mov    ebx,DWORD PTR [ebp-0x4]
  403401:	c9                   	leave  
  403402:	c3                   	ret    
  403403:	8d 83 18 01 00 00    	lea    eax,[ebx+0x118]
  403409:	89 da                	mov    edx,ebx
  40340b:	e8 b0 fc ff ff       	call   4030c0 <_dirent_findfirst>
  403410:	83 f8 ff             	cmp    eax,0xffffffff
  403413:	89 83 10 01 00 00    	mov    DWORD PTR [ebx+0x110],eax
  403419:	74 e3                	je     4033fe <___mingw_rewinddir+0x2e>
  40341b:	c7 83 14 01 00 00 00 	mov    DWORD PTR [ebx+0x114],0x0
  403422:	00 00 00 
  403425:	8b 5d fc             	mov    ebx,DWORD PTR [ebp-0x4]
  403428:	c9                   	leave  
  403429:	c3                   	ret    
  40342a:	8d b6 00 00 00 00    	lea    esi,[esi+0x0]

00403430 <___mingw_telldir>:
  403430:	83 ec 0c             	sub    esp,0xc
  403433:	8b 44 24 10          	mov    eax,DWORD PTR [esp+0x10]
  403437:	85 c0                	test   eax,eax
  403439:	74 0a                	je     403445 <___mingw_telldir+0x15>
  40343b:	8b 80 14 01 00 00    	mov    eax,DWORD PTR [eax+0x114]
  403441:	83 c4 0c             	add    esp,0xc
  403444:	c3                   	ret    
  403445:	e8 8e 4b 00 00       	call   407fd8 <__errno>
  40344a:	c7 00 09 00 00 00    	mov    DWORD PTR [eax],0x9
  403450:	b8 ff ff ff ff       	mov    eax,0xffffffff
  403455:	eb ea                	jmp    403441 <___mingw_telldir+0x11>
  403457:	89 f6                	mov    esi,esi
  403459:	8d bc 27 00 00 00 00 	lea    edi,[edi+eiz*1+0x0]

00403460 <___mingw_seekdir>:
  403460:	56                   	push   esi
  403461:	53                   	push   ebx
  403462:	83 ec 14             	sub    esp,0x14
  403465:	8b 74 24 24          	mov    esi,DWORD PTR [esp+0x24]
  403469:	8b 5c 24 20          	mov    ebx,DWORD PTR [esp+0x20]
  40346d:	85 f6                	test   esi,esi
  40346f:	78 41                	js     4034b2 <___mingw_seekdir+0x52>
  403471:	89 1c 24             	mov    DWORD PTR [esp],ebx
  403474:	e8 57 ff ff ff       	call   4033d0 <___mingw_rewinddir>
  403479:	85 f6                	test   esi,esi
  40347b:	74 2f                	je     4034ac <___mingw_seekdir+0x4c>
  40347d:	83 bb 10 01 00 00 ff 	cmp    DWORD PTR [ebx+0x110],0xffffffff
  403484:	75 13                	jne    403499 <___mingw_seekdir+0x39>
  403486:	eb 24                	jmp    4034ac <___mingw_seekdir+0x4c>
  403488:	8b 83 10 01 00 00    	mov    eax,DWORD PTR [ebx+0x110]
  40348e:	89 da                	mov    edx,ebx
  403490:	e8 8b fb ff ff       	call   403020 <_dirent_findnext>
  403495:	85 c0                	test   eax,eax
  403497:	74 13                	je     4034ac <___mingw_seekdir+0x4c>
  403499:	8b 83 14 01 00 00    	mov    eax,DWORD PTR [ebx+0x114]
  40349f:	83 c0 01             	add    eax,0x1
  4034a2:	39 c6                	cmp    esi,eax
  4034a4:	89 83 14 01 00 00    	mov    DWORD PTR [ebx+0x114],eax
  4034aa:	7f dc                	jg     403488 <___mingw_seekdir+0x28>
  4034ac:	83 c4 14             	add    esp,0x14
  4034af:	5b                   	pop    ebx
  4034b0:	5e                   	pop    esi
  4034b1:	c3                   	ret    
  4034b2:	e8 21 4b 00 00       	call   407fd8 <__errno>
  4034b7:	c7 00 16 00 00 00    	mov    DWORD PTR [eax],0x16
  4034bd:	83 c4 14             	add    esp,0x14
  4034c0:	5b                   	pop    ebx
  4034c1:	5e                   	pop    esi
  4034c2:	c3                   	ret    
  4034c3:	90                   	nop
  4034c4:	90                   	nop
  4034c5:	90                   	nop
  4034c6:	90                   	nop
  4034c7:	90                   	nop
  4034c8:	90                   	nop
  4034c9:	90                   	nop
  4034ca:	90                   	nop
  4034cb:	90                   	nop
  4034cc:	90                   	nop
  4034cd:	90                   	nop
  4034ce:	90                   	nop
  4034cf:	90                   	nop

004034d0 <___mingw_snprintf>:
  4034d0:	83 ec 1c             	sub    esp,0x1c
  4034d3:	8d 44 24 2c          	lea    eax,[esp+0x2c]
  4034d7:	89 44 24 0c          	mov    DWORD PTR [esp+0xc],eax
  4034db:	8b 44 24 28          	mov    eax,DWORD PTR [esp+0x28]
  4034df:	89 44 24 08          	mov    DWORD PTR [esp+0x8],eax
  4034e3:	8b 44 24 24          	mov    eax,DWORD PTR [esp+0x24]
  4034e7:	89 44 24 04          	mov    DWORD PTR [esp+0x4],eax
  4034eb:	8b 44 24 20          	mov    eax,DWORD PTR [esp+0x20]
  4034ef:	89 04 24             	mov    DWORD PTR [esp],eax
  4034f2:	e8 09 00 00 00       	call   403500 <___mingw_vsnprintf>
  4034f7:	83 c4 1c             	add    esp,0x1c
  4034fa:	c3                   	ret    
  4034fb:	90                   	nop
  4034fc:	90                   	nop
  4034fd:	90                   	nop
  4034fe:	90                   	nop
  4034ff:	90                   	nop

00403500 <___mingw_vsnprintf>:
  403500:	56                   	push   esi
  403501:	53                   	push   ebx
  403502:	83 ec 24             	sub    esp,0x24
  403505:	8b 44 24 34          	mov    eax,DWORD PTR [esp+0x34]
  403509:	8b 5c 24 30          	mov    ebx,DWORD PTR [esp+0x30]
  40350d:	8b 54 24 38          	mov    edx,DWORD PTR [esp+0x38]
  403511:	8b 4c 24 3c          	mov    ecx,DWORD PTR [esp+0x3c]
  403515:	85 c0                	test   eax,eax
  403517:	74 37                	je     403550 <___mingw_vsnprintf+0x50>
  403519:	8d 70 ff             	lea    esi,[eax-0x1]
  40351c:	89 54 24 0c          	mov    DWORD PTR [esp+0xc],edx
  403520:	89 4c 24 10          	mov    DWORD PTR [esp+0x10],ecx
  403524:	89 74 24 08          	mov    DWORD PTR [esp+0x8],esi
  403528:	89 5c 24 04          	mov    DWORD PTR [esp+0x4],ebx
  40352c:	c7 04 24 00 00 00 00 	mov    DWORD PTR [esp],0x0
  403533:	e8 e8 15 00 00       	call   404b20 <___mingw_pformat>
  403538:	39 f0                	cmp    eax,esi
  40353a:	89 c2                	mov    edx,eax
  40353c:	77 0a                	ja     403548 <___mingw_vsnprintf+0x48>
  40353e:	c6 04 13 00          	mov    BYTE PTR [ebx+edx*1],0x0
  403542:	83 c4 24             	add    esp,0x24
  403545:	5b                   	pop    ebx
  403546:	5e                   	pop    esi
  403547:	c3                   	ret    
  403548:	89 f2                	mov    edx,esi
  40354a:	eb f2                	jmp    40353e <___mingw_vsnprintf+0x3e>
  40354c:	8d 74 26 00          	lea    esi,[esi+eiz*1+0x0]
  403550:	89 5c 24 04          	mov    DWORD PTR [esp+0x4],ebx
  403554:	89 4c 24 10          	mov    DWORD PTR [esp+0x10],ecx
  403558:	89 54 24 0c          	mov    DWORD PTR [esp+0xc],edx
  40355c:	c7 44 24 08 00 00 00 	mov    DWORD PTR [esp+0x8],0x0
  403563:	00 
  403564:	c7 04 24 00 00 00 00 	mov    DWORD PTR [esp],0x0
  40356b:	e8 b0 15 00 00       	call   404b20 <___mingw_pformat>
  403570:	83 c4 24             	add    esp,0x24
  403573:	5b                   	pop    ebx
  403574:	5e                   	pop    esi
  403575:	c3                   	ret    
  403576:	90                   	nop
  403577:	90                   	nop
  403578:	90                   	nop
  403579:	90                   	nop
  40357a:	90                   	nop
  40357b:	90                   	nop
  40357c:	90                   	nop
  40357d:	90                   	nop
  40357e:	90                   	nop
  40357f:	90                   	nop

00403580 <___pformat_cvt>:
  403580:	53                   	push   ebx
  403581:	89 c1                	mov    ecx,eax
  403583:	83 ec 48             	sub    esp,0x48
  403586:	8b 44 24 50          	mov    eax,DWORD PTR [esp+0x50]
  40358a:	89 44 24 20          	mov    DWORD PTR [esp+0x20],eax
  40358e:	8b 44 24 54          	mov    eax,DWORD PTR [esp+0x54]
  403592:	89 44 24 24          	mov    DWORD PTR [esp+0x24],eax
  403596:	8b 44 24 58          	mov    eax,DWORD PTR [esp+0x58]
  40359a:	89 44 24 28          	mov    DWORD PTR [esp+0x28],eax
  40359e:	8b 44 24 5c          	mov    eax,DWORD PTR [esp+0x5c]
  4035a2:	db 6c 24 20          	fld    TBYTE PTR [esp+0x20]
  4035a6:	89 44 24 2c          	mov    DWORD PTR [esp+0x2c],eax
  4035aa:	d9 e5                	fxam   
  4035ac:	9b df e0             	fstsw  ax
  4035af:	dd d8                	fstp   st(0)
  4035b1:	f6 c4 01             	test   ah,0x1
  4035b4:	74 1a                	je     4035d0 <___pformat_cvt+0x50>
  4035b6:	f6 c4 04             	test   ah,0x4
  4035b9:	0f 84 91 00 00 00    	je     403650 <___pformat_cvt+0xd0>
  4035bf:	c7 44 24 38 03 00 00 	mov    DWORD PTR [esp+0x38],0x3
  4035c6:	00 
  4035c7:	0f b7 54 24 28       	movzx  edx,WORD PTR [esp+0x28]
  4035cc:	31 c0                	xor    eax,eax
  4035ce:	eb 14                	jmp    4035e4 <___pformat_cvt+0x64>
  4035d0:	f6 c4 04             	test   ah,0x4
  4035d3:	75 5c                	jne    403631 <___pformat_cvt+0xb1>
  4035d5:	0f b7 54 24 28       	movzx  edx,WORD PTR [esp+0x28]
  4035da:	31 c0                	xor    eax,eax
  4035dc:	c7 44 24 38 00 00 00 	mov    DWORD PTR [esp+0x38],0x0
  4035e3:	00 
  4035e4:	81 e2 00 80 00 00    	and    edx,0x8000
  4035ea:	8b 5c 24 68          	mov    ebx,DWORD PTR [esp+0x68]
  4035ee:	89 13                	mov    DWORD PTR [ebx],edx
  4035f0:	8d 54 24 3c          	lea    edx,[esp+0x3c]
  4035f4:	89 54 24 1c          	mov    DWORD PTR [esp+0x1c],edx
  4035f8:	8b 54 24 64          	mov    edx,DWORD PTR [esp+0x64]
  4035fc:	89 4c 24 10          	mov    DWORD PTR [esp+0x10],ecx
  403600:	89 44 24 04          	mov    DWORD PTR [esp+0x4],eax
  403604:	c7 04 24 0c 90 40 00 	mov    DWORD PTR [esp],0x40900c
  40360b:	89 54 24 18          	mov    DWORD PTR [esp+0x18],edx
  40360f:	8b 54 24 60          	mov    edx,DWORD PTR [esp+0x60]
  403613:	89 54 24 14          	mov    DWORD PTR [esp+0x14],edx
  403617:	8d 54 24 38          	lea    edx,[esp+0x38]
  40361b:	89 54 24 0c          	mov    DWORD PTR [esp+0xc],edx
  40361f:	8d 54 24 20          	lea    edx,[esp+0x20]
  403623:	89 54 24 08          	mov    DWORD PTR [esp+0x8],edx
  403627:	e8 e4 24 00 00       	call   405b10 <___gdtoa>
  40362c:	83 c4 48             	add    esp,0x48
  40362f:	5b                   	pop    ebx
  403630:	c3                   	ret    
  403631:	f6 c4 40             	test   ah,0x40
  403634:	74 2a                	je     403660 <___pformat_cvt+0xe0>
  403636:	c7 44 24 38 02 00 00 	mov    DWORD PTR [esp+0x38],0x2
  40363d:	00 
  40363e:	0f b7 54 24 28       	movzx  edx,WORD PTR [esp+0x28]
  403643:	b8 c3 bf ff ff       	mov    eax,0xffffbfc3
  403648:	eb 9a                	jmp    4035e4 <___pformat_cvt+0x64>
  40364a:	8d b6 00 00 00 00    	lea    esi,[esi+0x0]
  403650:	c7 44 24 38 04 00 00 	mov    DWORD PTR [esp+0x38],0x4
  403657:	00 
  403658:	31 c0                	xor    eax,eax
  40365a:	31 d2                	xor    edx,edx
  40365c:	eb 8c                	jmp    4035ea <___pformat_cvt+0x6a>
  40365e:	66 90                	xchg   ax,ax
  403660:	0f b7 54 24 28       	movzx  edx,WORD PTR [esp+0x28]
  403665:	c7 44 24 38 01 00 00 	mov    DWORD PTR [esp+0x38],0x1
  40366c:	00 
  40366d:	89 d0                	mov    eax,edx
  40366f:	25 ff 7f 00 00       	and    eax,0x7fff
  403674:	2d 3e 40 00 00       	sub    eax,0x403e
  403679:	e9 66 ff ff ff       	jmp    4035e4 <___pformat_cvt+0x64>
  40367e:	66 90                	xchg   ax,ax

00403680 <___pformat_putc>:
  403680:	53                   	push   ebx
  403681:	83 ec 18             	sub    esp,0x18
  403684:	8b 4a 04             	mov    ecx,DWORD PTR [edx+0x4]
  403687:	f6 c5 20             	test   ch,0x20
  40368a:	75 08                	jne    403694 <___pformat_putc+0x14>
  40368c:	8b 5a 18             	mov    ebx,DWORD PTR [edx+0x18]
  40368f:	39 5a 1c             	cmp    DWORD PTR [edx+0x1c],ebx
  403692:	7e 10                	jle    4036a4 <___pformat_putc+0x24>
  403694:	80 e5 10             	and    ch,0x10
  403697:	75 17                	jne    4036b0 <___pformat_putc+0x30>
  403699:	8b 1a                	mov    ebx,DWORD PTR [edx]
  40369b:	8b 4a 18             	mov    ecx,DWORD PTR [edx+0x18]
  40369e:	88 04 0b             	mov    BYTE PTR [ebx+ecx*1],al
  4036a1:	8b 5a 18             	mov    ebx,DWORD PTR [edx+0x18]
  4036a4:	83 c3 01             	add    ebx,0x1
  4036a7:	89 5a 18             	mov    DWORD PTR [edx+0x18],ebx
  4036aa:	83 c4 18             	add    esp,0x18
  4036ad:	5b                   	pop    ebx
  4036ae:	c3                   	ret    
  4036af:	90                   	nop
  4036b0:	8b 0a                	mov    ecx,DWORD PTR [edx]
  4036b2:	89 04 24             	mov    DWORD PTR [esp],eax
  4036b5:	89 54 24 0c          	mov    DWORD PTR [esp+0xc],edx
  4036b9:	89 4c 24 04          	mov    DWORD PTR [esp+0x4],ecx
  4036bd:	e8 e6 48 00 00       	call   407fa8 <_fputc>
  4036c2:	8b 54 24 0c          	mov    edx,DWORD PTR [esp+0xc]
  4036c6:	8b 5a 18             	mov    ebx,DWORD PTR [edx+0x18]
  4036c9:	83 c3 01             	add    ebx,0x1
  4036cc:	89 5a 18             	mov    DWORD PTR [edx+0x18],ebx
  4036cf:	83 c4 18             	add    esp,0x18
  4036d2:	5b                   	pop    ebx
  4036d3:	c3                   	ret    
  4036d4:	8d b6 00 00 00 00    	lea    esi,[esi+0x0]
  4036da:	8d bf 00 00 00 00    	lea    edi,[edi+0x0]

004036e0 <___pformat_wputchars>:
  4036e0:	55                   	push   ebp
  4036e1:	57                   	push   edi
  4036e2:	56                   	push   esi
  4036e3:	89 d6                	mov    esi,edx
  4036e5:	53                   	push   ebx
  4036e6:	89 cb                	mov    ebx,ecx
  4036e8:	83 ec 4c             	sub    esp,0x4c
  4036eb:	89 44 24 18          	mov    DWORD PTR [esp+0x18],eax
  4036ef:	8d 6c 24 30          	lea    ebp,[esp+0x30]
  4036f3:	8d 44 24 2c          	lea    eax,[esp+0x2c]
  4036f7:	89 44 24 08          	mov    DWORD PTR [esp+0x8],eax
  4036fb:	c7 44 24 04 00 00 00 	mov    DWORD PTR [esp+0x4],0x0
  403702:	00 
  403703:	89 2c 24             	mov    DWORD PTR [esp],ebp
  403706:	e8 35 22 00 00       	call   405940 <_wcrtomb>
  40370b:	8b 43 0c             	mov    eax,DWORD PTR [ebx+0xc]
  40370e:	85 c0                	test   eax,eax
  403710:	78 08                	js     40371a <___pformat_wputchars+0x3a>
  403712:	39 c6                	cmp    esi,eax
  403714:	0f 8f c7 00 00 00    	jg     4037e1 <___pformat_wputchars+0x101>
  40371a:	8b 43 08             	mov    eax,DWORD PTR [ebx+0x8]
  40371d:	39 c6                	cmp    esi,eax
  40371f:	0f 8d 8c 00 00 00    	jge    4037b1 <___pformat_wputchars+0xd1>
  403725:	29 f0                	sub    eax,esi
  403727:	85 c0                	test   eax,eax
  403729:	89 43 08             	mov    DWORD PTR [ebx+0x8],eax
  40372c:	7e 0a                	jle    403738 <___pformat_wputchars+0x58>
  40372e:	f6 43 05 04          	test   BYTE PTR [ebx+0x5],0x4
  403732:	0f 84 85 00 00 00    	je     4037bd <___pformat_wputchars+0xdd>
  403738:	89 74 24 1c          	mov    DWORD PTR [esp+0x1c],esi
  40373c:	8d 74 26 00          	lea    esi,[esi+eiz*1+0x0]
  403740:	8b 44 24 1c          	mov    eax,DWORD PTR [esp+0x1c]
  403744:	85 c0                	test   eax,eax
  403746:	7e 54                	jle    40379c <___pformat_wputchars+0xbc>
  403748:	83 44 24 18 02       	add    DWORD PTR [esp+0x18],0x2
  40374d:	8d 44 24 2c          	lea    eax,[esp+0x2c]
  403751:	89 44 24 08          	mov    DWORD PTR [esp+0x8],eax
  403755:	8b 44 24 18          	mov    eax,DWORD PTR [esp+0x18]
  403759:	0f b7 40 fe          	movzx  eax,WORD PTR [eax-0x2]
  40375d:	89 2c 24             	mov    DWORD PTR [esp],ebp
  403760:	89 44 24 04          	mov    DWORD PTR [esp+0x4],eax
  403764:	e8 d7 21 00 00       	call   405940 <_wcrtomb>
  403769:	85 c0                	test   eax,eax
  40376b:	7e 2f                	jle    40379c <___pformat_wputchars+0xbc>
  40376d:	8d 74 05 00          	lea    esi,[ebp+eax*1+0x0]
  403771:	89 ef                	mov    edi,ebp
  403773:	83 c7 01             	add    edi,0x1
  403776:	0f be 47 ff          	movsx  eax,BYTE PTR [edi-0x1]
  40377a:	89 da                	mov    edx,ebx
  40377c:	e8 ff fe ff ff       	call   403680 <___pformat_putc>
  403781:	39 f7                	cmp    edi,esi
  403783:	75 ee                	jne    403773 <___pformat_wputchars+0x93>
  403785:	83 6c 24 1c 01       	sub    DWORD PTR [esp+0x1c],0x1
  40378a:	eb b4                	jmp    403740 <___pformat_wputchars+0x60>
  40378c:	8d 74 26 00          	lea    esi,[esi+eiz*1+0x0]
  403790:	89 da                	mov    edx,ebx
  403792:	b8 20 00 00 00       	mov    eax,0x20
  403797:	e8 e4 fe ff ff       	call   403680 <___pformat_putc>
  40379c:	8b 43 08             	mov    eax,DWORD PTR [ebx+0x8]
  40379f:	8d 50 ff             	lea    edx,[eax-0x1]
  4037a2:	85 c0                	test   eax,eax
  4037a4:	89 53 08             	mov    DWORD PTR [ebx+0x8],edx
  4037a7:	7f e7                	jg     403790 <___pformat_wputchars+0xb0>
  4037a9:	83 c4 4c             	add    esp,0x4c
  4037ac:	5b                   	pop    ebx
  4037ad:	5e                   	pop    esi
  4037ae:	5f                   	pop    edi
  4037af:	5d                   	pop    ebp
  4037b0:	c3                   	ret    
  4037b1:	c7 43 08 ff ff ff ff 	mov    DWORD PTR [ebx+0x8],0xffffffff
  4037b8:	e9 7b ff ff ff       	jmp    403738 <___pformat_wputchars+0x58>
  4037bd:	83 e8 01             	sub    eax,0x1
  4037c0:	89 43 08             	mov    DWORD PTR [ebx+0x8],eax
  4037c3:	89 da                	mov    edx,ebx
  4037c5:	b8 20 00 00 00       	mov    eax,0x20
  4037ca:	e8 b1 fe ff ff       	call   403680 <___pformat_putc>
  4037cf:	8b 43 08             	mov    eax,DWORD PTR [ebx+0x8]
  4037d2:	8d 50 ff             	lea    edx,[eax-0x1]
  4037d5:	85 c0                	test   eax,eax
  4037d7:	89 53 08             	mov    DWORD PTR [ebx+0x8],edx
  4037da:	75 e7                	jne    4037c3 <___pformat_wputchars+0xe3>
  4037dc:	e9 57 ff ff ff       	jmp    403738 <___pformat_wputchars+0x58>
  4037e1:	89 c6                	mov    esi,eax
  4037e3:	e9 32 ff ff ff       	jmp    40371a <___pformat_wputchars+0x3a>
  4037e8:	90                   	nop
  4037e9:	8d b4 26 00 00 00 00 	lea    esi,[esi+eiz*1+0x0]

004037f0 <___pformat_putchars>:
  4037f0:	57                   	push   edi
  4037f1:	89 c7                	mov    edi,eax
  4037f3:	8b 41 0c             	mov    eax,DWORD PTR [ecx+0xc]
  4037f6:	56                   	push   esi
  4037f7:	89 d6                	mov    esi,edx
  4037f9:	53                   	push   ebx
  4037fa:	89 cb                	mov    ebx,ecx
  4037fc:	85 c0                	test   eax,eax
  4037fe:	78 08                	js     403808 <___pformat_putchars+0x18>
  403800:	39 c2                	cmp    edx,eax
  403802:	0f 8f 88 00 00 00    	jg     403890 <___pformat_putchars+0xa0>
  403808:	8b 43 08             	mov    eax,DWORD PTR [ebx+0x8]
  40380b:	39 c6                	cmp    esi,eax
  40380d:	7d 71                	jge    403880 <___pformat_putchars+0x90>
  40380f:	29 f0                	sub    eax,esi
  403811:	85 c0                	test   eax,eax
  403813:	89 43 08             	mov    DWORD PTR [ebx+0x8],eax
  403816:	7e 25                	jle    40383d <___pformat_putchars+0x4d>
  403818:	f6 43 05 04          	test   BYTE PTR [ebx+0x5],0x4
  40381c:	75 1f                	jne    40383d <___pformat_putchars+0x4d>
  40381e:	83 e8 01             	sub    eax,0x1
  403821:	89 43 08             	mov    DWORD PTR [ebx+0x8],eax
  403824:	89 da                	mov    edx,ebx
  403826:	b8 20 00 00 00       	mov    eax,0x20
  40382b:	e8 50 fe ff ff       	call   403680 <___pformat_putc>
  403830:	8b 43 08             	mov    eax,DWORD PTR [ebx+0x8]
  403833:	8d 50 ff             	lea    edx,[eax-0x1]
  403836:	85 c0                	test   eax,eax
  403838:	89 53 08             	mov    DWORD PTR [ebx+0x8],edx
  40383b:	75 e7                	jne    403824 <___pformat_putchars+0x34>
  40383d:	85 f6                	test   esi,esi
  40383f:	74 2c                	je     40386d <___pformat_putchars+0x7d>
  403841:	83 c7 01             	add    edi,0x1
  403844:	0f be 47 ff          	movsx  eax,BYTE PTR [edi-0x1]
  403848:	89 da                	mov    edx,ebx
  40384a:	e8 31 fe ff ff       	call   403680 <___pformat_putc>
  40384f:	83 ee 01             	sub    esi,0x1
  403852:	75 ed                	jne    403841 <___pformat_putchars+0x51>
  403854:	8b 43 08             	mov    eax,DWORD PTR [ebx+0x8]
  403857:	8d 50 ff             	lea    edx,[eax-0x1]
  40385a:	85 c0                	test   eax,eax
  40385c:	89 53 08             	mov    DWORD PTR [ebx+0x8],edx
  40385f:	7e 19                	jle    40387a <___pformat_putchars+0x8a>
  403861:	89 da                	mov    edx,ebx
  403863:	b8 20 00 00 00       	mov    eax,0x20
  403868:	e8 13 fe ff ff       	call   403680 <___pformat_putc>
  40386d:	8b 43 08             	mov    eax,DWORD PTR [ebx+0x8]
  403870:	8d 50 ff             	lea    edx,[eax-0x1]
  403873:	85 c0                	test   eax,eax
  403875:	89 53 08             	mov    DWORD PTR [ebx+0x8],edx
  403878:	7f e7                	jg     403861 <___pformat_putchars+0x71>
  40387a:	5b                   	pop    ebx
  40387b:	5e                   	pop    esi
  40387c:	5f                   	pop    edi
  40387d:	c3                   	ret    
  40387e:	66 90                	xchg   ax,ax
  403880:	c7 43 08 ff ff ff ff 	mov    DWORD PTR [ebx+0x8],0xffffffff
  403887:	eb b4                	jmp    40383d <___pformat_putchars+0x4d>
  403889:	8d b4 26 00 00 00 00 	lea    esi,[esi+eiz*1+0x0]
  403890:	89 c6                	mov    esi,eax
  403892:	e9 71 ff ff ff       	jmp    403808 <___pformat_putchars+0x18>
  403897:	89 f6                	mov    esi,esi
  403899:	8d bc 27 00 00 00 00 	lea    edi,[edi+eiz*1+0x0]

004038a0 <___pformat_emit_inf_or_nan>:
  4038a0:	55                   	push   ebp
  4038a1:	57                   	push   edi
  4038a2:	56                   	push   esi
  4038a3:	53                   	push   ebx
  4038a4:	83 ec 1c             	sub    esp,0x1c
  4038a7:	85 c0                	test   eax,eax
  4038a9:	c7 41 0c ff ff ff ff 	mov    DWORD PTR [ecx+0xc],0xffffffff
  4038b0:	74 3e                	je     4038f0 <___pformat_emit_inf_or_nan+0x50>
  4038b2:	8b 69 04             	mov    ebp,DWORD PTR [ecx+0x4]
  4038b5:	8d 7c 24 0d          	lea    edi,[esp+0xd]
  4038b9:	c6 44 24 0c 2d       	mov    BYTE PTR [esp+0xc],0x2d
  4038be:	8d 44 24 0c          	lea    eax,[esp+0xc]
  4038c2:	83 e5 20             	and    ebp,0x20
  4038c5:	31 f6                	xor    esi,esi
  4038c7:	0f b6 1c 32          	movzx  ebx,BYTE PTR [edx+esi*1]
  4038cb:	83 e3 df             	and    ebx,0xffffffdf
  4038ce:	09 eb                	or     ebx,ebp
  4038d0:	88 1c 37             	mov    BYTE PTR [edi+esi*1],bl
  4038d3:	83 c6 01             	add    esi,0x1
  4038d6:	83 fe 03             	cmp    esi,0x3
  4038d9:	75 ec                	jne    4038c7 <___pformat_emit_inf_or_nan+0x27>
  4038db:	8d 57 03             	lea    edx,[edi+0x3]
  4038de:	29 c2                	sub    edx,eax
  4038e0:	e8 0b ff ff ff       	call   4037f0 <___pformat_putchars>
  4038e5:	83 c4 1c             	add    esp,0x1c
  4038e8:	5b                   	pop    ebx
  4038e9:	5e                   	pop    esi
  4038ea:	5f                   	pop    edi
  4038eb:	5d                   	pop    ebp
  4038ec:	c3                   	ret    
  4038ed:	8d 76 00             	lea    esi,[esi+0x0]
  4038f0:	8b 69 04             	mov    ebp,DWORD PTR [ecx+0x4]
  4038f3:	f7 c5 00 01 00 00    	test   ebp,0x100
  4038f9:	74 15                	je     403910 <___pformat_emit_inf_or_nan+0x70>
  4038fb:	c6 44 24 0c 2b       	mov    BYTE PTR [esp+0xc],0x2b
  403900:	8d 7c 24 0d          	lea    edi,[esp+0xd]
  403904:	8d 44 24 0c          	lea    eax,[esp+0xc]
  403908:	eb b8                	jmp    4038c2 <___pformat_emit_inf_or_nan+0x22>
  40390a:	8d b6 00 00 00 00    	lea    esi,[esi+0x0]
  403910:	f7 c5 40 00 00 00    	test   ebp,0x40
  403916:	74 0f                	je     403927 <___pformat_emit_inf_or_nan+0x87>
  403918:	c6 44 24 0c 20       	mov    BYTE PTR [esp+0xc],0x20
  40391d:	8d 7c 24 0d          	lea    edi,[esp+0xd]
  403921:	8d 44 24 0c          	lea    eax,[esp+0xc]
  403925:	eb 9b                	jmp    4038c2 <___pformat_emit_inf_or_nan+0x22>
  403927:	8d 44 24 0c          	lea    eax,[esp+0xc]
  40392b:	89 c7                	mov    edi,eax
  40392d:	eb 93                	jmp    4038c2 <___pformat_emit_inf_or_nan+0x22>
  40392f:	90                   	nop

00403930 <___pformat_int>:
  403930:	55                   	push   ebp
  403931:	89 e5                	mov    ebp,esp
  403933:	57                   	push   edi
  403934:	89 d7                	mov    edi,edx
  403936:	56                   	push   esi
  403937:	89 c6                	mov    esi,eax
  403939:	53                   	push   ebx
  40393a:	89 cb                	mov    ebx,ecx
  40393c:	83 ec 2c             	sub    esp,0x2c
  40393f:	89 55 dc             	mov    DWORD PTR [ebp-0x24],edx
  403942:	8b 51 0c             	mov    edx,DWORD PTR [ecx+0xc]
  403945:	89 45 d8             	mov    DWORD PTR [ebp-0x28],eax
  403948:	8b 49 08             	mov    ecx,DWORD PTR [ecx+0x8]
  40394b:	89 d0                	mov    eax,edx
  40394d:	c1 f8 1f             	sar    eax,0x1f
  403950:	f7 d0                	not    eax
  403952:	21 d0                	and    eax,edx
  403954:	83 c0 17             	add    eax,0x17
  403957:	39 c8                	cmp    eax,ecx
  403959:	7d 02                	jge    40395d <___pformat_int+0x2d>
  40395b:	89 c8                	mov    eax,ecx
  40395d:	83 c0 0f             	add    eax,0xf
  403960:	83 e0 f0             	and    eax,0xfffffff0
  403963:	e8 a8 e5 ff ff       	call   401f10 <___chkstk_ms>
  403968:	29 c4                	sub    esp,eax
  40396a:	8d 44 24 10          	lea    eax,[esp+0x10]
  40396e:	89 45 e4             	mov    DWORD PTR [ebp-0x1c],eax
  403971:	8b 43 04             	mov    eax,DWORD PTR [ebx+0x4]
  403974:	a8 80                	test   al,0x80
  403976:	74 0d                	je     403985 <___pformat_int+0x55>
  403978:	85 ff                	test   edi,edi
  40397a:	0f 88 b0 01 00 00    	js     403b30 <___pformat_int+0x200>
  403980:	24 7f                	and    al,0x7f
  403982:	89 43 04             	mov    DWORD PTR [ebx+0x4],eax
  403985:	8b 4d dc             	mov    ecx,DWORD PTR [ebp-0x24]
  403988:	8b 7d d8             	mov    edi,DWORD PTR [ebp-0x28]
  40398b:	8b 75 e4             	mov    esi,DWORD PTR [ebp-0x1c]
  40398e:	89 c8                	mov    eax,ecx
  403990:	09 f8                	or     eax,edi
  403992:	74 5d                	je     4039f1 <___pformat_int+0xc1>
  403994:	89 5d d8             	mov    DWORD PTR [ebp-0x28],ebx
  403997:	89 cb                	mov    ebx,ecx
  403999:	8d b4 26 00 00 00 00 	lea    esi,[esi+eiz*1+0x0]
  4039a0:	89 3c 24             	mov    DWORD PTR [esp],edi
  4039a3:	83 c6 01             	add    esi,0x1
  4039a6:	89 5c 24 04          	mov    DWORD PTR [esp+0x4],ebx
  4039aa:	c7 44 24 08 0a 00 00 	mov    DWORD PTR [esp+0x8],0xa
  4039b1:	00 
  4039b2:	c7 44 24 0c 00 00 00 	mov    DWORD PTR [esp+0xc],0x0
  4039b9:	00 
  4039ba:	e8 01 48 00 00       	call   4081c0 <___umoddi3>
  4039bf:	83 c0 30             	add    eax,0x30
  4039c2:	88 46 ff             	mov    BYTE PTR [esi-0x1],al
  4039c5:	89 3c 24             	mov    DWORD PTR [esp],edi
  4039c8:	89 5c 24 04          	mov    DWORD PTR [esp+0x4],ebx
  4039cc:	c7 44 24 08 0a 00 00 	mov    DWORD PTR [esp+0x8],0xa
  4039d3:	00 
  4039d4:	c7 44 24 0c 00 00 00 	mov    DWORD PTR [esp+0xc],0x0
  4039db:	00 
  4039dc:	e8 cf 46 00 00       	call   4080b0 <___udivdi3>
  4039e1:	89 c7                	mov    edi,eax
  4039e3:	89 d0                	mov    eax,edx
  4039e5:	09 f8                	or     eax,edi
  4039e7:	89 d3                	mov    ebx,edx
  4039e9:	75 b5                	jne    4039a0 <___pformat_int+0x70>
  4039eb:	8b 5d d8             	mov    ebx,DWORD PTR [ebp-0x28]
  4039ee:	8b 53 0c             	mov    edx,DWORD PTR [ebx+0xc]
  4039f1:	85 d2                	test   edx,edx
  4039f3:	89 f7                	mov    edi,esi
  4039f5:	7e 19                	jle    403a10 <___pformat_int+0xe0>
  4039f7:	8b 45 e4             	mov    eax,DWORD PTR [ebp-0x1c]
  4039fa:	29 f0                	sub    eax,esi
  4039fc:	01 c2                	add    edx,eax
  4039fe:	85 d2                	test   edx,edx
  403a00:	7e 0e                	jle    403a10 <___pformat_int+0xe0>
  403a02:	8d 3c 16             	lea    edi,[esi+edx*1]
  403a05:	83 c6 01             	add    esi,0x1
  403a08:	39 fe                	cmp    esi,edi
  403a0a:	c6 46 ff 30          	mov    BYTE PTR [esi-0x1],0x30
  403a0e:	75 f5                	jne    403a05 <___pformat_int+0xd5>
  403a10:	3b 7d e4             	cmp    edi,DWORD PTR [ebp-0x1c]
  403a13:	0f 84 29 01 00 00    	je     403b42 <___pformat_int+0x212>
  403a19:	8b 43 08             	mov    eax,DWORD PTR [ebx+0x8]
  403a1c:	85 c0                	test   eax,eax
  403a1e:	7e 59                	jle    403a79 <___pformat_int+0x149>
  403a20:	8b 55 e4             	mov    edx,DWORD PTR [ebp-0x1c]
  403a23:	29 fa                	sub    edx,edi
  403a25:	01 c2                	add    edx,eax
  403a27:	8b 43 04             	mov    eax,DWORD PTR [ebx+0x4]
  403a2a:	85 d2                	test   edx,edx
  403a2c:	89 53 08             	mov    DWORD PTR [ebx+0x8],edx
  403a2f:	7e 4b                	jle    403a7c <___pformat_int+0x14c>
  403a31:	a9 c0 01 00 00       	test   eax,0x1c0
  403a36:	74 06                	je     403a3e <___pformat_int+0x10e>
  403a38:	83 ea 01             	sub    edx,0x1
  403a3b:	89 53 08             	mov    DWORD PTR [ebx+0x8],edx
  403a3e:	8b 53 0c             	mov    edx,DWORD PTR [ebx+0xc]
  403a41:	85 d2                	test   edx,edx
  403a43:	0f 88 a7 00 00 00    	js     403af0 <___pformat_int+0x1c0>
  403a49:	f6 c4 04             	test   ah,0x4
  403a4c:	75 2e                	jne    403a7c <___pformat_int+0x14c>
  403a4e:	8b 53 08             	mov    edx,DWORD PTR [ebx+0x8]
  403a51:	8d 4a ff             	lea    ecx,[edx-0x1]
  403a54:	85 d2                	test   edx,edx
  403a56:	89 4b 08             	mov    DWORD PTR [ebx+0x8],ecx
  403a59:	7e 21                	jle    403a7c <___pformat_int+0x14c>
  403a5b:	90                   	nop
  403a5c:	8d 74 26 00          	lea    esi,[esi+eiz*1+0x0]
  403a60:	89 da                	mov    edx,ebx
  403a62:	b8 20 00 00 00       	mov    eax,0x20
  403a67:	e8 14 fc ff ff       	call   403680 <___pformat_putc>
  403a6c:	8b 43 08             	mov    eax,DWORD PTR [ebx+0x8]
  403a6f:	8d 50 ff             	lea    edx,[eax-0x1]
  403a72:	85 c0                	test   eax,eax
  403a74:	89 53 08             	mov    DWORD PTR [ebx+0x8],edx
  403a77:	7f e7                	jg     403a60 <___pformat_int+0x130>
  403a79:	8b 43 04             	mov    eax,DWORD PTR [ebx+0x4]
  403a7c:	a8 80                	test   al,0x80
  403a7e:	74 51                	je     403ad1 <___pformat_int+0x1a1>
  403a80:	8d 77 01             	lea    esi,[edi+0x1]
  403a83:	c6 07 2d             	mov    BYTE PTR [edi],0x2d
  403a86:	39 75 e4             	cmp    DWORD PTR [ebp-0x1c],esi
  403a89:	8b 7d e4             	mov    edi,DWORD PTR [ebp-0x1c]
  403a8c:	73 2e                	jae    403abc <___pformat_int+0x18c>
  403a8e:	66 90                	xchg   ax,ax
  403a90:	83 ee 01             	sub    esi,0x1
  403a93:	0f be 06             	movsx  eax,BYTE PTR [esi]
  403a96:	89 da                	mov    edx,ebx
  403a98:	e8 e3 fb ff ff       	call   403680 <___pformat_putc>
  403a9d:	39 fe                	cmp    esi,edi
  403a9f:	75 ef                	jne    403a90 <___pformat_int+0x160>
  403aa1:	8b 43 08             	mov    eax,DWORD PTR [ebx+0x8]
  403aa4:	8d 50 ff             	lea    edx,[eax-0x1]
  403aa7:	85 c0                	test   eax,eax
  403aa9:	89 53 08             	mov    DWORD PTR [ebx+0x8],edx
  403aac:	7e 1b                	jle    403ac9 <___pformat_int+0x199>
  403aae:	66 90                	xchg   ax,ax
  403ab0:	89 da                	mov    edx,ebx
  403ab2:	b8 20 00 00 00       	mov    eax,0x20
  403ab7:	e8 c4 fb ff ff       	call   403680 <___pformat_putc>
  403abc:	8b 43 08             	mov    eax,DWORD PTR [ebx+0x8]
  403abf:	8d 50 ff             	lea    edx,[eax-0x1]
  403ac2:	85 c0                	test   eax,eax
  403ac4:	89 53 08             	mov    DWORD PTR [ebx+0x8],edx
  403ac7:	7f e7                	jg     403ab0 <___pformat_int+0x180>
  403ac9:	8d 65 f4             	lea    esp,[ebp-0xc]
  403acc:	5b                   	pop    ebx
  403acd:	5e                   	pop    esi
  403ace:	5f                   	pop    edi
  403acf:	5d                   	pop    ebp
  403ad0:	c3                   	ret    
  403ad1:	f6 c4 01             	test   ah,0x1
  403ad4:	74 0a                	je     403ae0 <___pformat_int+0x1b0>
  403ad6:	8d 77 01             	lea    esi,[edi+0x1]
  403ad9:	c6 07 2b             	mov    BYTE PTR [edi],0x2b
  403adc:	eb a8                	jmp    403a86 <___pformat_int+0x156>
  403ade:	66 90                	xchg   ax,ax
  403ae0:	a8 40                	test   al,0x40
  403ae2:	89 fe                	mov    esi,edi
  403ae4:	74 a0                	je     403a86 <___pformat_int+0x156>
  403ae6:	83 c6 01             	add    esi,0x1
  403ae9:	c6 07 20             	mov    BYTE PTR [edi],0x20
  403aec:	eb 98                	jmp    403a86 <___pformat_int+0x156>
  403aee:	66 90                	xchg   ax,ax
  403af0:	89 c2                	mov    edx,eax
  403af2:	81 e2 00 06 00 00    	and    edx,0x600
  403af8:	81 fa 00 02 00 00    	cmp    edx,0x200
  403afe:	0f 85 45 ff ff ff    	jne    403a49 <___pformat_int+0x119>
  403b04:	8b 53 08             	mov    edx,DWORD PTR [ebx+0x8]
  403b07:	8d 4a ff             	lea    ecx,[edx-0x1]
  403b0a:	85 d2                	test   edx,edx
  403b0c:	89 4b 08             	mov    DWORD PTR [ebx+0x8],ecx
  403b0f:	0f 8e 67 ff ff ff    	jle    403a7c <___pformat_int+0x14c>
  403b15:	83 c7 01             	add    edi,0x1
  403b18:	c6 47 ff 30          	mov    BYTE PTR [edi-0x1],0x30
  403b1c:	8b 43 08             	mov    eax,DWORD PTR [ebx+0x8]
  403b1f:	8d 50 ff             	lea    edx,[eax-0x1]
  403b22:	85 c0                	test   eax,eax
  403b24:	89 53 08             	mov    DWORD PTR [ebx+0x8],edx
  403b27:	7f ec                	jg     403b15 <___pformat_int+0x1e5>
  403b29:	e9 4b ff ff ff       	jmp    403a79 <___pformat_int+0x149>
  403b2e:	66 90                	xchg   ax,ax
  403b30:	f7 de                	neg    esi
  403b32:	83 d7 00             	adc    edi,0x0
  403b35:	f7 df                	neg    edi
  403b37:	89 75 d8             	mov    DWORD PTR [ebp-0x28],esi
  403b3a:	89 7d dc             	mov    DWORD PTR [ebp-0x24],edi
  403b3d:	e9 43 fe ff ff       	jmp    403985 <___pformat_int+0x55>
  403b42:	8b 4b 0c             	mov    ecx,DWORD PTR [ebx+0xc]
  403b45:	85 c9                	test   ecx,ecx
  403b47:	0f 84 cc fe ff ff    	je     403a19 <___pformat_int+0xe9>
  403b4d:	c6 07 30             	mov    BYTE PTR [edi],0x30
  403b50:	83 c7 01             	add    edi,0x1
  403b53:	e9 c1 fe ff ff       	jmp    403a19 <___pformat_int+0xe9>
  403b58:	90                   	nop
  403b59:	8d b4 26 00 00 00 00 	lea    esi,[esi+eiz*1+0x0]

00403b60 <___pformat_xint>:
  403b60:	55                   	push   ebp
  403b61:	89 e5                	mov    ebp,esp
  403b63:	57                   	push   edi
  403b64:	89 cf                	mov    edi,ecx
  403b66:	56                   	push   esi
  403b67:	89 d6                	mov    esi,edx
  403b69:	53                   	push   ebx
  403b6a:	83 ec 2c             	sub    esp,0x2c
  403b6d:	89 55 dc             	mov    DWORD PTR [ebp-0x24],edx
  403b70:	31 d2                	xor    edx,edx
  403b72:	83 f8 6f             	cmp    eax,0x6f
  403b75:	0f 94 c2             	sete   dl
  403b78:	83 ea 01             	sub    edx,0x1
  403b7b:	83 e2 fa             	and    edx,0xfffffffa
  403b7e:	89 4d d4             	mov    DWORD PTR [ebp-0x2c],ecx
  403b81:	31 c9                	xor    ecx,ecx
  403b83:	83 f8 6f             	cmp    eax,0x6f
  403b86:	0f 95 c1             	setne  cl
  403b89:	89 45 d8             	mov    DWORD PTR [ebp-0x28],eax
  403b8c:	89 c8                	mov    eax,ecx
  403b8e:	89 45 e4             	mov    DWORD PTR [ebp-0x1c],eax
  403b91:	8b 45 08             	mov    eax,DWORD PTR [ebp+0x8]
  403b94:	8d 1c cd 07 00 00 00 	lea    ebx,[ecx*8+0x7]
  403b9b:	89 5d d0             	mov    DWORD PTR [ebp-0x30],ebx
  403b9e:	8b 4d 08             	mov    ecx,DWORD PTR [ebp+0x8]
  403ba1:	83 45 e4 03          	add    DWORD PTR [ebp-0x1c],0x3
  403ba5:	8b 58 0c             	mov    ebx,DWORD PTR [eax+0xc]
  403ba8:	8b 49 08             	mov    ecx,DWORD PTR [ecx+0x8]
  403bab:	89 d8                	mov    eax,ebx
  403bad:	c1 f8 1f             	sar    eax,0x1f
  403bb0:	f7 d0                	not    eax
  403bb2:	21 d8                	and    eax,ebx
  403bb4:	8d 44 02 18          	lea    eax,[edx+eax*1+0x18]
  403bb8:	39 c8                	cmp    eax,ecx
  403bba:	7d 02                	jge    403bbe <___pformat_xint+0x5e>
  403bbc:	89 c8                	mov    eax,ecx
  403bbe:	83 c0 0f             	add    eax,0xf
  403bc1:	83 e0 f0             	and    eax,0xfffffff0
  403bc4:	e8 47 e3 ff ff       	call   401f10 <___chkstk_ms>
  403bc9:	29 c4                	sub    esp,eax
  403bcb:	8b 45 d4             	mov    eax,DWORD PTR [ebp-0x2c]
  403bce:	0b 45 dc             	or     eax,DWORD PTR [ebp-0x24]
  403bd1:	89 65 e0             	mov    DWORD PTR [ebp-0x20],esp
  403bd4:	0f 84 4a 02 00 00    	je     403e24 <___pformat_xint+0x2c4>
  403bda:	0f b6 4d d8          	movzx  ecx,BYTE PTR [ebp-0x28]
  403bde:	89 e0                	mov    eax,esp
  403be0:	0f b6 5d d0          	movzx  ebx,BYTE PTR [ebp-0x30]
  403be4:	83 e1 20             	and    ecx,0x20
  403be7:	88 4d dc             	mov    BYTE PTR [ebp-0x24],cl
  403bea:	eb 1f                	jmp    403c0b <___pformat_xint+0xab>
  403bec:	8d 74 26 00          	lea    esi,[esi+eiz*1+0x0]
  403bf0:	88 48 ff             	mov    BYTE PTR [eax-0x1],cl
  403bf3:	0f b6 4d e4          	movzx  ecx,BYTE PTR [ebp-0x1c]
  403bf7:	0f ad fe             	shrd   esi,edi,cl
  403bfa:	d3 ef                	shr    edi,cl
  403bfc:	f6 c1 20             	test   cl,0x20
  403bff:	74 04                	je     403c05 <___pformat_xint+0xa5>
  403c01:	89 fe                	mov    esi,edi
  403c03:	31 ff                	xor    edi,edi
  403c05:	89 f9                	mov    ecx,edi
  403c07:	09 f1                	or     ecx,esi
  403c09:	74 1a                	je     403c25 <___pformat_xint+0xc5>
  403c0b:	89 f2                	mov    edx,esi
  403c0d:	83 c0 01             	add    eax,0x1
  403c10:	21 da                	and    edx,ebx
  403c12:	8d 4a 30             	lea    ecx,[edx+0x30]
  403c15:	80 f9 39             	cmp    cl,0x39
  403c18:	7e d6                	jle    403bf0 <___pformat_xint+0x90>
  403c1a:	83 c2 37             	add    edx,0x37
  403c1d:	0a 55 dc             	or     dl,BYTE PTR [ebp-0x24]
  403c20:	88 50 ff             	mov    BYTE PTR [eax-0x1],dl
  403c23:	eb ce                	jmp    403bf3 <___pformat_xint+0x93>
  403c25:	39 45 e0             	cmp    DWORD PTR [ebp-0x20],eax
  403c28:	0f 84 f0 01 00 00    	je     403e1e <___pformat_xint+0x2be>
  403c2e:	8b 7d 08             	mov    edi,DWORD PTR [ebp+0x8]
  403c31:	8b 5f 0c             	mov    ebx,DWORD PTR [edi+0xc]
  403c34:	85 db                	test   ebx,ebx
  403c36:	0f 8e a5 01 00 00    	jle    403de1 <___pformat_xint+0x281>
  403c3c:	8b 4d e0             	mov    ecx,DWORD PTR [ebp-0x20]
  403c3f:	29 c1                	sub    ecx,eax
  403c41:	01 cb                	add    ebx,ecx
  403c43:	85 db                	test   ebx,ebx
  403c45:	0f 8e 96 01 00 00    	jle    403de1 <___pformat_xint+0x281>
  403c4b:	8d 3c 18             	lea    edi,[eax+ebx*1]
  403c4e:	66 90                	xchg   ax,ax
  403c50:	83 c0 01             	add    eax,0x1
  403c53:	39 f8                	cmp    eax,edi
  403c55:	c6 40 ff 30          	mov    BYTE PTR [eax-0x1],0x30
  403c59:	75 f5                	jne    403c50 <___pformat_xint+0xf0>
  403c5b:	3b 7d e0             	cmp    edi,DWORD PTR [ebp-0x20]
  403c5e:	0f 84 a1 01 00 00    	je     403e05 <___pformat_xint+0x2a5>
  403c64:	8b 45 08             	mov    eax,DWORD PTR [ebp+0x8]
  403c67:	8b 70 08             	mov    esi,DWORD PTR [eax+0x8]
  403c6a:	89 f8                	mov    eax,edi
  403c6c:	2b 45 e0             	sub    eax,DWORD PTR [ebp-0x20]
  403c6f:	39 c6                	cmp    esi,eax
  403c71:	0f 8e a9 00 00 00    	jle    403d20 <___pformat_xint+0x1c0>
  403c77:	29 c6                	sub    esi,eax
  403c79:	8b 45 08             	mov    eax,DWORD PTR [ebp+0x8]
  403c7c:	85 f6                	test   esi,esi
  403c7e:	89 70 08             	mov    DWORD PTR [eax+0x8],esi
  403c81:	7e 21                	jle    403ca4 <___pformat_xint+0x144>
  403c83:	83 7d d8 6f          	cmp    DWORD PTR [ebp-0x28],0x6f
  403c87:	74 0d                	je     403c96 <___pformat_xint+0x136>
  403c89:	8b 45 08             	mov    eax,DWORD PTR [ebp+0x8]
  403c8c:	f6 40 05 08          	test   BYTE PTR [eax+0x5],0x8
  403c90:	0f 85 00 01 00 00    	jne    403d96 <___pformat_xint+0x236>
  403c96:	8b 45 08             	mov    eax,DWORD PTR [ebp+0x8]
  403c99:	8b 58 0c             	mov    ebx,DWORD PTR [eax+0xc]
  403c9c:	85 db                	test   ebx,ebx
  403c9e:	0f 88 09 01 00 00    	js     403dad <___pformat_xint+0x24d>
  403ca4:	8d 46 ff             	lea    eax,[esi-0x1]
  403ca7:	89 45 e4             	mov    DWORD PTR [ebp-0x1c],eax
  403caa:	8b 45 e4             	mov    eax,DWORD PTR [ebp-0x1c]
  403cad:	83 7d d8 6f          	cmp    DWORD PTR [ebp-0x28],0x6f
  403cb1:	89 c3                	mov    ebx,eax
  403cb3:	74 0d                	je     403cc2 <___pformat_xint+0x162>
  403cb5:	8b 45 08             	mov    eax,DWORD PTR [ebp+0x8]
  403cb8:	f6 40 05 08          	test   BYTE PTR [eax+0x5],0x8
  403cbc:	0f 85 be 00 00 00    	jne    403d80 <___pformat_xint+0x220>
  403cc2:	85 f6                	test   esi,esi
  403cc4:	7e 09                	jle    403ccf <___pformat_xint+0x16f>
  403cc6:	8b 45 08             	mov    eax,DWORD PTR [ebp+0x8]
  403cc9:	f6 40 05 04          	test   BYTE PTR [eax+0x5],0x4
  403ccd:	74 71                	je     403d40 <___pformat_xint+0x1e0>
  403ccf:	3b 7d e0             	cmp    edi,DWORD PTR [ebp-0x20]
  403cd2:	76 25                	jbe    403cf9 <___pformat_xint+0x199>
  403cd4:	89 75 e4             	mov    DWORD PTR [ebp-0x1c],esi
  403cd7:	8b 75 e0             	mov    esi,DWORD PTR [ebp-0x20]
  403cda:	89 5d e0             	mov    DWORD PTR [ebp-0x20],ebx
  403cdd:	89 fb                	mov    ebx,edi
  403cdf:	8b 7d 08             	mov    edi,DWORD PTR [ebp+0x8]
  403ce2:	83 eb 01             	sub    ebx,0x1
  403ce5:	0f be 03             	movsx  eax,BYTE PTR [ebx]
  403ce8:	89 fa                	mov    edx,edi
  403cea:	e8 91 f9 ff ff       	call   403680 <___pformat_putc>
  403cef:	39 f3                	cmp    ebx,esi
  403cf1:	75 ef                	jne    403ce2 <___pformat_xint+0x182>
  403cf3:	8b 75 e4             	mov    esi,DWORD PTR [ebp-0x1c]
  403cf6:	8b 5d e0             	mov    ebx,DWORD PTR [ebp-0x20]
  403cf9:	85 f6                	test   esi,esi
  403cfb:	7e 19                	jle    403d16 <___pformat_xint+0x1b6>
  403cfd:	8b 75 08             	mov    esi,DWORD PTR [ebp+0x8]
  403d00:	b8 20 00 00 00       	mov    eax,0x20
  403d05:	83 eb 01             	sub    ebx,0x1
  403d08:	89 f2                	mov    edx,esi
  403d0a:	e8 71 f9 ff ff       	call   403680 <___pformat_putc>
  403d0f:	8d 43 01             	lea    eax,[ebx+0x1]
  403d12:	85 c0                	test   eax,eax
  403d14:	7f ea                	jg     403d00 <___pformat_xint+0x1a0>
  403d16:	8d 65 f4             	lea    esp,[ebp-0xc]
  403d19:	5b                   	pop    ebx
  403d1a:	5e                   	pop    esi
  403d1b:	5f                   	pop    edi
  403d1c:	5d                   	pop    ebp
  403d1d:	c3                   	ret    
  403d1e:	66 90                	xchg   ax,ax
  403d20:	8b 45 08             	mov    eax,DWORD PTR [ebp+0x8]
  403d23:	be ff ff ff ff       	mov    esi,0xffffffff
  403d28:	c7 45 e4 fe ff ff ff 	mov    DWORD PTR [ebp-0x1c],0xfffffffe
  403d2f:	c7 40 08 ff ff ff ff 	mov    DWORD PTR [eax+0x8],0xffffffff
  403d36:	e9 6f ff ff ff       	jmp    403caa <___pformat_xint+0x14a>
  403d3b:	90                   	nop
  403d3c:	8d 74 26 00          	lea    esi,[esi+eiz*1+0x0]
  403d40:	8b 5d e4             	mov    ebx,DWORD PTR [ebp-0x1c]
  403d43:	89 c6                	mov    esi,eax
  403d45:	b8 20 00 00 00       	mov    eax,0x20
  403d4a:	83 eb 01             	sub    ebx,0x1
  403d4d:	89 f2                	mov    edx,esi
  403d4f:	e8 2c f9 ff ff       	call   403680 <___pformat_putc>
  403d54:	8d 43 01             	lea    eax,[ebx+0x1]
  403d57:	85 c0                	test   eax,eax
  403d59:	7f ea                	jg     403d45 <___pformat_xint+0x1e5>
  403d5b:	8b 4d e4             	mov    ecx,DWORD PTR [ebp-0x1c]
  403d5e:	89 c8                	mov    eax,ecx
  403d60:	c1 f8 1f             	sar    eax,0x1f
  403d63:	f7 d0                	not    eax
  403d65:	8d 71 ff             	lea    esi,[ecx-0x1]
  403d68:	21 c8                	and    eax,ecx
  403d6a:	29 c6                	sub    esi,eax
  403d6c:	8d 5e ff             	lea    ebx,[esi-0x1]
  403d6f:	e9 5b ff ff ff       	jmp    403ccf <___pformat_xint+0x16f>
  403d74:	83 ee 03             	sub    esi,0x3
  403d77:	89 75 e4             	mov    DWORD PTR [ebp-0x1c],esi
  403d7a:	89 c6                	mov    esi,eax
  403d7c:	8d 74 26 00          	lea    esi,[esi+eiz*1+0x0]
  403d80:	0f b6 45 d8          	movzx  eax,BYTE PTR [ebp-0x28]
  403d84:	83 c7 02             	add    edi,0x2
  403d87:	c6 47 ff 30          	mov    BYTE PTR [edi-0x1],0x30
  403d8b:	8b 5d e4             	mov    ebx,DWORD PTR [ebp-0x1c]
  403d8e:	88 47 fe             	mov    BYTE PTR [edi-0x2],al
  403d91:	e9 2c ff ff ff       	jmp    403cc2 <___pformat_xint+0x162>
  403d96:	8d 46 fe             	lea    eax,[esi-0x2]
  403d99:	85 c0                	test   eax,eax
  403d9b:	7e d7                	jle    403d74 <___pformat_xint+0x214>
  403d9d:	89 c6                	mov    esi,eax
  403d9f:	8b 45 08             	mov    eax,DWORD PTR [ebp+0x8]
  403da2:	8b 58 0c             	mov    ebx,DWORD PTR [eax+0xc]
  403da5:	85 db                	test   ebx,ebx
  403da7:	0f 89 f7 fe ff ff    	jns    403ca4 <___pformat_xint+0x144>
  403dad:	8b 45 08             	mov    eax,DWORD PTR [ebp+0x8]
  403db0:	8b 40 04             	mov    eax,DWORD PTR [eax+0x4]
  403db3:	25 00 06 00 00       	and    eax,0x600
  403db8:	3d 00 02 00 00       	cmp    eax,0x200
  403dbd:	0f 85 e1 fe ff ff    	jne    403ca4 <___pformat_xint+0x144>
  403dc3:	01 fe                	add    esi,edi
  403dc5:	83 c7 01             	add    edi,0x1
  403dc8:	39 f7                	cmp    edi,esi
  403dca:	c6 47 ff 30          	mov    BYTE PTR [edi-0x1],0x30
  403dce:	75 f5                	jne    403dc5 <___pformat_xint+0x265>
  403dd0:	c7 45 e4 fe ff ff ff 	mov    DWORD PTR [ebp-0x1c],0xfffffffe
  403dd7:	be ff ff ff ff       	mov    esi,0xffffffff
  403ddc:	e9 c9 fe ff ff       	jmp    403caa <___pformat_xint+0x14a>
  403de1:	83 7d d8 6f          	cmp    DWORD PTR [ebp-0x28],0x6f
  403de5:	89 c7                	mov    edi,eax
  403de7:	0f 85 6e fe ff ff    	jne    403c5b <___pformat_xint+0xfb>
  403ded:	8b 75 08             	mov    esi,DWORD PTR [ebp+0x8]
  403df0:	f6 46 05 08          	test   BYTE PTR [esi+0x5],0x8
  403df4:	0f 84 61 fe ff ff    	je     403c5b <___pformat_xint+0xfb>
  403dfa:	83 c7 01             	add    edi,0x1
  403dfd:	c6 00 30             	mov    BYTE PTR [eax],0x30
  403e00:	e9 56 fe ff ff       	jmp    403c5b <___pformat_xint+0xfb>
  403e05:	8b 45 08             	mov    eax,DWORD PTR [ebp+0x8]
  403e08:	8b 70 0c             	mov    esi,DWORD PTR [eax+0xc]
  403e0b:	85 f6                	test   esi,esi
  403e0d:	0f 84 51 fe ff ff    	je     403c64 <___pformat_xint+0x104>
  403e13:	c6 07 30             	mov    BYTE PTR [edi],0x30
  403e16:	83 c7 01             	add    edi,0x1
  403e19:	e9 46 fe ff ff       	jmp    403c64 <___pformat_xint+0x104>
  403e1e:	8b 45 08             	mov    eax,DWORD PTR [ebp+0x8]
  403e21:	8b 58 0c             	mov    ebx,DWORD PTR [eax+0xc]
  403e24:	8b 45 08             	mov    eax,DWORD PTR [ebp+0x8]
  403e27:	81 60 04 ff f7 ff ff 	and    DWORD PTR [eax+0x4],0xfffff7ff
  403e2e:	8b 45 e0             	mov    eax,DWORD PTR [ebp-0x20]
  403e31:	e9 fe fd ff ff       	jmp    403c34 <___pformat_xint+0xd4>
  403e36:	8d 76 00             	lea    esi,[esi+0x0]
  403e39:	8d bc 27 00 00 00 00 	lea    edi,[edi+eiz*1+0x0]

00403e40 <___pformat_emit_float>:
  403e40:	55                   	push   ebp
  403e41:	89 e5                	mov    ebp,esp
  403e43:	57                   	push   edi
  403e44:	56                   	push   esi
  403e45:	89 d6                	mov    esi,edx
  403e47:	53                   	push   ebx
  403e48:	89 cb                	mov    ebx,ecx
  403e4a:	83 ec 3c             	sub    esp,0x3c
  403e4d:	8b 7d 08             	mov    edi,DWORD PTR [ebp+0x8]
  403e50:	85 c9                	test   ecx,ecx
  403e52:	89 45 d4             	mov    DWORD PTR [ebp-0x2c],eax
  403e55:	8b 47 08             	mov    eax,DWORD PTR [edi+0x8]
  403e58:	0f 8e 7a 02 00 00    	jle    4040d8 <___pformat_emit_float+0x298>
  403e5e:	39 c1                	cmp    ecx,eax
  403e60:	0f 8d 3a 01 00 00    	jge    403fa0 <___pformat_emit_float+0x160>
  403e66:	29 c8                	sub    eax,ecx
  403e68:	89 47 08             	mov    DWORD PTR [edi+0x8],eax
  403e6b:	85 c0                	test   eax,eax
  403e6d:	0f 88 2d 01 00 00    	js     403fa0 <___pformat_emit_float+0x160>
  403e73:	8b 57 0c             	mov    edx,DWORD PTR [edi+0xc]
  403e76:	39 c2                	cmp    edx,eax
  403e78:	0f 8d 22 01 00 00    	jge    403fa0 <___pformat_emit_float+0x160>
  403e7e:	29 d0                	sub    eax,edx
  403e80:	85 c0                	test   eax,eax
  403e82:	89 47 08             	mov    DWORD PTR [edi+0x8],eax
  403e85:	0f 8e 1c 01 00 00    	jle    403fa7 <___pformat_emit_float+0x167>
  403e8b:	85 d2                	test   edx,edx
  403e8d:	0f 8e ad 02 00 00    	jle    404140 <___pformat_emit_float+0x300>
  403e93:	83 e8 01             	sub    eax,0x1
  403e96:	85 c0                	test   eax,eax
  403e98:	89 47 08             	mov    DWORD PTR [edi+0x8],eax
  403e9b:	0f 84 06 01 00 00    	je     403fa7 <___pformat_emit_float+0x167>
  403ea1:	8b 55 d4             	mov    edx,DWORD PTR [ebp-0x2c]
  403ea4:	85 d2                	test   edx,edx
  403ea6:	0f 85 ba 01 00 00    	jne    404066 <___pformat_emit_float+0x226>
  403eac:	8b 57 04             	mov    edx,DWORD PTR [edi+0x4]
  403eaf:	f7 c2 c0 01 00 00    	test   edx,0x1c0
  403eb5:	0f 85 ab 01 00 00    	jne    404066 <___pformat_emit_float+0x226>
  403ebb:	80 e6 06             	and    dh,0x6
  403ebe:	0f 85 e3 00 00 00    	jne    403fa7 <___pformat_emit_float+0x167>
  403ec4:	eb 0c                	jmp    403ed2 <___pformat_emit_float+0x92>
  403ec6:	89 fa                	mov    edx,edi
  403ec8:	b8 20 00 00 00       	mov    eax,0x20
  403ecd:	e8 ae f7 ff ff       	call   403680 <___pformat_putc>
  403ed2:	8b 47 08             	mov    eax,DWORD PTR [edi+0x8]
  403ed5:	8d 50 ff             	lea    edx,[eax-0x1]
  403ed8:	85 c0                	test   eax,eax
  403eda:	89 57 08             	mov    DWORD PTR [edi+0x8],edx
  403edd:	7f e7                	jg     403ec6 <___pformat_emit_float+0x86>
  403edf:	8b 45 d4             	mov    eax,DWORD PTR [ebp-0x2c]
  403ee2:	85 c0                	test   eax,eax
  403ee4:	0f 84 c8 00 00 00    	je     403fb2 <___pformat_emit_float+0x172>
  403eea:	89 fa                	mov    edx,edi
  403eec:	b8 2d 00 00 00       	mov    eax,0x2d
  403ef1:	e8 8a f7 ff ff       	call   403680 <___pformat_putc>
  403ef6:	8b 57 08             	mov    edx,DWORD PTR [edi+0x8]
  403ef9:	85 d2                	test   edx,edx
  403efb:	7e 13                	jle    403f10 <___pformat_emit_float+0xd0>
  403efd:	8b 47 04             	mov    eax,DWORD PTR [edi+0x4]
  403f00:	25 00 06 00 00       	and    eax,0x600
  403f05:	3d 00 02 00 00       	cmp    eax,0x200
  403f0a:	0f 84 f1 01 00 00    	je     404101 <___pformat_emit_float+0x2c1>
  403f10:	85 db                	test   ebx,ebx
  403f12:	0f 8e 10 02 00 00    	jle    404128 <___pformat_emit_float+0x2e8>
  403f18:	0f b6 16             	movzx  edx,BYTE PTR [esi]
  403f1b:	b8 30 00 00 00       	mov    eax,0x30
  403f20:	84 d2                	test   dl,dl
  403f22:	74 06                	je     403f2a <___pformat_emit_float+0xea>
  403f24:	83 c6 01             	add    esi,0x1
  403f27:	0f be c2             	movsx  eax,dl
  403f2a:	89 fa                	mov    edx,edi
  403f2c:	e8 4f f7 ff ff       	call   403680 <___pformat_putc>
  403f31:	83 eb 01             	sub    ebx,0x1
  403f34:	75 e2                	jne    403f18 <___pformat_emit_float+0xd8>
  403f36:	8b 47 0c             	mov    eax,DWORD PTR [edi+0xc]
  403f39:	85 c0                	test   eax,eax
  403f3b:	0f 8e 3f 01 00 00    	jle    404080 <___pformat_emit_float+0x240>
  403f41:	83 7f 10 fd          	cmp    DWORD PTR [edi+0x10],0xfffffffd
  403f45:	0f 84 49 01 00 00    	je     404094 <___pformat_emit_float+0x254>
  403f4b:	0f b7 57 14          	movzx  edx,WORD PTR [edi+0x14]
  403f4f:	66 85 d2             	test   dx,dx
  403f52:	0f 85 7f 00 00 00    	jne    403fd7 <___pformat_emit_float+0x197>
  403f58:	b8 2e 00 00 00       	mov    eax,0x2e
  403f5d:	89 fa                	mov    edx,edi
  403f5f:	e8 1c f7 ff ff       	call   403680 <___pformat_putc>
  403f64:	8b 47 0c             	mov    eax,DWORD PTR [edi+0xc]
  403f67:	85 db                	test   ebx,ebx
  403f69:	74 21                	je     403f8c <___pformat_emit_float+0x14c>
  403f6b:	e9 d8 00 00 00       	jmp    404048 <___pformat_emit_float+0x208>
  403f70:	0f b6 16             	movzx  edx,BYTE PTR [esi]
  403f73:	b8 30 00 00 00       	mov    eax,0x30
  403f78:	84 d2                	test   dl,dl
  403f7a:	74 06                	je     403f82 <___pformat_emit_float+0x142>
  403f7c:	83 c6 01             	add    esi,0x1
  403f7f:	0f be c2             	movsx  eax,dl
  403f82:	89 fa                	mov    edx,edi
  403f84:	e8 f7 f6 ff ff       	call   403680 <___pformat_putc>
  403f89:	8b 47 0c             	mov    eax,DWORD PTR [edi+0xc]
  403f8c:	8d 50 ff             	lea    edx,[eax-0x1]
  403f8f:	85 c0                	test   eax,eax
  403f91:	89 57 0c             	mov    DWORD PTR [edi+0xc],edx
  403f94:	7f da                	jg     403f70 <___pformat_emit_float+0x130>
  403f96:	8d 65 f4             	lea    esp,[ebp-0xc]
  403f99:	5b                   	pop    ebx
  403f9a:	5e                   	pop    esi
  403f9b:	5f                   	pop    edi
  403f9c:	5d                   	pop    ebp
  403f9d:	c3                   	ret    
  403f9e:	66 90                	xchg   ax,ax
  403fa0:	c7 47 08 ff ff ff ff 	mov    DWORD PTR [edi+0x8],0xffffffff
  403fa7:	8b 45 d4             	mov    eax,DWORD PTR [ebp-0x2c]
  403faa:	85 c0                	test   eax,eax
  403fac:	0f 85 38 ff ff ff    	jne    403eea <___pformat_emit_float+0xaa>
  403fb2:	8b 47 04             	mov    eax,DWORD PTR [edi+0x4]
  403fb5:	f6 c4 01             	test   ah,0x1
  403fb8:	0f 85 32 01 00 00    	jne    4040f0 <___pformat_emit_float+0x2b0>
  403fbe:	a8 40                	test   al,0x40
  403fc0:	0f 84 30 ff ff ff    	je     403ef6 <___pformat_emit_float+0xb6>
  403fc6:	89 fa                	mov    edx,edi
  403fc8:	b8 20 00 00 00       	mov    eax,0x20
  403fcd:	e8 ae f6 ff ff       	call   403680 <___pformat_putc>
  403fd2:	e9 1f ff ff ff       	jmp    403ef6 <___pformat_emit_float+0xb6>
  403fd7:	8b 47 10             	mov    eax,DWORD PTR [edi+0x10]
  403fda:	89 65 d4             	mov    DWORD PTR [ebp-0x2c],esp
  403fdd:	83 c0 0f             	add    eax,0xf
  403fe0:	83 e0 f0             	and    eax,0xfffffff0
  403fe3:	e8 28 df ff ff       	call   401f10 <___chkstk_ms>
  403fe8:	29 c4                	sub    esp,eax
  403fea:	8d 4c 24 10          	lea    ecx,[esp+0x10]
  403fee:	8d 45 e4             	lea    eax,[ebp-0x1c]
  403ff1:	c7 45 e4 00 00 00 00 	mov    DWORD PTR [ebp-0x1c],0x0
  403ff8:	89 44 24 08          	mov    DWORD PTR [esp+0x8],eax
  403ffc:	89 54 24 04          	mov    DWORD PTR [esp+0x4],edx
  404000:	89 0c 24             	mov    DWORD PTR [esp],ecx
  404003:	89 4d d0             	mov    DWORD PTR [ebp-0x30],ecx
  404006:	e8 35 19 00 00       	call   405940 <_wcrtomb>
  40400b:	85 c0                	test   eax,eax
  40400d:	0f 8e 42 01 00 00    	jle    404155 <___pformat_emit_float+0x315>
  404013:	8b 4d d0             	mov    ecx,DWORD PTR [ebp-0x30]
  404016:	89 5d cc             	mov    DWORD PTR [ebp-0x34],ebx
  404019:	89 75 d0             	mov    DWORD PTR [ebp-0x30],esi
  40401c:	01 c8                	add    eax,ecx
  40401e:	89 cb                	mov    ebx,ecx
  404020:	89 c6                	mov    esi,eax
  404022:	83 c3 01             	add    ebx,0x1
  404025:	0f be 43 ff          	movsx  eax,BYTE PTR [ebx-0x1]
  404029:	89 fa                	mov    edx,edi
  40402b:	e8 50 f6 ff ff       	call   403680 <___pformat_putc>
  404030:	39 f3                	cmp    ebx,esi
  404032:	75 ee                	jne    404022 <___pformat_emit_float+0x1e2>
  404034:	8b 75 d0             	mov    esi,DWORD PTR [ebp-0x30]
  404037:	8b 5d cc             	mov    ebx,DWORD PTR [ebp-0x34]
  40403a:	85 db                	test   ebx,ebx
  40403c:	8b 65 d4             	mov    esp,DWORD PTR [ebp-0x2c]
  40403f:	8b 47 0c             	mov    eax,DWORD PTR [edi+0xc]
  404042:	0f 84 44 ff ff ff    	je     403f8c <___pformat_emit_float+0x14c>
  404048:	01 d8                	add    eax,ebx
  40404a:	89 47 0c             	mov    DWORD PTR [edi+0xc],eax
  40404d:	8d 76 00             	lea    esi,[esi+0x0]
  404050:	89 fa                	mov    edx,edi
  404052:	b8 30 00 00 00       	mov    eax,0x30
  404057:	e8 24 f6 ff ff       	call   403680 <___pformat_putc>
  40405c:	83 c3 01             	add    ebx,0x1
  40405f:	78 ef                	js     404050 <___pformat_emit_float+0x210>
  404061:	e9 23 ff ff ff       	jmp    403f89 <___pformat_emit_float+0x149>
  404066:	83 e8 01             	sub    eax,0x1
  404069:	85 c0                	test   eax,eax
  40406b:	89 47 08             	mov    DWORD PTR [edi+0x8],eax
  40406e:	0f 84 33 ff ff ff    	je     403fa7 <___pformat_emit_float+0x167>
  404074:	8b 57 04             	mov    edx,DWORD PTR [edi+0x4]
  404077:	e9 3f fe ff ff       	jmp    403ebb <___pformat_emit_float+0x7b>
  40407c:	8d 74 26 00          	lea    esi,[esi+eiz*1+0x0]
  404080:	f6 47 05 08          	test   BYTE PTR [edi+0x5],0x8
  404084:	0f 84 dd fe ff ff    	je     403f67 <___pformat_emit_float+0x127>
  40408a:	83 7f 10 fd          	cmp    DWORD PTR [edi+0x10],0xfffffffd
  40408e:	0f 85 b7 fe ff ff    	jne    403f4b <___pformat_emit_float+0x10b>
  404094:	c7 45 e4 00 00 00 00 	mov    DWORD PTR [ebp-0x1c],0x0
  40409b:	e8 e0 3e 00 00       	call   407f80 <_localeconv>
  4040a0:	8d 55 e4             	lea    edx,[ebp-0x1c]
  4040a3:	89 54 24 0c          	mov    DWORD PTR [esp+0xc],edx
  4040a7:	c7 44 24 08 10 00 00 	mov    DWORD PTR [esp+0x8],0x10
  4040ae:	00 
  4040af:	8b 00                	mov    eax,DWORD PTR [eax]
  4040b1:	89 44 24 04          	mov    DWORD PTR [esp+0x4],eax
  4040b5:	8d 45 e2             	lea    eax,[ebp-0x1e]
  4040b8:	89 04 24             	mov    DWORD PTR [esp],eax
  4040bb:	e8 50 15 00 00       	call   405610 <_mbrtowc>
  4040c0:	85 c0                	test   eax,eax
  4040c2:	0f 8e 9e 00 00 00    	jle    404166 <___pformat_emit_float+0x326>
  4040c8:	0f b7 55 e2          	movzx  edx,WORD PTR [ebp-0x1e]
  4040cc:	66 89 57 14          	mov    WORD PTR [edi+0x14],dx
  4040d0:	89 47 10             	mov    DWORD PTR [edi+0x10],eax
  4040d3:	e9 77 fe ff ff       	jmp    403f4f <___pformat_emit_float+0x10f>
  4040d8:	85 c0                	test   eax,eax
  4040da:	0f 8e 8b fd ff ff    	jle    403e6b <___pformat_emit_float+0x2b>
  4040e0:	83 e8 01             	sub    eax,0x1
  4040e3:	89 47 08             	mov    DWORD PTR [edi+0x8],eax
  4040e6:	e9 88 fd ff ff       	jmp    403e73 <___pformat_emit_float+0x33>
  4040eb:	90                   	nop
  4040ec:	8d 74 26 00          	lea    esi,[esi+eiz*1+0x0]
  4040f0:	89 fa                	mov    edx,edi
  4040f2:	b8 2b 00 00 00       	mov    eax,0x2b
  4040f7:	e8 84 f5 ff ff       	call   403680 <___pformat_putc>
  4040fc:	e9 f5 fd ff ff       	jmp    403ef6 <___pformat_emit_float+0xb6>
  404101:	83 ea 01             	sub    edx,0x1
  404104:	89 57 08             	mov    DWORD PTR [edi+0x8],edx
  404107:	89 fa                	mov    edx,edi
  404109:	b8 30 00 00 00       	mov    eax,0x30
  40410e:	e8 6d f5 ff ff       	call   403680 <___pformat_putc>
  404113:	8b 47 08             	mov    eax,DWORD PTR [edi+0x8]
  404116:	8d 50 ff             	lea    edx,[eax-0x1]
  404119:	85 c0                	test   eax,eax
  40411b:	89 57 08             	mov    DWORD PTR [edi+0x8],edx
  40411e:	7f e7                	jg     404107 <___pformat_emit_float+0x2c7>
  404120:	85 db                	test   ebx,ebx
  404122:	0f 8f f0 fd ff ff    	jg     403f18 <___pformat_emit_float+0xd8>
  404128:	89 fa                	mov    edx,edi
  40412a:	b8 30 00 00 00       	mov    eax,0x30
  40412f:	e8 4c f5 ff ff       	call   403680 <___pformat_putc>
  404134:	e9 fd fd ff ff       	jmp    403f36 <___pformat_emit_float+0xf6>
  404139:	8d b4 26 00 00 00 00 	lea    esi,[esi+eiz*1+0x0]
  404140:	f6 47 05 08          	test   BYTE PTR [edi+0x5],0x8
  404144:	0f 84 57 fd ff ff    	je     403ea1 <___pformat_emit_float+0x61>
  40414a:	8d b6 00 00 00 00    	lea    esi,[esi+0x0]
  404150:	e9 3e fd ff ff       	jmp    403e93 <___pformat_emit_float+0x53>
  404155:	89 fa                	mov    edx,edi
  404157:	b8 2e 00 00 00       	mov    eax,0x2e
  40415c:	e8 1f f5 ff ff       	call   403680 <___pformat_putc>
  404161:	e9 d4 fe ff ff       	jmp    40403a <___pformat_emit_float+0x1fa>
  404166:	0f b7 57 14          	movzx  edx,WORD PTR [edi+0x14]
  40416a:	e9 61 ff ff ff       	jmp    4040d0 <___pformat_emit_float+0x290>
  40416f:	90                   	nop

00404170 <___pformat_emit_efloat>:
  404170:	55                   	push   ebp
  404171:	83 e9 01             	sub    ecx,0x1
  404174:	57                   	push   edi
  404175:	89 d5                	mov    ebp,edx
  404177:	56                   	push   esi
  404178:	be 01 00 00 00       	mov    esi,0x1
  40417d:	53                   	push   ebx
  40417e:	bb 67 66 66 66       	mov    ebx,0x66666667
  404183:	83 ec 1c             	sub    esp,0x1c
  404186:	89 44 24 04          	mov    DWORD PTR [esp+0x4],eax
  40418a:	89 c8                	mov    eax,ecx
  40418c:	8b 7c 24 30          	mov    edi,DWORD PTR [esp+0x30]
  404190:	c1 f8 1f             	sar    eax,0x1f
  404193:	89 44 24 0c          	mov    DWORD PTR [esp+0xc],eax
  404197:	89 c8                	mov    eax,ecx
  404199:	f7 eb                	imul   ebx
  40419b:	89 4c 24 08          	mov    DWORD PTR [esp+0x8],ecx
  40419f:	c1 f9 1f             	sar    ecx,0x1f
  4041a2:	c1 fa 02             	sar    edx,0x2
  4041a5:	89 d3                	mov    ebx,edx
  4041a7:	29 cb                	sub    ebx,ecx
  4041a9:	74 18                	je     4041c3 <___pformat_emit_efloat+0x53>
  4041ab:	b9 67 66 66 66       	mov    ecx,0x66666667
  4041b0:	89 d8                	mov    eax,ebx
  4041b2:	83 c6 01             	add    esi,0x1
  4041b5:	f7 e9                	imul   ecx
  4041b7:	c1 fb 1f             	sar    ebx,0x1f
  4041ba:	c1 fa 02             	sar    edx,0x2
  4041bd:	29 da                	sub    edx,ebx
  4041bf:	89 d3                	mov    ebx,edx
  4041c1:	75 ed                	jne    4041b0 <___pformat_emit_efloat+0x40>
  4041c3:	8b 47 20             	mov    eax,DWORD PTR [edi+0x20]
  4041c6:	39 c6                	cmp    esi,eax
  4041c8:	7d 02                	jge    4041cc <___pformat_emit_efloat+0x5c>
  4041ca:	89 c6                	mov    esi,eax
  4041cc:	8b 57 08             	mov    edx,DWORD PTR [edi+0x8]
  4041cf:	8d 46 02             	lea    eax,[esi+0x2]
  4041d2:	39 c2                	cmp    edx,eax
  4041d4:	7f 5a                	jg     404230 <___pformat_emit_efloat+0xc0>
  4041d6:	c7 47 08 ff ff ff ff 	mov    DWORD PTR [edi+0x8],0xffffffff
  4041dd:	8b 44 24 04          	mov    eax,DWORD PTR [esp+0x4]
  4041e1:	b9 01 00 00 00       	mov    ecx,0x1
  4041e6:	89 ea                	mov    edx,ebp
  4041e8:	89 3c 24             	mov    DWORD PTR [esp],edi
  4041eb:	83 c6 01             	add    esi,0x1
  4041ee:	e8 4d fc ff ff       	call   403e40 <___pformat_emit_float>
  4041f3:	8b 47 20             	mov    eax,DWORD PTR [edi+0x20]
  4041f6:	89 47 0c             	mov    DWORD PTR [edi+0xc],eax
  4041f9:	8b 47 04             	mov    eax,DWORD PTR [edi+0x4]
  4041fc:	89 c2                	mov    edx,eax
  4041fe:	83 e0 20             	and    eax,0x20
  404201:	81 ca c0 01 00 00    	or     edx,0x1c0
  404207:	83 c8 45             	or     eax,0x45
  40420a:	89 57 04             	mov    DWORD PTR [edi+0x4],edx
  40420d:	89 fa                	mov    edx,edi
  40420f:	e8 6c f4 ff ff       	call   403680 <___pformat_putc>
  404214:	8b 44 24 08          	mov    eax,DWORD PTR [esp+0x8]
  404218:	89 f9                	mov    ecx,edi
  40421a:	01 77 08             	add    DWORD PTR [edi+0x8],esi
  40421d:	8b 54 24 0c          	mov    edx,DWORD PTR [esp+0xc]
  404221:	e8 0a f7 ff ff       	call   403930 <___pformat_int>
  404226:	83 c4 1c             	add    esp,0x1c
  404229:	5b                   	pop    ebx
  40422a:	5e                   	pop    esi
  40422b:	5f                   	pop    edi
  40422c:	5d                   	pop    ebp
  40422d:	c3                   	ret    
  40422e:	66 90                	xchg   ax,ax
  404230:	29 c2                	sub    edx,eax
  404232:	89 57 08             	mov    DWORD PTR [edi+0x8],edx
  404235:	eb a6                	jmp    4041dd <___pformat_emit_efloat+0x6d>
  404237:	89 f6                	mov    esi,esi
  404239:	8d bc 27 00 00 00 00 	lea    edi,[edi+eiz*1+0x0]

00404240 <___pformat_efloat>:
  404240:	56                   	push   esi
  404241:	53                   	push   ebx
  404242:	89 c3                	mov    ebx,eax
  404244:	83 ec 44             	sub    esp,0x44
  404247:	8b 40 0c             	mov    eax,DWORD PTR [eax+0xc]
  40424a:	85 c0                	test   eax,eax
  40424c:	78 72                	js     4042c0 <___pformat_efloat+0x80>
  40424e:	83 c0 01             	add    eax,0x1
  404251:	db 6c 24 50          	fld    TBYTE PTR [esp+0x50]
  404255:	89 44 24 10          	mov    DWORD PTR [esp+0x10],eax
  404259:	8d 54 24 28          	lea    edx,[esp+0x28]
  40425d:	db 7c 24 30          	fstp   TBYTE PTR [esp+0x30]
  404261:	8b 44 24 30          	mov    eax,DWORD PTR [esp+0x30]
  404265:	89 54 24 18          	mov    DWORD PTR [esp+0x18],edx
  404269:	8d 54 24 2c          	lea    edx,[esp+0x2c]
  40426d:	89 54 24 14          	mov    DWORD PTR [esp+0x14],edx
  404271:	89 04 24             	mov    DWORD PTR [esp],eax
  404274:	8b 44 24 34          	mov    eax,DWORD PTR [esp+0x34]
  404278:	89 44 24 04          	mov    DWORD PTR [esp+0x4],eax
  40427c:	8b 44 24 38          	mov    eax,DWORD PTR [esp+0x38]
  404280:	89 44 24 08          	mov    DWORD PTR [esp+0x8],eax
  404284:	8b 44 24 3c          	mov    eax,DWORD PTR [esp+0x3c]
  404288:	89 44 24 0c          	mov    DWORD PTR [esp+0xc],eax
  40428c:	b8 02 00 00 00       	mov    eax,0x2
  404291:	e8 ea f2 ff ff       	call   403580 <___pformat_cvt>
  404296:	8b 4c 24 2c          	mov    ecx,DWORD PTR [esp+0x2c]
  40429a:	81 f9 00 80 ff ff    	cmp    ecx,0xffff8000
  4042a0:	89 c6                	mov    esi,eax
  4042a2:	74 2c                	je     4042d0 <___pformat_efloat+0x90>
  4042a4:	89 c2                	mov    edx,eax
  4042a6:	8b 44 24 28          	mov    eax,DWORD PTR [esp+0x28]
  4042aa:	89 1c 24             	mov    DWORD PTR [esp],ebx
  4042ad:	e8 be fe ff ff       	call   404170 <___pformat_emit_efloat>
  4042b2:	89 34 24             	mov    DWORD PTR [esp],esi
  4042b5:	e8 e6 2e 00 00       	call   4071a0 <___freedtoa>
  4042ba:	83 c4 44             	add    esp,0x44
  4042bd:	5b                   	pop    ebx
  4042be:	5e                   	pop    esi
  4042bf:	c3                   	ret    
  4042c0:	c7 43 0c 06 00 00 00 	mov    DWORD PTR [ebx+0xc],0x6
  4042c7:	b8 07 00 00 00       	mov    eax,0x7
  4042cc:	eb 83                	jmp    404251 <___pformat_efloat+0x11>
  4042ce:	66 90                	xchg   ax,ax
  4042d0:	89 c2                	mov    edx,eax
  4042d2:	8b 44 24 28          	mov    eax,DWORD PTR [esp+0x28]
  4042d6:	89 d9                	mov    ecx,ebx
  4042d8:	e8 c3 f5 ff ff       	call   4038a0 <___pformat_emit_inf_or_nan>
  4042dd:	89 34 24             	mov    DWORD PTR [esp],esi
  4042e0:	e8 bb 2e 00 00       	call   4071a0 <___freedtoa>
  4042e5:	83 c4 44             	add    esp,0x44
  4042e8:	5b                   	pop    ebx
  4042e9:	5e                   	pop    esi
  4042ea:	c3                   	ret    
  4042eb:	90                   	nop
  4042ec:	8d 74 26 00          	lea    esi,[esi+eiz*1+0x0]

004042f0 <___pformat_float>:
  4042f0:	57                   	push   edi
  4042f1:	56                   	push   esi
  4042f2:	53                   	push   ebx
  4042f3:	89 c3                	mov    ebx,eax
  4042f5:	83 ec 40             	sub    esp,0x40
  4042f8:	8b 40 0c             	mov    eax,DWORD PTR [eax+0xc]
  4042fb:	85 c0                	test   eax,eax
  4042fd:	0f 88 9d 00 00 00    	js     4043a0 <___pformat_float+0xb0>
  404303:	db 6c 24 50          	fld    TBYTE PTR [esp+0x50]
  404307:	89 44 24 10          	mov    DWORD PTR [esp+0x10],eax
  40430b:	8d 54 24 28          	lea    edx,[esp+0x28]
  40430f:	db 7c 24 30          	fstp   TBYTE PTR [esp+0x30]
  404313:	8b 44 24 30          	mov    eax,DWORD PTR [esp+0x30]
  404317:	89 54 24 18          	mov    DWORD PTR [esp+0x18],edx
  40431b:	8d 54 24 2c          	lea    edx,[esp+0x2c]
  40431f:	89 54 24 14          	mov    DWORD PTR [esp+0x14],edx
  404323:	89 04 24             	mov    DWORD PTR [esp],eax
  404326:	8b 44 24 34          	mov    eax,DWORD PTR [esp+0x34]
  40432a:	89 44 24 04          	mov    DWORD PTR [esp+0x4],eax
  40432e:	8b 44 24 38          	mov    eax,DWORD PTR [esp+0x38]
  404332:	89 44 24 08          	mov    DWORD PTR [esp+0x8],eax
  404336:	8b 44 24 3c          	mov    eax,DWORD PTR [esp+0x3c]
  40433a:	89 44 24 0c          	mov    DWORD PTR [esp+0xc],eax
  40433e:	b8 03 00 00 00       	mov    eax,0x3
  404343:	e8 38 f2 ff ff       	call   403580 <___pformat_cvt>
  404348:	8b 4c 24 2c          	mov    ecx,DWORD PTR [esp+0x2c]
  40434c:	81 f9 00 80 ff ff    	cmp    ecx,0xffff8000
  404352:	89 c7                	mov    edi,eax
  404354:	74 5b                	je     4043b1 <___pformat_float+0xc1>
  404356:	89 c2                	mov    edx,eax
  404358:	8b 44 24 28          	mov    eax,DWORD PTR [esp+0x28]
  40435c:	89 1c 24             	mov    DWORD PTR [esp],ebx
  40435f:	e8 dc fa ff ff       	call   403e40 <___pformat_emit_float>
  404364:	8b 43 08             	mov    eax,DWORD PTR [ebx+0x8]
  404367:	8d 50 ff             	lea    edx,[eax-0x1]
  40436a:	85 c0                	test   eax,eax
  40436c:	89 53 08             	mov    DWORD PTR [ebx+0x8],edx
  40436f:	7e 19                	jle    40438a <___pformat_float+0x9a>
  404371:	89 da                	mov    edx,ebx
  404373:	b8 20 00 00 00       	mov    eax,0x20
  404378:	e8 03 f3 ff ff       	call   403680 <___pformat_putc>
  40437d:	8b 4b 08             	mov    ecx,DWORD PTR [ebx+0x8]
  404380:	8d 71 ff             	lea    esi,[ecx-0x1]
  404383:	85 c9                	test   ecx,ecx
  404385:	89 73 08             	mov    DWORD PTR [ebx+0x8],esi
  404388:	7f e7                	jg     404371 <___pformat_float+0x81>
  40438a:	89 3c 24             	mov    DWORD PTR [esp],edi
  40438d:	e8 0e 2e 00 00       	call   4071a0 <___freedtoa>
  404392:	83 c4 40             	add    esp,0x40
  404395:	5b                   	pop    ebx
  404396:	5e                   	pop    esi
  404397:	5f                   	pop    edi
  404398:	c3                   	ret    
  404399:	8d b4 26 00 00 00 00 	lea    esi,[esi+eiz*1+0x0]
  4043a0:	c7 43 0c 06 00 00 00 	mov    DWORD PTR [ebx+0xc],0x6
  4043a7:	b8 06 00 00 00       	mov    eax,0x6
  4043ac:	e9 52 ff ff ff       	jmp    404303 <___pformat_float+0x13>
  4043b1:	89 c2                	mov    edx,eax
  4043b3:	8b 44 24 28          	mov    eax,DWORD PTR [esp+0x28]
  4043b7:	89 d9                	mov    ecx,ebx
  4043b9:	e8 e2 f4 ff ff       	call   4038a0 <___pformat_emit_inf_or_nan>
  4043be:	89 3c 24             	mov    DWORD PTR [esp],edi
  4043c1:	e8 da 2d 00 00       	call   4071a0 <___freedtoa>
  4043c6:	83 c4 40             	add    esp,0x40
  4043c9:	5b                   	pop    ebx
  4043ca:	5e                   	pop    esi
  4043cb:	5f                   	pop    edi
  4043cc:	c3                   	ret    
  4043cd:	8d 76 00             	lea    esi,[esi+0x0]

004043d0 <___pformat_gfloat>:
  4043d0:	57                   	push   edi
  4043d1:	56                   	push   esi
  4043d2:	53                   	push   ebx
  4043d3:	89 c3                	mov    ebx,eax
  4043d5:	83 ec 40             	sub    esp,0x40
  4043d8:	8b 40 0c             	mov    eax,DWORD PTR [eax+0xc]
  4043db:	85 c0                	test   eax,eax
  4043dd:	0f 88 1d 01 00 00    	js     404500 <___pformat_gfloat+0x130>
  4043e3:	0f 84 fa 00 00 00    	je     4044e3 <___pformat_gfloat+0x113>
  4043e9:	db 6c 24 50          	fld    TBYTE PTR [esp+0x50]
  4043ed:	89 44 24 10          	mov    DWORD PTR [esp+0x10],eax
  4043f1:	8d 54 24 28          	lea    edx,[esp+0x28]
  4043f5:	db 7c 24 30          	fstp   TBYTE PTR [esp+0x30]
  4043f9:	8b 44 24 30          	mov    eax,DWORD PTR [esp+0x30]
  4043fd:	89 54 24 18          	mov    DWORD PTR [esp+0x18],edx
  404401:	8d 54 24 2c          	lea    edx,[esp+0x2c]
  404405:	89 54 24 14          	mov    DWORD PTR [esp+0x14],edx
  404409:	89 04 24             	mov    DWORD PTR [esp],eax
  40440c:	8b 44 24 34          	mov    eax,DWORD PTR [esp+0x34]
  404410:	89 44 24 04          	mov    DWORD PTR [esp+0x4],eax
  404414:	8b 44 24 38          	mov    eax,DWORD PTR [esp+0x38]
  404418:	89 44 24 08          	mov    DWORD PTR [esp+0x8],eax
  40441c:	8b 44 24 3c          	mov    eax,DWORD PTR [esp+0x3c]
  404420:	89 44 24 0c          	mov    DWORD PTR [esp+0xc],eax
  404424:	b8 02 00 00 00       	mov    eax,0x2
  404429:	e8 52 f1 ff ff       	call   403580 <___pformat_cvt>
  40442e:	8b 74 24 2c          	mov    esi,DWORD PTR [esp+0x2c]
  404432:	81 fe 00 80 ff ff    	cmp    esi,0xffff8000
  404438:	89 c7                	mov    edi,eax
  40443a:	0f 84 e0 00 00 00    	je     404520 <___pformat_gfloat+0x150>
  404440:	83 fe fd             	cmp    esi,0xfffffffd
  404443:	7c 6b                	jl     4044b0 <___pformat_gfloat+0xe0>
  404445:	8b 43 0c             	mov    eax,DWORD PTR [ebx+0xc]
  404448:	39 c6                	cmp    esi,eax
  40444a:	7f 64                	jg     4044b0 <___pformat_gfloat+0xe0>
  40444c:	f6 43 05 08          	test   BYTE PTR [ebx+0x5],0x8
  404450:	0f 85 bb 00 00 00    	jne    404511 <___pformat_gfloat+0x141>
  404456:	89 3c 24             	mov    DWORD PTR [esp],edi
  404459:	e8 d2 3a 00 00       	call   407f30 <_strlen>
  40445e:	29 f0                	sub    eax,esi
  404460:	85 c0                	test   eax,eax
  404462:	89 43 0c             	mov    DWORD PTR [ebx+0xc],eax
  404465:	0f 88 c5 00 00 00    	js     404530 <___pformat_gfloat+0x160>
  40446b:	8b 44 24 28          	mov    eax,DWORD PTR [esp+0x28]
  40446f:	89 fa                	mov    edx,edi
  404471:	89 f1                	mov    ecx,esi
  404473:	89 1c 24             	mov    DWORD PTR [esp],ebx
  404476:	e8 c5 f9 ff ff       	call   403e40 <___pformat_emit_float>
  40447b:	8b 43 08             	mov    eax,DWORD PTR [ebx+0x8]
  40447e:	8d 50 ff             	lea    edx,[eax-0x1]
  404481:	85 c0                	test   eax,eax
  404483:	89 53 08             	mov    DWORD PTR [ebx+0x8],edx
  404486:	7e 4c                	jle    4044d4 <___pformat_gfloat+0x104>
  404488:	89 da                	mov    edx,ebx
  40448a:	b8 20 00 00 00       	mov    eax,0x20
  40448f:	e8 ec f1 ff ff       	call   403680 <___pformat_putc>
  404494:	8b 4b 08             	mov    ecx,DWORD PTR [ebx+0x8]
  404497:	8d 71 ff             	lea    esi,[ecx-0x1]
  40449a:	85 c9                	test   ecx,ecx
  40449c:	89 73 08             	mov    DWORD PTR [ebx+0x8],esi
  40449f:	7f e7                	jg     404488 <___pformat_gfloat+0xb8>
  4044a1:	89 3c 24             	mov    DWORD PTR [esp],edi
  4044a4:	e8 f7 2c 00 00       	call   4071a0 <___freedtoa>
  4044a9:	83 c4 40             	add    esp,0x40
  4044ac:	5b                   	pop    ebx
  4044ad:	5e                   	pop    esi
  4044ae:	5f                   	pop    edi
  4044af:	c3                   	ret    
  4044b0:	f6 43 05 08          	test   BYTE PTR [ebx+0x5],0x8
  4044b4:	75 3e                	jne    4044f4 <___pformat_gfloat+0x124>
  4044b6:	89 3c 24             	mov    DWORD PTR [esp],edi
  4044b9:	e8 72 3a 00 00       	call   407f30 <_strlen>
  4044be:	83 e8 01             	sub    eax,0x1
  4044c1:	89 43 0c             	mov    DWORD PTR [ebx+0xc],eax
  4044c4:	8b 44 24 28          	mov    eax,DWORD PTR [esp+0x28]
  4044c8:	89 f1                	mov    ecx,esi
  4044ca:	89 fa                	mov    edx,edi
  4044cc:	89 1c 24             	mov    DWORD PTR [esp],ebx
  4044cf:	e8 9c fc ff ff       	call   404170 <___pformat_emit_efloat>
  4044d4:	89 3c 24             	mov    DWORD PTR [esp],edi
  4044d7:	e8 c4 2c 00 00       	call   4071a0 <___freedtoa>
  4044dc:	83 c4 40             	add    esp,0x40
  4044df:	5b                   	pop    ebx
  4044e0:	5e                   	pop    esi
  4044e1:	5f                   	pop    edi
  4044e2:	c3                   	ret    
  4044e3:	c7 43 0c 01 00 00 00 	mov    DWORD PTR [ebx+0xc],0x1
  4044ea:	b8 01 00 00 00       	mov    eax,0x1
  4044ef:	e9 f5 fe ff ff       	jmp    4043e9 <___pformat_gfloat+0x19>
  4044f4:	83 6b 0c 01          	sub    DWORD PTR [ebx+0xc],0x1
  4044f8:	eb ca                	jmp    4044c4 <___pformat_gfloat+0xf4>
  4044fa:	8d b6 00 00 00 00    	lea    esi,[esi+0x0]
  404500:	c7 43 0c 06 00 00 00 	mov    DWORD PTR [ebx+0xc],0x6
  404507:	b8 06 00 00 00       	mov    eax,0x6
  40450c:	e9 d8 fe ff ff       	jmp    4043e9 <___pformat_gfloat+0x19>
  404511:	29 f0                	sub    eax,esi
  404513:	89 43 0c             	mov    DWORD PTR [ebx+0xc],eax
  404516:	e9 50 ff ff ff       	jmp    40446b <___pformat_gfloat+0x9b>
  40451b:	90                   	nop
  40451c:	8d 74 26 00          	lea    esi,[esi+eiz*1+0x0]
  404520:	89 c2                	mov    edx,eax
  404522:	8b 44 24 28          	mov    eax,DWORD PTR [esp+0x28]
  404526:	89 d9                	mov    ecx,ebx
  404528:	e8 73 f3 ff ff       	call   4038a0 <___pformat_emit_inf_or_nan>
  40452d:	eb a5                	jmp    4044d4 <___pformat_gfloat+0x104>
  40452f:	90                   	nop
  404530:	8b 53 08             	mov    edx,DWORD PTR [ebx+0x8]
  404533:	85 d2                	test   edx,edx
  404535:	0f 8e 30 ff ff ff    	jle    40446b <___pformat_gfloat+0x9b>
  40453b:	01 d0                	add    eax,edx
  40453d:	89 43 08             	mov    DWORD PTR [ebx+0x8],eax
  404540:	e9 26 ff ff ff       	jmp    40446b <___pformat_gfloat+0x9b>
  404545:	8d 74 26 00          	lea    esi,[esi+eiz*1+0x0]
  404549:	8d bc 27 00 00 00 00 	lea    edi,[edi+eiz*1+0x0]

00404550 <___pformat_xldouble>:
  404550:	55                   	push   ebp
  404551:	89 e5                	mov    ebp,esp
  404553:	57                   	push   edi
  404554:	89 c7                	mov    edi,eax
  404556:	56                   	push   esi
  404557:	53                   	push   ebx
  404558:	83 ec 6c             	sub    esp,0x6c
  40455b:	db 6d 08             	fld    TBYTE PTR [ebp+0x8]
  40455e:	d9 c0                	fld    st(0)
  404560:	db 7d c0             	fstp   TBYTE PTR [ebp-0x40]
  404563:	d9 e5                	fxam   
  404565:	9b df e0             	fstsw  ax
  404568:	66 25 00 45          	and    ax,0x4500
  40456c:	66 3d 00 01          	cmp    ax,0x100
  404570:	0f 84 1f 05 00 00    	je     404a95 <___pformat_xldouble+0x545>
  404576:	0f b7 55 c8          	movzx  edx,WORD PTR [ebp-0x38]
  40457a:	89 d3                	mov    ebx,edx
  40457c:	81 e3 00 80 00 00    	and    ebx,0x8000
  404582:	0f 85 48 01 00 00    	jne    4046d0 <___pformat_xldouble+0x180>
  404588:	d9 e5                	fxam   
  40458a:	9b df e0             	fstsw  ax
  40458d:	dd d8                	fstp   st(0)
  40458f:	66 25 00 45          	and    ax,0x4500
  404593:	66 3d 00 05          	cmp    ax,0x500
  404597:	0f 84 16 05 00 00    	je     404ab3 <___pformat_xldouble+0x563>
  40459d:	66 81 e2 ff 7f       	and    dx,0x7fff
  4045a2:	0f 84 b8 01 00 00    	je     404760 <___pformat_xldouble+0x210>
  4045a8:	8d b2 01 c0 ff ff    	lea    esi,[edx-0x3fff]
  4045ae:	8b 45 c0             	mov    eax,DWORD PTR [ebp-0x40]
  4045b1:	8b 55 c4             	mov    edx,DWORD PTR [ebp-0x3c]
  4045b4:	8b 5f 0c             	mov    ebx,DWORD PTR [edi+0xc]
  4045b7:	83 fb 0e             	cmp    ebx,0xe
  4045ba:	0f 86 26 01 00 00    	jbe    4046e6 <___pformat_xldouble+0x196>
  4045c0:	89 d1                	mov    ecx,edx
  4045c2:	09 c1                	or     ecx,eax
  4045c4:	0f 84 fc 04 00 00    	je     404ac6 <___pformat_xldouble+0x576>
  4045ca:	8d 4d d6             	lea    ecx,[ebp-0x2a]
  4045cd:	89 4d a4             	mov    DWORD PTR [ebp-0x5c],ecx
  4045d0:	89 4d ac             	mov    DWORD PTR [ebp-0x54],ecx
  4045d3:	89 7d a8             	mov    DWORD PTR [ebp-0x58],edi
  4045d6:	eb 5e                	jmp    404636 <___pformat_xldouble+0xe6>
  4045d8:	8b 4d a8             	mov    ecx,DWORD PTR [ebp-0x58]
  4045db:	8b 49 0c             	mov    ecx,DWORD PTR [ecx+0xc]
  4045de:	85 c9                	test   ecx,ecx
  4045e0:	7e 09                	jle    4045eb <___pformat_xldouble+0x9b>
  4045e2:	8b 5d a8             	mov    ebx,DWORD PTR [ebp-0x58]
  4045e5:	83 e9 01             	sub    ecx,0x1
  4045e8:	89 4b 0c             	mov    DWORD PTR [ebx+0xc],ecx
  4045eb:	8b 4d ac             	mov    ecx,DWORD PTR [ebp-0x54]
  4045ee:	0f ac d0 04          	shrd   eax,edx,0x4
  4045f2:	c1 ea 04             	shr    edx,0x4
  4045f5:	85 ff                	test   edi,edi
  4045f7:	89 4d b0             	mov    DWORD PTR [ebp-0x50],ecx
  4045fa:	0f 84 a8 00 00 00    	je     4046a8 <___pformat_xldouble+0x158>
  404600:	8b 4d b0             	mov    ecx,DWORD PTR [ebp-0x50]
  404603:	83 c1 01             	add    ecx,0x1
  404606:	83 ff 09             	cmp    edi,0x9
  404609:	89 4d ac             	mov    DWORD PTR [ebp-0x54],ecx
  40460c:	0f 8e b5 00 00 00    	jle    4046c7 <___pformat_xldouble+0x177>
  404612:	8d 4f 37             	lea    ecx,[edi+0x37]
  404615:	8b 7d a8             	mov    edi,DWORD PTR [ebp-0x58]
  404618:	8b 7f 04             	mov    edi,DWORD PTR [edi+0x4]
  40461b:	89 7d a0             	mov    DWORD PTR [ebp-0x60],edi
  40461e:	0f b6 5d a0          	movzx  ebx,BYTE PTR [ebp-0x60]
  404622:	83 e3 20             	and    ebx,0x20
  404625:	09 d9                	or     ecx,ebx
  404627:	8b 7d b0             	mov    edi,DWORD PTR [ebp-0x50]
  40462a:	88 0f                	mov    BYTE PTR [edi],cl
  40462c:	89 d7                	mov    edi,edx
  40462e:	09 c7                	or     edi,eax
  404630:	0f 84 60 01 00 00    	je     404796 <___pformat_xldouble+0x246>
  404636:	89 c7                	mov    edi,eax
  404638:	89 c1                	mov    ecx,eax
  40463a:	83 e7 0f             	and    edi,0xf
  40463d:	89 fb                	mov    ebx,edi
  40463f:	31 f9                	xor    ecx,edi
  404641:	c1 fb 1f             	sar    ebx,0x1f
  404644:	31 d3                	xor    ebx,edx
  404646:	09 cb                	or     ebx,ecx
  404648:	75 8e                	jne    4045d8 <___pformat_xldouble+0x88>
  40464a:	8b 4d a4             	mov    ecx,DWORD PTR [ebp-0x5c]
  40464d:	39 4d ac             	cmp    DWORD PTR [ebp-0x54],ecx
  404650:	77 1e                	ja     404670 <___pformat_xldouble+0x120>
  404652:	8b 4d a8             	mov    ecx,DWORD PTR [ebp-0x58]
  404655:	f6 41 05 08          	test   BYTE PTR [ecx+0x5],0x8
  404659:	75 15                	jne    404670 <___pformat_xldouble+0x120>
  40465b:	8b 4d ac             	mov    ecx,DWORD PTR [ebp-0x54]
  40465e:	89 4d b0             	mov    DWORD PTR [ebp-0x50],ecx
  404661:	8b 4d a8             	mov    ecx,DWORD PTR [ebp-0x58]
  404664:	8b 59 0c             	mov    ebx,DWORD PTR [ecx+0xc]
  404667:	85 db                	test   ebx,ebx
  404669:	7e 11                	jle    40467c <___pformat_xldouble+0x12c>
  40466b:	90                   	nop
  40466c:	8d 74 26 00          	lea    esi,[esi+eiz*1+0x0]
  404670:	8b 4d ac             	mov    ecx,DWORD PTR [ebp-0x54]
  404673:	8d 59 01             	lea    ebx,[ecx+0x1]
  404676:	89 5d b0             	mov    DWORD PTR [ebp-0x50],ebx
  404679:	c6 01 2e             	mov    BYTE PTR [ecx],0x2e
  40467c:	89 c1                	mov    ecx,eax
  40467e:	83 f1 01             	xor    ecx,0x1
  404681:	09 d1                	or     ecx,edx
  404683:	74 17                	je     40469c <___pformat_xldouble+0x14c>
  404685:	8d 4e ff             	lea    ecx,[esi-0x1]
  404688:	0f ac d0 01          	shrd   eax,edx,0x1
  40468c:	89 ce                	mov    esi,ecx
  40468e:	89 c3                	mov    ebx,eax
  404690:	d1 ea                	shr    edx,1
  404692:	83 f3 01             	xor    ebx,0x1
  404695:	09 d3                	or     ebx,edx
  404697:	8d 4e ff             	lea    ecx,[esi-0x1]
  40469a:	75 ec                	jne    404688 <___pformat_xldouble+0x138>
  40469c:	31 c0                	xor    eax,eax
  40469e:	31 d2                	xor    edx,edx
  4046a0:	85 ff                	test   edi,edi
  4046a2:	0f 85 58 ff ff ff    	jne    404600 <___pformat_xldouble+0xb0>
  4046a8:	8b 4d a4             	mov    ecx,DWORD PTR [ebp-0x5c]
  4046ab:	39 4d b0             	cmp    DWORD PTR [ebp-0x50],ecx
  4046ae:	77 0e                	ja     4046be <___pformat_xldouble+0x16e>
  4046b0:	8b 4d a8             	mov    ecx,DWORD PTR [ebp-0x58]
  4046b3:	8b 49 0c             	mov    ecx,DWORD PTR [ecx+0xc]
  4046b6:	85 c9                	test   ecx,ecx
  4046b8:	0f 88 b7 01 00 00    	js     404875 <___pformat_xldouble+0x325>
  4046be:	8b 4d b0             	mov    ecx,DWORD PTR [ebp-0x50]
  4046c1:	83 c1 01             	add    ecx,0x1
  4046c4:	89 4d ac             	mov    DWORD PTR [ebp-0x54],ecx
  4046c7:	8d 4f 30             	lea    ecx,[edi+0x30]
  4046ca:	e9 58 ff ff ff       	jmp    404627 <___pformat_xldouble+0xd7>
  4046cf:	90                   	nop
  4046d0:	81 4f 04 80 00 00 00 	or     DWORD PTR [edi+0x4],0x80
  4046d7:	e9 ac fe ff ff       	jmp    404588 <___pformat_xldouble+0x38>
  4046dc:	8d 74 26 00          	lea    esi,[esi+eiz*1+0x0]
  4046e0:	0f a4 c2 01          	shld   edx,eax,0x1
  4046e4:	01 c0                	add    eax,eax
  4046e6:	85 d2                	test   edx,edx
  4046e8:	79 f6                	jns    4046e0 <___pformat_xldouble+0x190>
  4046ea:	b9 0e 00 00 00       	mov    ecx,0xe
  4046ef:	0f ac d0 01          	shrd   eax,edx,0x1
  4046f3:	29 d9                	sub    ecx,ebx
  4046f5:	d1 ea                	shr    edx,1
  4046f7:	c1 e1 02             	shl    ecx,0x2
  4046fa:	89 45 b0             	mov    DWORD PTR [ebp-0x50],eax
  4046fd:	b8 04 00 00 00       	mov    eax,0x4
  404702:	89 55 b4             	mov    DWORD PTR [ebp-0x4c],edx
  404705:	31 d2                	xor    edx,edx
  404707:	0f a5 c2             	shld   edx,eax,cl
  40470a:	d3 e0                	shl    eax,cl
  40470c:	f6 c1 20             	test   cl,0x20
  40470f:	74 04                	je     404715 <___pformat_xldouble+0x1c5>
  404711:	89 c2                	mov    edx,eax
  404713:	31 c0                	xor    eax,eax
  404715:	01 45 b0             	add    DWORD PTR [ebp-0x50],eax
  404718:	11 55 b4             	adc    DWORD PTR [ebp-0x4c],edx
  40471b:	8b 55 b4             	mov    edx,DWORD PTR [ebp-0x4c]
  40471e:	8b 45 b0             	mov    eax,DWORD PTR [ebp-0x50]
  404721:	85 d2                	test   edx,edx
  404723:	0f 88 64 03 00 00    	js     404a8d <___pformat_xldouble+0x53d>
  404729:	0f a4 c2 01          	shld   edx,eax,0x1
  40472d:	01 c0                	add    eax,eax
  40472f:	89 45 b0             	mov    DWORD PTR [ebp-0x50],eax
  404732:	89 55 b4             	mov    DWORD PTR [ebp-0x4c],edx
  404735:	8b 55 b4             	mov    edx,DWORD PTR [ebp-0x4c]
  404738:	b9 0f 00 00 00       	mov    ecx,0xf
  40473d:	8b 45 b0             	mov    eax,DWORD PTR [ebp-0x50]
  404740:	29 d9                	sub    ecx,ebx
  404742:	c1 e1 02             	shl    ecx,0x2
  404745:	0f ad d0             	shrd   eax,edx,cl
  404748:	d3 ea                	shr    edx,cl
  40474a:	f6 c1 20             	test   cl,0x20
  40474d:	0f 84 77 fe ff ff    	je     4045ca <___pformat_xldouble+0x7a>
  404753:	89 d0                	mov    eax,edx
  404755:	31 d2                	xor    edx,edx
  404757:	e9 6e fe ff ff       	jmp    4045ca <___pformat_xldouble+0x7a>
  40475c:	8d 74 26 00          	lea    esi,[esi+eiz*1+0x0]
  404760:	8b 55 c4             	mov    edx,DWORD PTR [ebp-0x3c]
  404763:	8b 45 c0             	mov    eax,DWORD PTR [ebp-0x40]
  404766:	89 d6                	mov    esi,edx
  404768:	09 c6                	or     esi,eax
  40476a:	0f 84 d7 02 00 00    	je     404a47 <___pformat_xldouble+0x4f7>
  404770:	85 d2                	test   edx,edx
  404772:	0f 88 84 03 00 00    	js     404afc <___pformat_xldouble+0x5ac>
  404778:	b9 01 c0 ff ff       	mov    ecx,0xffffc001
  40477d:	8d 76 00             	lea    esi,[esi+0x0]
  404780:	0f a4 c2 01          	shld   edx,eax,0x1
  404784:	89 cb                	mov    ebx,ecx
  404786:	01 c0                	add    eax,eax
  404788:	83 e9 01             	sub    ecx,0x1
  40478b:	85 d2                	test   edx,edx
  40478d:	79 f1                	jns    404780 <___pformat_xldouble+0x230>
  40478f:	89 de                	mov    esi,ebx
  404791:	e9 1e fe ff ff       	jmp    4045b4 <___pformat_xldouble+0x64>
  404796:	8b 45 a4             	mov    eax,DWORD PTR [ebp-0x5c]
  404799:	39 45 ac             	cmp    DWORD PTR [ebp-0x54],eax
  40479c:	8b 7d a8             	mov    edi,DWORD PTR [ebp-0x58]
  40479f:	0f 84 52 03 00 00    	je     404af7 <___pformat_xldouble+0x5a7>
  4047a5:	8b 47 04             	mov    eax,DWORD PTR [edi+0x4]
  4047a8:	89 45 b0             	mov    DWORD PTR [ebp-0x50],eax
  4047ab:	8b 47 08             	mov    eax,DWORD PTR [edi+0x8]
  4047ae:	85 c0                	test   eax,eax
  4047b0:	89 45 a0             	mov    DWORD PTR [ebp-0x60],eax
  4047b3:	0f 8e 7c 02 00 00    	jle    404a35 <___pformat_xldouble+0x4e5>
  4047b9:	8b 57 0c             	mov    edx,DWORD PTR [edi+0xc]
  4047bc:	0f bf f6             	movsx  esi,si
  4047bf:	8b 45 ac             	mov    eax,DWORD PTR [ebp-0x54]
  4047c2:	2b 45 a4             	sub    eax,DWORD PTR [ebp-0x5c]
  4047c5:	89 75 a8             	mov    DWORD PTR [ebp-0x58],esi
  4047c8:	85 d2                	test   edx,edx
  4047ca:	7e 02                	jle    4047ce <___pformat_xldouble+0x27e>
  4047cc:	01 d0                	add    eax,edx
  4047ce:	8b 55 b0             	mov    edx,DWORD PTR [ebp-0x50]
  4047d1:	81 e2 c0 01 00 00    	and    edx,0x1c0
  4047d7:	83 fa 01             	cmp    edx,0x1
  4047da:	19 d2                	sbb    edx,edx
  4047dc:	8d 74 10 06          	lea    esi,[eax+edx*1+0x6]
  4047e0:	8b 45 a8             	mov    eax,DWORD PTR [ebp-0x58]
  4047e3:	ba 67 66 66 66       	mov    edx,0x66666667
  4047e8:	f7 ea                	imul   edx
  4047ea:	8b 45 a8             	mov    eax,DWORD PTR [ebp-0x58]
  4047ed:	c1 fa 02             	sar    edx,0x2
  4047f0:	c1 f8 1f             	sar    eax,0x1f
  4047f3:	29 c2                	sub    edx,eax
  4047f5:	89 d1                	mov    ecx,edx
  4047f7:	0f 84 ee 02 00 00    	je     404aeb <___pformat_xldouble+0x59b>
  4047fd:	bb 02 00 00 00       	mov    ebx,0x2
  404802:	b8 67 66 66 66       	mov    eax,0x66666667
  404807:	83 c6 01             	add    esi,0x1
  40480a:	f7 e9                	imul   ecx
  40480c:	83 c3 01             	add    ebx,0x1
  40480f:	c1 f9 1f             	sar    ecx,0x1f
  404812:	c1 fa 02             	sar    edx,0x2
  404815:	29 ca                	sub    edx,ecx
  404817:	89 d1                	mov    ecx,edx
  404819:	75 e7                	jne    404802 <___pformat_xldouble+0x2b2>
  40481b:	0f bf c3             	movsx  eax,bx
  40481e:	89 45 9c             	mov    DWORD PTR [ebp-0x64],eax
  404821:	39 75 a0             	cmp    DWORD PTR [ebp-0x60],esi
  404824:	7e 5a                	jle    404880 <___pformat_xldouble+0x330>
  404826:	8b 45 a0             	mov    eax,DWORD PTR [ebp-0x60]
  404829:	29 f0                	sub    eax,esi
  40482b:	f7 45 b0 00 06 00 00 	test   DWORD PTR [ebp-0x50],0x600
  404832:	0f 85 1a 02 00 00    	jne    404a52 <___pformat_xldouble+0x502>
  404838:	8d 50 ff             	lea    edx,[eax-0x1]
  40483b:	85 c0                	test   eax,eax
  40483d:	89 57 08             	mov    DWORD PTR [edi+0x8],edx
  404840:	7e 45                	jle    404887 <___pformat_xldouble+0x337>
  404842:	89 fa                	mov    edx,edi
  404844:	b8 20 00 00 00       	mov    eax,0x20
  404849:	e8 32 ee ff ff       	call   403680 <___pformat_putc>
  40484e:	8b 47 08             	mov    eax,DWORD PTR [edi+0x8]
  404851:	8d 50 ff             	lea    edx,[eax-0x1]
  404854:	85 c0                	test   eax,eax
  404856:	89 57 08             	mov    DWORD PTR [edi+0x8],edx
  404859:	7f e7                	jg     404842 <___pformat_xldouble+0x2f2>
  40485b:	8b 47 04             	mov    eax,DWORD PTR [edi+0x4]
  40485e:	89 45 b0             	mov    DWORD PTR [ebp-0x50],eax
  404861:	f6 45 b0 80          	test   BYTE PTR [ebp-0x50],0x80
  404865:	74 26                	je     40488d <___pformat_xldouble+0x33d>
  404867:	89 fa                	mov    edx,edi
  404869:	b8 2d 00 00 00       	mov    eax,0x2d
  40486e:	e8 0d ee ff ff       	call   403680 <___pformat_putc>
  404873:	eb 2f                	jmp    4048a4 <___pformat_xldouble+0x354>
  404875:	8b 7d b0             	mov    edi,DWORD PTR [ebp-0x50]
  404878:	89 7d ac             	mov    DWORD PTR [ebp-0x54],edi
  40487b:	e9 ac fd ff ff       	jmp    40462c <___pformat_xldouble+0xdc>
  404880:	c7 47 08 ff ff ff ff 	mov    DWORD PTR [edi+0x8],0xffffffff
  404887:	f6 45 b0 80          	test   BYTE PTR [ebp-0x50],0x80
  40488b:	75 da                	jne    404867 <___pformat_xldouble+0x317>
  40488d:	f7 45 b0 00 01 00 00 	test   DWORD PTR [ebp-0x50],0x100
  404894:	0f 85 c0 01 00 00    	jne    404a5a <___pformat_xldouble+0x50a>
  40489a:	f6 45 b0 40          	test   BYTE PTR [ebp-0x50],0x40
  40489e:	0f 85 d8 01 00 00    	jne    404a7c <___pformat_xldouble+0x52c>
  4048a4:	89 fa                	mov    edx,edi
  4048a6:	b8 30 00 00 00       	mov    eax,0x30
  4048ab:	e8 d0 ed ff ff       	call   403680 <___pformat_putc>
  4048b0:	8b 47 04             	mov    eax,DWORD PTR [edi+0x4]
  4048b3:	89 fa                	mov    edx,edi
  4048b5:	83 e0 20             	and    eax,0x20
  4048b8:	83 c8 58             	or     eax,0x58
  4048bb:	e8 c0 ed ff ff       	call   403680 <___pformat_putc>
  4048c0:	8b 47 08             	mov    eax,DWORD PTR [edi+0x8]
  4048c3:	85 c0                	test   eax,eax
  4048c5:	7e 25                	jle    4048ec <___pformat_xldouble+0x39c>
  4048c7:	f6 47 05 02          	test   BYTE PTR [edi+0x5],0x2
  4048cb:	74 1f                	je     4048ec <___pformat_xldouble+0x39c>
  4048cd:	83 e8 01             	sub    eax,0x1
  4048d0:	89 47 08             	mov    DWORD PTR [edi+0x8],eax
  4048d3:	89 fa                	mov    edx,edi
  4048d5:	b8 30 00 00 00       	mov    eax,0x30
  4048da:	e8 a1 ed ff ff       	call   403680 <___pformat_putc>
  4048df:	8b 47 08             	mov    eax,DWORD PTR [edi+0x8]
  4048e2:	8d 50 ff             	lea    edx,[eax-0x1]
  4048e5:	85 c0                	test   eax,eax
  4048e7:	89 57 08             	mov    DWORD PTR [edi+0x8],edx
  4048ea:	7f e7                	jg     4048d3 <___pformat_xldouble+0x383>
  4048ec:	8b 45 a4             	mov    eax,DWORD PTR [ebp-0x5c]
  4048ef:	39 45 ac             	cmp    DWORD PTR [ebp-0x54],eax
  4048f2:	8b 5d ac             	mov    ebx,DWORD PTR [ebp-0x54]
  4048f5:	77 19                	ja     404910 <___pformat_xldouble+0x3c0>
  4048f7:	e9 a1 00 00 00       	jmp    40499d <___pformat_xldouble+0x44d>
  4048fc:	8d 74 26 00          	lea    esi,[esi+eiz*1+0x0]
  404900:	89 fa                	mov    edx,edi
  404902:	e8 79 ed ff ff       	call   403680 <___pformat_putc>
  404907:	3b 5d a4             	cmp    ebx,DWORD PTR [ebp-0x5c]
  40490a:	0f 84 8d 00 00 00    	je     40499d <___pformat_xldouble+0x44d>
  404910:	83 eb 01             	sub    ebx,0x1
  404913:	0f be 03             	movsx  eax,BYTE PTR [ebx]
  404916:	83 f8 2e             	cmp    eax,0x2e
  404919:	75 e5                	jne    404900 <___pformat_xldouble+0x3b0>
  40491b:	83 7f 10 fd          	cmp    DWORD PTR [edi+0x10],0xfffffffd
  40491f:	0f 84 cc 00 00 00    	je     4049f1 <___pformat_xldouble+0x4a1>
  404925:	0f b7 57 14          	movzx  edx,WORD PTR [edi+0x14]
  404929:	66 85 d2             	test   dx,dx
  40492c:	0f 84 ae 00 00 00    	je     4049e0 <___pformat_xldouble+0x490>
  404932:	8b 47 10             	mov    eax,DWORD PTR [edi+0x10]
  404935:	89 65 b0             	mov    DWORD PTR [ebp-0x50],esp
  404938:	83 c0 0f             	add    eax,0xf
  40493b:	83 e0 f0             	and    eax,0xfffffff0
  40493e:	e8 cd d5 ff ff       	call   401f10 <___chkstk_ms>
  404943:	29 c4                	sub    esp,eax
  404945:	8d 74 24 10          	lea    esi,[esp+0x10]
  404949:	8d 45 bc             	lea    eax,[ebp-0x44]
  40494c:	c7 45 bc 00 00 00 00 	mov    DWORD PTR [ebp-0x44],0x0
  404953:	89 44 24 08          	mov    DWORD PTR [esp+0x8],eax
  404957:	89 54 24 04          	mov    DWORD PTR [esp+0x4],edx
  40495b:	89 34 24             	mov    DWORD PTR [esp],esi
  40495e:	e8 dd 0f 00 00       	call   405940 <_wcrtomb>
  404963:	85 c0                	test   eax,eax
  404965:	0f 8e 00 01 00 00    	jle    404a6b <___pformat_xldouble+0x51b>
  40496b:	01 f0                	add    eax,esi
  40496d:	89 5d ac             	mov    DWORD PTR [ebp-0x54],ebx
  404970:	89 f3                	mov    ebx,esi
  404972:	89 c6                	mov    esi,eax
  404974:	83 c3 01             	add    ebx,0x1
  404977:	0f be 43 ff          	movsx  eax,BYTE PTR [ebx-0x1]
  40497b:	89 fa                	mov    edx,edi
  40497d:	e8 fe ec ff ff       	call   403680 <___pformat_putc>
  404982:	39 f3                	cmp    ebx,esi
  404984:	75 ee                	jne    404974 <___pformat_xldouble+0x424>
  404986:	8b 5d ac             	mov    ebx,DWORD PTR [ebp-0x54]
  404989:	8b 65 b0             	mov    esp,DWORD PTR [ebp-0x50]
  40498c:	e9 76 ff ff ff       	jmp    404907 <___pformat_xldouble+0x3b7>
  404991:	89 fa                	mov    edx,edi
  404993:	b8 30 00 00 00       	mov    eax,0x30
  404998:	e8 e3 ec ff ff       	call   403680 <___pformat_putc>
  40499d:	8b 47 0c             	mov    eax,DWORD PTR [edi+0xc]
  4049a0:	8d 50 ff             	lea    edx,[eax-0x1]
  4049a3:	85 c0                	test   eax,eax
  4049a5:	89 57 0c             	mov    DWORD PTR [edi+0xc],edx
  4049a8:	7f e7                	jg     404991 <___pformat_xldouble+0x441>
  4049aa:	8b 47 04             	mov    eax,DWORD PTR [edi+0x4]
  4049ad:	89 fa                	mov    edx,edi
  4049af:	83 e0 20             	and    eax,0x20
  4049b2:	83 c8 50             	or     eax,0x50
  4049b5:	e8 c6 ec ff ff       	call   403680 <___pformat_putc>
  4049ba:	8b 45 9c             	mov    eax,DWORD PTR [ebp-0x64]
  4049bd:	89 f9                	mov    ecx,edi
  4049bf:	01 47 08             	add    DWORD PTR [edi+0x8],eax
  4049c2:	8b 45 a8             	mov    eax,DWORD PTR [ebp-0x58]
  4049c5:	81 4f 04 c0 01 00 00 	or     DWORD PTR [edi+0x4],0x1c0
  4049cc:	99                   	cdq    
  4049cd:	e8 5e ef ff ff       	call   403930 <___pformat_int>
  4049d2:	8d 65 f4             	lea    esp,[ebp-0xc]
  4049d5:	5b                   	pop    ebx
  4049d6:	5e                   	pop    esi
  4049d7:	5f                   	pop    edi
  4049d8:	5d                   	pop    ebp
  4049d9:	c3                   	ret    
  4049da:	8d b6 00 00 00 00    	lea    esi,[esi+0x0]
  4049e0:	89 fa                	mov    edx,edi
  4049e2:	b8 2e 00 00 00       	mov    eax,0x2e
  4049e7:	e8 94 ec ff ff       	call   403680 <___pformat_putc>
  4049ec:	e9 16 ff ff ff       	jmp    404907 <___pformat_xldouble+0x3b7>
  4049f1:	c7 45 bc 00 00 00 00 	mov    DWORD PTR [ebp-0x44],0x0
  4049f8:	8d 75 bc             	lea    esi,[ebp-0x44]
  4049fb:	e8 80 35 00 00       	call   407f80 <_localeconv>
  404a00:	89 74 24 0c          	mov    DWORD PTR [esp+0xc],esi
  404a04:	c7 44 24 08 10 00 00 	mov    DWORD PTR [esp+0x8],0x10
  404a0b:	00 
  404a0c:	8b 00                	mov    eax,DWORD PTR [eax]
  404a0e:	89 44 24 04          	mov    DWORD PTR [esp+0x4],eax
  404a12:	8d 45 ba             	lea    eax,[ebp-0x46]
  404a15:	89 04 24             	mov    DWORD PTR [esp],eax
  404a18:	e8 f3 0b 00 00       	call   405610 <_mbrtowc>
  404a1d:	85 c0                	test   eax,eax
  404a1f:	0f 8e 85 00 00 00    	jle    404aaa <___pformat_xldouble+0x55a>
  404a25:	0f b7 55 ba          	movzx  edx,WORD PTR [ebp-0x46]
  404a29:	66 89 57 14          	mov    WORD PTR [edi+0x14],dx
  404a2d:	89 47 10             	mov    DWORD PTR [edi+0x10],eax
  404a30:	e9 f4 fe ff ff       	jmp    404929 <___pformat_xldouble+0x3d9>
  404a35:	0f bf c6             	movsx  eax,si
  404a38:	c7 45 9c 02 00 00 00 	mov    DWORD PTR [ebp-0x64],0x2
  404a3f:	89 45 a8             	mov    DWORD PTR [ebp-0x58],eax
  404a42:	e9 40 fe ff ff       	jmp    404887 <___pformat_xldouble+0x337>
  404a47:	31 f6                	xor    esi,esi
  404a49:	31 c0                	xor    eax,eax
  404a4b:	31 d2                	xor    edx,edx
  404a4d:	e9 62 fb ff ff       	jmp    4045b4 <___pformat_xldouble+0x64>
  404a52:	89 47 08             	mov    DWORD PTR [edi+0x8],eax
  404a55:	e9 2d fe ff ff       	jmp    404887 <___pformat_xldouble+0x337>
  404a5a:	89 fa                	mov    edx,edi
  404a5c:	b8 2b 00 00 00       	mov    eax,0x2b
  404a61:	e8 1a ec ff ff       	call   403680 <___pformat_putc>
  404a66:	e9 39 fe ff ff       	jmp    4048a4 <___pformat_xldouble+0x354>
  404a6b:	89 fa                	mov    edx,edi
  404a6d:	b8 2e 00 00 00       	mov    eax,0x2e
  404a72:	e8 09 ec ff ff       	call   403680 <___pformat_putc>
  404a77:	e9 0d ff ff ff       	jmp    404989 <___pformat_xldouble+0x439>
  404a7c:	89 fa                	mov    edx,edi
  404a7e:	b8 20 00 00 00       	mov    eax,0x20
  404a83:	e8 f8 eb ff ff       	call   403680 <___pformat_putc>
  404a88:	e9 17 fe ff ff       	jmp    4048a4 <___pformat_xldouble+0x354>
  404a8d:	83 c6 01             	add    esi,0x1
  404a90:	e9 a0 fc ff ff       	jmp    404735 <___pformat_xldouble+0x1e5>
  404a95:	dd d8                	fstp   st(0)
  404a97:	89 f9                	mov    ecx,edi
  404a99:	ba 40 a1 40 00       	mov    edx,0x40a140
  404a9e:	31 c0                	xor    eax,eax
  404aa0:	e8 fb ed ff ff       	call   4038a0 <___pformat_emit_inf_or_nan>
  404aa5:	e9 28 ff ff ff       	jmp    4049d2 <___pformat_xldouble+0x482>
  404aaa:	0f b7 57 14          	movzx  edx,WORD PTR [edi+0x14]
  404aae:	e9 7a ff ff ff       	jmp    404a2d <___pformat_xldouble+0x4dd>
  404ab3:	89 f9                	mov    ecx,edi
  404ab5:	ba 44 a1 40 00       	mov    edx,0x40a144
  404aba:	89 d8                	mov    eax,ebx
  404abc:	e8 df ed ff ff       	call   4038a0 <___pformat_emit_inf_or_nan>
  404ac1:	e9 0c ff ff ff       	jmp    4049d2 <___pformat_xldouble+0x482>
  404ac6:	8d 45 d6             	lea    eax,[ebp-0x2a]
  404ac9:	89 45 a4             	mov    DWORD PTR [ebp-0x5c],eax
  404acc:	85 db                	test   ebx,ebx
  404ace:	8b 47 04             	mov    eax,DWORD PTR [edi+0x4]
  404ad1:	7e 33                	jle    404b06 <___pformat_xldouble+0x5b6>
  404ad3:	89 45 b0             	mov    DWORD PTR [ebp-0x50],eax
  404ad6:	c6 45 d6 2e          	mov    BYTE PTR [ebp-0x2a],0x2e
  404ada:	8d 45 d7             	lea    eax,[ebp-0x29]
  404add:	8d 50 01             	lea    edx,[eax+0x1]
  404ae0:	89 55 ac             	mov    DWORD PTR [ebp-0x54],edx
  404ae3:	c6 00 30             	mov    BYTE PTR [eax],0x30
  404ae6:	e9 c0 fc ff ff       	jmp    4047ab <___pformat_xldouble+0x25b>
  404aeb:	c7 45 9c 02 00 00 00 	mov    DWORD PTR [ebp-0x64],0x2
  404af2:	e9 2a fd ff ff       	jmp    404821 <___pformat_xldouble+0x2d1>
  404af7:	8b 5f 0c             	mov    ebx,DWORD PTR [edi+0xc]
  404afa:	eb d0                	jmp    404acc <___pformat_xldouble+0x57c>
  404afc:	be 02 c0 ff ff       	mov    esi,0xffffc002
  404b01:	e9 ae fa ff ff       	jmp    4045b4 <___pformat_xldouble+0x64>
  404b06:	89 c2                	mov    edx,eax
  404b08:	80 e6 08             	and    dh,0x8
  404b0b:	89 45 b0             	mov    DWORD PTR [ebp-0x50],eax
  404b0e:	8b 45 a4             	mov    eax,DWORD PTR [ebp-0x5c]
  404b11:	74 ca                	je     404add <___pformat_xldouble+0x58d>
  404b13:	eb c1                	jmp    404ad6 <___pformat_xldouble+0x586>
  404b15:	8d 74 26 00          	lea    esi,[esi+eiz*1+0x0]
  404b19:	8d bc 27 00 00 00 00 	lea    edi,[edi+eiz*1+0x0]

00404b20 <___mingw_pformat>:
  404b20:	55                   	push   ebp
  404b21:	57                   	push   edi
  404b22:	56                   	push   esi
  404b23:	53                   	push   ebx
  404b24:	83 ec 5c             	sub    esp,0x5c
  404b27:	8b 44 24 74          	mov    eax,DWORD PTR [esp+0x74]
  404b2b:	81 64 24 70 00 30 00 	and    DWORD PTR [esp+0x70],0x3000
  404b32:	00 
  404b33:	8b 74 24 7c          	mov    esi,DWORD PTR [esp+0x7c]
  404b37:	c7 04 24 5d a1 40 00 	mov    DWORD PTR [esp],0x40a15d
  404b3e:	8b ac 24 80 00 00 00 	mov    ebp,DWORD PTR [esp+0x80]
  404b45:	89 44 24 2c          	mov    DWORD PTR [esp+0x2c],eax
  404b49:	8b 44 24 70          	mov    eax,DWORD PTR [esp+0x70]
  404b4d:	c7 44 24 34 ff ff ff 	mov    DWORD PTR [esp+0x34],0xffffffff
  404b54:	ff 
  404b55:	c7 44 24 38 ff ff ff 	mov    DWORD PTR [esp+0x38],0xffffffff
  404b5c:	ff 
  404b5d:	c7 44 24 3c fd ff ff 	mov    DWORD PTR [esp+0x3c],0xfffffffd
  404b64:	ff 
  404b65:	89 44 24 30          	mov    DWORD PTR [esp+0x30],eax
  404b69:	31 c0                	xor    eax,eax
  404b6b:	66 89 44 24 40       	mov    WORD PTR [esp+0x40],ax
  404b70:	8b 44 24 78          	mov    eax,DWORD PTR [esp+0x78]
  404b74:	c7 44 24 44 00 00 00 	mov    DWORD PTR [esp+0x44],0x0
  404b7b:	00 
  404b7c:	89 44 24 48          	mov    DWORD PTR [esp+0x48],eax
  404b80:	e8 0b 34 00 00       	call   407f90 <_getenv>
  404b85:	85 c0                	test   eax,eax
  404b87:	0f 84 d3 00 00 00    	je     404c60 <___mingw_pformat+0x140>
  404b8d:	0f be 00             	movsx  eax,BYTE PTR [eax]
  404b90:	83 e8 30             	sub    eax,0x30
  404b93:	83 f8 02             	cmp    eax,0x2
  404b96:	0f 87 c4 00 00 00    	ja     404c60 <___mingw_pformat+0x140>
  404b9c:	b8 02 00 00 00       	mov    eax,0x2
  404ba1:	89 44 24 4c          	mov    DWORD PTR [esp+0x4c],eax
  404ba5:	8b 44 24 70          	mov    eax,DWORD PTR [esp+0x70]
  404ba9:	80 cc 02             	or     ah,0x2
  404bac:	89 44 24 1c          	mov    DWORD PTR [esp+0x1c],eax
  404bb0:	0f be 06             	movsx  eax,BYTE PTR [esi]
  404bb3:	8d 5e 01             	lea    ebx,[esi+0x1]
  404bb6:	89 d9                	mov    ecx,ebx
  404bb8:	85 c0                	test   eax,eax
  404bba:	0f 84 92 00 00 00    	je     404c52 <___mingw_pformat+0x132>
  404bc0:	83 f8 25             	cmp    eax,0x25
  404bc3:	0f 85 de 00 00 00    	jne    404ca7 <___mingw_pformat+0x187>
  404bc9:	8b 44 24 70          	mov    eax,DWORD PTR [esp+0x70]
  404bcd:	c7 44 24 38 ff ff ff 	mov    DWORD PTR [esp+0x38],0xffffffff
  404bd4:	ff 
  404bd5:	c7 44 24 34 ff ff ff 	mov    DWORD PTR [esp+0x34],0xffffffff
  404bdc:	ff 
  404bdd:	c7 44 24 14 00 00 00 	mov    DWORD PTR [esp+0x14],0x0
  404be4:	00 
  404be5:	89 44 24 30          	mov    DWORD PTR [esp+0x30],eax
  404be9:	0f b6 56 01          	movzx  edx,BYTE PTR [esi+0x1]
  404bed:	8d 44 24 34          	lea    eax,[esp+0x34]
  404bf1:	89 44 24 18          	mov    DWORD PTR [esp+0x18],eax
  404bf5:	c7 44 24 10 00 00 00 	mov    DWORD PTR [esp+0x10],0x0
  404bfc:	00 
  404bfd:	84 d2                	test   dl,dl
  404bff:	74 3f                	je     404c40 <___mingw_pformat+0x120>
  404c01:	8d 42 e0             	lea    eax,[edx-0x20]
  404c04:	0f be fa             	movsx  edi,dl
  404c07:	3c 5a                	cmp    al,0x5a
  404c09:	8d 71 01             	lea    esi,[ecx+0x1]
  404c0c:	0f 87 70 04 00 00    	ja     405082 <___mingw_pformat+0x562>
  404c12:	0f b6 c0             	movzx  eax,al
  404c15:	ff 24 85 74 a1 40 00 	jmp    DWORD PTR [eax*4+0x40a174]
  404c1c:	8d 74 26 00          	lea    esi,[esi+eiz*1+0x0]
  404c20:	0f b6 51 01          	movzx  edx,BYTE PTR [ecx+0x1]
  404c24:	89 f1                	mov    ecx,esi
  404c26:	c7 44 24 14 02 00 00 	mov    DWORD PTR [esp+0x14],0x2
  404c2d:	00 
  404c2e:	c7 44 24 10 04 00 00 	mov    DWORD PTR [esp+0x10],0x4
  404c35:	00 
  404c36:	84 d2                	test   dl,dl
  404c38:	75 c7                	jne    404c01 <___mingw_pformat+0xe1>
  404c3a:	8d b6 00 00 00 00    	lea    esi,[esi+0x0]
  404c40:	89 ce                	mov    esi,ecx
  404c42:	0f be 06             	movsx  eax,BYTE PTR [esi]
  404c45:	8d 5e 01             	lea    ebx,[esi+0x1]
  404c48:	89 d9                	mov    ecx,ebx
  404c4a:	85 c0                	test   eax,eax
  404c4c:	0f 85 6e ff ff ff    	jne    404bc0 <___mingw_pformat+0xa0>
  404c52:	8b 44 24 44          	mov    eax,DWORD PTR [esp+0x44]
  404c56:	83 c4 5c             	add    esp,0x5c
  404c59:	5b                   	pop    ebx
  404c5a:	5e                   	pop    esi
  404c5b:	5f                   	pop    edi
  404c5c:	5d                   	pop    ebp
  404c5d:	c3                   	ret    
  404c5e:	66 90                	xchg   ax,ax
  404c60:	f6 05 6c d0 40 00 01 	test   BYTE PTR ds:0x40d06c,0x1
  404c67:	0f 85 2f ff ff ff    	jne    404b9c <___mingw_pformat+0x7c>
  404c6d:	b8 03 00 00 00       	mov    eax,0x3
  404c72:	e9 2a ff ff ff       	jmp    404ba1 <___mingw_pformat+0x81>
  404c77:	80 79 01 6c          	cmp    BYTE PTR [ecx+0x1],0x6c
  404c7b:	c7 44 24 14 02 00 00 	mov    DWORD PTR [esp+0x14],0x2
  404c82:	00 
  404c83:	75 0b                	jne    404c90 <___mingw_pformat+0x170>
  404c85:	8d 71 02             	lea    esi,[ecx+0x2]
  404c88:	c7 44 24 14 03 00 00 	mov    DWORD PTR [esp+0x14],0x3
  404c8f:	00 
  404c90:	83 4c 24 30 04       	or     DWORD PTR [esp+0x30],0x4
  404c95:	89 f1                	mov    ecx,esi
  404c97:	0f b6 16             	movzx  edx,BYTE PTR [esi]
  404c9a:	c7 44 24 10 04 00 00 	mov    DWORD PTR [esp+0x10],0x4
  404ca1:	00 
  404ca2:	e9 56 ff ff ff       	jmp    404bfd <___mingw_pformat+0xdd>
  404ca7:	8d 54 24 2c          	lea    edx,[esp+0x2c]
  404cab:	89 de                	mov    esi,ebx
  404cad:	e8 ce e9 ff ff       	call   403680 <___pformat_putc>
  404cb2:	e9 f9 fe ff ff       	jmp    404bb0 <___mingw_pformat+0x90>
  404cb7:	8b 54 24 14          	mov    edx,DWORD PTR [esp+0x14]
  404cbb:	89 e8                	mov    eax,ebp
  404cbd:	83 ea 02             	sub    edx,0x2
  404cc0:	83 fa 01             	cmp    edx,0x1
  404cc3:	0f 86 07 05 00 00    	jbe    4051d0 <___mingw_pformat+0x6b0>
  404cc9:	8b 18                	mov    ebx,DWORD PTR [eax]
  404ccb:	83 c5 04             	add    ebp,0x4
  404cce:	85 db                	test   ebx,ebx
  404cd0:	0f 84 89 06 00 00    	je     40535f <___mingw_pformat+0x83f>
  404cd6:	89 1c 24             	mov    DWORD PTR [esp],ebx
  404cd9:	e8 52 32 00 00       	call   407f30 <_strlen>
  404cde:	89 c2                	mov    edx,eax
  404ce0:	8d 4c 24 2c          	lea    ecx,[esp+0x2c]
  404ce4:	89 d8                	mov    eax,ebx
  404ce6:	e8 05 eb ff ff       	call   4037f0 <___pformat_putchars>
  404ceb:	e9 c0 fe ff ff       	jmp    404bb0 <___mingw_pformat+0x90>
  404cf0:	8b 54 24 14          	mov    edx,DWORD PTR [esp+0x14]
  404cf4:	89 e8                	mov    eax,ebp
  404cf6:	c7 44 24 38 ff ff ff 	mov    DWORD PTR [esp+0x38],0xffffffff
  404cfd:	ff 
  404cfe:	83 ea 02             	sub    edx,0x2
  404d01:	83 fa 01             	cmp    edx,0x1
  404d04:	0f 86 23 03 00 00    	jbe    40502d <___mingw_pformat+0x50d>
  404d0a:	8b 00                	mov    eax,DWORD PTR [eax]
  404d0c:	8d 4c 24 2c          	lea    ecx,[esp+0x2c]
  404d10:	ba 01 00 00 00       	mov    edx,0x1
  404d15:	83 c5 04             	add    ebp,0x4
  404d18:	88 44 24 20          	mov    BYTE PTR [esp+0x20],al
  404d1c:	8d 44 24 20          	lea    eax,[esp+0x20]
  404d20:	e8 cb ea ff ff       	call   4037f0 <___pformat_putchars>
  404d25:	e9 86 fe ff ff       	jmp    404bb0 <___mingw_pformat+0x90>
  404d2a:	8d b6 00 00 00 00    	lea    esi,[esi+0x0]
  404d30:	83 7c 24 14 04       	cmp    DWORD PTR [esp+0x14],0x4
  404d35:	0f 84 f0 05 00 00    	je     40532b <___mingw_pformat+0x80b>
  404d3b:	83 7c 24 14 01       	cmp    DWORD PTR [esp+0x14],0x1
  404d40:	8b 45 00             	mov    eax,DWORD PTR [ebp+0x0]
  404d43:	8b 54 24 44          	mov    edx,DWORD PTR [esp+0x44]
  404d47:	0f 84 17 05 00 00    	je     405264 <___mingw_pformat+0x744>
  404d4d:	83 7c 24 14 02       	cmp    DWORD PTR [esp+0x14],0x2
  404d52:	0f 84 43 06 00 00    	je     40539b <___mingw_pformat+0x87b>
  404d58:	83 7c 24 14 03       	cmp    DWORD PTR [esp+0x14],0x3
  404d5d:	89 10                	mov    DWORD PTR [eax],edx
  404d5f:	0f 84 a9 06 00 00    	je     40540e <___mingw_pformat+0x8ee>
  404d65:	83 c5 04             	add    ebp,0x4
  404d68:	e9 43 fe ff ff       	jmp    404bb0 <___mingw_pformat+0x90>
  404d6d:	8d 76 00             	lea    esi,[esi+0x0]
  404d70:	0f b6 51 01          	movzx  edx,BYTE PTR [ecx+0x1]
  404d74:	89 f1                	mov    ecx,esi
  404d76:	c7 44 24 14 03 00 00 	mov    DWORD PTR [esp+0x14],0x3
  404d7d:	00 
  404d7e:	c7 44 24 10 04 00 00 	mov    DWORD PTR [esp+0x10],0x4
  404d85:	00 
  404d86:	e9 72 fe ff ff       	jmp    404bfd <___mingw_pformat+0xdd>
  404d8b:	90                   	nop
  404d8c:	8d 74 26 00          	lea    esi,[esi+eiz*1+0x0]
  404d90:	0f b6 51 01          	movzx  edx,BYTE PTR [ecx+0x1]
  404d94:	80 fa 68             	cmp    dl,0x68
  404d97:	0f 84 4c 05 00 00    	je     4052e9 <___mingw_pformat+0x7c9>
  404d9d:	89 f1                	mov    ecx,esi
  404d9f:	c7 44 24 14 01 00 00 	mov    DWORD PTR [esp+0x14],0x1
  404da6:	00 
  404da7:	c7 44 24 10 04 00 00 	mov    DWORD PTR [esp+0x10],0x4
  404dae:	00 
  404daf:	e9 49 fe ff ff       	jmp    404bfd <___mingw_pformat+0xdd>
  404db4:	8b 44 24 10          	mov    eax,DWORD PTR [esp+0x10]
  404db8:	85 c0                	test   eax,eax
  404dba:	75 0e                	jne    404dca <___mingw_pformat+0x2aa>
  404dbc:	8b 44 24 70          	mov    eax,DWORD PTR [esp+0x70]
  404dc0:	39 44 24 30          	cmp    DWORD PTR [esp+0x30],eax
  404dc4:	0f 84 a4 05 00 00    	je     40536e <___mingw_pformat+0x84e>
  404dca:	8b 45 00             	mov    eax,DWORD PTR [ebp+0x0]
  404dcd:	8d 5d 04             	lea    ebx,[ebp+0x4]
  404dd0:	c7 44 24 24 00 00 00 	mov    DWORD PTR [esp+0x24],0x0
  404dd7:	00 
  404dd8:	8b 4c 24 24          	mov    ecx,DWORD PTR [esp+0x24]
  404ddc:	89 dd                	mov    ebp,ebx
  404dde:	89 44 24 20          	mov    DWORD PTR [esp+0x20],eax
  404de2:	8b 54 24 20          	mov    edx,DWORD PTR [esp+0x20]
  404de6:	8d 44 24 2c          	lea    eax,[esp+0x2c]
  404dea:	89 04 24             	mov    DWORD PTR [esp],eax
  404ded:	b8 78 00 00 00       	mov    eax,0x78
  404df2:	e8 69 ed ff ff       	call   403b60 <___pformat_xint>
  404df7:	e9 b4 fd ff ff       	jmp    404bb0 <___mingw_pformat+0x90>
  404dfc:	8d 74 26 00          	lea    esi,[esi+eiz*1+0x0]
  404e00:	8b 44 24 30          	mov    eax,DWORD PTR [esp+0x30]
  404e04:	83 c8 20             	or     eax,0x20
  404e07:	a8 04                	test   al,0x4
  404e09:	89 44 24 30          	mov    DWORD PTR [esp+0x30],eax
  404e0d:	0f 84 4a 02 00 00    	je     40505d <___mingw_pformat+0x53d>
  404e13:	db 6d 00             	fld    TBYTE PTR [ebp+0x0]
  404e16:	8d 5d 0c             	lea    ebx,[ebp+0xc]
  404e19:	db 3c 24             	fstp   TBYTE PTR [esp]
  404e1c:	89 dd                	mov    ebp,ebx
  404e1e:	8d 44 24 2c          	lea    eax,[esp+0x2c]
  404e22:	e8 29 f7 ff ff       	call   404550 <___pformat_xldouble>
  404e27:	e9 84 fd ff ff       	jmp    404bb0 <___mingw_pformat+0x90>
  404e2c:	8d 74 26 00          	lea    esi,[esi+eiz*1+0x0]
  404e30:	83 7c 24 14 03       	cmp    DWORD PTR [esp+0x14],0x3
  404e35:	89 f8                	mov    eax,edi
  404e37:	0f 84 80 04 00 00    	je     4052bd <___mingw_pformat+0x79d>
  404e3d:	83 7c 24 14 02       	cmp    DWORD PTR [esp+0x14],0x2
  404e42:	0f 84 27 04 00 00    	je     40526f <___mingw_pformat+0x74f>
  404e48:	8b 7d 00             	mov    edi,DWORD PTR [ebp+0x0]
  404e4b:	8d 55 04             	lea    edx,[ebp+0x4]
  404e4e:	83 7c 24 14 01       	cmp    DWORD PTR [esp+0x14],0x1
  404e53:	c7 44 24 24 00 00 00 	mov    DWORD PTR [esp+0x24],0x0
  404e5a:	00 
  404e5b:	89 7c 24 20          	mov    DWORD PTR [esp+0x20],edi
  404e5f:	0f 84 1e 05 00 00    	je     405383 <___mingw_pformat+0x863>
  404e65:	83 7c 24 14 04       	cmp    DWORD PTR [esp+0x14],0x4
  404e6a:	89 d5                	mov    ebp,edx
  404e6c:	0f 84 86 05 00 00    	je     4053f8 <___mingw_pformat+0x8d8>
  404e72:	83 f8 75             	cmp    eax,0x75
  404e75:	0f 84 ec 00 00 00    	je     404f67 <___mingw_pformat+0x447>
  404e7b:	8b 54 24 20          	mov    edx,DWORD PTR [esp+0x20]
  404e7f:	8d 7c 24 2c          	lea    edi,[esp+0x2c]
  404e83:	8b 4c 24 24          	mov    ecx,DWORD PTR [esp+0x24]
  404e87:	89 3c 24             	mov    DWORD PTR [esp],edi
  404e8a:	e8 d1 ec ff ff       	call   403b60 <___pformat_xint>
  404e8f:	e9 1c fd ff ff       	jmp    404bb0 <___mingw_pformat+0x90>
  404e94:	8b 44 24 30          	mov    eax,DWORD PTR [esp+0x30]
  404e98:	83 c8 20             	or     eax,0x20
  404e9b:	a8 04                	test   al,0x4
  404e9d:	89 44 24 30          	mov    DWORD PTR [esp+0x30],eax
  404ea1:	0f 84 15 01 00 00    	je     404fbc <___mingw_pformat+0x49c>
  404ea7:	db 6d 00             	fld    TBYTE PTR [ebp+0x0]
  404eaa:	8d 5d 0c             	lea    ebx,[ebp+0xc]
  404ead:	db 3c 24             	fstp   TBYTE PTR [esp]
  404eb0:	89 dd                	mov    ebp,ebx
  404eb2:	8d 44 24 2c          	lea    eax,[esp+0x2c]
  404eb6:	e8 15 f5 ff ff       	call   4043d0 <___pformat_gfloat>
  404ebb:	e9 f0 fc ff ff       	jmp    404bb0 <___mingw_pformat+0x90>
  404ec0:	8b 44 24 30          	mov    eax,DWORD PTR [esp+0x30]
  404ec4:	83 c8 20             	or     eax,0x20
  404ec7:	a8 04                	test   al,0x4
  404ec9:	89 44 24 30          	mov    DWORD PTR [esp+0x30],eax
  404ecd:	0f 84 0e 01 00 00    	je     404fe1 <___mingw_pformat+0x4c1>
  404ed3:	db 6d 00             	fld    TBYTE PTR [ebp+0x0]
  404ed6:	8d 5d 0c             	lea    ebx,[ebp+0xc]
  404ed9:	db 3c 24             	fstp   TBYTE PTR [esp]
  404edc:	89 dd                	mov    ebp,ebx
  404ede:	8d 44 24 2c          	lea    eax,[esp+0x2c]
  404ee2:	e8 09 f4 ff ff       	call   4042f0 <___pformat_float>
  404ee7:	e9 c4 fc ff ff       	jmp    404bb0 <___mingw_pformat+0x90>
  404eec:	8d 74 26 00          	lea    esi,[esi+eiz*1+0x0]
  404ef0:	8b 44 24 30          	mov    eax,DWORD PTR [esp+0x30]
  404ef4:	83 c8 20             	or     eax,0x20
  404ef7:	a8 04                	test   al,0x4
  404ef9:	89 44 24 30          	mov    DWORD PTR [esp+0x30],eax
  404efd:	0f 84 09 01 00 00    	je     40500c <___mingw_pformat+0x4ec>
  404f03:	db 6d 00             	fld    TBYTE PTR [ebp+0x0]
  404f06:	8d 5d 0c             	lea    ebx,[ebp+0xc]
  404f09:	db 3c 24             	fstp   TBYTE PTR [esp]
  404f0c:	89 dd                	mov    ebp,ebx
  404f0e:	8d 44 24 2c          	lea    eax,[esp+0x2c]
  404f12:	e8 29 f3 ff ff       	call   404240 <___pformat_efloat>
  404f17:	e9 94 fc ff ff       	jmp    404bb0 <___mingw_pformat+0x90>
  404f1c:	8d 74 26 00          	lea    esi,[esi+eiz*1+0x0]
  404f20:	81 4c 24 30 80 00 00 	or     DWORD PTR [esp+0x30],0x80
  404f27:	00 
  404f28:	83 7c 24 14 03       	cmp    DWORD PTR [esp+0x14],0x3
  404f2d:	0f 84 a0 03 00 00    	je     4052d3 <___mingw_pformat+0x7b3>
  404f33:	83 7c 24 14 02       	cmp    DWORD PTR [esp+0x14],0x2
  404f38:	0f 84 48 03 00 00    	je     405286 <___mingw_pformat+0x766>
  404f3e:	8b 45 00             	mov    eax,DWORD PTR [ebp+0x0]
  404f41:	8d 55 04             	lea    edx,[ebp+0x4]
  404f44:	89 44 24 20          	mov    DWORD PTR [esp+0x20],eax
  404f48:	c1 f8 1f             	sar    eax,0x1f
  404f4b:	83 7c 24 14 01       	cmp    DWORD PTR [esp+0x14],0x1
  404f50:	89 44 24 24          	mov    DWORD PTR [esp+0x24],eax
  404f54:	0f 84 4b 04 00 00    	je     4053a5 <___mingw_pformat+0x885>
  404f5a:	83 7c 24 14 04       	cmp    DWORD PTR [esp+0x14],0x4
  404f5f:	89 d5                	mov    ebp,edx
  404f61:	0f 84 7c 04 00 00    	je     4053e3 <___mingw_pformat+0x8c3>
  404f67:	8b 44 24 20          	mov    eax,DWORD PTR [esp+0x20]
  404f6b:	8d 4c 24 2c          	lea    ecx,[esp+0x2c]
  404f6f:	8b 54 24 24          	mov    edx,DWORD PTR [esp+0x24]
  404f73:	e8 b8 e9 ff ff       	call   403930 <___pformat_int>
  404f78:	e9 33 fc ff ff       	jmp    404bb0 <___mingw_pformat+0x90>
  404f7d:	8d 76 00             	lea    esi,[esi+0x0]
  404f80:	0f b6 51 01          	movzx  edx,BYTE PTR [ecx+0x1]
  404f84:	80 fa 36             	cmp    dl,0x36
  404f87:	0f 84 78 03 00 00    	je     405305 <___mingw_pformat+0x7e5>
  404f8d:	80 fa 33             	cmp    dl,0x33
  404f90:	0f 84 a8 02 00 00    	je     40523e <___mingw_pformat+0x71e>
  404f96:	89 f1                	mov    ecx,esi
  404f98:	c7 44 24 14 02 00 00 	mov    DWORD PTR [esp+0x14],0x2
  404f9f:	00 
  404fa0:	c7 44 24 10 04 00 00 	mov    DWORD PTR [esp+0x10],0x4
  404fa7:	00 
  404fa8:	e9 50 fc ff ff       	jmp    404bfd <___mingw_pformat+0xdd>
  404fad:	8d 76 00             	lea    esi,[esi+0x0]
  404fb0:	8b 44 24 30          	mov    eax,DWORD PTR [esp+0x30]
  404fb4:	a8 04                	test   al,0x4
  404fb6:	0f 85 eb fe ff ff    	jne    404ea7 <___mingw_pformat+0x387>
  404fbc:	dd 45 00             	fld    QWORD PTR [ebp+0x0]
  404fbf:	8d 5d 08             	lea    ebx,[ebp+0x8]
  404fc2:	db 3c 24             	fstp   TBYTE PTR [esp]
  404fc5:	89 dd                	mov    ebp,ebx
  404fc7:	8d 44 24 2c          	lea    eax,[esp+0x2c]
  404fcb:	e8 00 f4 ff ff       	call   4043d0 <___pformat_gfloat>
  404fd0:	e9 db fb ff ff       	jmp    404bb0 <___mingw_pformat+0x90>
  404fd5:	8b 44 24 30          	mov    eax,DWORD PTR [esp+0x30]
  404fd9:	a8 04                	test   al,0x4
  404fdb:	0f 85 f2 fe ff ff    	jne    404ed3 <___mingw_pformat+0x3b3>
  404fe1:	dd 45 00             	fld    QWORD PTR [ebp+0x0]
  404fe4:	8d 5d 08             	lea    ebx,[ebp+0x8]
  404fe7:	db 3c 24             	fstp   TBYTE PTR [esp]
  404fea:	89 dd                	mov    ebp,ebx
  404fec:	8d 44 24 2c          	lea    eax,[esp+0x2c]
  404ff0:	e8 fb f2 ff ff       	call   4042f0 <___pformat_float>
  404ff5:	e9 b6 fb ff ff       	jmp    404bb0 <___mingw_pformat+0x90>
  404ffa:	8d b6 00 00 00 00    	lea    esi,[esi+0x0]
  405000:	8b 44 24 30          	mov    eax,DWORD PTR [esp+0x30]
  405004:	a8 04                	test   al,0x4
  405006:	0f 85 f7 fe ff ff    	jne    404f03 <___mingw_pformat+0x3e3>
  40500c:	dd 45 00             	fld    QWORD PTR [ebp+0x0]
  40500f:	8d 5d 08             	lea    ebx,[ebp+0x8]
  405012:	db 3c 24             	fstp   TBYTE PTR [esp]
  405015:	89 dd                	mov    ebp,ebx
  405017:	8d 44 24 2c          	lea    eax,[esp+0x2c]
  40501b:	e8 20 f2 ff ff       	call   404240 <___pformat_efloat>
  405020:	e9 8b fb ff ff       	jmp    404bb0 <___mingw_pformat+0x90>
  405025:	c7 44 24 38 ff ff ff 	mov    DWORD PTR [esp+0x38],0xffffffff
  40502c:	ff 
  40502d:	8b 45 00             	mov    eax,DWORD PTR [ebp+0x0]
  405030:	8d 5d 04             	lea    ebx,[ebp+0x4]
  405033:	ba 01 00 00 00       	mov    edx,0x1
  405038:	8d 4c 24 2c          	lea    ecx,[esp+0x2c]
  40503c:	89 dd                	mov    ebp,ebx
  40503e:	66 89 44 24 20       	mov    WORD PTR [esp+0x20],ax
  405043:	8d 44 24 20          	lea    eax,[esp+0x20]
  405047:	e8 94 e6 ff ff       	call   4036e0 <___pformat_wputchars>
  40504c:	e9 5f fb ff ff       	jmp    404bb0 <___mingw_pformat+0x90>
  405051:	8b 44 24 30          	mov    eax,DWORD PTR [esp+0x30]
  405055:	a8 04                	test   al,0x4
  405057:	0f 85 b6 fd ff ff    	jne    404e13 <___mingw_pformat+0x2f3>
  40505d:	dd 45 00             	fld    QWORD PTR [ebp+0x0]
  405060:	8d 5d 08             	lea    ebx,[ebp+0x8]
  405063:	db 3c 24             	fstp   TBYTE PTR [esp]
  405066:	89 dd                	mov    ebp,ebx
  405068:	8d 44 24 2c          	lea    eax,[esp+0x2c]
  40506c:	e8 df f4 ff ff       	call   404550 <___pformat_xldouble>
  405071:	e9 3a fb ff ff       	jmp    404bb0 <___mingw_pformat+0x90>
  405076:	8b 44 24 10          	mov    eax,DWORD PTR [esp+0x10]
  40507a:	85 c0                	test   eax,eax
  40507c:	0f 84 8e 01 00 00    	je     405210 <___mingw_pformat+0x6f0>
  405082:	8b 44 24 10          	mov    eax,DWORD PTR [esp+0x10]
  405086:	83 f8 04             	cmp    eax,0x4
  405089:	0f 84 c7 03 00 00    	je     405456 <___mingw_pformat+0x936>
  40508f:	83 ea 30             	sub    edx,0x30
  405092:	80 fa 09             	cmp    dl,0x9
  405095:	0f 87 bb 03 00 00    	ja     405456 <___mingw_pformat+0x936>
  40509b:	85 c0                	test   eax,eax
  40509d:	0f 84 5d 01 00 00    	je     405200 <___mingw_pformat+0x6e0>
  4050a3:	83 f8 02             	cmp    eax,0x2
  4050a6:	0f 84 f0 01 00 00    	je     40529c <___mingw_pformat+0x77c>
  4050ac:	8b 44 24 18          	mov    eax,DWORD PTR [esp+0x18]
  4050b0:	85 c0                	test   eax,eax
  4050b2:	74 1b                	je     4050cf <___mingw_pformat+0x5af>
  4050b4:	8b 44 24 18          	mov    eax,DWORD PTR [esp+0x18]
  4050b8:	8b 00                	mov    eax,DWORD PTR [eax]
  4050ba:	85 c0                	test   eax,eax
  4050bc:	0f 88 e7 01 00 00    	js     4052a9 <___mingw_pformat+0x789>
  4050c2:	8d 04 80             	lea    eax,[eax+eax*4]
  4050c5:	8d 44 47 d0          	lea    eax,[edi+eax*2-0x30]
  4050c9:	8b 7c 24 18          	mov    edi,DWORD PTR [esp+0x18]
  4050cd:	89 07                	mov    DWORD PTR [edi],eax
  4050cf:	0f b6 51 01          	movzx  edx,BYTE PTR [ecx+0x1]
  4050d3:	89 f1                	mov    ecx,esi
  4050d5:	e9 23 fb ff ff       	jmp    404bfd <___mingw_pformat+0xdd>
  4050da:	8d b6 00 00 00 00    	lea    esi,[esi+0x0]
  4050e0:	83 7c 24 10 01       	cmp    DWORD PTR [esp+0x10],0x1
  4050e5:	0f 86 51 02 00 00    	jbe    40533c <___mingw_pformat+0x81c>
  4050eb:	0f b6 51 01          	movzx  edx,BYTE PTR [ecx+0x1]
  4050ef:	89 f1                	mov    ecx,esi
  4050f1:	c7 44 24 10 04 00 00 	mov    DWORD PTR [esp+0x10],0x4
  4050f8:	00 
  4050f9:	e9 ff fa ff ff       	jmp    404bfd <___mingw_pformat+0xdd>
  4050fe:	66 90                	xchg   ax,ax
  405100:	8b 44 24 10          	mov    eax,DWORD PTR [esp+0x10]
  405104:	85 c0                	test   eax,eax
  405106:	75 c7                	jne    4050cf <___mingw_pformat+0x5af>
  405108:	81 4c 24 30 00 04 00 	or     DWORD PTR [esp+0x30],0x400
  40510f:	00 
  405110:	0f b6 51 01          	movzx  edx,BYTE PTR [ecx+0x1]
  405114:	89 f1                	mov    ecx,esi
  405116:	e9 e2 fa ff ff       	jmp    404bfd <___mingw_pformat+0xdd>
  40511b:	90                   	nop
  40511c:	8d 74 26 00          	lea    esi,[esi+eiz*1+0x0]
  405120:	8b 44 24 10          	mov    eax,DWORD PTR [esp+0x10]
  405124:	85 c0                	test   eax,eax
  405126:	75 a7                	jne    4050cf <___mingw_pformat+0x5af>
  405128:	81 4c 24 30 00 01 00 	or     DWORD PTR [esp+0x30],0x100
  40512f:	00 
  405130:	0f b6 51 01          	movzx  edx,BYTE PTR [ecx+0x1]
  405134:	89 f1                	mov    ecx,esi
  405136:	e9 c2 fa ff ff       	jmp    404bfd <___mingw_pformat+0xdd>
  40513b:	90                   	nop
  40513c:	8d 74 26 00          	lea    esi,[esi+eiz*1+0x0]
  405140:	8b 7c 24 18          	mov    edi,DWORD PTR [esp+0x18]
  405144:	85 ff                	test   edi,edi
  405146:	74 a3                	je     4050eb <___mingw_pformat+0x5cb>
  405148:	f6 44 24 10 05       	test   BYTE PTR [esp+0x10],0x5
  40514d:	0f 85 d0 00 00 00    	jne    405223 <___mingw_pformat+0x703>
  405153:	8b 45 00             	mov    eax,DWORD PTR [ebp+0x0]
  405156:	8d 7d 04             	lea    edi,[ebp+0x4]
  405159:	8b 54 24 18          	mov    edx,DWORD PTR [esp+0x18]
  40515d:	85 c0                	test   eax,eax
  40515f:	89 02                	mov    DWORD PTR [edx],eax
  405161:	0f 88 5f 02 00 00    	js     4053c6 <___mingw_pformat+0x8a6>
  405167:	0f b6 51 01          	movzx  edx,BYTE PTR [ecx+0x1]
  40516b:	89 fd                	mov    ebp,edi
  40516d:	89 f1                	mov    ecx,esi
  40516f:	c7 44 24 18 00 00 00 	mov    DWORD PTR [esp+0x18],0x0
  405176:	00 
  405177:	e9 81 fa ff ff       	jmp    404bfd <___mingw_pformat+0xdd>
  40517c:	8d 74 26 00          	lea    esi,[esi+eiz*1+0x0]
  405180:	89 f8                	mov    eax,edi
  405182:	8d 54 24 2c          	lea    edx,[esp+0x2c]
  405186:	e8 f5 e4 ff ff       	call   403680 <___pformat_putc>
  40518b:	e9 20 fa ff ff       	jmp    404bb0 <___mingw_pformat+0x90>
  405190:	8b 44 24 10          	mov    eax,DWORD PTR [esp+0x10]
  405194:	85 c0                	test   eax,eax
  405196:	0f 85 33 ff ff ff    	jne    4050cf <___mingw_pformat+0x5af>
  40519c:	81 4c 24 30 00 08 00 	or     DWORD PTR [esp+0x30],0x800
  4051a3:	00 
  4051a4:	0f b6 51 01          	movzx  edx,BYTE PTR [ecx+0x1]
  4051a8:	89 f1                	mov    ecx,esi
  4051aa:	e9 4e fa ff ff       	jmp    404bfd <___mingw_pformat+0xdd>
  4051af:	90                   	nop
  4051b0:	8b 44 24 10          	mov    eax,DWORD PTR [esp+0x10]
  4051b4:	85 c0                	test   eax,eax
  4051b6:	0f 85 13 ff ff ff    	jne    4050cf <___mingw_pformat+0x5af>
  4051bc:	83 4c 24 30 40       	or     DWORD PTR [esp+0x30],0x40
  4051c1:	0f b6 51 01          	movzx  edx,BYTE PTR [ecx+0x1]
  4051c5:	89 f1                	mov    ecx,esi
  4051c7:	e9 31 fa ff ff       	jmp    404bfd <___mingw_pformat+0xdd>
  4051cc:	8d 74 26 00          	lea    esi,[esi+eiz*1+0x0]
  4051d0:	8b 5d 00             	mov    ebx,DWORD PTR [ebp+0x0]
  4051d3:	8d 7d 04             	lea    edi,[ebp+0x4]
  4051d6:	85 db                	test   ebx,ebx
  4051d8:	0f 84 de 01 00 00    	je     4053bc <___mingw_pformat+0x89c>
  4051de:	89 1c 24             	mov    DWORD PTR [esp],ebx
  4051e1:	89 fd                	mov    ebp,edi
  4051e3:	e8 30 2d 00 00       	call   407f18 <_wcslen>
  4051e8:	8d 4c 24 2c          	lea    ecx,[esp+0x2c]
  4051ec:	89 c2                	mov    edx,eax
  4051ee:	89 d8                	mov    eax,ebx
  4051f0:	e8 eb e4 ff ff       	call   4036e0 <___pformat_wputchars>
  4051f5:	e9 b6 f9 ff ff       	jmp    404bb0 <___mingw_pformat+0x90>
  4051fa:	8d b6 00 00 00 00    	lea    esi,[esi+0x0]
  405200:	c7 44 24 10 01 00 00 	mov    DWORD PTR [esp+0x10],0x1
  405207:	00 
  405208:	e9 9f fe ff ff       	jmp    4050ac <___mingw_pformat+0x58c>
  40520d:	8d 76 00             	lea    esi,[esi+0x0]
  405210:	81 4c 24 30 00 02 00 	or     DWORD PTR [esp+0x30],0x200
  405217:	00 
  405218:	0f b6 51 01          	movzx  edx,BYTE PTR [ecx+0x1]
  40521c:	89 f1                	mov    ecx,esi
  40521e:	e9 da f9 ff ff       	jmp    404bfd <___mingw_pformat+0xdd>
  405223:	0f b6 51 01          	movzx  edx,BYTE PTR [ecx+0x1]
  405227:	89 f1                	mov    ecx,esi
  405229:	c7 44 24 18 00 00 00 	mov    DWORD PTR [esp+0x18],0x0
  405230:	00 
  405231:	c7 44 24 10 04 00 00 	mov    DWORD PTR [esp+0x10],0x4
  405238:	00 
  405239:	e9 bf f9 ff ff       	jmp    404bfd <___mingw_pformat+0xdd>
  40523e:	80 79 02 32          	cmp    BYTE PTR [ecx+0x2],0x32
  405242:	0f 84 f2 01 00 00    	je     40543a <___mingw_pformat+0x91a>
  405248:	89 f1                	mov    ecx,esi
  40524a:	ba 33 00 00 00       	mov    edx,0x33
  40524f:	c7 44 24 14 02 00 00 	mov    DWORD PTR [esp+0x14],0x2
  405256:	00 
  405257:	c7 44 24 10 04 00 00 	mov    DWORD PTR [esp+0x10],0x4
  40525e:	00 
  40525f:	e9 9d f9 ff ff       	jmp    404c01 <___mingw_pformat+0xe1>
  405264:	66 89 10             	mov    WORD PTR [eax],dx
  405267:	83 c5 04             	add    ebp,0x4
  40526a:	e9 41 f9 ff ff       	jmp    404bb0 <___mingw_pformat+0x90>
  40526f:	8b 7d 00             	mov    edi,DWORD PTR [ebp+0x0]
  405272:	83 c5 04             	add    ebp,0x4
  405275:	c7 44 24 24 00 00 00 	mov    DWORD PTR [esp+0x24],0x0
  40527c:	00 
  40527d:	89 7c 24 20          	mov    DWORD PTR [esp+0x20],edi
  405281:	e9 ec fb ff ff       	jmp    404e72 <___mingw_pformat+0x352>
  405286:	8b 45 00             	mov    eax,DWORD PTR [ebp+0x0]
  405289:	83 c5 04             	add    ebp,0x4
  40528c:	89 44 24 20          	mov    DWORD PTR [esp+0x20],eax
  405290:	c1 f8 1f             	sar    eax,0x1f
  405293:	89 44 24 24          	mov    DWORD PTR [esp+0x24],eax
  405297:	e9 cb fc ff ff       	jmp    404f67 <___mingw_pformat+0x447>
  40529c:	c7 44 24 10 03 00 00 	mov    DWORD PTR [esp+0x10],0x3
  4052a3:	00 
  4052a4:	e9 03 fe ff ff       	jmp    4050ac <___mingw_pformat+0x58c>
  4052a9:	8b 44 24 18          	mov    eax,DWORD PTR [esp+0x18]
  4052ad:	83 ef 30             	sub    edi,0x30
  4052b0:	89 38                	mov    DWORD PTR [eax],edi
  4052b2:	0f b6 51 01          	movzx  edx,BYTE PTR [ecx+0x1]
  4052b6:	89 f1                	mov    ecx,esi
  4052b8:	e9 40 f9 ff ff       	jmp    404bfd <___mingw_pformat+0xdd>
  4052bd:	8b 4d 00             	mov    ecx,DWORD PTR [ebp+0x0]
  4052c0:	83 c5 08             	add    ebp,0x8
  4052c3:	8b 5d fc             	mov    ebx,DWORD PTR [ebp-0x4]
  4052c6:	89 4c 24 20          	mov    DWORD PTR [esp+0x20],ecx
  4052ca:	89 5c 24 24          	mov    DWORD PTR [esp+0x24],ebx
  4052ce:	e9 9f fb ff ff       	jmp    404e72 <___mingw_pformat+0x352>
  4052d3:	8b 45 00             	mov    eax,DWORD PTR [ebp+0x0]
  4052d6:	83 c5 08             	add    ebp,0x8
  4052d9:	8b 55 fc             	mov    edx,DWORD PTR [ebp-0x4]
  4052dc:	89 44 24 20          	mov    DWORD PTR [esp+0x20],eax
  4052e0:	89 54 24 24          	mov    DWORD PTR [esp+0x24],edx
  4052e4:	e9 7e fc ff ff       	jmp    404f67 <___mingw_pformat+0x447>
  4052e9:	0f b6 51 02          	movzx  edx,BYTE PTR [ecx+0x2]
  4052ed:	83 c1 02             	add    ecx,0x2
  4052f0:	c7 44 24 14 04 00 00 	mov    DWORD PTR [esp+0x14],0x4
  4052f7:	00 
  4052f8:	c7 44 24 10 04 00 00 	mov    DWORD PTR [esp+0x10],0x4
  4052ff:	00 
  405300:	e9 f8 f8 ff ff       	jmp    404bfd <___mingw_pformat+0xdd>
  405305:	80 79 02 34          	cmp    BYTE PTR [ecx+0x2],0x34
  405309:	0f 84 0f 01 00 00    	je     40541e <___mingw_pformat+0x8fe>
  40530f:	89 f1                	mov    ecx,esi
  405311:	ba 36 00 00 00       	mov    edx,0x36
  405316:	c7 44 24 14 02 00 00 	mov    DWORD PTR [esp+0x14],0x2
  40531d:	00 
  40531e:	c7 44 24 10 04 00 00 	mov    DWORD PTR [esp+0x10],0x4
  405325:	00 
  405326:	e9 d6 f8 ff ff       	jmp    404c01 <___mingw_pformat+0xe1>
  40532b:	8b 55 00             	mov    edx,DWORD PTR [ebp+0x0]
  40532e:	83 c5 04             	add    ebp,0x4
  405331:	8b 44 24 44          	mov    eax,DWORD PTR [esp+0x44]
  405335:	88 02                	mov    BYTE PTR [edx],al
  405337:	e9 74 f8 ff ff       	jmp    404bb0 <___mingw_pformat+0x90>
  40533c:	8d 44 24 38          	lea    eax,[esp+0x38]
  405340:	c7 44 24 38 00 00 00 	mov    DWORD PTR [esp+0x38],0x0
  405347:	00 
  405348:	0f b6 51 01          	movzx  edx,BYTE PTR [ecx+0x1]
  40534c:	89 f1                	mov    ecx,esi
  40534e:	89 44 24 18          	mov    DWORD PTR [esp+0x18],eax
  405352:	c7 44 24 10 02 00 00 	mov    DWORD PTR [esp+0x10],0x2
  405359:	00 
  40535a:	e9 9e f8 ff ff       	jmp    404bfd <___mingw_pformat+0xdd>
  40535f:	ba 06 00 00 00       	mov    edx,0x6
  405364:	bb 56 a1 40 00       	mov    ebx,0x40a156
  405369:	e9 72 f9 ff ff       	jmp    404ce0 <___mingw_pformat+0x1c0>
  40536e:	8b 44 24 1c          	mov    eax,DWORD PTR [esp+0x1c]
  405372:	c7 44 24 38 08 00 00 	mov    DWORD PTR [esp+0x38],0x8
  405379:	00 
  40537a:	89 44 24 30          	mov    DWORD PTR [esp+0x30],eax
  40537e:	e9 47 fa ff ff       	jmp    404dca <___mingw_pformat+0x2aa>
  405383:	0f b7 4c 24 20       	movzx  ecx,WORD PTR [esp+0x20]
  405388:	89 d5                	mov    ebp,edx
  40538a:	c7 44 24 24 00 00 00 	mov    DWORD PTR [esp+0x24],0x0
  405391:	00 
  405392:	89 4c 24 20          	mov    DWORD PTR [esp+0x20],ecx
  405396:	e9 d7 fa ff ff       	jmp    404e72 <___mingw_pformat+0x352>
  40539b:	89 10                	mov    DWORD PTR [eax],edx
  40539d:	83 c5 04             	add    ebp,0x4
  4053a0:	e9 0b f8 ff ff       	jmp    404bb0 <___mingw_pformat+0x90>
  4053a5:	0f bf 44 24 20       	movsx  eax,WORD PTR [esp+0x20]
  4053aa:	89 d5                	mov    ebp,edx
  4053ac:	89 44 24 20          	mov    DWORD PTR [esp+0x20],eax
  4053b0:	c1 f8 1f             	sar    eax,0x1f
  4053b3:	89 44 24 24          	mov    DWORD PTR [esp+0x24],eax
  4053b7:	e9 ab fb ff ff       	jmp    404f67 <___mingw_pformat+0x447>
  4053bc:	bb 48 a1 40 00       	mov    ebx,0x40a148
  4053c1:	e9 18 fe ff ff       	jmp    4051de <___mingw_pformat+0x6be>
  4053c6:	8b 54 24 10          	mov    edx,DWORD PTR [esp+0x10]
  4053ca:	85 d2                	test   edx,edx
  4053cc:	0f 85 99 00 00 00    	jne    40546b <___mingw_pformat+0x94b>
  4053d2:	81 4c 24 30 00 04 00 	or     DWORD PTR [esp+0x30],0x400
  4053d9:	00 
  4053da:	f7 5c 24 34          	neg    DWORD PTR [esp+0x34]
  4053de:	e9 84 fd ff ff       	jmp    405167 <___mingw_pformat+0x647>
  4053e3:	0f be 44 24 20       	movsx  eax,BYTE PTR [esp+0x20]
  4053e8:	89 44 24 20          	mov    DWORD PTR [esp+0x20],eax
  4053ec:	c1 f8 1f             	sar    eax,0x1f
  4053ef:	89 44 24 24          	mov    DWORD PTR [esp+0x24],eax
  4053f3:	e9 6f fb ff ff       	jmp    404f67 <___mingw_pformat+0x447>
  4053f8:	0f b6 54 24 20       	movzx  edx,BYTE PTR [esp+0x20]
  4053fd:	c7 44 24 24 00 00 00 	mov    DWORD PTR [esp+0x24],0x0
  405404:	00 
  405405:	89 54 24 20          	mov    DWORD PTR [esp+0x20],edx
  405409:	e9 64 fa ff ff       	jmp    404e72 <___mingw_pformat+0x352>
  40540e:	89 d7                	mov    edi,edx
  405410:	83 c5 04             	add    ebp,0x4
  405413:	c1 ff 1f             	sar    edi,0x1f
  405416:	89 78 04             	mov    DWORD PTR [eax+0x4],edi
  405419:	e9 92 f7 ff ff       	jmp    404bb0 <___mingw_pformat+0x90>
  40541e:	0f b6 51 03          	movzx  edx,BYTE PTR [ecx+0x3]
  405422:	83 c1 03             	add    ecx,0x3
  405425:	c7 44 24 14 03 00 00 	mov    DWORD PTR [esp+0x14],0x3
  40542c:	00 
  40542d:	c7 44 24 10 04 00 00 	mov    DWORD PTR [esp+0x10],0x4
  405434:	00 
  405435:	e9 c3 f7 ff ff       	jmp    404bfd <___mingw_pformat+0xdd>
  40543a:	0f b6 51 03          	movzx  edx,BYTE PTR [ecx+0x3]
  40543e:	83 c1 03             	add    ecx,0x3
  405441:	c7 44 24 14 02 00 00 	mov    DWORD PTR [esp+0x14],0x2
  405448:	00 
  405449:	c7 44 24 10 04 00 00 	mov    DWORD PTR [esp+0x10],0x4
  405450:	00 
  405451:	e9 a7 f7 ff ff       	jmp    404bfd <___mingw_pformat+0xdd>
  405456:	8d 54 24 2c          	lea    edx,[esp+0x2c]
  40545a:	b8 25 00 00 00       	mov    eax,0x25
  40545f:	89 de                	mov    esi,ebx
  405461:	e8 1a e2 ff ff       	call   403680 <___pformat_putc>
  405466:	e9 45 f7 ff ff       	jmp    404bb0 <___mingw_pformat+0x90>
  40546b:	c7 44 24 38 ff ff ff 	mov    DWORD PTR [esp+0x38],0xffffffff
  405472:	ff 
  405473:	89 fd                	mov    ebp,edi
  405475:	0f b6 51 01          	movzx  edx,BYTE PTR [ecx+0x1]
  405479:	c7 44 24 18 00 00 00 	mov    DWORD PTR [esp+0x18],0x0
  405480:	00 
  405481:	89 f1                	mov    ecx,esi
  405483:	e9 75 f7 ff ff       	jmp    404bfd <___mingw_pformat+0xdd>
  405488:	90                   	nop
  405489:	90                   	nop
  40548a:	90                   	nop
  40548b:	90                   	nop
  40548c:	90                   	nop
  40548d:	90                   	nop
  40548e:	90                   	nop
  40548f:	90                   	nop

00405490 <___mbrtowc_cp>:
  405490:	55                   	push   ebp
  405491:	89 e5                	mov    ebp,esp
  405493:	56                   	push   esi
  405494:	53                   	push   ebx
  405495:	83 ec 30             	sub    esp,0x30
  405498:	8b 5d 0c             	mov    ebx,DWORD PTR [ebp+0xc]
  40549b:	8b 75 14             	mov    esi,DWORD PTR [ebp+0x14]
  40549e:	85 db                	test   ebx,ebx
  4054a0:	0f 84 2d 01 00 00    	je     4055d3 <___mbrtowc_cp+0x143>
  4054a6:	8b 4d 10             	mov    ecx,DWORD PTR [ebp+0x10]
  4054a9:	85 c9                	test   ecx,ecx
  4054ab:	0f 84 2f 01 00 00    	je     4055e0 <___mbrtowc_cp+0x150>
  4054b1:	8b 06                	mov    eax,DWORD PTR [esi]
  4054b3:	c7 06 00 00 00 00    	mov    DWORD PTR [esi],0x0
  4054b9:	89 45 f4             	mov    DWORD PTR [ebp-0xc],eax
  4054bc:	0f b6 03             	movzx  eax,BYTE PTR [ebx]
  4054bf:	84 c0                	test   al,al
  4054c1:	0f 84 99 00 00 00    	je     405560 <___mbrtowc_cp+0xd0>
  4054c7:	83 7d 1c 01          	cmp    DWORD PTR [ebp+0x1c],0x1
  4054cb:	76 73                	jbe    405540 <___mbrtowc_cp+0xb0>
  4054cd:	80 7d f4 00          	cmp    BYTE PTR [ebp-0xc],0x0
  4054d1:	0f 85 9a 00 00 00    	jne    405571 <___mbrtowc_cp+0xe1>
  4054d7:	89 44 24 04          	mov    DWORD PTR [esp+0x4],eax
  4054db:	8b 45 18             	mov    eax,DWORD PTR [ebp+0x18]
  4054de:	89 04 24             	mov    DWORD PTR [esp],eax
  4054e1:	e8 5a 2b 00 00       	call   408040 <_IsDBCSLeadByteEx@8>
  4054e6:	83 ec 08             	sub    esp,0x8
  4054e9:	85 c0                	test   eax,eax
  4054eb:	74 53                	je     405540 <___mbrtowc_cp+0xb0>
  4054ed:	83 7d 10 01          	cmp    DWORD PTR [ebp+0x10],0x1
  4054f1:	0f 86 05 01 00 00    	jbe    4055fc <___mbrtowc_cp+0x16c>
  4054f7:	8b 45 08             	mov    eax,DWORD PTR [ebp+0x8]
  4054fa:	c7 44 24 14 01 00 00 	mov    DWORD PTR [esp+0x14],0x1
  405501:	00 
  405502:	c7 44 24 0c 02 00 00 	mov    DWORD PTR [esp+0xc],0x2
  405509:	00 
  40550a:	89 5c 24 08          	mov    DWORD PTR [esp+0x8],ebx
  40550e:	89 44 24 10          	mov    DWORD PTR [esp+0x10],eax
  405512:	8b 45 18             	mov    eax,DWORD PTR [ebp+0x18]
  405515:	c7 44 24 04 08 00 00 	mov    DWORD PTR [esp+0x4],0x8
  40551c:	00 
  40551d:	89 04 24             	mov    DWORD PTR [esp],eax
  405520:	e8 0b 2b 00 00       	call   408030 <_MultiByteToWideChar@24>
  405525:	83 ec 18             	sub    esp,0x18
  405528:	85 c0                	test   eax,eax
  40552a:	0f 84 b7 00 00 00    	je     4055e7 <___mbrtowc_cp+0x157>
  405530:	8d 65 f8             	lea    esp,[ebp-0x8]
  405533:	b8 02 00 00 00       	mov    eax,0x2
  405538:	5b                   	pop    ebx
  405539:	5e                   	pop    esi
  40553a:	5d                   	pop    ebp
  40553b:	c3                   	ret    
  40553c:	8d 74 26 00          	lea    esi,[esi+eiz*1+0x0]
  405540:	8b 45 18             	mov    eax,DWORD PTR [ebp+0x18]
  405543:	85 c0                	test   eax,eax
  405545:	75 50                	jne    405597 <___mbrtowc_cp+0x107>
  405547:	0f b6 03             	movzx  eax,BYTE PTR [ebx]
  40554a:	8b 55 08             	mov    edx,DWORD PTR [ebp+0x8]
  40554d:	66 89 02             	mov    WORD PTR [edx],ax
  405550:	8d 65 f8             	lea    esp,[ebp-0x8]
  405553:	b8 01 00 00 00       	mov    eax,0x1
  405558:	5b                   	pop    ebx
  405559:	5e                   	pop    esi
  40555a:	5d                   	pop    ebp
  40555b:	c3                   	ret    
  40555c:	8d 74 26 00          	lea    esi,[esi+eiz*1+0x0]
  405560:	8b 45 08             	mov    eax,DWORD PTR [ebp+0x8]
  405563:	31 d2                	xor    edx,edx
  405565:	66 89 10             	mov    WORD PTR [eax],dx
  405568:	31 c0                	xor    eax,eax
  40556a:	8d 65 f8             	lea    esp,[ebp-0x8]
  40556d:	5b                   	pop    ebx
  40556e:	5e                   	pop    esi
  40556f:	5d                   	pop    ebp
  405570:	c3                   	ret    
  405571:	88 45 f5             	mov    BYTE PTR [ebp-0xb],al
  405574:	8b 45 08             	mov    eax,DWORD PTR [ebp+0x8]
  405577:	c7 44 24 14 01 00 00 	mov    DWORD PTR [esp+0x14],0x1
  40557e:	00 
  40557f:	c7 44 24 0c 02 00 00 	mov    DWORD PTR [esp+0xc],0x2
  405586:	00 
  405587:	89 44 24 10          	mov    DWORD PTR [esp+0x10],eax
  40558b:	8d 45 f4             	lea    eax,[ebp-0xc]
  40558e:	89 44 24 08          	mov    DWORD PTR [esp+0x8],eax
  405592:	e9 7b ff ff ff       	jmp    405512 <___mbrtowc_cp+0x82>
  405597:	8b 45 08             	mov    eax,DWORD PTR [ebp+0x8]
  40559a:	c7 44 24 14 01 00 00 	mov    DWORD PTR [esp+0x14],0x1
  4055a1:	00 
  4055a2:	c7 44 24 0c 01 00 00 	mov    DWORD PTR [esp+0xc],0x1
  4055a9:	00 
  4055aa:	89 5c 24 08          	mov    DWORD PTR [esp+0x8],ebx
  4055ae:	89 44 24 10          	mov    DWORD PTR [esp+0x10],eax
  4055b2:	8b 45 18             	mov    eax,DWORD PTR [ebp+0x18]
  4055b5:	c7 44 24 04 08 00 00 	mov    DWORD PTR [esp+0x4],0x8
  4055bc:	00 
  4055bd:	89 04 24             	mov    DWORD PTR [esp],eax
  4055c0:	e8 6b 2a 00 00       	call   408030 <_MultiByteToWideChar@24>
  4055c5:	83 ec 18             	sub    esp,0x18
  4055c8:	85 c0                	test   eax,eax
  4055ca:	74 1b                	je     4055e7 <___mbrtowc_cp+0x157>
  4055cc:	b8 01 00 00 00       	mov    eax,0x1
  4055d1:	eb 97                	jmp    40556a <___mbrtowc_cp+0xda>
  4055d3:	8d 65 f8             	lea    esp,[ebp-0x8]
  4055d6:	31 c0                	xor    eax,eax
  4055d8:	5b                   	pop    ebx
  4055d9:	5e                   	pop    esi
  4055da:	5d                   	pop    ebp
  4055db:	c3                   	ret    
  4055dc:	8d 74 26 00          	lea    esi,[esi+eiz*1+0x0]
  4055e0:	b8 fe ff ff ff       	mov    eax,0xfffffffe
  4055e5:	eb 83                	jmp    40556a <___mbrtowc_cp+0xda>
  4055e7:	e8 ec 29 00 00       	call   407fd8 <__errno>
  4055ec:	c7 00 2a 00 00 00    	mov    DWORD PTR [eax],0x2a
  4055f2:	b8 ff ff ff ff       	mov    eax,0xffffffff
  4055f7:	e9 6e ff ff ff       	jmp    40556a <___mbrtowc_cp+0xda>
  4055fc:	0f b6 03             	movzx  eax,BYTE PTR [ebx]
  4055ff:	88 06                	mov    BYTE PTR [esi],al
  405601:	b8 fe ff ff ff       	mov    eax,0xfffffffe
  405606:	e9 5f ff ff ff       	jmp    40556a <___mbrtowc_cp+0xda>
  40560b:	90                   	nop
  40560c:	8d 74 26 00          	lea    esi,[esi+eiz*1+0x0]

00405610 <_mbrtowc>:
  405610:	56                   	push   esi
  405611:	31 f6                	xor    esi,esi
  405613:	53                   	push   ebx
  405614:	83 ec 34             	sub    esp,0x34
  405617:	8b 5c 24 40          	mov    ebx,DWORD PTR [esp+0x40]
  40561b:	66 89 74 24 2e       	mov    WORD PTR [esp+0x2e],si
  405620:	85 db                	test   ebx,ebx
  405622:	74 70                	je     405694 <_mbrtowc+0x84>
  405624:	a1 ac e1 40 00       	mov    eax,ds:0x40e1ac
  405629:	8b 30                	mov    esi,DWORD PTR [eax]
  40562b:	c7 44 24 04 00 00 00 	mov    DWORD PTR [esp+0x4],0x0
  405632:	00 
  405633:	c7 04 24 02 00 00 00 	mov    DWORD PTR [esp],0x2
  40563a:	e8 11 29 00 00       	call   407f50 <_setlocale>
  40563f:	c7 44 24 04 2e 00 00 	mov    DWORD PTR [esp+0x4],0x2e
  405646:	00 
  405647:	89 04 24             	mov    DWORD PTR [esp],eax
  40564a:	e8 f1 28 00 00       	call   407f40 <_strchr>
  40564f:	31 c9                	xor    ecx,ecx
  405651:	85 c0                	test   eax,eax
  405653:	74 0d                	je     405662 <_mbrtowc+0x52>
  405655:	83 c0 01             	add    eax,0x1
  405658:	89 04 24             	mov    DWORD PTR [esp],eax
  40565b:	e8 58 29 00 00       	call   407fb8 <_atoi>
  405660:	89 c1                	mov    ecx,eax
  405662:	8b 54 24 4c          	mov    edx,DWORD PTR [esp+0x4c]
  405666:	85 d2                	test   edx,edx
  405668:	74 36                	je     4056a0 <_mbrtowc+0x90>
  40566a:	8b 44 24 48          	mov    eax,DWORD PTR [esp+0x48]
  40566e:	89 74 24 14          	mov    DWORD PTR [esp+0x14],esi
  405672:	89 1c 24             	mov    DWORD PTR [esp],ebx
  405675:	89 4c 24 10          	mov    DWORD PTR [esp+0x10],ecx
  405679:	89 44 24 08          	mov    DWORD PTR [esp+0x8],eax
  40567d:	8b 44 24 44          	mov    eax,DWORD PTR [esp+0x44]
  405681:	89 54 24 0c          	mov    DWORD PTR [esp+0xc],edx
  405685:	89 44 24 04          	mov    DWORD PTR [esp+0x4],eax
  405689:	e8 02 fe ff ff       	call   405490 <___mbrtowc_cp>
  40568e:	83 c4 34             	add    esp,0x34
  405691:	5b                   	pop    ebx
  405692:	5e                   	pop    esi
  405693:	c3                   	ret    
  405694:	8d 5c 24 2e          	lea    ebx,[esp+0x2e]
  405698:	eb 8a                	jmp    405624 <_mbrtowc+0x14>
  40569a:	8d b6 00 00 00 00    	lea    esi,[esi+0x0]
  4056a0:	ba 78 d0 40 00       	mov    edx,0x40d078
  4056a5:	eb c3                	jmp    40566a <_mbrtowc+0x5a>
  4056a7:	89 f6                	mov    esi,esi
  4056a9:	8d bc 27 00 00 00 00 	lea    edi,[edi+eiz*1+0x0]

004056b0 <_mbsrtowcs>:
  4056b0:	55                   	push   ebp
  4056b1:	57                   	push   edi
  4056b2:	56                   	push   esi
  4056b3:	53                   	push   ebx
  4056b4:	83 ec 3c             	sub    esp,0x3c
  4056b7:	8b 44 24 5c          	mov    eax,DWORD PTR [esp+0x5c]
  4056bb:	8b 5c 24 50          	mov    ebx,DWORD PTR [esp+0x50]
  4056bf:	8b 74 24 54          	mov    esi,DWORD PTR [esp+0x54]
  4056c3:	8b 7c 24 58          	mov    edi,DWORD PTR [esp+0x58]
  4056c7:	85 c0                	test   eax,eax
  4056c9:	0f 84 41 01 00 00    	je     405810 <_mbsrtowcs+0x160>
  4056cf:	c7 44 24 04 00 00 00 	mov    DWORD PTR [esp+0x4],0x0
  4056d6:	00 
  4056d7:	c7 04 24 02 00 00 00 	mov    DWORD PTR [esp],0x2
  4056de:	e8 6d 28 00 00       	call   407f50 <_setlocale>
  4056e3:	c7 44 24 04 2e 00 00 	mov    DWORD PTR [esp+0x4],0x2e
  4056ea:	00 
  4056eb:	89 04 24             	mov    DWORD PTR [esp],eax
  4056ee:	e8 4d 28 00 00       	call   407f40 <_strchr>
  4056f3:	c7 44 24 18 00 00 00 	mov    DWORD PTR [esp+0x18],0x0
  4056fa:	00 
  4056fb:	85 c0                	test   eax,eax
  4056fd:	74 0f                	je     40570e <_mbsrtowcs+0x5e>
  4056ff:	83 c0 01             	add    eax,0x1
  405702:	89 04 24             	mov    DWORD PTR [esp],eax
  405705:	e8 ae 28 00 00       	call   407fb8 <_atoi>
  40570a:	89 44 24 18          	mov    DWORD PTR [esp+0x18],eax
  40570e:	a1 ac e1 40 00       	mov    eax,ds:0x40e1ac
  405713:	85 f6                	test   esi,esi
  405715:	8b 00                	mov    eax,DWORD PTR [eax]
  405717:	89 44 24 1c          	mov    DWORD PTR [esp+0x1c],eax
  40571b:	0f 84 df 00 00 00    	je     405800 <_mbsrtowcs+0x150>
  405721:	8b 0e                	mov    ecx,DWORD PTR [esi]
  405723:	85 c9                	test   ecx,ecx
  405725:	0f 84 d5 00 00 00    	je     405800 <_mbsrtowcs+0x150>
  40572b:	85 db                	test   ebx,ebx
  40572d:	74 71                	je     4057a0 <_mbsrtowcs+0xf0>
  40572f:	85 ff                	test   edi,edi
  405731:	0f 84 c9 00 00 00    	je     405800 <_mbsrtowcs+0x150>
  405737:	89 74 24 54          	mov    DWORD PTR [esp+0x54],esi
  40573b:	31 ed                	xor    ebp,ebp
  40573d:	89 de                	mov    esi,ebx
  40573f:	8b 5c 24 54          	mov    ebx,DWORD PTR [esp+0x54]
  405743:	eb 0f                	jmp    405754 <_mbsrtowcs+0xa4>
  405745:	8b 0b                	mov    ecx,DWORD PTR [ebx]
  405747:	01 c5                	add    ebp,eax
  405749:	83 c6 02             	add    esi,0x2
  40574c:	01 c1                	add    ecx,eax
  40574e:	39 ef                	cmp    edi,ebp
  405750:	89 0b                	mov    DWORD PTR [ebx],ecx
  405752:	76 30                	jbe    405784 <_mbsrtowcs+0xd4>
  405754:	8b 44 24 1c          	mov    eax,DWORD PTR [esp+0x1c]
  405758:	89 4c 24 04          	mov    DWORD PTR [esp+0x4],ecx
  40575c:	89 34 24             	mov    DWORD PTR [esp],esi
  40575f:	89 44 24 14          	mov    DWORD PTR [esp+0x14],eax
  405763:	8b 44 24 18          	mov    eax,DWORD PTR [esp+0x18]
  405767:	89 44 24 10          	mov    DWORD PTR [esp+0x10],eax
  40576b:	8b 44 24 5c          	mov    eax,DWORD PTR [esp+0x5c]
  40576f:	89 44 24 0c          	mov    DWORD PTR [esp+0xc],eax
  405773:	89 f8                	mov    eax,edi
  405775:	29 e8                	sub    eax,ebp
  405777:	89 44 24 08          	mov    DWORD PTR [esp+0x8],eax
  40577b:	e8 10 fd ff ff       	call   405490 <___mbrtowc_cp>
  405780:	85 c0                	test   eax,eax
  405782:	7f c1                	jg     405745 <_mbsrtowcs+0x95>
  405784:	85 c0                	test   eax,eax
  405786:	75 6e                	jne    4057f6 <_mbsrtowcs+0x146>
  405788:	39 fd                	cmp    ebp,edi
  40578a:	73 6a                	jae    4057f6 <_mbsrtowcs+0x146>
  40578c:	c7 03 00 00 00 00    	mov    DWORD PTR [ebx],0x0
  405792:	83 c4 3c             	add    esp,0x3c
  405795:	89 e8                	mov    eax,ebp
  405797:	5b                   	pop    ebx
  405798:	5e                   	pop    esi
  405799:	5f                   	pop    edi
  40579a:	5d                   	pop    ebp
  40579b:	c3                   	ret    
  40579c:	8d 74 26 00          	lea    esi,[esi+eiz*1+0x0]
  4057a0:	31 ed                	xor    ebp,ebp
  4057a2:	66 89 6c 24 2e       	mov    WORD PTR [esp+0x2e],bp
  4057a7:	31 ed                	xor    ebp,ebp
  4057a9:	85 ff                	test   edi,edi
  4057ab:	74 49                	je     4057f6 <_mbsrtowcs+0x146>
  4057ad:	89 7c 24 58          	mov    DWORD PTR [esp+0x58],edi
  4057b1:	8d 5c 24 2e          	lea    ebx,[esp+0x2e]
  4057b5:	89 f7                	mov    edi,esi
  4057b7:	8b 74 24 1c          	mov    esi,DWORD PTR [esp+0x1c]
  4057bb:	eb 11                	jmp    4057ce <_mbsrtowcs+0x11e>
  4057bd:	8d 76 00             	lea    esi,[esi+0x0]
  4057c0:	8b 0f                	mov    ecx,DWORD PTR [edi]
  4057c2:	01 c5                	add    ebp,eax
  4057c4:	01 c1                	add    ecx,eax
  4057c6:	39 6c 24 58          	cmp    DWORD PTR [esp+0x58],ebp
  4057ca:	89 0f                	mov    DWORD PTR [edi],ecx
  4057cc:	76 28                	jbe    4057f6 <_mbsrtowcs+0x146>
  4057ce:	8b 44 24 18          	mov    eax,DWORD PTR [esp+0x18]
  4057d2:	89 74 24 14          	mov    DWORD PTR [esp+0x14],esi
  4057d6:	89 74 24 08          	mov    DWORD PTR [esp+0x8],esi
  4057da:	89 4c 24 04          	mov    DWORD PTR [esp+0x4],ecx
  4057de:	89 44 24 10          	mov    DWORD PTR [esp+0x10],eax
  4057e2:	8b 44 24 5c          	mov    eax,DWORD PTR [esp+0x5c]
  4057e6:	89 1c 24             	mov    DWORD PTR [esp],ebx
  4057e9:	89 44 24 0c          	mov    DWORD PTR [esp+0xc],eax
  4057ed:	e8 9e fc ff ff       	call   405490 <___mbrtowc_cp>
  4057f2:	85 c0                	test   eax,eax
  4057f4:	7f ca                	jg     4057c0 <_mbsrtowcs+0x110>
  4057f6:	83 c4 3c             	add    esp,0x3c
  4057f9:	89 e8                	mov    eax,ebp
  4057fb:	5b                   	pop    ebx
  4057fc:	5e                   	pop    esi
  4057fd:	5f                   	pop    edi
  4057fe:	5d                   	pop    ebp
  4057ff:	c3                   	ret    
  405800:	83 c4 3c             	add    esp,0x3c
  405803:	31 c0                	xor    eax,eax
  405805:	5b                   	pop    ebx
  405806:	5e                   	pop    esi
  405807:	5f                   	pop    edi
  405808:	5d                   	pop    ebp
  405809:	c3                   	ret    
  40580a:	8d b6 00 00 00 00    	lea    esi,[esi+0x0]
  405810:	c7 44 24 5c 74 d0 40 	mov    DWORD PTR [esp+0x5c],0x40d074
  405817:	00 
  405818:	e9 b2 fe ff ff       	jmp    4056cf <_mbsrtowcs+0x1f>
  40581d:	8d 76 00             	lea    esi,[esi+0x0]

00405820 <_mbrlen>:
  405820:	53                   	push   ebx
  405821:	31 c0                	xor    eax,eax
  405823:	83 ec 38             	sub    esp,0x38
  405826:	66 89 44 24 2e       	mov    WORD PTR [esp+0x2e],ax
  40582b:	a1 ac e1 40 00       	mov    eax,ds:0x40e1ac
  405830:	8b 18                	mov    ebx,DWORD PTR [eax]
  405832:	c7 44 24 04 00 00 00 	mov    DWORD PTR [esp+0x4],0x0
  405839:	00 
  40583a:	c7 04 24 02 00 00 00 	mov    DWORD PTR [esp],0x2
  405841:	e8 0a 27 00 00       	call   407f50 <_setlocale>
  405846:	c7 44 24 04 2e 00 00 	mov    DWORD PTR [esp+0x4],0x2e
  40584d:	00 
  40584e:	89 04 24             	mov    DWORD PTR [esp],eax
  405851:	e8 ea 26 00 00       	call   407f40 <_strchr>
  405856:	31 c9                	xor    ecx,ecx
  405858:	85 c0                	test   eax,eax
  40585a:	74 0d                	je     405869 <_mbrlen+0x49>
  40585c:	83 c0 01             	add    eax,0x1
  40585f:	89 04 24             	mov    DWORD PTR [esp],eax
  405862:	e8 51 27 00 00       	call   407fb8 <_atoi>
  405867:	89 c1                	mov    ecx,eax
  405869:	8b 54 24 48          	mov    edx,DWORD PTR [esp+0x48]
  40586d:	85 d2                	test   edx,edx
  40586f:	74 2f                	je     4058a0 <_mbrlen+0x80>
  405871:	8b 44 24 44          	mov    eax,DWORD PTR [esp+0x44]
  405875:	89 5c 24 14          	mov    DWORD PTR [esp+0x14],ebx
  405879:	89 4c 24 10          	mov    DWORD PTR [esp+0x10],ecx
  40587d:	89 54 24 0c          	mov    DWORD PTR [esp+0xc],edx
  405881:	89 44 24 08          	mov    DWORD PTR [esp+0x8],eax
  405885:	8b 44 24 40          	mov    eax,DWORD PTR [esp+0x40]
  405889:	89 44 24 04          	mov    DWORD PTR [esp+0x4],eax
  40588d:	8d 44 24 2e          	lea    eax,[esp+0x2e]
  405891:	89 04 24             	mov    DWORD PTR [esp],eax
  405894:	e8 f7 fb ff ff       	call   405490 <___mbrtowc_cp>
  405899:	83 c4 38             	add    esp,0x38
  40589c:	5b                   	pop    ebx
  40589d:	c3                   	ret    
  40589e:	66 90                	xchg   ax,ax
  4058a0:	ba 70 d0 40 00       	mov    edx,0x40d070
  4058a5:	eb ca                	jmp    405871 <_mbrlen+0x51>
  4058a7:	90                   	nop
  4058a8:	90                   	nop
  4058a9:	90                   	nop
  4058aa:	90                   	nop
  4058ab:	90                   	nop
  4058ac:	90                   	nop
  4058ad:	90                   	nop
  4058ae:	90                   	nop
  4058af:	90                   	nop

004058b0 <___wcrtomb_cp>:
  4058b0:	55                   	push   ebp
  4058b1:	89 e5                	mov    ebp,esp
  4058b3:	83 ec 48             	sub    esp,0x48
  4058b6:	8b 55 10             	mov    edx,DWORD PTR [ebp+0x10]
  4058b9:	8b 45 0c             	mov    eax,DWORD PTR [ebp+0xc]
  4058bc:	85 d2                	test   edx,edx
  4058be:	66 89 45 e4          	mov    WORD PTR [ebp-0x1c],ax
  4058c2:	75 12                	jne    4058d6 <___wcrtomb_cp+0x26>
  4058c4:	66 3d ff 00          	cmp    ax,0xff
  4058c8:	77 5d                	ja     405927 <___wcrtomb_cp+0x77>
  4058ca:	8b 4d 08             	mov    ecx,DWORD PTR [ebp+0x8]
  4058cd:	88 01                	mov    BYTE PTR [ecx],al
  4058cf:	b8 01 00 00 00       	mov    eax,0x1
  4058d4:	c9                   	leave  
  4058d5:	c3                   	ret    
  4058d6:	8d 45 f4             	lea    eax,[ebp-0xc]
  4058d9:	89 44 24 1c          	mov    DWORD PTR [esp+0x1c],eax
  4058dd:	8b 45 14             	mov    eax,DWORD PTR [ebp+0x14]
  4058e0:	c7 44 24 18 00 00 00 	mov    DWORD PTR [esp+0x18],0x0
  4058e7:	00 
  4058e8:	c7 44 24 0c 01 00 00 	mov    DWORD PTR [esp+0xc],0x1
  4058ef:	00 
  4058f0:	c7 44 24 04 00 00 00 	mov    DWORD PTR [esp+0x4],0x0
  4058f7:	00 
  4058f8:	89 44 24 14          	mov    DWORD PTR [esp+0x14],eax
  4058fc:	8b 45 08             	mov    eax,DWORD PTR [ebp+0x8]
  4058ff:	89 14 24             	mov    DWORD PTR [esp],edx
  405902:	c7 45 f4 00 00 00 00 	mov    DWORD PTR [ebp-0xc],0x0
  405909:	89 44 24 10          	mov    DWORD PTR [esp+0x10],eax
  40590d:	8d 45 e4             	lea    eax,[ebp-0x1c]
  405910:	89 44 24 08          	mov    DWORD PTR [esp+0x8],eax
  405914:	e8 e7 26 00 00       	call   408000 <_WideCharToMultiByte@32>
  405919:	83 ec 20             	sub    esp,0x20
  40591c:	85 c0                	test   eax,eax
  40591e:	74 07                	je     405927 <___wcrtomb_cp+0x77>
  405920:	8b 55 f4             	mov    edx,DWORD PTR [ebp-0xc]
  405923:	85 d2                	test   edx,edx
  405925:	74 ad                	je     4058d4 <___wcrtomb_cp+0x24>
  405927:	e8 ac 26 00 00       	call   407fd8 <__errno>
  40592c:	c7 00 2a 00 00 00    	mov    DWORD PTR [eax],0x2a
  405932:	b8 ff ff ff ff       	mov    eax,0xffffffff
  405937:	c9                   	leave  
  405938:	c3                   	ret    
  405939:	8d b4 26 00 00 00 00 	lea    esi,[esi+eiz*1+0x0]

00405940 <_wcrtomb>:
  405940:	57                   	push   edi
  405941:	56                   	push   esi
  405942:	53                   	push   ebx
  405943:	83 ec 20             	sub    esp,0x20
  405946:	8b 5c 24 30          	mov    ebx,DWORD PTR [esp+0x30]
  40594a:	8b 74 24 34          	mov    esi,DWORD PTR [esp+0x34]
  40594e:	85 db                	test   ebx,ebx
  405950:	74 5e                	je     4059b0 <_wcrtomb+0x70>
  405952:	a1 ac e1 40 00       	mov    eax,ds:0x40e1ac
  405957:	8b 38                	mov    edi,DWORD PTR [eax]
  405959:	c7 44 24 04 00 00 00 	mov    DWORD PTR [esp+0x4],0x0
  405960:	00 
  405961:	c7 04 24 02 00 00 00 	mov    DWORD PTR [esp],0x2
  405968:	e8 e3 25 00 00       	call   407f50 <_setlocale>
  40596d:	c7 44 24 04 2e 00 00 	mov    DWORD PTR [esp+0x4],0x2e
  405974:	00 
  405975:	89 04 24             	mov    DWORD PTR [esp],eax
  405978:	e8 c3 25 00 00       	call   407f40 <_strchr>
  40597d:	31 d2                	xor    edx,edx
  40597f:	85 c0                	test   eax,eax
  405981:	74 0d                	je     405990 <_wcrtomb+0x50>
  405983:	83 c0 01             	add    eax,0x1
  405986:	89 04 24             	mov    DWORD PTR [esp],eax
  405989:	e8 2a 26 00 00       	call   407fb8 <_atoi>
  40598e:	89 c2                	mov    edx,eax
  405990:	0f b7 f6             	movzx  esi,si
  405993:	89 7c 24 0c          	mov    DWORD PTR [esp+0xc],edi
  405997:	89 74 24 04          	mov    DWORD PTR [esp+0x4],esi
  40599b:	89 1c 24             	mov    DWORD PTR [esp],ebx
  40599e:	89 54 24 08          	mov    DWORD PTR [esp+0x8],edx
  4059a2:	e8 09 ff ff ff       	call   4058b0 <___wcrtomb_cp>
  4059a7:	83 c4 20             	add    esp,0x20
  4059aa:	5b                   	pop    ebx
  4059ab:	5e                   	pop    esi
  4059ac:	5f                   	pop    edi
  4059ad:	c3                   	ret    
  4059ae:	66 90                	xchg   ax,ax
  4059b0:	8d 5c 24 1e          	lea    ebx,[esp+0x1e]
  4059b4:	eb 9c                	jmp    405952 <_wcrtomb+0x12>
  4059b6:	8d 76 00             	lea    esi,[esi+0x0]
  4059b9:	8d bc 27 00 00 00 00 	lea    edi,[edi+eiz*1+0x0]

004059c0 <_wcsrtombs>:
  4059c0:	55                   	push   ebp
  4059c1:	57                   	push   edi
  4059c2:	56                   	push   esi
  4059c3:	31 f6                	xor    esi,esi
  4059c5:	53                   	push   ebx
  4059c6:	83 ec 3c             	sub    esp,0x3c
  4059c9:	c7 44 24 04 00 00 00 	mov    DWORD PTR [esp+0x4],0x0
  4059d0:	00 
  4059d1:	8b 5c 24 50          	mov    ebx,DWORD PTR [esp+0x50]
  4059d5:	c7 04 24 02 00 00 00 	mov    DWORD PTR [esp],0x2
  4059dc:	e8 6f 25 00 00       	call   407f50 <_setlocale>
  4059e1:	c7 44 24 04 2e 00 00 	mov    DWORD PTR [esp+0x4],0x2e
  4059e8:	00 
  4059e9:	89 04 24             	mov    DWORD PTR [esp],eax
  4059ec:	e8 4f 25 00 00       	call   407f40 <_strchr>
  4059f1:	85 c0                	test   eax,eax
  4059f3:	74 0d                	je     405a02 <_wcsrtombs+0x42>
  4059f5:	83 c0 01             	add    eax,0x1
  4059f8:	89 04 24             	mov    DWORD PTR [esp],eax
  4059fb:	e8 b8 25 00 00       	call   407fb8 <_atoi>
  405a00:	89 c6                	mov    esi,eax
  405a02:	a1 ac e1 40 00       	mov    eax,ds:0x40e1ac
  405a07:	8b 00                	mov    eax,DWORD PTR [eax]
  405a09:	89 44 24 1c          	mov    DWORD PTR [esp+0x1c],eax
  405a0d:	8b 44 24 54          	mov    eax,DWORD PTR [esp+0x54]
  405a11:	8b 38                	mov    edi,DWORD PTR [eax]
  405a13:	85 ff                	test   edi,edi
  405a15:	0f 84 cc 00 00 00    	je     405ae7 <_wcsrtombs+0x127>
  405a1b:	31 ed                	xor    ebp,ebp
  405a1d:	85 db                	test   ebx,ebx
  405a1f:	74 76                	je     405a97 <_wcsrtombs+0xd7>
  405a21:	8b 4c 24 58          	mov    ecx,DWORD PTR [esp+0x58]
  405a25:	85 c9                	test   ecx,ecx
  405a27:	74 49                	je     405a72 <_wcsrtombs+0xb2>
  405a29:	89 f0                	mov    eax,esi
  405a2b:	89 fe                	mov    esi,edi
  405a2d:	89 c7                	mov    edi,eax
  405a2f:	eb 13                	jmp    405a44 <_wcsrtombs+0x84>
  405a31:	01 c3                	add    ebx,eax
  405a33:	01 c5                	add    ebp,eax
  405a35:	80 7b ff 00          	cmp    BYTE PTR [ebx-0x1],0x0
  405a39:	74 47                	je     405a82 <_wcsrtombs+0xc2>
  405a3b:	83 c6 02             	add    esi,0x2
  405a3e:	39 6c 24 58          	cmp    DWORD PTR [esp+0x58],ebp
  405a42:	76 2c                	jbe    405a70 <_wcsrtombs+0xb0>
  405a44:	8b 44 24 1c          	mov    eax,DWORD PTR [esp+0x1c]
  405a48:	89 7c 24 08          	mov    DWORD PTR [esp+0x8],edi
  405a4c:	89 44 24 0c          	mov    DWORD PTR [esp+0xc],eax
  405a50:	0f b7 06             	movzx  eax,WORD PTR [esi]
  405a53:	89 1c 24             	mov    DWORD PTR [esp],ebx
  405a56:	89 44 24 04          	mov    DWORD PTR [esp+0x4],eax
  405a5a:	e8 51 fe ff ff       	call   4058b0 <___wcrtomb_cp>
  405a5f:	85 c0                	test   eax,eax
  405a61:	7f ce                	jg     405a31 <_wcsrtombs+0x71>
  405a63:	b8 ff ff ff ff       	mov    eax,0xffffffff
  405a68:	83 c4 3c             	add    esp,0x3c
  405a6b:	5b                   	pop    ebx
  405a6c:	5e                   	pop    esi
  405a6d:	5f                   	pop    edi
  405a6e:	5d                   	pop    ebp
  405a6f:	c3                   	ret    
  405a70:	89 f7                	mov    edi,esi
  405a72:	8b 44 24 54          	mov    eax,DWORD PTR [esp+0x54]
  405a76:	89 38                	mov    DWORD PTR [eax],edi
  405a78:	83 c4 3c             	add    esp,0x3c
  405a7b:	89 e8                	mov    eax,ebp
  405a7d:	5b                   	pop    ebx
  405a7e:	5e                   	pop    esi
  405a7f:	5f                   	pop    edi
  405a80:	5d                   	pop    ebp
  405a81:	c3                   	ret    
  405a82:	8b 44 24 54          	mov    eax,DWORD PTR [esp+0x54]
  405a86:	c7 00 00 00 00 00    	mov    DWORD PTR [eax],0x0
  405a8c:	83 c4 3c             	add    esp,0x3c
  405a8f:	5b                   	pop    ebx
  405a90:	8d 45 ff             	lea    eax,[ebp-0x1]
  405a93:	5e                   	pop    esi
  405a94:	5f                   	pop    edi
  405a95:	5d                   	pop    ebp
  405a96:	c3                   	ret    
  405a97:	8b 44 24 58          	mov    eax,DWORD PTR [esp+0x58]
  405a9b:	85 c0                	test   eax,eax
  405a9d:	74 63                	je     405b02 <_wcsrtombs+0x142>
  405a9f:	89 e8                	mov    eax,ebp
  405aa1:	8b 5c 24 1c          	mov    ebx,DWORD PTR [esp+0x1c]
  405aa5:	89 fd                	mov    ebp,edi
  405aa7:	89 c7                	mov    edi,eax
  405aa9:	eb 17                	jmp    405ac2 <_wcsrtombs+0x102>
  405aab:	90                   	nop
  405aac:	8d 74 26 00          	lea    esi,[esi+eiz*1+0x0]
  405ab0:	01 c7                	add    edi,eax
  405ab2:	80 7c 04 2d 00       	cmp    BYTE PTR [esp+eax*1+0x2d],0x0
  405ab7:	74 38                	je     405af1 <_wcsrtombs+0x131>
  405ab9:	83 c5 02             	add    ebp,0x2
  405abc:	39 7c 24 58          	cmp    DWORD PTR [esp+0x58],edi
  405ac0:	76 37                	jbe    405af9 <_wcsrtombs+0x139>
  405ac2:	89 5c 24 0c          	mov    DWORD PTR [esp+0xc],ebx
  405ac6:	89 74 24 08          	mov    DWORD PTR [esp+0x8],esi
  405aca:	0f b7 45 00          	movzx  eax,WORD PTR [ebp+0x0]
  405ace:	89 44 24 04          	mov    DWORD PTR [esp+0x4],eax
  405ad2:	8d 44 24 2e          	lea    eax,[esp+0x2e]
  405ad6:	89 04 24             	mov    DWORD PTR [esp],eax
  405ad9:	e8 d2 fd ff ff       	call   4058b0 <___wcrtomb_cp>
  405ade:	85 c0                	test   eax,eax
  405ae0:	7f ce                	jg     405ab0 <_wcsrtombs+0xf0>
  405ae2:	e9 7c ff ff ff       	jmp    405a63 <_wcsrtombs+0xa3>
  405ae7:	83 c4 3c             	add    esp,0x3c
  405aea:	31 c0                	xor    eax,eax
  405aec:	5b                   	pop    ebx
  405aed:	5e                   	pop    esi
  405aee:	5f                   	pop    edi
  405aef:	5d                   	pop    ebp
  405af0:	c3                   	ret    
  405af1:	8d 47 ff             	lea    eax,[edi-0x1]
  405af4:	e9 6f ff ff ff       	jmp    405a68 <_wcsrtombs+0xa8>
  405af9:	89 fd                	mov    ebp,edi
  405afb:	89 e8                	mov    eax,ebp
  405afd:	e9 66 ff ff ff       	jmp    405a68 <_wcsrtombs+0xa8>
  405b02:	89 dd                	mov    ebp,ebx
  405b04:	89 e8                	mov    eax,ebp
  405b06:	e9 5d ff ff ff       	jmp    405a68 <_wcsrtombs+0xa8>
  405b0b:	90                   	nop
  405b0c:	90                   	nop
  405b0d:	90                   	nop
  405b0e:	90                   	nop
  405b0f:	90                   	nop

00405b10 <___gdtoa>:
  405b10:	55                   	push   ebp
  405b11:	57                   	push   edi
  405b12:	56                   	push   esi
  405b13:	53                   	push   ebx
  405b14:	83 ec 6c             	sub    esp,0x6c
  405b17:	8b 84 24 8c 00 00 00 	mov    eax,DWORD PTR [esp+0x8c]
  405b1e:	8b 9c 24 8c 00 00 00 	mov    ebx,DWORD PTR [esp+0x8c]
  405b25:	8b 30                	mov    esi,DWORD PTR [eax]
  405b27:	89 f0                	mov    eax,esi
  405b29:	83 e0 cf             	and    eax,0xffffffcf
  405b2c:	89 03                	mov    DWORD PTR [ebx],eax
  405b2e:	89 f0                	mov    eax,esi
  405b30:	83 e0 07             	and    eax,0x7
  405b33:	83 f8 04             	cmp    eax,0x4
  405b36:	0f 87 5f 14 00 00    	ja     406f9b <___gdtoa+0x148b>
  405b3c:	ff 24 85 f0 a2 40 00 	jmp    DWORD PTR [eax*4+0x40a2f0]
  405b43:	8b 84 24 80 00 00 00 	mov    eax,DWORD PTR [esp+0x80]
  405b4a:	31 d2                	xor    edx,edx
  405b4c:	8b 38                	mov    edi,DWORD PTR [eax]
  405b4e:	83 ff 20             	cmp    edi,0x20
  405b51:	7e 0e                	jle    405b61 <___gdtoa+0x51>
  405b53:	b8 20 00 00 00       	mov    eax,0x20
  405b58:	01 c0                	add    eax,eax
  405b5a:	83 c2 01             	add    edx,0x1
  405b5d:	39 c7                	cmp    edi,eax
  405b5f:	7f f7                	jg     405b58 <___gdtoa+0x48>
  405b61:	89 14 24             	mov    DWORD PTR [esp],edx
  405b64:	e8 77 19 00 00       	call   4074e0 <___Balloc_D2A>
  405b69:	8b 8c 24 88 00 00 00 	mov    ecx,DWORD PTR [esp+0x88]
  405b70:	89 c3                	mov    ebx,eax
  405b72:	8d 47 ff             	lea    eax,[edi-0x1]
  405b75:	c1 f8 05             	sar    eax,0x5
  405b78:	8d 2c 81             	lea    ebp,[ecx+eax*4]
  405b7b:	8b 84 24 88 00 00 00 	mov    eax,DWORD PTR [esp+0x88]
  405b82:	8d 4b 14             	lea    ecx,[ebx+0x14]
  405b85:	89 ca                	mov    edx,ecx
  405b87:	89 4c 24 0c          	mov    DWORD PTR [esp+0xc],ecx
  405b8b:	90                   	nop
  405b8c:	8d 74 26 00          	lea    esi,[esi+eiz*1+0x0]
  405b90:	8b 08                	mov    ecx,DWORD PTR [eax]
  405b92:	83 c0 04             	add    eax,0x4
  405b95:	83 c2 04             	add    edx,0x4
  405b98:	39 c5                	cmp    ebp,eax
  405b9a:	89 4a fc             	mov    DWORD PTR [edx-0x4],ecx
  405b9d:	73 f1                	jae    405b90 <___gdtoa+0x80>
  405b9f:	8b 4c 24 0c          	mov    ecx,DWORD PTR [esp+0xc]
  405ba3:	29 ca                	sub    edx,ecx
  405ba5:	c1 fa 02             	sar    edx,0x2
  405ba8:	eb 10                	jmp    405bba <___gdtoa+0xaa>
  405baa:	8d b6 00 00 00 00    	lea    esi,[esi+0x0]
  405bb0:	85 c0                	test   eax,eax
  405bb2:	0f 84 6e 04 00 00    	je     406026 <___gdtoa+0x516>
  405bb8:	89 c2                	mov    edx,eax
  405bba:	8d 42 ff             	lea    eax,[edx-0x1]
  405bbd:	8b 2c 81             	mov    ebp,DWORD PTR [ecx+eax*4]
  405bc0:	85 ed                	test   ebp,ebp
  405bc2:	74 ec                	je     405bb0 <___gdtoa+0xa0>
  405bc4:	0f bd 44 93 10       	bsr    eax,DWORD PTR [ebx+edx*4+0x10]
  405bc9:	89 53 10             	mov    DWORD PTR [ebx+0x10],edx
  405bcc:	c1 e2 05             	shl    edx,0x5
  405bcf:	89 d5                	mov    ebp,edx
  405bd1:	83 f0 1f             	xor    eax,0x1f
  405bd4:	29 c5                	sub    ebp,eax
  405bd6:	89 1c 24             	mov    DWORD PTR [esp],ebx
  405bd9:	e8 f2 14 00 00       	call   4070d0 <___trailz_D2A>
  405bde:	8b 8c 24 84 00 00 00 	mov    ecx,DWORD PTR [esp+0x84]
  405be5:	89 4c 24 20          	mov    DWORD PTR [esp+0x20],ecx
  405be9:	85 c0                	test   eax,eax
  405beb:	89 44 24 5c          	mov    DWORD PTR [esp+0x5c],eax
  405bef:	0f 85 3f 04 00 00    	jne    406034 <___gdtoa+0x524>
  405bf5:	8b 4b 10             	mov    ecx,DWORD PTR [ebx+0x10]
  405bf8:	85 c9                	test   ecx,ecx
  405bfa:	0f 85 a8 00 00 00    	jne    405ca8 <___gdtoa+0x198>
  405c00:	89 1c 24             	mov    DWORD PTR [esp],ebx
  405c03:	e8 a8 19 00 00       	call   4075b0 <___Bfree_D2A>
  405c08:	8b 84 24 98 00 00 00 	mov    eax,DWORD PTR [esp+0x98]
  405c0f:	c7 00 01 00 00 00    	mov    DWORD PTR [eax],0x1
  405c15:	8b 84 24 9c 00 00 00 	mov    eax,DWORD PTR [esp+0x9c]
  405c1c:	c7 44 24 08 01 00 00 	mov    DWORD PTR [esp+0x8],0x1
  405c23:	00 
  405c24:	c7 04 24 ed a2 40 00 	mov    DWORD PTR [esp],0x40a2ed
  405c2b:	89 44 24 04          	mov    DWORD PTR [esp+0x4],eax
  405c2f:	e8 1c 15 00 00       	call   407150 <___nrv_alloc_D2A>
  405c34:	83 c4 6c             	add    esp,0x6c
  405c37:	5b                   	pop    ebx
  405c38:	5e                   	pop    esi
  405c39:	5f                   	pop    edi
  405c3a:	5d                   	pop    ebp
  405c3b:	c3                   	ret    
  405c3c:	8d 74 26 00          	lea    esi,[esi+eiz*1+0x0]
  405c40:	8b 84 24 98 00 00 00 	mov    eax,DWORD PTR [esp+0x98]
  405c47:	c7 00 00 80 ff ff    	mov    DWORD PTR [eax],0xffff8000
  405c4d:	8b 84 24 9c 00 00 00 	mov    eax,DWORD PTR [esp+0x9c]
  405c54:	c7 44 24 08 03 00 00 	mov    DWORD PTR [esp+0x8],0x3
  405c5b:	00 
  405c5c:	c7 04 24 e9 a2 40 00 	mov    DWORD PTR [esp],0x40a2e9
  405c63:	89 44 24 04          	mov    DWORD PTR [esp+0x4],eax
  405c67:	e8 e4 14 00 00       	call   407150 <___nrv_alloc_D2A>
  405c6c:	83 c4 6c             	add    esp,0x6c
  405c6f:	5b                   	pop    ebx
  405c70:	5e                   	pop    esi
  405c71:	5f                   	pop    edi
  405c72:	5d                   	pop    ebp
  405c73:	c3                   	ret    
  405c74:	8b 84 24 98 00 00 00 	mov    eax,DWORD PTR [esp+0x98]
  405c7b:	c7 00 00 80 ff ff    	mov    DWORD PTR [eax],0xffff8000
  405c81:	8b 84 24 9c 00 00 00 	mov    eax,DWORD PTR [esp+0x9c]
  405c88:	c7 44 24 08 08 00 00 	mov    DWORD PTR [esp+0x8],0x8
  405c8f:	00 
  405c90:	c7 04 24 e0 a2 40 00 	mov    DWORD PTR [esp],0x40a2e0
  405c97:	89 44 24 04          	mov    DWORD PTR [esp+0x4],eax
  405c9b:	e8 b0 14 00 00       	call   407150 <___nrv_alloc_D2A>
  405ca0:	83 c4 6c             	add    esp,0x6c
  405ca3:	5b                   	pop    ebx
  405ca4:	5e                   	pop    esi
  405ca5:	5f                   	pop    edi
  405ca6:	5d                   	pop    ebp
  405ca7:	c3                   	ret    
  405ca8:	8d 44 24 5c          	lea    eax,[esp+0x5c]
  405cac:	89 44 24 04          	mov    DWORD PTR [esp+0x4],eax
  405cb0:	89 1c 24             	mov    DWORD PTR [esp],ebx
  405cb3:	e8 48 20 00 00       	call   407d00 <___b2d_D2A>
  405cb8:	8b 44 24 20          	mov    eax,DWORD PTR [esp+0x20]
  405cbc:	8d 54 28 ff          	lea    edx,[eax+ebp*1-0x1]
  405cc0:	89 54 24 48          	mov    DWORD PTR [esp+0x48],edx
  405cc4:	89 d0                	mov    eax,edx
  405cc6:	dd 5c 24 10          	fstp   QWORD PTR [esp+0x10]
  405cca:	8b 4c 24 14          	mov    ecx,DWORD PTR [esp+0x14]
  405cce:	c1 f8 1f             	sar    eax,0x1f
  405cd1:	89 44 24 0c          	mov    DWORD PTR [esp+0xc],eax
  405cd5:	31 d0                	xor    eax,edx
  405cd7:	2b 44 24 0c          	sub    eax,DWORD PTR [esp+0xc]
  405cdb:	81 e1 ff ff 0f 00    	and    ecx,0xfffff
  405ce1:	81 c9 00 00 f0 3f    	or     ecx,0x3ff00000
  405ce7:	89 4c 24 14          	mov    DWORD PTR [esp+0x14],ecx
  405ceb:	2d 35 04 00 00       	sub    eax,0x435
  405cf0:	dd 44 24 10          	fld    QWORD PTR [esp+0x10]
  405cf4:	85 c0                	test   eax,eax
  405cf6:	d8 25 04 a3 40 00    	fsub   DWORD PTR ds:0x40a304
  405cfc:	dc 0d 08 a3 40 00    	fmul   QWORD PTR ds:0x40a308
  405d02:	dc 05 10 a3 40 00    	fadd   QWORD PTR ds:0x40a310
  405d08:	db 44 24 48          	fild   DWORD PTR [esp+0x48]
  405d0c:	dc 0d 18 a3 40 00    	fmul   QWORD PTR ds:0x40a318
  405d12:	de c1                	faddp  st(1),st
  405d14:	7e 10                	jle    405d26 <___gdtoa+0x216>
  405d16:	89 44 24 48          	mov    DWORD PTR [esp+0x48],eax
  405d1a:	db 44 24 48          	fild   DWORD PTR [esp+0x48]
  405d1e:	dc 0d 20 a3 40 00    	fmul   QWORD PTR ds:0x40a320
  405d24:	de c1                	faddp  st(1),st
  405d26:	d9 7c 24 4e          	fnstcw WORD PTR [esp+0x4e]
  405d2a:	0f b7 44 24 4e       	movzx  eax,WORD PTR [esp+0x4e]
  405d2f:	b4 0c                	mov    ah,0xc
  405d31:	66 89 44 24 4c       	mov    WORD PTR [esp+0x4c],ax
  405d36:	d9 6c 24 4c          	fldcw  WORD PTR [esp+0x4c]
  405d3a:	db 54 24 0c          	fist   DWORD PTR [esp+0xc]
  405d3e:	d9 6c 24 4e          	fldcw  WORD PTR [esp+0x4e]
  405d42:	d9 ee                	fldz   
  405d44:	dd e9                	fucomp st(1)
  405d46:	df e0                	fnstsw ax
  405d48:	9e                   	sahf   
  405d49:	0f 87 76 07 00 00    	ja     4064c5 <___gdtoa+0x9b5>
  405d4f:	dd d8                	fstp   st(0)
  405d51:	89 d0                	mov    eax,edx
  405d53:	c1 e0 14             	shl    eax,0x14
  405d56:	01 c8                	add    eax,ecx
  405d58:	83 7c 24 0c 16       	cmp    DWORD PTR [esp+0xc],0x16
  405d5d:	89 44 24 14          	mov    DWORD PTR [esp+0x14],eax
  405d61:	c7 44 24 34 01 00 00 	mov    DWORD PTR [esp+0x34],0x1
  405d68:	00 
  405d69:	77 29                	ja     405d94 <___gdtoa+0x284>
  405d6b:	8b 44 24 0c          	mov    eax,DWORD PTR [esp+0xc]
  405d6f:	dd 04 c5 80 a3 40 00 	fld    QWORD PTR [eax*8+0x40a380]
  405d76:	dd 44 24 10          	fld    QWORD PTR [esp+0x10]
  405d7a:	d9 c9                	fxch   st(1)
  405d7c:	da e9                	fucompp 
  405d7e:	df e0                	fnstsw ax
  405d80:	9e                   	sahf   
  405d81:	0f 86 6d 06 00 00    	jbe    4063f4 <___gdtoa+0x8e4>
  405d87:	83 6c 24 0c 01       	sub    DWORD PTR [esp+0xc],0x1
  405d8c:	c7 44 24 34 00 00 00 	mov    DWORD PTR [esp+0x34],0x0
  405d93:	00 
  405d94:	89 e8                	mov    eax,ebp
  405d96:	29 d0                	sub    eax,edx
  405d98:	83 e8 01             	sub    eax,0x1
  405d9b:	c7 44 24 28 00 00 00 	mov    DWORD PTR [esp+0x28],0x0
  405da2:	00 
  405da3:	89 44 24 1c          	mov    DWORD PTR [esp+0x1c],eax
  405da7:	0f 88 05 07 00 00    	js     4064b2 <___gdtoa+0x9a2>
  405dad:	8b 44 24 0c          	mov    eax,DWORD PTR [esp+0xc]
  405db1:	85 c0                	test   eax,eax
  405db3:	0f 88 de 06 00 00    	js     406497 <___gdtoa+0x987>
  405db9:	01 44 24 1c          	add    DWORD PTR [esp+0x1c],eax
  405dbd:	89 44 24 3c          	mov    DWORD PTR [esp+0x3c],eax
  405dc1:	c7 44 24 30 00 00 00 	mov    DWORD PTR [esp+0x30],0x0
  405dc8:	00 
  405dc9:	83 bc 24 90 00 00 00 	cmp    DWORD PTR [esp+0x90],0x9
  405dd0:	09 
  405dd1:	0f 87 81 02 00 00    	ja     406058 <___gdtoa+0x548>
  405dd7:	83 bc 24 90 00 00 00 	cmp    DWORD PTR [esp+0x90],0x5
  405dde:	05 
  405ddf:	0f 8e c0 11 00 00    	jle    406fa5 <___gdtoa+0x1495>
  405de5:	83 ac 24 90 00 00 00 	sub    DWORD PTR [esp+0x90],0x4
  405dec:	04 
  405ded:	31 c0                	xor    eax,eax
  405def:	83 bc 24 90 00 00 00 	cmp    DWORD PTR [esp+0x90],0x3
  405df6:	03 
  405df7:	0f 84 11 06 00 00    	je     40640e <___gdtoa+0x8fe>
  405dfd:	0f 8e 18 06 00 00    	jle    40641b <___gdtoa+0x90b>
  405e03:	83 bc 24 90 00 00 00 	cmp    DWORD PTR [esp+0x90],0x4
  405e0a:	04 
  405e0b:	c7 44 24 40 01 00 00 	mov    DWORD PTR [esp+0x40],0x1
  405e12:	00 
  405e13:	0f 84 18 06 00 00    	je     406431 <___gdtoa+0x921>
  405e19:	83 bc 24 90 00 00 00 	cmp    DWORD PTR [esp+0x90],0x5
  405e20:	05 
  405e21:	0f 85 3c 02 00 00    	jne    406063 <___gdtoa+0x553>
  405e27:	8b 4c 24 0c          	mov    ecx,DWORD PTR [esp+0xc]
  405e2b:	03 8c 24 94 00 00 00 	add    ecx,DWORD PTR [esp+0x94]
  405e32:	89 4c 24 44          	mov    DWORD PTR [esp+0x44],ecx
  405e36:	83 c1 01             	add    ecx,0x1
  405e39:	85 c9                	test   ecx,ecx
  405e3b:	89 4c 24 18          	mov    DWORD PTR [esp+0x18],ecx
  405e3f:	0f 8e e3 0a 00 00    	jle    406928 <___gdtoa+0xe18>
  405e45:	83 f9 0e             	cmp    ecx,0xe
  405e48:	0f 96 c2             	setbe  dl
  405e4b:	21 c2                	and    edx,eax
  405e4d:	89 c8                	mov    eax,ecx
  405e4f:	89 4c 24 5c          	mov    DWORD PTR [esp+0x5c],ecx
  405e53:	89 04 24             	mov    DWORD PTR [esp],eax
  405e56:	89 54 24 38          	mov    DWORD PTR [esp+0x38],edx
  405e5a:	e8 b1 12 00 00       	call   407110 <___rv_alloc_D2A>
  405e5f:	8b 54 24 38          	mov    edx,DWORD PTR [esp+0x38]
  405e63:	89 44 24 24          	mov    DWORD PTR [esp+0x24],eax
  405e67:	8b 84 24 80 00 00 00 	mov    eax,DWORD PTR [esp+0x80]
  405e6e:	8b 40 0c             	mov    eax,DWORD PTR [eax+0xc]
  405e71:	83 e8 01             	sub    eax,0x1
  405e74:	89 44 24 2c          	mov    DWORD PTR [esp+0x2c],eax
  405e78:	74 0f                	je     405e89 <___gdtoa+0x379>
  405e7a:	0f 88 81 05 00 00    	js     406401 <___gdtoa+0x8f1>
  405e80:	83 e6 08             	and    esi,0x8
  405e83:	0f 85 59 05 00 00    	jne    4063e2 <___gdtoa+0x8d2>
  405e89:	84 d2                	test   dl,dl
  405e8b:	90                   	nop
  405e8c:	8d 74 26 00          	lea    esi,[esi+eiz*1+0x0]
  405e90:	0f 84 70 02 00 00    	je     406106 <___gdtoa+0x5f6>
  405e96:	8b 44 24 2c          	mov    eax,DWORD PTR [esp+0x2c]
  405e9a:	0b 44 24 0c          	or     eax,DWORD PTR [esp+0xc]
  405e9e:	0f 85 62 02 00 00    	jne    406106 <___gdtoa+0x5f6>
  405ea4:	8b 44 24 34          	mov    eax,DWORD PTR [esp+0x34]
  405ea8:	c7 44 24 5c 00 00 00 	mov    DWORD PTR [esp+0x5c],0x0
  405eaf:	00 
  405eb0:	dd 44 24 10          	fld    QWORD PTR [esp+0x10]
  405eb4:	85 c0                	test   eax,eax
  405eb6:	74 0d                	je     405ec5 <___gdtoa+0x3b5>
  405eb8:	d9 e8                	fld1   
  405eba:	dd e9                	fucomp st(1)
  405ebc:	df e0                	fnstsw ax
  405ebe:	9e                   	sahf   
  405ebf:	0f 87 e7 0d 00 00    	ja     406cac <___gdtoa+0x119c>
  405ec5:	d9 c0                	fld    st(0)
  405ec7:	8b 74 24 18          	mov    esi,DWORD PTR [esp+0x18]
  405ecb:	d8 c1                	fadd   st,st(1)
  405ecd:	d8 05 3c a3 40 00    	fadd   DWORD PTR ds:0x40a33c
  405ed3:	dd 5c 24 10          	fstp   QWORD PTR [esp+0x10]
  405ed7:	81 6c 24 14 00 00 40 	sub    DWORD PTR [esp+0x14],0x3400000
  405ede:	03 
  405edf:	85 f6                	test   esi,esi
  405ee1:	0f 84 e1 01 00 00    	je     4060c8 <___gdtoa+0x5b8>
  405ee7:	8b 54 24 18          	mov    edx,DWORD PTR [esp+0x18]
  405eeb:	d9 c0                	fld    st(0)
  405eed:	c7 44 24 38 00 00 00 	mov    DWORD PTR [esp+0x38],0x0
  405ef4:	00 
  405ef5:	8b 4c 24 40          	mov    ecx,DWORD PTR [esp+0x40]
  405ef9:	85 c9                	test   ecx,ecx
  405efb:	0f 84 58 0a 00 00    	je     406959 <___gdtoa+0xe49>
  405f01:	d9 05 44 a3 40 00    	fld    DWORD PTR ds:0x40a344
  405f07:	dc 34 d5 78 a3 40 00 	fdiv   QWORD PTR [edx*8+0x40a378]
  405f0e:	d9 7c 24 4e          	fnstcw WORD PTR [esp+0x4e]
  405f12:	c7 44 24 5c 00 00 00 	mov    DWORD PTR [esp+0x5c],0x0
  405f19:	00 
  405f1a:	0f b7 44 24 4e       	movzx  eax,WORD PTR [esp+0x4e]
  405f1f:	b4 0c                	mov    ah,0xc
  405f21:	66 89 44 24 4c       	mov    WORD PTR [esp+0x4c],ax
  405f26:	8b 44 24 24          	mov    eax,DWORD PTR [esp+0x24]
  405f2a:	8d 70 01             	lea    esi,[eax+0x1]
  405f2d:	dc 64 24 10          	fsub   QWORD PTR [esp+0x10]
  405f31:	d9 c9                	fxch   st(1)
  405f33:	d9 6c 24 4c          	fldcw  WORD PTR [esp+0x4c]
  405f37:	db 54 24 48          	fist   DWORD PTR [esp+0x48]
  405f3b:	d9 6c 24 4e          	fldcw  WORD PTR [esp+0x4e]
  405f3f:	8b 4c 24 48          	mov    ecx,DWORD PTR [esp+0x48]
  405f43:	89 4c 24 48          	mov    DWORD PTR [esp+0x48],ecx
  405f47:	83 c1 30             	add    ecx,0x30
  405f4a:	db 44 24 48          	fild   DWORD PTR [esp+0x48]
  405f4e:	de e9                	fsubrp st(1),st
  405f50:	d9 c9                	fxch   st(1)
  405f52:	88 08                	mov    BYTE PTR [eax],cl
  405f54:	dd e1                	fucom  st(1)
  405f56:	df e0                	fnstsw ax
  405f58:	9e                   	sahf   
  405f59:	0f 87 9a 00 00 00    	ja     405ff9 <___gdtoa+0x4e9>
  405f5f:	d9 c1                	fld    st(1)
  405f61:	d8 2d 30 a3 40 00    	fsubr  DWORD PTR ds:0x40a330
  405f67:	d9 c9                	fxch   st(1)
  405f69:	dd e1                	fucom  st(1)
  405f6b:	df e0                	fnstsw ax
  405f6d:	dd d9                	fstp   st(1)
  405f6f:	9e                   	sahf   
  405f70:	0f 87 f1 0a 00 00    	ja     406a67 <___gdtoa+0xf57>
  405f76:	8b 44 24 5c          	mov    eax,DWORD PTR [esp+0x5c]
  405f7a:	83 c0 01             	add    eax,0x1
  405f7d:	39 c2                	cmp    edx,eax
  405f7f:	89 44 24 5c          	mov    DWORD PTR [esp+0x5c],eax
  405f83:	0f 8e 69 01 00 00    	jle    4060f2 <___gdtoa+0x5e2>
  405f89:	d9 05 34 a3 40 00    	fld    DWORD PTR ds:0x40a334
  405f8f:	eb 2e                	jmp    405fbf <___gdtoa+0x4af>
  405f91:	d9 c1                	fld    st(1)
  405f93:	d8 2d 30 a3 40 00    	fsubr  DWORD PTR ds:0x40a330
  405f99:	d9 c9                	fxch   st(1)
  405f9b:	dd e1                	fucom  st(1)
  405f9d:	df e0                	fnstsw ax
  405f9f:	dd d9                	fstp   st(1)
  405fa1:	9e                   	sahf   
  405fa2:	0f 87 c7 0a 00 00    	ja     406a6f <___gdtoa+0xf5f>
  405fa8:	8b 44 24 5c          	mov    eax,DWORD PTR [esp+0x5c]
  405fac:	83 c0 01             	add    eax,0x1
  405faf:	39 c2                	cmp    edx,eax
  405fb1:	89 44 24 5c          	mov    DWORD PTR [esp+0x5c],eax
  405fb5:	0f 8e 3d 01 00 00    	jle    4060f8 <___gdtoa+0x5e8>
  405fbb:	d9 c9                	fxch   st(1)
  405fbd:	d9 ca                	fxch   st(2)
  405fbf:	dc c9                	fmul   st(1),st
  405fc1:	83 c6 01             	add    esi,0x1
  405fc4:	dc ca                	fmul   st(2),st
  405fc6:	d9 ca                	fxch   st(2)
  405fc8:	d9 6c 24 4c          	fldcw  WORD PTR [esp+0x4c]
  405fcc:	db 54 24 48          	fist   DWORD PTR [esp+0x48]
  405fd0:	d9 6c 24 4e          	fldcw  WORD PTR [esp+0x4e]
  405fd4:	8b 44 24 48          	mov    eax,DWORD PTR [esp+0x48]
  405fd8:	89 44 24 48          	mov    DWORD PTR [esp+0x48],eax
  405fdc:	8d 48 30             	lea    ecx,[eax+0x30]
  405fdf:	db 44 24 48          	fild   DWORD PTR [esp+0x48]
  405fe3:	de e9                	fsubrp st(1),st
  405fe5:	d9 c9                	fxch   st(1)
  405fe7:	88 4e ff             	mov    BYTE PTR [esi-0x1],cl
  405fea:	dd e1                	fucom  st(1)
  405fec:	df e0                	fnstsw ax
  405fee:	9e                   	sahf   
  405fef:	76 a0                	jbe    405f91 <___gdtoa+0x481>
  405ff1:	dd d8                	fstp   st(0)
  405ff3:	dd d9                	fstp   st(1)
  405ff5:	dd d9                	fstp   st(1)
  405ff7:	eb 04                	jmp    405ffd <___gdtoa+0x4ed>
  405ff9:	dd d8                	fstp   st(0)
  405ffb:	dd d9                	fstp   st(1)
  405ffd:	d9 ee                	fldz   
  405fff:	d9 c9                	fxch   st(1)
  406001:	da e9                	fucompp 
  406003:	df e0                	fnstsw ax
  406005:	9e                   	sahf   
  406006:	8b 44 24 38          	mov    eax,DWORD PTR [esp+0x38]
  40600a:	7a 06                	jp     406012 <___gdtoa+0x502>
  40600c:	0f 84 ad 05 00 00    	je     4065bf <___gdtoa+0xaaf>
  406012:	83 c0 01             	add    eax,0x1
  406015:	89 44 24 0c          	mov    DWORD PTR [esp+0xc],eax
  406019:	c7 44 24 18 10 00 00 	mov    DWORD PTR [esp+0x18],0x10
  406020:	00 
  406021:	e9 77 03 00 00       	jmp    40639d <___gdtoa+0x88d>
  406026:	c7 43 10 00 00 00 00 	mov    DWORD PTR [ebx+0x10],0x0
  40602d:	31 ed                	xor    ebp,ebp
  40602f:	e9 a2 fb ff ff       	jmp    405bd6 <___gdtoa+0xc6>
  406034:	89 44 24 04          	mov    DWORD PTR [esp+0x4],eax
  406038:	89 1c 24             	mov    DWORD PTR [esp],ebx
  40603b:	e8 70 0f 00 00       	call   406fb0 <___rshift_D2A>
  406040:	8b 44 24 5c          	mov    eax,DWORD PTR [esp+0x5c]
  406044:	8b 8c 24 84 00 00 00 	mov    ecx,DWORD PTR [esp+0x84]
  40604b:	29 c5                	sub    ebp,eax
  40604d:	01 c1                	add    ecx,eax
  40604f:	89 4c 24 20          	mov    DWORD PTR [esp+0x20],ecx
  406053:	e9 9d fb ff ff       	jmp    405bf5 <___gdtoa+0xe5>
  406058:	c7 84 24 90 00 00 00 	mov    DWORD PTR [esp+0x90],0x0
  40605f:	00 00 00 00 
  406063:	89 7c 24 48          	mov    DWORD PTR [esp+0x48],edi
  406067:	31 d2                	xor    edx,edx
  406069:	db 44 24 48          	fild   DWORD PTR [esp+0x48]
  40606d:	dc 0d 28 a3 40 00    	fmul   QWORD PTR ds:0x40a328
  406073:	c7 44 24 40 01 00 00 	mov    DWORD PTR [esp+0x40],0x1
  40607a:	00 
  40607b:	c7 44 24 44 ff ff ff 	mov    DWORD PTR [esp+0x44],0xffffffff
  406082:	ff 
  406083:	c7 44 24 18 ff ff ff 	mov    DWORD PTR [esp+0x18],0xffffffff
  40608a:	ff 
  40608b:	c7 84 24 94 00 00 00 	mov    DWORD PTR [esp+0x94],0x0
  406092:	00 00 00 00 
  406096:	d9 6c 24 4c          	fldcw  WORD PTR [esp+0x4c]
  40609a:	db 5c 24 48          	fistp  DWORD PTR [esp+0x48]
  40609e:	d9 6c 24 4e          	fldcw  WORD PTR [esp+0x4e]
  4060a2:	8b 44 24 48          	mov    eax,DWORD PTR [esp+0x48]
  4060a6:	83 c0 03             	add    eax,0x3
  4060a9:	89 44 24 5c          	mov    DWORD PTR [esp+0x5c],eax
  4060ad:	e9 a1 fd ff ff       	jmp    405e53 <___gdtoa+0x343>
  4060b2:	d9 c0                	fld    st(0)
  4060b4:	d8 c1                	fadd   st,st(1)
  4060b6:	d8 05 3c a3 40 00    	fadd   DWORD PTR ds:0x40a33c
  4060bc:	dd 5c 24 10          	fstp   QWORD PTR [esp+0x10]
  4060c0:	81 6c 24 14 00 00 40 	sub    DWORD PTR [esp+0x14],0x3400000
  4060c7:	03 
  4060c8:	d9 c0                	fld    st(0)
  4060ca:	d8 25 40 a3 40 00    	fsub   DWORD PTR ds:0x40a340
  4060d0:	dd 44 24 10          	fld    QWORD PTR [esp+0x10]
  4060d4:	d9 c9                	fxch   st(1)
  4060d6:	dd e1                	fucom  st(1)
  4060d8:	df e0                	fnstsw ax
  4060da:	9e                   	sahf   
  4060db:	0f 87 52 09 00 00    	ja     406a33 <___gdtoa+0xf23>
  4060e1:	d9 c9                	fxch   st(1)
  4060e3:	d9 e0                	fchs   
  4060e5:	da e9                	fucompp 
  4060e7:	df e0                	fnstsw ax
  4060e9:	9e                   	sahf   
  4060ea:	0f 87 77 03 00 00    	ja     406467 <___gdtoa+0x957>
  4060f0:	eb 10                	jmp    406102 <___gdtoa+0x5f2>
  4060f2:	dd d8                	fstp   st(0)
  4060f4:	dd d8                	fstp   st(0)
  4060f6:	eb 0a                	jmp    406102 <___gdtoa+0x5f2>
  4060f8:	dd d8                	fstp   st(0)
  4060fa:	dd d8                	fstp   st(0)
  4060fc:	dd d8                	fstp   st(0)
  4060fe:	eb 02                	jmp    406102 <___gdtoa+0x5f2>
  406100:	dd d8                	fstp   st(0)
  406102:	dd 5c 24 10          	fstp   QWORD PTR [esp+0x10]
  406106:	83 7c 24 0c 0e       	cmp    DWORD PTR [esp+0xc],0xe
  40610b:	0f 8e df 01 00 00    	jle    4062f0 <___gdtoa+0x7e0>
  406111:	8b 44 24 40          	mov    eax,DWORD PTR [esp+0x40]
  406115:	85 c0                	test   eax,eax
  406117:	0f 84 c3 03 00 00    	je     4064e0 <___gdtoa+0x9d0>
  40611d:	83 bc 24 90 00 00 00 	cmp    DWORD PTR [esp+0x90],0x1
  406124:	01 
  406125:	0f 8e 93 09 00 00    	jle    406abe <___gdtoa+0xfae>
  40612b:	8b 44 24 18          	mov    eax,DWORD PTR [esp+0x18]
  40612f:	83 e8 01             	sub    eax,0x1
  406132:	39 44 24 30          	cmp    DWORD PTR [esp+0x30],eax
  406136:	0f 8c 08 08 00 00    	jl     406944 <___gdtoa+0xe34>
  40613c:	8b 7c 24 30          	mov    edi,DWORD PTR [esp+0x30]
  406140:	29 c7                	sub    edi,eax
  406142:	8b 44 24 18          	mov    eax,DWORD PTR [esp+0x18]
  406146:	85 c0                	test   eax,eax
  406148:	0f 88 15 0a 00 00    	js     406b63 <___gdtoa+0x1053>
  40614e:	8b 74 24 28          	mov    esi,DWORD PTR [esp+0x28]
  406152:	89 44 24 5c          	mov    DWORD PTR [esp+0x5c],eax
  406156:	c7 04 24 01 00 00 00 	mov    DWORD PTR [esp],0x1
  40615d:	01 44 24 28          	add    DWORD PTR [esp+0x28],eax
  406161:	01 44 24 1c          	add    DWORD PTR [esp+0x1c],eax
  406165:	e8 96 15 00 00       	call   407700 <___i2b_D2A>
  40616a:	89 44 24 20          	mov    DWORD PTR [esp+0x20],eax
  40616e:	8b 44 24 1c          	mov    eax,DWORD PTR [esp+0x1c]
  406172:	85 c0                	test   eax,eax
  406174:	7e 1e                	jle    406194 <___gdtoa+0x684>
  406176:	85 f6                	test   esi,esi
  406178:	7e 1a                	jle    406194 <___gdtoa+0x684>
  40617a:	8b 4c 24 1c          	mov    ecx,DWORD PTR [esp+0x1c]
  40617e:	39 f1                	cmp    ecx,esi
  406180:	89 c8                	mov    eax,ecx
  406182:	7e 02                	jle    406186 <___gdtoa+0x676>
  406184:	89 f0                	mov    eax,esi
  406186:	29 44 24 28          	sub    DWORD PTR [esp+0x28],eax
  40618a:	29 c6                	sub    esi,eax
  40618c:	29 44 24 1c          	sub    DWORD PTR [esp+0x1c],eax
  406190:	89 44 24 5c          	mov    DWORD PTR [esp+0x5c],eax
  406194:	8b 4c 24 30          	mov    ecx,DWORD PTR [esp+0x30]
  406198:	85 c9                	test   ecx,ecx
  40619a:	7e 4e                	jle    4061ea <___gdtoa+0x6da>
  40619c:	8b 54 24 40          	mov    edx,DWORD PTR [esp+0x40]
  4061a0:	85 d2                	test   edx,edx
  4061a2:	0f 84 dd 05 00 00    	je     406785 <___gdtoa+0xc75>
  4061a8:	85 ff                	test   edi,edi
  4061aa:	7e 32                	jle    4061de <___gdtoa+0x6ce>
  4061ac:	8b 44 24 20          	mov    eax,DWORD PTR [esp+0x20]
  4061b0:	89 7c 24 04          	mov    DWORD PTR [esp+0x4],edi
  4061b4:	89 04 24             	mov    DWORD PTR [esp],eax
  4061b7:	e8 d4 16 00 00       	call   407890 <___pow5mult_D2A>
  4061bc:	89 5c 24 04          	mov    DWORD PTR [esp+0x4],ebx
  4061c0:	89 04 24             	mov    DWORD PTR [esp],eax
  4061c3:	89 44 24 20          	mov    DWORD PTR [esp+0x20],eax
  4061c7:	e8 64 15 00 00       	call   407730 <___mult_D2A>
  4061cc:	89 1c 24             	mov    DWORD PTR [esp],ebx
  4061cf:	89 44 24 10          	mov    DWORD PTR [esp+0x10],eax
  4061d3:	e8 d8 13 00 00       	call   4075b0 <___Bfree_D2A>
  4061d8:	8b 44 24 10          	mov    eax,DWORD PTR [esp+0x10]
  4061dc:	89 c3                	mov    ebx,eax
  4061de:	8b 44 24 30          	mov    eax,DWORD PTR [esp+0x30]
  4061e2:	29 f8                	sub    eax,edi
  4061e4:	0f 85 9f 05 00 00    	jne    406789 <___gdtoa+0xc79>
  4061ea:	c7 04 24 01 00 00 00 	mov    DWORD PTR [esp],0x1
  4061f1:	e8 0a 15 00 00       	call   407700 <___i2b_D2A>
  4061f6:	89 c7                	mov    edi,eax
  4061f8:	8b 44 24 3c          	mov    eax,DWORD PTR [esp+0x3c]
  4061fc:	85 c0                	test   eax,eax
  4061fe:	7e 0e                	jle    40620e <___gdtoa+0x6fe>
  406200:	89 3c 24             	mov    DWORD PTR [esp],edi
  406203:	89 44 24 04          	mov    DWORD PTR [esp+0x4],eax
  406207:	e8 84 16 00 00       	call   407890 <___pow5mult_D2A>
  40620c:	89 c7                	mov    edi,eax
  40620e:	83 bc 24 90 00 00 00 	cmp    DWORD PTR [esp+0x90],0x1
  406215:	01 
  406216:	c7 44 24 10 00 00 00 	mov    DWORD PTR [esp+0x10],0x0
  40621d:	00 
  40621e:	0f 8e 8f 06 00 00    	jle    4068b3 <___gdtoa+0xda3>
  406224:	8b 44 24 3c          	mov    eax,DWORD PTR [esp+0x3c]
  406228:	bd 1f 00 00 00       	mov    ebp,0x1f
  40622d:	85 c0                	test   eax,eax
  40622f:	74 0b                	je     40623c <___gdtoa+0x72c>
  406231:	8b 47 10             	mov    eax,DWORD PTR [edi+0x10]
  406234:	0f bd 6c 87 10       	bsr    ebp,DWORD PTR [edi+eax*4+0x10]
  406239:	83 f5 1f             	xor    ebp,0x1f
  40623c:	2b 6c 24 1c          	sub    ebp,DWORD PTR [esp+0x1c]
  406240:	8b 54 24 28          	mov    edx,DWORD PTR [esp+0x28]
  406244:	83 ed 04             	sub    ebp,0x4
  406247:	83 e5 1f             	and    ebp,0x1f
  40624a:	01 ea                	add    edx,ebp
  40624c:	89 e8                	mov    eax,ebp
  40624e:	85 d2                	test   edx,edx
  406250:	89 6c 24 5c          	mov    DWORD PTR [esp+0x5c],ebp
  406254:	7e 12                	jle    406268 <___gdtoa+0x758>
  406256:	89 1c 24             	mov    DWORD PTR [esp],ebx
  406259:	89 54 24 04          	mov    DWORD PTR [esp+0x4],edx
  40625d:	e8 be 17 00 00       	call   407a20 <___lshift_D2A>
  406262:	89 c3                	mov    ebx,eax
  406264:	8b 44 24 5c          	mov    eax,DWORD PTR [esp+0x5c]
  406268:	03 44 24 1c          	add    eax,DWORD PTR [esp+0x1c]
  40626c:	85 c0                	test   eax,eax
  40626e:	7e 0e                	jle    40627e <___gdtoa+0x76e>
  406270:	89 3c 24             	mov    DWORD PTR [esp],edi
  406273:	89 44 24 04          	mov    DWORD PTR [esp+0x4],eax
  406277:	e8 a4 17 00 00       	call   407a20 <___lshift_D2A>
  40627c:	89 c7                	mov    edi,eax
  40627e:	8b 44 24 34          	mov    eax,DWORD PTR [esp+0x34]
  406282:	85 c0                	test   eax,eax
  406284:	0f 85 12 05 00 00    	jne    40679c <___gdtoa+0xc8c>
  40628a:	83 bc 24 90 00 00 00 	cmp    DWORD PTR [esp+0x90],0x2
  406291:	02 
  406292:	0f 8e 3b 03 00 00    	jle    4065d3 <___gdtoa+0xac3>
  406298:	8b 44 24 18          	mov    eax,DWORD PTR [esp+0x18]
  40629c:	85 c0                	test   eax,eax
  40629e:	0f 8f 2f 03 00 00    	jg     4065d3 <___gdtoa+0xac3>
  4062a4:	8b 44 24 18          	mov    eax,DWORD PTR [esp+0x18]
  4062a8:	85 c0                	test   eax,eax
  4062aa:	0f 85 c7 01 00 00    	jne    406477 <___gdtoa+0x967>
  4062b0:	89 3c 24             	mov    DWORD PTR [esp],edi
  4062b3:	c7 44 24 08 00 00 00 	mov    DWORD PTR [esp+0x8],0x0
  4062ba:	00 
  4062bb:	c7 44 24 04 05 00 00 	mov    DWORD PTR [esp+0x4],0x5
  4062c2:	00 
  4062c3:	e8 58 13 00 00       	call   407620 <___multadd_D2A>
  4062c8:	89 1c 24             	mov    DWORD PTR [esp],ebx
  4062cb:	89 44 24 04          	mov    DWORD PTR [esp+0x4],eax
  4062cf:	89 c7                	mov    edi,eax
  4062d1:	e8 5a 18 00 00       	call   407b30 <___cmp_D2A>
  4062d6:	85 c0                	test   eax,eax
  4062d8:	0f 8e 99 01 00 00    	jle    406477 <___gdtoa+0x967>
  4062de:	8b 44 24 0c          	mov    eax,DWORD PTR [esp+0xc]
  4062e2:	83 c0 02             	add    eax,0x2
  4062e5:	89 44 24 0c          	mov    DWORD PTR [esp+0xc],eax
  4062e9:	eb 72                	jmp    40635d <___gdtoa+0x84d>
  4062eb:	90                   	nop
  4062ec:	8d 74 26 00          	lea    esi,[esi+eiz*1+0x0]
  4062f0:	8b 44 24 20          	mov    eax,DWORD PTR [esp+0x20]
  4062f4:	85 c0                	test   eax,eax
  4062f6:	0f 88 15 fe ff ff    	js     406111 <___gdtoa+0x601>
  4062fc:	8b 44 24 0c          	mov    eax,DWORD PTR [esp+0xc]
  406300:	dd 04 c5 80 a3 40 00 	fld    QWORD PTR [eax*8+0x40a380]
  406307:	8b 44 24 18          	mov    eax,DWORD PTR [esp+0x18]
  40630b:	85 c0                	test   eax,eax
  40630d:	0f 8f e2 01 00 00    	jg     4064f5 <___gdtoa+0x9e5>
  406313:	8b 84 24 94 00 00 00 	mov    eax,DWORD PTR [esp+0x94]
  40631a:	c1 e8 1f             	shr    eax,0x1f
  40631d:	84 c0                	test   al,al
  40631f:	0f 84 d0 01 00 00    	je     4064f5 <___gdtoa+0x9e5>
  406325:	8b 44 24 18          	mov    eax,DWORD PTR [esp+0x18]
  406329:	85 c0                	test   eax,eax
  40632b:	0f 85 3a 01 00 00    	jne    40646b <___gdtoa+0x95b>
  406331:	d8 0d 40 a3 40 00    	fmul   DWORD PTR ds:0x40a340
  406337:	dd 44 24 10          	fld    QWORD PTR [esp+0x10]
  40633b:	d9 c9                	fxch   st(1)
  40633d:	da e9                	fucompp 
  40633f:	df e0                	fnstsw ax
  406341:	9e                   	sahf   
  406342:	0f 83 25 01 00 00    	jae    40646d <___gdtoa+0x95d>
  406348:	8b 44 24 0c          	mov    eax,DWORD PTR [esp+0xc]
  40634c:	31 ff                	xor    edi,edi
  40634e:	c7 44 24 20 00 00 00 	mov    DWORD PTR [esp+0x20],0x0
  406355:	00 
  406356:	83 c0 02             	add    eax,0x2
  406359:	89 44 24 0c          	mov    DWORD PTR [esp+0xc],eax
  40635d:	8b 44 24 24          	mov    eax,DWORD PTR [esp+0x24]
  406361:	31 d2                	xor    edx,edx
  406363:	c7 44 24 18 20 00 00 	mov    DWORD PTR [esp+0x18],0x20
  40636a:	00 
  40636b:	8d 70 01             	lea    esi,[eax+0x1]
  40636e:	c6 00 31             	mov    BYTE PTR [eax],0x31
  406371:	89 3c 24             	mov    DWORD PTR [esp],edi
  406374:	89 54 24 10          	mov    DWORD PTR [esp+0x10],edx
  406378:	e8 33 12 00 00       	call   4075b0 <___Bfree_D2A>
  40637d:	8b 44 24 20          	mov    eax,DWORD PTR [esp+0x20]
  406381:	85 c0                	test   eax,eax
  406383:	74 18                	je     40639d <___gdtoa+0x88d>
  406385:	8b 54 24 10          	mov    edx,DWORD PTR [esp+0x10]
  406389:	39 c2                	cmp    edx,eax
  40638b:	0f 85 dd 03 00 00    	jne    40676e <___gdtoa+0xc5e>
  406391:	8b 44 24 20          	mov    eax,DWORD PTR [esp+0x20]
  406395:	89 04 24             	mov    DWORD PTR [esp],eax
  406398:	e8 13 12 00 00       	call   4075b0 <___Bfree_D2A>
  40639d:	89 1c 24             	mov    DWORD PTR [esp],ebx
  4063a0:	e8 0b 12 00 00       	call   4075b0 <___Bfree_D2A>
  4063a5:	8b 84 24 98 00 00 00 	mov    eax,DWORD PTR [esp+0x98]
  4063ac:	8b 7c 24 0c          	mov    edi,DWORD PTR [esp+0xc]
  4063b0:	c6 06 00             	mov    BYTE PTR [esi],0x0
  4063b3:	89 38                	mov    DWORD PTR [eax],edi
  4063b5:	8b 84 24 9c 00 00 00 	mov    eax,DWORD PTR [esp+0x9c]
  4063bc:	85 c0                	test   eax,eax
  4063be:	74 09                	je     4063c9 <___gdtoa+0x8b9>
  4063c0:	8b 84 24 9c 00 00 00 	mov    eax,DWORD PTR [esp+0x9c]
  4063c7:	89 30                	mov    DWORD PTR [eax],esi
  4063c9:	8b 84 24 8c 00 00 00 	mov    eax,DWORD PTR [esp+0x8c]
  4063d0:	8b 7c 24 18          	mov    edi,DWORD PTR [esp+0x18]
  4063d4:	09 38                	or     DWORD PTR [eax],edi
  4063d6:	8b 44 24 24          	mov    eax,DWORD PTR [esp+0x24]
  4063da:	83 c4 6c             	add    esp,0x6c
  4063dd:	5b                   	pop    ebx
  4063de:	5e                   	pop    esi
  4063df:	5f                   	pop    edi
  4063e0:	5d                   	pop    ebp
  4063e1:	c3                   	ret    
  4063e2:	b8 03 00 00 00       	mov    eax,0x3
  4063e7:	2b 44 24 2c          	sub    eax,DWORD PTR [esp+0x2c]
  4063eb:	89 44 24 2c          	mov    DWORD PTR [esp+0x2c],eax
  4063ef:	e9 95 fa ff ff       	jmp    405e89 <___gdtoa+0x379>
  4063f4:	c7 44 24 34 00 00 00 	mov    DWORD PTR [esp+0x34],0x0
  4063fb:	00 
  4063fc:	e9 93 f9 ff ff       	jmp    405d94 <___gdtoa+0x284>
  406401:	c7 44 24 2c 02 00 00 	mov    DWORD PTR [esp+0x2c],0x2
  406408:	00 
  406409:	e9 72 fa ff ff       	jmp    405e80 <___gdtoa+0x370>
  40640e:	c7 44 24 40 00 00 00 	mov    DWORD PTR [esp+0x40],0x0
  406415:	00 
  406416:	e9 0c fa ff ff       	jmp    405e27 <___gdtoa+0x317>
  40641b:	83 bc 24 90 00 00 00 	cmp    DWORD PTR [esp+0x90],0x2
  406422:	02 
  406423:	c7 44 24 40 00 00 00 	mov    DWORD PTR [esp+0x40],0x0
  40642a:	00 
  40642b:	0f 85 32 fc ff ff    	jne    406063 <___gdtoa+0x553>
  406431:	8b 94 24 94 00 00 00 	mov    edx,DWORD PTR [esp+0x94]
  406438:	85 d2                	test   edx,edx
  40643a:	0f 8e d3 04 00 00    	jle    406913 <___gdtoa+0xe03>
  406440:	83 bc 24 94 00 00 00 	cmp    DWORD PTR [esp+0x94],0xe
  406447:	0e 
  406448:	0f 96 c2             	setbe  dl
  40644b:	8b 8c 24 94 00 00 00 	mov    ecx,DWORD PTR [esp+0x94]
  406452:	21 c2                	and    edx,eax
  406454:	89 4c 24 5c          	mov    DWORD PTR [esp+0x5c],ecx
  406458:	89 c8                	mov    eax,ecx
  40645a:	89 4c 24 44          	mov    DWORD PTR [esp+0x44],ecx
  40645e:	89 4c 24 18          	mov    DWORD PTR [esp+0x18],ecx
  406462:	e9 ec f9 ff ff       	jmp    405e53 <___gdtoa+0x343>
  406467:	dd d8                	fstp   st(0)
  406469:	eb 02                	jmp    40646d <___gdtoa+0x95d>
  40646b:	dd d8                	fstp   st(0)
  40646d:	31 ff                	xor    edi,edi
  40646f:	c7 44 24 20 00 00 00 	mov    DWORD PTR [esp+0x20],0x0
  406476:	00 
  406477:	8b 84 24 94 00 00 00 	mov    eax,DWORD PTR [esp+0x94]
  40647e:	31 d2                	xor    edx,edx
  406480:	8b 74 24 24          	mov    esi,DWORD PTR [esp+0x24]
  406484:	c7 44 24 18 10 00 00 	mov    DWORD PTR [esp+0x18],0x10
  40648b:	00 
  40648c:	f7 d8                	neg    eax
  40648e:	89 44 24 0c          	mov    DWORD PTR [esp+0xc],eax
  406492:	e9 da fe ff ff       	jmp    406371 <___gdtoa+0x861>
  406497:	8b 44 24 0c          	mov    eax,DWORD PTR [esp+0xc]
  40649b:	29 44 24 28          	sub    DWORD PTR [esp+0x28],eax
  40649f:	c7 44 24 3c 00 00 00 	mov    DWORD PTR [esp+0x3c],0x0
  4064a6:	00 
  4064a7:	f7 d8                	neg    eax
  4064a9:	89 44 24 30          	mov    DWORD PTR [esp+0x30],eax
  4064ad:	e9 17 f9 ff ff       	jmp    405dc9 <___gdtoa+0x2b9>
  4064b2:	f7 d8                	neg    eax
  4064b4:	89 44 24 28          	mov    DWORD PTR [esp+0x28],eax
  4064b8:	c7 44 24 1c 00 00 00 	mov    DWORD PTR [esp+0x1c],0x0
  4064bf:	00 
  4064c0:	e9 e8 f8 ff ff       	jmp    405dad <___gdtoa+0x29d>
  4064c5:	db 44 24 0c          	fild   DWORD PTR [esp+0xc]
  4064c9:	da e9                	fucompp 
  4064cb:	df e0                	fnstsw ax
  4064cd:	9e                   	sahf   
  4064ce:	7a 06                	jp     4064d6 <___gdtoa+0x9c6>
  4064d0:	0f 84 7b f8 ff ff    	je     405d51 <___gdtoa+0x241>
  4064d6:	83 6c 24 0c 01       	sub    DWORD PTR [esp+0xc],0x1
  4064db:	e9 71 f8 ff ff       	jmp    405d51 <___gdtoa+0x241>
  4064e0:	8b 7c 24 30          	mov    edi,DWORD PTR [esp+0x30]
  4064e4:	8b 74 24 28          	mov    esi,DWORD PTR [esp+0x28]
  4064e8:	c7 44 24 20 00 00 00 	mov    DWORD PTR [esp+0x20],0x0
  4064ef:	00 
  4064f0:	e9 79 fc ff ff       	jmp    40616e <___gdtoa+0x65e>
  4064f5:	dd 44 24 10          	fld    QWORD PTR [esp+0x10]
  4064f9:	d9 c0                	fld    st(0)
  4064fb:	8b 7c 24 24          	mov    edi,DWORD PTR [esp+0x24]
  4064ff:	d8 f2                	fdiv   st,st(2)
  406501:	d9 7c 24 4e          	fnstcw WORD PTR [esp+0x4e]
  406505:	c7 44 24 5c 01 00 00 	mov    DWORD PTR [esp+0x5c],0x1
  40650c:	00 
  40650d:	8d 77 01             	lea    esi,[edi+0x1]
  406510:	0f b7 44 24 4e       	movzx  eax,WORD PTR [esp+0x4e]
  406515:	b4 0c                	mov    ah,0xc
  406517:	66 89 44 24 4c       	mov    WORD PTR [esp+0x4c],ax
  40651c:	d9 6c 24 4c          	fldcw  WORD PTR [esp+0x4c]
  406520:	db 5c 24 48          	fistp  DWORD PTR [esp+0x48]
  406524:	d9 6c 24 4e          	fldcw  WORD PTR [esp+0x4e]
  406528:	8b 4c 24 48          	mov    ecx,DWORD PTR [esp+0x48]
  40652c:	89 4c 24 48          	mov    DWORD PTR [esp+0x48],ecx
  406530:	8d 41 30             	lea    eax,[ecx+0x30]
  406533:	db 44 24 48          	fild   DWORD PTR [esp+0x48]
  406537:	d8 ca                	fmul   st,st(2)
  406539:	88 07                	mov    BYTE PTR [edi],al
  40653b:	de e9                	fsubrp st(1),st
  40653d:	d9 ee                	fldz   
  40653f:	d9 c9                	fxch   st(1)
  406541:	dd e1                	fucom  st(1)
  406543:	df e0                	fnstsw ax
  406545:	dd d9                	fstp   st(1)
  406547:	9e                   	sahf   
  406548:	0f 8b 52 09 00 00    	jnp    406ea0 <___gdtoa+0x1390>
  40654e:	8b 44 24 5c          	mov    eax,DWORD PTR [esp+0x5c]
  406552:	39 44 24 18          	cmp    DWORD PTR [esp+0x18],eax
  406556:	0f 84 93 03 00 00    	je     4068ef <___gdtoa+0xddf>
  40655c:	d9 05 34 a3 40 00    	fld    DWORD PTR ds:0x40a334
  406562:	8b 54 24 18          	mov    edx,DWORD PTR [esp+0x18]
  406566:	eb 0c                	jmp    406574 <___gdtoa+0xa64>
  406568:	8b 44 24 5c          	mov    eax,DWORD PTR [esp+0x5c]
  40656c:	39 c2                	cmp    edx,eax
  40656e:	0f 84 79 03 00 00    	je     4068ed <___gdtoa+0xddd>
  406574:	83 c0 01             	add    eax,0x1
  406577:	dc c9                	fmul   st(1),st
  406579:	83 c6 01             	add    esi,0x1
  40657c:	89 44 24 5c          	mov    DWORD PTR [esp+0x5c],eax
  406580:	d9 c1                	fld    st(1)
  406582:	d8 f3                	fdiv   st,st(3)
  406584:	d9 6c 24 4c          	fldcw  WORD PTR [esp+0x4c]
  406588:	db 5c 24 48          	fistp  DWORD PTR [esp+0x48]
  40658c:	d9 6c 24 4e          	fldcw  WORD PTR [esp+0x4e]
  406590:	8b 4c 24 48          	mov    ecx,DWORD PTR [esp+0x48]
  406594:	89 4c 24 48          	mov    DWORD PTR [esp+0x48],ecx
  406598:	8d 41 30             	lea    eax,[ecx+0x30]
  40659b:	db 44 24 48          	fild   DWORD PTR [esp+0x48]
  40659f:	d8 cb                	fmul   st,st(3)
  4065a1:	88 46 ff             	mov    BYTE PTR [esi-0x1],al
  4065a4:	de ea                	fsubrp st(2),st
  4065a6:	d9 ee                	fldz   
  4065a8:	d9 ca                	fxch   st(2)
  4065aa:	dd e2                	fucom  st(2)
  4065ac:	df e0                	fnstsw ax
  4065ae:	dd da                	fstp   st(2)
  4065b0:	9e                   	sahf   
  4065b1:	7a b5                	jp     406568 <___gdtoa+0xa58>
  4065b3:	75 b3                	jne    406568 <___gdtoa+0xa58>
  4065b5:	dd d8                	fstp   st(0)
  4065b7:	dd d8                	fstp   st(0)
  4065b9:	dd d8                	fstp   st(0)
  4065bb:	8b 44 24 0c          	mov    eax,DWORD PTR [esp+0xc]
  4065bf:	83 c0 01             	add    eax,0x1
  4065c2:	89 44 24 0c          	mov    DWORD PTR [esp+0xc],eax
  4065c6:	c7 44 24 18 00 00 00 	mov    DWORD PTR [esp+0x18],0x0
  4065cd:	00 
  4065ce:	e9 ca fd ff ff       	jmp    40639d <___gdtoa+0x88d>
  4065d3:	8b 44 24 40          	mov    eax,DWORD PTR [esp+0x40]
  4065d7:	85 c0                	test   eax,eax
  4065d9:	0f 84 19 02 00 00    	je     4067f8 <___gdtoa+0xce8>
  4065df:	8d 04 2e             	lea    eax,[esi+ebp*1]
  4065e2:	85 c0                	test   eax,eax
  4065e4:	7e 14                	jle    4065fa <___gdtoa+0xaea>
  4065e6:	89 44 24 04          	mov    DWORD PTR [esp+0x4],eax
  4065ea:	8b 44 24 20          	mov    eax,DWORD PTR [esp+0x20]
  4065ee:	89 04 24             	mov    DWORD PTR [esp],eax
  4065f1:	e8 2a 14 00 00       	call   407a20 <___lshift_D2A>
  4065f6:	89 44 24 20          	mov    DWORD PTR [esp+0x20],eax
  4065fa:	8b 74 24 10          	mov    esi,DWORD PTR [esp+0x10]
  4065fe:	8b 6c 24 20          	mov    ebp,DWORD PTR [esp+0x20]
  406602:	85 f6                	test   esi,esi
  406604:	0f 85 e9 06 00 00    	jne    406cf3 <___gdtoa+0x11e3>
  40660a:	8b 74 24 24          	mov    esi,DWORD PTR [esp+0x24]
  40660e:	89 7c 24 1c          	mov    DWORD PTR [esp+0x1c],edi
  406612:	8b 7c 24 20          	mov    edi,DWORD PTR [esp+0x20]
  406616:	c7 44 24 5c 01 00 00 	mov    DWORD PTR [esp+0x5c],0x1
  40661d:	00 
  40661e:	89 74 24 28          	mov    DWORD PTR [esp+0x28],esi
  406622:	e9 d6 00 00 00       	jmp    4066fd <___gdtoa+0xbed>
  406627:	89 14 24             	mov    DWORD PTR [esp],edx
  40662a:	89 44 24 20          	mov    DWORD PTR [esp+0x20],eax
  40662e:	e8 7d 0f 00 00       	call   4075b0 <___Bfree_D2A>
  406633:	8b 44 24 20          	mov    eax,DWORD PTR [esp+0x20]
  406637:	89 c1                	mov    ecx,eax
  406639:	0b 8c 24 90 00 00 00 	or     ecx,DWORD PTR [esp+0x90]
  406640:	75 18                	jne    40665a <___gdtoa+0xb4a>
  406642:	8b 8c 24 88 00 00 00 	mov    ecx,DWORD PTR [esp+0x88]
  406649:	f6 01 01             	test   BYTE PTR [ecx],0x1
  40664c:	75 0c                	jne    40665a <___gdtoa+0xb4a>
  40664e:	8b 54 24 2c          	mov    edx,DWORD PTR [esp+0x2c]
  406652:	85 d2                	test   edx,edx
  406654:	0f 84 55 08 00 00    	je     406eaf <___gdtoa+0x139f>
  40665a:	85 f6                	test   esi,esi
  40665c:	0f 88 18 05 00 00    	js     406b7a <___gdtoa+0x106a>
  406662:	0b b4 24 90 00 00 00 	or     esi,DWORD PTR [esp+0x90]
  406669:	75 10                	jne    40667b <___gdtoa+0xb6b>
  40666b:	8b b4 24 88 00 00 00 	mov    esi,DWORD PTR [esp+0x88]
  406672:	f6 06 01             	test   BYTE PTR [esi],0x1
  406675:	0f 84 ff 04 00 00    	je     406b7a <___gdtoa+0x106a>
  40667b:	85 c0                	test   eax,eax
  40667d:	0f 8f c9 06 00 00    	jg     406d4c <___gdtoa+0x123c>
  406683:	83 44 24 28 01       	add    DWORD PTR [esp+0x28],0x1
  406688:	0f b6 44 24 10       	movzx  eax,BYTE PTR [esp+0x10]
  40668d:	8b 74 24 28          	mov    esi,DWORD PTR [esp+0x28]
  406691:	88 46 ff             	mov    BYTE PTR [esi-0x1],al
  406694:	8b 44 24 18          	mov    eax,DWORD PTR [esp+0x18]
  406698:	39 44 24 5c          	cmp    DWORD PTR [esp+0x5c],eax
  40669c:	0f 84 97 06 00 00    	je     406d39 <___gdtoa+0x1229>
  4066a2:	89 1c 24             	mov    DWORD PTR [esp],ebx
  4066a5:	c7 44 24 08 00 00 00 	mov    DWORD PTR [esp+0x8],0x0
  4066ac:	00 
  4066ad:	c7 44 24 04 0a 00 00 	mov    DWORD PTR [esp+0x4],0xa
  4066b4:	00 
  4066b5:	e8 66 0f 00 00       	call   407620 <___multadd_D2A>
  4066ba:	39 ef                	cmp    edi,ebp
  4066bc:	c7 44 24 08 00 00 00 	mov    DWORD PTR [esp+0x8],0x0
  4066c3:	00 
  4066c4:	c7 44 24 04 0a 00 00 	mov    DWORD PTR [esp+0x4],0xa
  4066cb:	00 
  4066cc:	89 3c 24             	mov    DWORD PTR [esp],edi
  4066cf:	89 c3                	mov    ebx,eax
  4066d1:	0f 84 8c 00 00 00    	je     406763 <___gdtoa+0xc53>
  4066d7:	e8 44 0f 00 00       	call   407620 <___multadd_D2A>
  4066dc:	89 2c 24             	mov    DWORD PTR [esp],ebp
  4066df:	c7 44 24 08 00 00 00 	mov    DWORD PTR [esp+0x8],0x0
  4066e6:	00 
  4066e7:	c7 44 24 04 0a 00 00 	mov    DWORD PTR [esp+0x4],0xa
  4066ee:	00 
  4066ef:	89 c7                	mov    edi,eax
  4066f1:	e8 2a 0f 00 00       	call   407620 <___multadd_D2A>
  4066f6:	89 c5                	mov    ebp,eax
  4066f8:	83 44 24 5c 01       	add    DWORD PTR [esp+0x5c],0x1
  4066fd:	8b 44 24 1c          	mov    eax,DWORD PTR [esp+0x1c]
  406701:	89 1c 24             	mov    DWORD PTR [esp],ebx
  406704:	89 44 24 04          	mov    DWORD PTR [esp+0x4],eax
  406708:	e8 b3 0a 00 00       	call   4071c0 <___quorem_D2A>
  40670d:	89 7c 24 04          	mov    DWORD PTR [esp+0x4],edi
  406711:	89 1c 24             	mov    DWORD PTR [esp],ebx
  406714:	89 c6                	mov    esi,eax
  406716:	83 c6 30             	add    esi,0x30
  406719:	89 74 24 10          	mov    DWORD PTR [esp+0x10],esi
  40671d:	89 44 24 30          	mov    DWORD PTR [esp+0x30],eax
  406721:	e8 0a 14 00 00       	call   407b30 <___cmp_D2A>
  406726:	89 6c 24 04          	mov    DWORD PTR [esp+0x4],ebp
  40672a:	89 c6                	mov    esi,eax
  40672c:	8b 44 24 1c          	mov    eax,DWORD PTR [esp+0x1c]
  406730:	89 04 24             	mov    DWORD PTR [esp],eax
  406733:	e8 48 14 00 00       	call   407b80 <___diff_D2A>
  406738:	89 c2                	mov    edx,eax
  40673a:	b8 01 00 00 00       	mov    eax,0x1
  40673f:	8b 4a 0c             	mov    ecx,DWORD PTR [edx+0xc]
  406742:	85 c9                	test   ecx,ecx
  406744:	0f 85 dd fe ff ff    	jne    406627 <___gdtoa+0xb17>
  40674a:	89 54 24 04          	mov    DWORD PTR [esp+0x4],edx
  40674e:	89 1c 24             	mov    DWORD PTR [esp],ebx
  406751:	89 54 24 20          	mov    DWORD PTR [esp+0x20],edx
  406755:	e8 d6 13 00 00       	call   407b30 <___cmp_D2A>
  40675a:	8b 54 24 20          	mov    edx,DWORD PTR [esp+0x20]
  40675e:	e9 c4 fe ff ff       	jmp    406627 <___gdtoa+0xb17>
  406763:	e8 b8 0e 00 00       	call   407620 <___multadd_D2A>
  406768:	89 c7                	mov    edi,eax
  40676a:	89 c5                	mov    ebp,eax
  40676c:	eb 8a                	jmp    4066f8 <___gdtoa+0xbe8>
  40676e:	85 d2                	test   edx,edx
  406770:	0f 84 1b fc ff ff    	je     406391 <___gdtoa+0x881>
  406776:	89 14 24             	mov    DWORD PTR [esp],edx
  406779:	e8 32 0e 00 00       	call   4075b0 <___Bfree_D2A>
  40677e:	66 90                	xchg   ax,ax
  406780:	e9 0c fc ff ff       	jmp    406391 <___gdtoa+0x881>
  406785:	8b 44 24 30          	mov    eax,DWORD PTR [esp+0x30]
  406789:	89 1c 24             	mov    DWORD PTR [esp],ebx
  40678c:	89 44 24 04          	mov    DWORD PTR [esp+0x4],eax
  406790:	e8 fb 10 00 00       	call   407890 <___pow5mult_D2A>
  406795:	89 c3                	mov    ebx,eax
  406797:	e9 4e fa ff ff       	jmp    4061ea <___gdtoa+0x6da>
  40679c:	89 7c 24 04          	mov    DWORD PTR [esp+0x4],edi
  4067a0:	89 1c 24             	mov    DWORD PTR [esp],ebx
  4067a3:	e8 88 13 00 00       	call   407b30 <___cmp_D2A>
  4067a8:	85 c0                	test   eax,eax
  4067aa:	0f 89 da fa ff ff    	jns    40628a <___gdtoa+0x77a>
  4067b0:	89 1c 24             	mov    DWORD PTR [esp],ebx
  4067b3:	c7 44 24 08 00 00 00 	mov    DWORD PTR [esp+0x8],0x0
  4067ba:	00 
  4067bb:	c7 44 24 04 0a 00 00 	mov    DWORD PTR [esp+0x4],0xa
  4067c2:	00 
  4067c3:	83 6c 24 0c 01       	sub    DWORD PTR [esp+0xc],0x1
  4067c8:	e8 53 0e 00 00       	call   407620 <___multadd_D2A>
  4067cd:	89 c3                	mov    ebx,eax
  4067cf:	8b 44 24 40          	mov    eax,DWORD PTR [esp+0x40]
  4067d3:	85 c0                	test   eax,eax
  4067d5:	0f 85 24 07 00 00    	jne    406eff <___gdtoa+0x13ef>
  4067db:	83 bc 24 90 00 00 00 	cmp    DWORD PTR [esp+0x90],0x2
  4067e2:	02 
  4067e3:	8b 44 24 44          	mov    eax,DWORD PTR [esp+0x44]
  4067e7:	7e 0b                	jle    4067f4 <___gdtoa+0xce4>
  4067e9:	83 7c 24 44 00       	cmp    DWORD PTR [esp+0x44],0x0
  4067ee:	0f 8e 86 07 00 00    	jle    406f7a <___gdtoa+0x146a>
  4067f4:	89 44 24 18          	mov    DWORD PTR [esp+0x18],eax
  4067f8:	c7 44 24 5c 01 00 00 	mov    DWORD PTR [esp+0x5c],0x1
  4067ff:	00 
  406800:	8b 74 24 24          	mov    esi,DWORD PTR [esp+0x24]
  406804:	8b 6c 24 18          	mov    ebp,DWORD PTR [esp+0x18]
  406808:	eb 25                	jmp    40682f <___gdtoa+0xd1f>
  40680a:	8d b6 00 00 00 00    	lea    esi,[esi+0x0]
  406810:	89 1c 24             	mov    DWORD PTR [esp],ebx
  406813:	c7 44 24 08 00 00 00 	mov    DWORD PTR [esp+0x8],0x0
  40681a:	00 
  40681b:	c7 44 24 04 0a 00 00 	mov    DWORD PTR [esp+0x4],0xa
  406822:	00 
  406823:	e8 f8 0d 00 00       	call   407620 <___multadd_D2A>
  406828:	83 44 24 5c 01       	add    DWORD PTR [esp+0x5c],0x1
  40682d:	89 c3                	mov    ebx,eax
  40682f:	89 7c 24 04          	mov    DWORD PTR [esp+0x4],edi
  406833:	83 c6 01             	add    esi,0x1
  406836:	89 1c 24             	mov    DWORD PTR [esp],ebx
  406839:	e8 82 09 00 00       	call   4071c0 <___quorem_D2A>
  40683e:	83 c0 30             	add    eax,0x30
  406841:	88 46 ff             	mov    BYTE PTR [esi-0x1],al
  406844:	3b 6c 24 5c          	cmp    ebp,DWORD PTR [esp+0x5c]
  406848:	7f c6                	jg     406810 <___gdtoa+0xd00>
  40684a:	89 44 24 10          	mov    DWORD PTR [esp+0x10],eax
  40684e:	31 d2                	xor    edx,edx
  406850:	8b 44 24 2c          	mov    eax,DWORD PTR [esp+0x2c]
  406854:	85 c0                	test   eax,eax
  406856:	0f 84 e5 03 00 00    	je     406c41 <___gdtoa+0x1131>
  40685c:	83 f8 02             	cmp    eax,0x2
  40685f:	0f 84 18 04 00 00    	je     406c7d <___gdtoa+0x116d>
  406865:	83 7b 10 01          	cmp    DWORD PTR [ebx+0x10],0x1
  406869:	0f 8e cb 05 00 00    	jle    406e3a <___gdtoa+0x132a>
  40686f:	0f b6 4e ff          	movzx  ecx,BYTE PTR [esi-0x1]
  406873:	8b 6c 24 24          	mov    ebp,DWORD PTR [esp+0x24]
  406877:	eb 15                	jmp    40688e <___gdtoa+0xd7e>
  406879:	8d b4 26 00 00 00 00 	lea    esi,[esi+eiz*1+0x0]
  406880:	39 e8                	cmp    eax,ebp
  406882:	0f 84 a6 02 00 00    	je     406b2e <___gdtoa+0x101e>
  406888:	0f b6 48 ff          	movzx  ecx,BYTE PTR [eax-0x1]
  40688c:	89 c6                	mov    esi,eax
  40688e:	80 f9 39             	cmp    cl,0x39
  406891:	8d 46 ff             	lea    eax,[esi-0x1]
  406894:	74 ea                	je     406880 <___gdtoa+0xd70>
  406896:	83 c1 01             	add    ecx,0x1
  406899:	88 08                	mov    BYTE PTR [eax],cl
  40689b:	8b 44 24 0c          	mov    eax,DWORD PTR [esp+0xc]
  40689f:	c7 44 24 18 20 00 00 	mov    DWORD PTR [esp+0x18],0x20
  4068a6:	00 
  4068a7:	83 c0 01             	add    eax,0x1
  4068aa:	89 44 24 0c          	mov    DWORD PTR [esp+0xc],eax
  4068ae:	e9 be fa ff ff       	jmp    406371 <___gdtoa+0x861>
  4068b3:	83 fd 01             	cmp    ebp,0x1
  4068b6:	0f 85 68 f9 ff ff    	jne    406224 <___gdtoa+0x714>
  4068bc:	8b 84 24 80 00 00 00 	mov    eax,DWORD PTR [esp+0x80]
  4068c3:	8b 40 04             	mov    eax,DWORD PTR [eax+0x4]
  4068c6:	83 c0 01             	add    eax,0x1
  4068c9:	39 84 24 84 00 00 00 	cmp    DWORD PTR [esp+0x84],eax
  4068d0:	0f 8e 4e f9 ff ff    	jle    406224 <___gdtoa+0x714>
  4068d6:	83 44 24 28 01       	add    DWORD PTR [esp+0x28],0x1
  4068db:	83 44 24 1c 01       	add    DWORD PTR [esp+0x1c],0x1
  4068e0:	c7 44 24 10 01 00 00 	mov    DWORD PTR [esp+0x10],0x1
  4068e7:	00 
  4068e8:	e9 37 f9 ff ff       	jmp    406224 <___gdtoa+0x714>
  4068ed:	dd d8                	fstp   st(0)
  4068ef:	8b 44 24 2c          	mov    eax,DWORD PTR [esp+0x2c]
  4068f3:	85 c0                	test   eax,eax
  4068f5:	0f 84 fe 01 00 00    	je     406af9 <___gdtoa+0xfe9>
  4068fb:	dd d8                	fstp   st(0)
  4068fd:	dd d8                	fstp   st(0)
  4068ff:	83 7c 24 2c 01       	cmp    DWORD PTR [esp+0x2c],0x1
  406904:	0f 84 22 03 00 00    	je     406c2c <___gdtoa+0x111c>
  40690a:	8b 44 24 0c          	mov    eax,DWORD PTR [esp+0xc]
  40690e:	e9 ff f6 ff ff       	jmp    406012 <___gdtoa+0x502>
  406913:	ba 01 00 00 00       	mov    edx,0x1
  406918:	c7 84 24 94 00 00 00 	mov    DWORD PTR [esp+0x94],0x1
  40691f:	01 00 00 00 
  406923:	e9 23 fb ff ff       	jmp    40644b <___gdtoa+0x93b>
  406928:	83 7c 24 18 0e       	cmp    DWORD PTR [esp+0x18],0xe
  40692d:	c7 44 24 5c 01 00 00 	mov    DWORD PTR [esp+0x5c],0x1
  406934:	00 
  406935:	0f 96 c2             	setbe  dl
  406938:	21 c2                	and    edx,eax
  40693a:	b8 01 00 00 00       	mov    eax,0x1
  40693f:	e9 0f f5 ff ff       	jmp    405e53 <___gdtoa+0x343>
  406944:	89 c2                	mov    edx,eax
  406946:	31 ff                	xor    edi,edi
  406948:	2b 54 24 30          	sub    edx,DWORD PTR [esp+0x30]
  40694c:	89 44 24 30          	mov    DWORD PTR [esp+0x30],eax
  406950:	01 54 24 3c          	add    DWORD PTR [esp+0x3c],edx
  406954:	e9 e9 f7 ff ff       	jmp    406142 <___gdtoa+0x632>
  406959:	d9 7c 24 4e          	fnstcw WORD PTR [esp+0x4e]
  40695d:	dd 44 24 10          	fld    QWORD PTR [esp+0x10]
  406961:	dc 0c d5 78 a3 40 00 	fmul   QWORD PTR [edx*8+0x40a378]
  406968:	c7 44 24 5c 01 00 00 	mov    DWORD PTR [esp+0x5c],0x1
  40696f:	00 
  406970:	8b 74 24 24          	mov    esi,DWORD PTR [esp+0x24]
  406974:	0f b7 44 24 4e       	movzx  eax,WORD PTR [esp+0x4e]
  406979:	b4 0c                	mov    ah,0xc
  40697b:	d9 05 34 a3 40 00    	fld    DWORD PTR ds:0x40a334
  406981:	d9 ca                	fxch   st(2)
  406983:	66 89 44 24 4c       	mov    WORD PTR [esp+0x4c],ax
  406988:	eb 0f                	jmp    406999 <___gdtoa+0xe89>
  40698a:	8d b6 00 00 00 00    	lea    esi,[esi+0x0]
  406990:	d8 ca                	fmul   st,st(2)
  406992:	83 c0 01             	add    eax,0x1
  406995:	89 44 24 5c          	mov    DWORD PTR [esp+0x5c],eax
  406999:	d9 6c 24 4c          	fldcw  WORD PTR [esp+0x4c]
  40699d:	db 54 24 48          	fist   DWORD PTR [esp+0x48]
  4069a1:	d9 6c 24 4e          	fldcw  WORD PTR [esp+0x4e]
  4069a5:	8b 44 24 48          	mov    eax,DWORD PTR [esp+0x48]
  4069a9:	85 c0                	test   eax,eax
  4069ab:	74 0a                	je     4069b7 <___gdtoa+0xea7>
  4069ad:	89 44 24 48          	mov    DWORD PTR [esp+0x48],eax
  4069b1:	db 44 24 48          	fild   DWORD PTR [esp+0x48]
  4069b5:	de e9                	fsubrp st(1),st
  4069b7:	83 c6 01             	add    esi,0x1
  4069ba:	8d 48 30             	lea    ecx,[eax+0x30]
  4069bd:	88 4e ff             	mov    BYTE PTR [esi-0x1],cl
  4069c0:	8b 44 24 5c          	mov    eax,DWORD PTR [esp+0x5c]
  4069c4:	39 d0                	cmp    eax,edx
  4069c6:	75 c8                	jne    406990 <___gdtoa+0xe80>
  4069c8:	dd da                	fstp   st(2)
  4069ca:	d9 c9                	fxch   st(1)
  4069cc:	d9 05 44 a3 40 00    	fld    DWORD PTR ds:0x40a344
  4069d2:	d9 c2                	fld    st(2)
  4069d4:	d8 c1                	fadd   st,st(1)
  4069d6:	d9 ca                	fxch   st(2)
  4069d8:	dd e2                	fucom  st(2)
  4069da:	df e0                	fnstsw ax
  4069dc:	dd da                	fstp   st(2)
  4069de:	9e                   	sahf   
  4069df:	0f 87 94 00 00 00    	ja     406a79 <___gdtoa+0xf69>
  4069e5:	de e2                	fsubp  st(2),st
  4069e7:	d9 c9                	fxch   st(1)
  4069e9:	dd e9                	fucomp st(1)
  4069eb:	df e0                	fnstsw ax
  4069ed:	9e                   	sahf   
  4069ee:	0f 86 0c f7 ff ff    	jbe    406100 <___gdtoa+0x5f0>
  4069f4:	dd d9                	fstp   st(1)
  4069f6:	d9 ee                	fldz   
  4069f8:	d9 c9                	fxch   st(1)
  4069fa:	da e9                	fucompp 
  4069fc:	df e0                	fnstsw ax
  4069fe:	9e                   	sahf   
  4069ff:	0f 8a 4d 04 00 00    	jp     406e52 <___gdtoa+0x1342>
  406a05:	0f 85 47 04 00 00    	jne    406e52 <___gdtoa+0x1342>
  406a0b:	c7 44 24 18 00 00 00 	mov    DWORD PTR [esp+0x18],0x0
  406a12:	00 
  406a13:	eb 06                	jmp    406a1b <___gdtoa+0xf0b>
  406a15:	0f b6 48 ff          	movzx  ecx,BYTE PTR [eax-0x1]
  406a19:	89 c6                	mov    esi,eax
  406a1b:	80 f9 30             	cmp    cl,0x30
  406a1e:	8d 46 ff             	lea    eax,[esi-0x1]
  406a21:	74 f2                	je     406a15 <___gdtoa+0xf05>
  406a23:	8b 44 24 38          	mov    eax,DWORD PTR [esp+0x38]
  406a27:	83 c0 01             	add    eax,0x1
  406a2a:	89 44 24 0c          	mov    DWORD PTR [esp+0xc],eax
  406a2e:	e9 6a f9 ff ff       	jmp    40639d <___gdtoa+0x88d>
  406a33:	dd d8                	fstp   st(0)
  406a35:	dd d8                	fstp   st(0)
  406a37:	dd d8                	fstp   st(0)
  406a39:	c7 44 24 0c 02 00 00 	mov    DWORD PTR [esp+0xc],0x2
  406a40:	00 
  406a41:	31 ff                	xor    edi,edi
  406a43:	c7 44 24 20 00 00 00 	mov    DWORD PTR [esp+0x20],0x0
  406a4a:	00 
  406a4b:	e9 0d f9 ff ff       	jmp    40635d <___gdtoa+0x84d>
  406a50:	8b 44 24 0c          	mov    eax,DWORD PTR [esp+0xc]
  406a54:	83 e1 01             	and    ecx,0x1
  406a57:	0f b6 4e ff          	movzx  ecx,BYTE PTR [esi-0x1]
  406a5b:	89 44 24 38          	mov    DWORD PTR [esp+0x38],eax
  406a5f:	0f 84 ed 03 00 00    	je     406e52 <___gdtoa+0x1342>
  406a65:	eb 1a                	jmp    406a81 <___gdtoa+0xf71>
  406a67:	dd d8                	fstp   st(0)
  406a69:	dd d8                	fstp   st(0)
  406a6b:	dd d8                	fstp   st(0)
  406a6d:	eb 12                	jmp    406a81 <___gdtoa+0xf71>
  406a6f:	dd d8                	fstp   st(0)
  406a71:	dd d8                	fstp   st(0)
  406a73:	dd d8                	fstp   st(0)
  406a75:	dd d8                	fstp   st(0)
  406a77:	eb 08                	jmp    406a81 <___gdtoa+0xf71>
  406a79:	dd d8                	fstp   st(0)
  406a7b:	dd d8                	fstp   st(0)
  406a7d:	dd d8                	fstp   st(0)
  406a7f:	dd d8                	fstp   st(0)
  406a81:	8b 54 24 24          	mov    edx,DWORD PTR [esp+0x24]
  406a85:	eb 0e                	jmp    406a95 <___gdtoa+0xf85>
  406a87:	39 d0                	cmp    eax,edx
  406a89:	0f 84 be 00 00 00    	je     406b4d <___gdtoa+0x103d>
  406a8f:	0f b6 48 ff          	movzx  ecx,BYTE PTR [eax-0x1]
  406a93:	89 c6                	mov    esi,eax
  406a95:	80 f9 39             	cmp    cl,0x39
  406a98:	8d 46 ff             	lea    eax,[esi-0x1]
  406a9b:	74 ea                	je     406a87 <___gdtoa+0xf77>
  406a9d:	89 54 24 24          	mov    DWORD PTR [esp+0x24],edx
  406aa1:	83 c1 01             	add    ecx,0x1
  406aa4:	88 08                	mov    BYTE PTR [eax],cl
  406aa6:	8b 44 24 38          	mov    eax,DWORD PTR [esp+0x38]
  406aaa:	c7 44 24 18 20 00 00 	mov    DWORD PTR [esp+0x18],0x20
  406ab1:	00 
  406ab2:	83 c0 01             	add    eax,0x1
  406ab5:	89 44 24 0c          	mov    DWORD PTR [esp+0xc],eax
  406ab9:	e9 df f8 ff ff       	jmp    40639d <___gdtoa+0x88d>
  406abe:	8b b4 24 80 00 00 00 	mov    esi,DWORD PTR [esp+0x80]
  406ac5:	29 ef                	sub    edi,ebp
  406ac7:	8b 54 24 20          	mov    edx,DWORD PTR [esp+0x20]
  406acb:	8d 47 01             	lea    eax,[edi+0x1]
  406ace:	89 44 24 5c          	mov    DWORD PTR [esp+0x5c],eax
  406ad2:	8b 4e 04             	mov    ecx,DWORD PTR [esi+0x4]
  406ad5:	29 fa                	sub    edx,edi
  406ad7:	39 ca                	cmp    edx,ecx
  406ad9:	0f 8d be 02 00 00    	jge    406d9d <___gdtoa+0x128d>
  406adf:	8b 44 24 20          	mov    eax,DWORD PTR [esp+0x20]
  406ae3:	8b 7c 24 30          	mov    edi,DWORD PTR [esp+0x30]
  406ae7:	8b 74 24 28          	mov    esi,DWORD PTR [esp+0x28]
  406aeb:	29 c8                	sub    eax,ecx
  406aed:	83 c0 01             	add    eax,0x1
  406af0:	89 44 24 5c          	mov    DWORD PTR [esp+0x5c],eax
  406af4:	e9 5d f6 ff ff       	jmp    406156 <___gdtoa+0x646>
  406af9:	d8 c0                	fadd   st,st(0)
  406afb:	dd e1                	fucom  st(1)
  406afd:	df e0                	fnstsw ax
  406aff:	9e                   	sahf   
  406b00:	0f 87 22 01 00 00    	ja     406c28 <___gdtoa+0x1118>
  406b06:	d9 c9                	fxch   st(1)
  406b08:	da e9                	fucompp 
  406b0a:	df e0                	fnstsw ax
  406b0c:	9e                   	sahf   
  406b0d:	7a 06                	jp     406b15 <___gdtoa+0x1005>
  406b0f:	0f 84 3b ff ff ff    	je     406a50 <___gdtoa+0xf40>
  406b15:	8b 44 24 0c          	mov    eax,DWORD PTR [esp+0xc]
  406b19:	0f b6 4e ff          	movzx  ecx,BYTE PTR [esi-0x1]
  406b1d:	c7 44 24 18 10 00 00 	mov    DWORD PTR [esp+0x18],0x10
  406b24:	00 
  406b25:	89 44 24 38          	mov    DWORD PTR [esp+0x38],eax
  406b29:	e9 ed fe ff ff       	jmp    406a1b <___gdtoa+0xf0b>
  406b2e:	8b 44 24 24          	mov    eax,DWORD PTR [esp+0x24]
  406b32:	c7 44 24 18 20 00 00 	mov    DWORD PTR [esp+0x18],0x20
  406b39:	00 
  406b3a:	c6 00 31             	mov    BYTE PTR [eax],0x31
  406b3d:	8b 44 24 0c          	mov    eax,DWORD PTR [esp+0xc]
  406b41:	83 c0 02             	add    eax,0x2
  406b44:	89 44 24 0c          	mov    DWORD PTR [esp+0xc],eax
  406b48:	e9 24 f8 ff ff       	jmp    406371 <___gdtoa+0x861>
  406b4d:	89 54 24 24          	mov    DWORD PTR [esp+0x24],edx
  406b51:	b9 31 00 00 00       	mov    ecx,0x31
  406b56:	83 44 24 38 01       	add    DWORD PTR [esp+0x38],0x1
  406b5b:	c6 02 30             	mov    BYTE PTR [edx],0x30
  406b5e:	e9 41 ff ff ff       	jmp    406aa4 <___gdtoa+0xf94>
  406b63:	8b 74 24 28          	mov    esi,DWORD PTR [esp+0x28]
  406b67:	31 c0                	xor    eax,eax
  406b69:	2b 74 24 18          	sub    esi,DWORD PTR [esp+0x18]
  406b6d:	c7 44 24 5c 00 00 00 	mov    DWORD PTR [esp+0x5c],0x0
  406b74:	00 
  406b75:	e9 dc f5 ff ff       	jmp    406156 <___gdtoa+0x646>
  406b7a:	8b 4c 24 2c          	mov    ecx,DWORD PTR [esp+0x2c]
  406b7e:	89 7c 24 20          	mov    DWORD PTR [esp+0x20],edi
  406b82:	8b 74 24 28          	mov    esi,DWORD PTR [esp+0x28]
  406b86:	8b 7c 24 1c          	mov    edi,DWORD PTR [esp+0x1c]
  406b8a:	8b 54 24 10          	mov    edx,DWORD PTR [esp+0x10]
  406b8e:	85 c9                	test   ecx,ecx
  406b90:	0f 84 1e 02 00 00    	je     406db4 <___gdtoa+0x12a4>
  406b96:	83 7b 10 01          	cmp    DWORD PTR [ebx+0x10],0x1
  406b9a:	0f 8e 0a 02 00 00    	jle    406daa <___gdtoa+0x129a>
  406ba0:	83 7c 24 2c 02       	cmp    DWORD PTR [esp+0x2c],0x2
  406ba5:	75 3a                	jne    406be1 <___gdtoa+0x10d1>
  406ba7:	e9 63 02 00 00       	jmp    406e0f <___gdtoa+0x12ff>
  406bac:	8d 74 26 00          	lea    esi,[esi+eiz*1+0x0]
  406bb0:	89 1c 24             	mov    DWORD PTR [esp],ebx
  406bb3:	c7 44 24 08 00 00 00 	mov    DWORD PTR [esp+0x8],0x0
  406bba:	00 
  406bbb:	c7 44 24 04 0a 00 00 	mov    DWORD PTR [esp+0x4],0xa
  406bc2:	00 
  406bc3:	e8 58 0a 00 00       	call   407620 <___multadd_D2A>
  406bc8:	89 7c 24 04          	mov    DWORD PTR [esp+0x4],edi
  406bcc:	89 04 24             	mov    DWORD PTR [esp],eax
  406bcf:	89 c3                	mov    ebx,eax
  406bd1:	e8 ea 05 00 00       	call   4071c0 <___quorem_D2A>
  406bd6:	8b 6c 24 18          	mov    ebp,DWORD PTR [esp+0x18]
  406bda:	83 c0 30             	add    eax,0x30
  406bdd:	89 44 24 10          	mov    DWORD PTR [esp+0x10],eax
  406be1:	89 6c 24 04          	mov    DWORD PTR [esp+0x4],ebp
  406be5:	89 3c 24             	mov    DWORD PTR [esp],edi
  406be8:	e8 43 0f 00 00       	call   407b30 <___cmp_D2A>
  406bed:	85 c0                	test   eax,eax
  406bef:	0f 8e 88 02 00 00    	jle    406e7d <___gdtoa+0x136d>
  406bf5:	0f b6 44 24 10       	movzx  eax,BYTE PTR [esp+0x10]
  406bfa:	83 c6 01             	add    esi,0x1
  406bfd:	88 46 ff             	mov    BYTE PTR [esi-0x1],al
  406c00:	c7 44 24 08 00 00 00 	mov    DWORD PTR [esp+0x8],0x0
  406c07:	00 
  406c08:	c7 44 24 04 0a 00 00 	mov    DWORD PTR [esp+0x4],0xa
  406c0f:	00 
  406c10:	89 2c 24             	mov    DWORD PTR [esp],ebp
  406c13:	e8 08 0a 00 00       	call   407620 <___multadd_D2A>
  406c18:	39 6c 24 20          	cmp    DWORD PTR [esp+0x20],ebp
  406c1c:	89 44 24 18          	mov    DWORD PTR [esp+0x18],eax
  406c20:	75 8e                	jne    406bb0 <___gdtoa+0x10a0>
  406c22:	89 44 24 20          	mov    DWORD PTR [esp+0x20],eax
  406c26:	eb 88                	jmp    406bb0 <___gdtoa+0x10a0>
  406c28:	dd d8                	fstp   st(0)
  406c2a:	dd d8                	fstp   st(0)
  406c2c:	8b 44 24 0c          	mov    eax,DWORD PTR [esp+0xc]
  406c30:	0f b6 4e ff          	movzx  ecx,BYTE PTR [esi-0x1]
  406c34:	8b 54 24 24          	mov    edx,DWORD PTR [esp+0x24]
  406c38:	89 44 24 38          	mov    DWORD PTR [esp+0x38],eax
  406c3c:	e9 54 fe ff ff       	jmp    406a95 <___gdtoa+0xf85>
  406c41:	89 1c 24             	mov    DWORD PTR [esp],ebx
  406c44:	c7 44 24 04 01 00 00 	mov    DWORD PTR [esp+0x4],0x1
  406c4b:	00 
  406c4c:	89 54 24 18          	mov    DWORD PTR [esp+0x18],edx
  406c50:	e8 cb 0d 00 00       	call   407a20 <___lshift_D2A>
  406c55:	89 7c 24 04          	mov    DWORD PTR [esp+0x4],edi
  406c59:	89 04 24             	mov    DWORD PTR [esp],eax
  406c5c:	89 c3                	mov    ebx,eax
  406c5e:	e8 cd 0e 00 00       	call   407b30 <___cmp_D2A>
  406c63:	8b 54 24 18          	mov    edx,DWORD PTR [esp+0x18]
  406c67:	83 f8 00             	cmp    eax,0x0
  406c6a:	0f 8f ff fb ff ff    	jg     40686f <___gdtoa+0xd5f>
  406c70:	75 0b                	jne    406c7d <___gdtoa+0x116d>
  406c72:	f6 44 24 10 01       	test   BYTE PTR [esp+0x10],0x1
  406c77:	0f 85 f2 fb ff ff    	jne    40686f <___gdtoa+0xd5f>
  406c7d:	83 7b 10 01          	cmp    DWORD PTR [ebx+0x10],0x1
  406c81:	0f 8e dc 02 00 00    	jle    406f63 <___gdtoa+0x1453>
  406c87:	c7 44 24 18 10 00 00 	mov    DWORD PTR [esp+0x18],0x10
  406c8e:	00 
  406c8f:	eb 02                	jmp    406c93 <___gdtoa+0x1183>
  406c91:	89 c6                	mov    esi,eax
  406c93:	80 7e ff 30          	cmp    BYTE PTR [esi-0x1],0x30
  406c97:	8d 46 ff             	lea    eax,[esi-0x1]
  406c9a:	74 f5                	je     406c91 <___gdtoa+0x1181>
  406c9c:	8b 44 24 0c          	mov    eax,DWORD PTR [esp+0xc]
  406ca0:	83 c0 01             	add    eax,0x1
  406ca3:	89 44 24 0c          	mov    DWORD PTR [esp+0xc],eax
  406ca7:	e9 c5 f6 ff ff       	jmp    406371 <___gdtoa+0x861>
  406cac:	8b 44 24 18          	mov    eax,DWORD PTR [esp+0x18]
  406cb0:	85 c0                	test   eax,eax
  406cb2:	0f 84 fa f3 ff ff    	je     4060b2 <___gdtoa+0x5a2>
  406cb8:	8b 54 24 44          	mov    edx,DWORD PTR [esp+0x44]
  406cbc:	85 d2                	test   edx,edx
  406cbe:	0f 8e 3e f4 ff ff    	jle    406102 <___gdtoa+0x5f2>
  406cc4:	d9 c0                	fld    st(0)
  406cc6:	d8 0d 34 a3 40 00    	fmul   DWORD PTR ds:0x40a334
  406ccc:	c7 44 24 38 ff ff ff 	mov    DWORD PTR [esp+0x38],0xffffffff
  406cd3:	ff 
  406cd4:	d9 c0                	fld    st(0)
  406cd6:	d8 0d 38 a3 40 00    	fmul   DWORD PTR ds:0x40a338
  406cdc:	d8 05 3c a3 40 00    	fadd   DWORD PTR ds:0x40a33c
  406ce2:	dd 5c 24 10          	fstp   QWORD PTR [esp+0x10]
  406ce6:	81 6c 24 14 00 00 40 	sub    DWORD PTR [esp+0x14],0x3400000
  406ced:	03 
  406cee:	e9 02 f2 ff ff       	jmp    405ef5 <___gdtoa+0x3e5>
  406cf3:	8b 45 04             	mov    eax,DWORD PTR [ebp+0x4]
  406cf6:	89 04 24             	mov    DWORD PTR [esp],eax
  406cf9:	e8 e2 07 00 00       	call   4074e0 <___Balloc_D2A>
  406cfe:	8d 48 0c             	lea    ecx,[eax+0xc]
  406d01:	89 c6                	mov    esi,eax
  406d03:	8b 45 10             	mov    eax,DWORD PTR [ebp+0x10]
  406d06:	89 0c 24             	mov    DWORD PTR [esp],ecx
  406d09:	8d 14 85 08 00 00 00 	lea    edx,[eax*4+0x8]
  406d10:	89 e8                	mov    eax,ebp
  406d12:	83 c0 0c             	add    eax,0xc
  406d15:	89 54 24 08          	mov    DWORD PTR [esp+0x8],edx
  406d19:	89 44 24 04          	mov    DWORD PTR [esp+0x4],eax
  406d1d:	e8 46 12 00 00       	call   407f68 <_memcpy>
  406d22:	c7 44 24 04 01 00 00 	mov    DWORD PTR [esp+0x4],0x1
  406d29:	00 
  406d2a:	89 34 24             	mov    DWORD PTR [esp],esi
  406d2d:	e8 ee 0c 00 00       	call   407a20 <___lshift_D2A>
  406d32:	89 c5                	mov    ebp,eax
  406d34:	e9 d1 f8 ff ff       	jmp    40660a <___gdtoa+0xafa>
  406d39:	89 fa                	mov    edx,edi
  406d3b:	8b 74 24 28          	mov    esi,DWORD PTR [esp+0x28]
  406d3f:	8b 7c 24 1c          	mov    edi,DWORD PTR [esp+0x1c]
  406d43:	89 6c 24 20          	mov    DWORD PTR [esp+0x20],ebp
  406d47:	e9 04 fb ff ff       	jmp    406850 <___gdtoa+0xd40>
  406d4c:	83 7c 24 2c 02       	cmp    DWORD PTR [esp+0x2c],0x2
  406d51:	0f 84 2c f9 ff ff    	je     406683 <___gdtoa+0xb73>
  406d57:	8b 74 24 28          	mov    esi,DWORD PTR [esp+0x28]
  406d5b:	83 7c 24 10 39       	cmp    DWORD PTR [esp+0x10],0x39
  406d60:	89 7c 24 20          	mov    DWORD PTR [esp+0x20],edi
  406d64:	8b 7c 24 1c          	mov    edi,DWORD PTR [esp+0x1c]
  406d68:	89 f0                	mov    eax,esi
  406d6a:	0f 84 f1 00 00 00    	je     406e61 <___gdtoa+0x1351>
  406d70:	0f b6 4c 24 10       	movzx  ecx,BYTE PTR [esp+0x10]
  406d75:	83 c6 01             	add    esi,0x1
  406d78:	8b 54 24 20          	mov    edx,DWORD PTR [esp+0x20]
  406d7c:	c7 44 24 18 20 00 00 	mov    DWORD PTR [esp+0x18],0x20
  406d83:	00 
  406d84:	89 6c 24 20          	mov    DWORD PTR [esp+0x20],ebp
  406d88:	83 c1 01             	add    ecx,0x1
  406d8b:	88 08                	mov    BYTE PTR [eax],cl
  406d8d:	8b 44 24 0c          	mov    eax,DWORD PTR [esp+0xc]
  406d91:	83 c0 01             	add    eax,0x1
  406d94:	89 44 24 0c          	mov    DWORD PTR [esp+0xc],eax
  406d98:	e9 d4 f5 ff ff       	jmp    406371 <___gdtoa+0x861>
  406d9d:	8b 7c 24 30          	mov    edi,DWORD PTR [esp+0x30]
  406da1:	8b 74 24 28          	mov    esi,DWORD PTR [esp+0x28]
  406da5:	e9 ac f3 ff ff       	jmp    406156 <___gdtoa+0x646>
  406daa:	83 7b 14 00          	cmp    DWORD PTR [ebx+0x14],0x0
  406dae:	0f 85 ec fd ff ff    	jne    406ba0 <___gdtoa+0x1090>
  406db4:	85 c0                	test   eax,eax
  406db6:	89 54 24 18          	mov    DWORD PTR [esp+0x18],edx
  406dba:	0f 8e d3 00 00 00    	jle    406e93 <___gdtoa+0x1383>
  406dc0:	89 1c 24             	mov    DWORD PTR [esp],ebx
  406dc3:	c7 44 24 04 01 00 00 	mov    DWORD PTR [esp+0x4],0x1
  406dca:	00 
  406dcb:	e8 50 0c 00 00       	call   407a20 <___lshift_D2A>
  406dd0:	89 7c 24 04          	mov    DWORD PTR [esp+0x4],edi
  406dd4:	89 04 24             	mov    DWORD PTR [esp],eax
  406dd7:	89 c3                	mov    ebx,eax
  406dd9:	e8 52 0d 00 00       	call   407b30 <___cmp_D2A>
  406dde:	8b 54 24 18          	mov    edx,DWORD PTR [esp+0x18]
  406de2:	83 f8 00             	cmp    eax,0x0
  406de5:	0f 8e 98 01 00 00    	jle    406f83 <___gdtoa+0x1473>
  406deb:	8b 44 24 30          	mov    eax,DWORD PTR [esp+0x30]
  406def:	83 c0 31             	add    eax,0x31
  406df2:	83 fa 39             	cmp    edx,0x39
  406df5:	89 44 24 10          	mov    DWORD PTR [esp+0x10],eax
  406df9:	74 64                	je     406e5f <___gdtoa+0x134f>
  406dfb:	c7 44 24 18 20 00 00 	mov    DWORD PTR [esp+0x18],0x20
  406e02:	00 
  406e03:	83 7b 10 01          	cmp    DWORD PTR [ebx+0x10],0x1
  406e07:	7f 06                	jg     406e0f <___gdtoa+0x12ff>
  406e09:	83 7b 14 00          	cmp    DWORD PTR [ebx+0x14],0x0
  406e0d:	74 08                	je     406e17 <___gdtoa+0x1307>
  406e0f:	c7 44 24 18 10 00 00 	mov    DWORD PTR [esp+0x18],0x10
  406e16:	00 
  406e17:	0f b6 44 24 10       	movzx  eax,BYTE PTR [esp+0x10]
  406e1c:	83 c6 01             	add    esi,0x1
  406e1f:	8b 54 24 20          	mov    edx,DWORD PTR [esp+0x20]
  406e23:	89 6c 24 20          	mov    DWORD PTR [esp+0x20],ebp
  406e27:	88 46 ff             	mov    BYTE PTR [esi-0x1],al
  406e2a:	8b 44 24 0c          	mov    eax,DWORD PTR [esp+0xc]
  406e2e:	83 c0 01             	add    eax,0x1
  406e31:	89 44 24 0c          	mov    DWORD PTR [esp+0xc],eax
  406e35:	e9 37 f5 ff ff       	jmp    406371 <___gdtoa+0x861>
  406e3a:	8b 4b 14             	mov    ecx,DWORD PTR [ebx+0x14]
  406e3d:	85 c9                	test   ecx,ecx
  406e3f:	0f 85 2a fa ff ff    	jne    40686f <___gdtoa+0xd5f>
  406e45:	c7 44 24 18 00 00 00 	mov    DWORD PTR [esp+0x18],0x0
  406e4c:	00 
  406e4d:	e9 41 fe ff ff       	jmp    406c93 <___gdtoa+0x1183>
  406e52:	c7 44 24 18 10 00 00 	mov    DWORD PTR [esp+0x18],0x10
  406e59:	00 
  406e5a:	e9 bc fb ff ff       	jmp    406a1b <___gdtoa+0xf0b>
  406e5f:	89 f0                	mov    eax,esi
  406e61:	8b 54 24 20          	mov    edx,DWORD PTR [esp+0x20]
  406e65:	83 c6 01             	add    esi,0x1
  406e68:	b9 39 00 00 00       	mov    ecx,0x39
  406e6d:	89 6c 24 20          	mov    DWORD PTR [esp+0x20],ebp
  406e71:	8b 6c 24 24          	mov    ebp,DWORD PTR [esp+0x24]
  406e75:	c6 00 39             	mov    BYTE PTR [eax],0x39
  406e78:	e9 11 fa ff ff       	jmp    40688e <___gdtoa+0xd7e>
  406e7d:	83 7c 24 10 39       	cmp    DWORD PTR [esp+0x10],0x39
  406e82:	74 db                	je     406e5f <___gdtoa+0x134f>
  406e84:	83 44 24 10 01       	add    DWORD PTR [esp+0x10],0x1
  406e89:	c7 44 24 18 20 00 00 	mov    DWORD PTR [esp+0x18],0x20
  406e90:	00 
  406e91:	eb 84                	jmp    406e17 <___gdtoa+0x1307>
  406e93:	c7 44 24 18 00 00 00 	mov    DWORD PTR [esp+0x18],0x0
  406e9a:	00 
  406e9b:	e9 63 ff ff ff       	jmp    406e03 <___gdtoa+0x12f3>
  406ea0:	0f 85 a8 f6 ff ff    	jne    40654e <___gdtoa+0xa3e>
  406ea6:	dd d8                	fstp   st(0)
  406ea8:	dd d8                	fstp   st(0)
  406eaa:	e9 0c f7 ff ff       	jmp    4065bb <___gdtoa+0xaab>
  406eaf:	89 f1                	mov    ecx,esi
  406eb1:	8b 74 24 28          	mov    esi,DWORD PTR [esp+0x28]
  406eb5:	83 7c 24 10 39       	cmp    DWORD PTR [esp+0x10],0x39
  406eba:	89 7c 24 20          	mov    DWORD PTR [esp+0x20],edi
  406ebe:	8b 7c 24 1c          	mov    edi,DWORD PTR [esp+0x1c]
  406ec2:	89 f0                	mov    eax,esi
  406ec4:	74 99                	je     406e5f <___gdtoa+0x134f>
  406ec6:	85 c9                	test   ecx,ecx
  406ec8:	7e 73                	jle    406f3d <___gdtoa+0x142d>
  406eca:	8b 4c 24 30          	mov    ecx,DWORD PTR [esp+0x30]
  406ece:	c7 44 24 18 20 00 00 	mov    DWORD PTR [esp+0x18],0x20
  406ed5:	00 
  406ed6:	83 c1 31             	add    ecx,0x31
  406ed9:	89 4c 24 10          	mov    DWORD PTR [esp+0x10],ecx
  406edd:	0f b6 4c 24 10       	movzx  ecx,BYTE PTR [esp+0x10]
  406ee2:	83 c6 01             	add    esi,0x1
  406ee5:	8b 54 24 20          	mov    edx,DWORD PTR [esp+0x20]
  406ee9:	89 6c 24 20          	mov    DWORD PTR [esp+0x20],ebp
  406eed:	88 08                	mov    BYTE PTR [eax],cl
  406eef:	8b 44 24 0c          	mov    eax,DWORD PTR [esp+0xc]
  406ef3:	83 c0 01             	add    eax,0x1
  406ef6:	89 44 24 0c          	mov    DWORD PTR [esp+0xc],eax
  406efa:	e9 72 f4 ff ff       	jmp    406371 <___gdtoa+0x861>
  406eff:	8b 44 24 20          	mov    eax,DWORD PTR [esp+0x20]
  406f03:	c7 44 24 08 00 00 00 	mov    DWORD PTR [esp+0x8],0x0
  406f0a:	00 
  406f0b:	c7 44 24 04 0a 00 00 	mov    DWORD PTR [esp+0x4],0xa
  406f12:	00 
  406f13:	89 04 24             	mov    DWORD PTR [esp],eax
  406f16:	e8 05 07 00 00       	call   407620 <___multadd_D2A>
  406f1b:	83 7c 24 44 00       	cmp    DWORD PTR [esp+0x44],0x0
  406f20:	89 44 24 20          	mov    DWORD PTR [esp+0x20],eax
  406f24:	8b 44 24 44          	mov    eax,DWORD PTR [esp+0x44]
  406f28:	7f 0a                	jg     406f34 <___gdtoa+0x1424>
  406f2a:	83 bc 24 90 00 00 00 	cmp    DWORD PTR [esp+0x90],0x2
  406f31:	02 
  406f32:	7f 46                	jg     406f7a <___gdtoa+0x146a>
  406f34:	89 44 24 18          	mov    DWORD PTR [esp+0x18],eax
  406f38:	e9 a2 f6 ff ff       	jmp    4065df <___gdtoa+0xacf>
  406f3d:	83 7b 10 01          	cmp    DWORD PTR [ebx+0x10],0x1
  406f41:	c7 44 24 18 10 00 00 	mov    DWORD PTR [esp+0x18],0x10
  406f48:	00 
  406f49:	7f 92                	jg     406edd <___gdtoa+0x13cd>
  406f4b:	83 7b 14 01          	cmp    DWORD PTR [ebx+0x14],0x1
  406f4f:	19 c9                	sbb    ecx,ecx
  406f51:	89 4c 24 18          	mov    DWORD PTR [esp+0x18],ecx
  406f55:	f7 54 24 18          	not    DWORD PTR [esp+0x18]
  406f59:	83 64 24 18 10       	and    DWORD PTR [esp+0x18],0x10
  406f5e:	e9 7a ff ff ff       	jmp    406edd <___gdtoa+0x13cd>
  406f63:	83 7b 14 00          	cmp    DWORD PTR [ebx+0x14],0x0
  406f67:	c7 44 24 18 00 00 00 	mov    DWORD PTR [esp+0x18],0x0
  406f6e:	00 
  406f6f:	0f 85 12 fd ff ff    	jne    406c87 <___gdtoa+0x1177>
  406f75:	e9 19 fd ff ff       	jmp    406c93 <___gdtoa+0x1183>
  406f7a:	89 44 24 18          	mov    DWORD PTR [esp+0x18],eax
  406f7e:	e9 21 f3 ff ff       	jmp    4062a4 <___gdtoa+0x794>
  406f83:	0f 85 72 fe ff ff    	jne    406dfb <___gdtoa+0x12eb>
  406f89:	f6 44 24 10 01       	test   BYTE PTR [esp+0x10],0x1
  406f8e:	66 90                	xchg   ax,ax
  406f90:	0f 84 65 fe ff ff    	je     406dfb <___gdtoa+0x12eb>
  406f96:	e9 50 fe ff ff       	jmp    406deb <___gdtoa+0x12db>
  406f9b:	31 c0                	xor    eax,eax
  406f9d:	8d 76 00             	lea    esi,[esi+0x0]
  406fa0:	e9 8f ec ff ff       	jmp    405c34 <___gdtoa+0x124>
  406fa5:	b8 01 00 00 00       	mov    eax,0x1
  406faa:	e9 40 ee ff ff       	jmp    405def <___gdtoa+0x2df>
  406faf:	90                   	nop

00406fb0 <___rshift_D2A>:
  406fb0:	55                   	push   ebp
  406fb1:	57                   	push   edi
  406fb2:	56                   	push   esi
  406fb3:	53                   	push   ebx
  406fb4:	83 ec 10             	sub    esp,0x10
  406fb7:	8b 74 24 24          	mov    esi,DWORD PTR [esp+0x24]
  406fbb:	8b 44 24 24          	mov    eax,DWORD PTR [esp+0x24]
  406fbf:	8b 4c 24 28          	mov    ecx,DWORD PTR [esp+0x28]
  406fc3:	8b 56 10             	mov    edx,DWORD PTR [esi+0x10]
  406fc6:	8d 68 14             	lea    ebp,[eax+0x14]
  406fc9:	89 c8                	mov    eax,ecx
  406fcb:	c1 f8 05             	sar    eax,0x5
  406fce:	39 d0                	cmp    eax,edx
  406fd0:	0f 8d 8a 00 00 00    	jge    407060 <___rshift_D2A+0xb0>
  406fd6:	8d 44 85 00          	lea    eax,[ebp+eax*4+0x0]
  406fda:	83 e1 1f             	and    ecx,0x1f
  406fdd:	8d 7c 95 00          	lea    edi,[ebp+edx*4+0x0]
  406fe1:	89 44 24 04          	mov    DWORD PTR [esp+0x4],eax
  406fe5:	89 0c 24             	mov    DWORD PTR [esp],ecx
  406fe8:	0f 84 92 00 00 00    	je     407080 <___rshift_D2A+0xd0>
  406fee:	8b 74 24 04          	mov    esi,DWORD PTR [esp+0x4]
  406ff2:	8b 04 24             	mov    eax,DWORD PTR [esp]
  406ff5:	c7 44 24 08 20 00 00 	mov    DWORD PTR [esp+0x8],0x20
  406ffc:	00 
  406ffd:	29 44 24 08          	sub    DWORD PTR [esp+0x8],eax
  407001:	8b 1e                	mov    ebx,DWORD PTR [esi]
  407003:	8d 56 04             	lea    edx,[esi+0x4]
  407006:	89 c1                	mov    ecx,eax
  407008:	d3 eb                	shr    ebx,cl
  40700a:	39 d7                	cmp    edi,edx
  40700c:	0f 86 ac 00 00 00    	jbe    4070be <___rshift_D2A+0x10e>
  407012:	89 ee                	mov    esi,ebp
  407014:	89 6c 24 0c          	mov    DWORD PTR [esp+0xc],ebp
  407018:	8b 6c 24 08          	mov    ebp,DWORD PTR [esp+0x8]
  40701c:	8d 74 26 00          	lea    esi,[esi+eiz*1+0x0]
  407020:	8b 02                	mov    eax,DWORD PTR [edx]
  407022:	89 e9                	mov    ecx,ebp
  407024:	83 c6 04             	add    esi,0x4
  407027:	83 c2 04             	add    edx,0x4
  40702a:	d3 e0                	shl    eax,cl
  40702c:	0f b6 0c 24          	movzx  ecx,BYTE PTR [esp]
  407030:	09 d8                	or     eax,ebx
  407032:	89 46 fc             	mov    DWORD PTR [esi-0x4],eax
  407035:	8b 5a fc             	mov    ebx,DWORD PTR [edx-0x4]
  407038:	d3 eb                	shr    ebx,cl
  40703a:	39 d7                	cmp    edi,edx
  40703c:	77 e2                	ja     407020 <___rshift_D2A+0x70>
  40703e:	2b 7c 24 04          	sub    edi,DWORD PTR [esp+0x4]
  407042:	8b 6c 24 0c          	mov    ebp,DWORD PTR [esp+0xc]
  407046:	8d 47 fb             	lea    eax,[edi-0x5]
  407049:	c1 e8 02             	shr    eax,0x2
  40704c:	8d 44 85 04          	lea    eax,[ebp+eax*4+0x4]
  407050:	85 db                	test   ebx,ebx
  407052:	89 18                	mov    DWORD PTR [eax],ebx
  407054:	74 03                	je     407059 <___rshift_D2A+0xa9>
  407056:	83 c0 04             	add    eax,0x4
  407059:	29 e8                	sub    eax,ebp
  40705b:	c1 f8 02             	sar    eax,0x2
  40705e:	eb 4b                	jmp    4070ab <___rshift_D2A+0xfb>
  407060:	8b 44 24 24          	mov    eax,DWORD PTR [esp+0x24]
  407064:	c7 40 10 00 00 00 00 	mov    DWORD PTR [eax+0x10],0x0
  40706b:	8b 44 24 24          	mov    eax,DWORD PTR [esp+0x24]
  40706f:	c7 40 14 00 00 00 00 	mov    DWORD PTR [eax+0x14],0x0
  407076:	83 c4 10             	add    esp,0x10
  407079:	5b                   	pop    ebx
  40707a:	5e                   	pop    esi
  40707b:	5f                   	pop    edi
  40707c:	5d                   	pop    ebp
  40707d:	c3                   	ret    
  40707e:	66 90                	xchg   ax,ax
  407080:	39 c7                	cmp    edi,eax
  407082:	89 ea                	mov    edx,ebp
  407084:	76 da                	jbe    407060 <___rshift_D2A+0xb0>
  407086:	83 c0 04             	add    eax,0x4
  407089:	8b 48 fc             	mov    ecx,DWORD PTR [eax-0x4]
  40708c:	83 c2 04             	add    edx,0x4
  40708f:	39 c7                	cmp    edi,eax
  407091:	89 4a fc             	mov    DWORD PTR [edx-0x4],ecx
  407094:	77 f0                	ja     407086 <___rshift_D2A+0xd6>
  407096:	8b 44 24 04          	mov    eax,DWORD PTR [esp+0x4]
  40709a:	f7 d0                	not    eax
  40709c:	01 f8                	add    eax,edi
  40709e:	c1 e8 02             	shr    eax,0x2
  4070a1:	8d 04 85 04 00 00 00 	lea    eax,[eax*4+0x4]
  4070a8:	c1 f8 02             	sar    eax,0x2
  4070ab:	8b 74 24 24          	mov    esi,DWORD PTR [esp+0x24]
  4070af:	85 c0                	test   eax,eax
  4070b1:	89 46 10             	mov    DWORD PTR [esi+0x10],eax
  4070b4:	74 b5                	je     40706b <___rshift_D2A+0xbb>
  4070b6:	83 c4 10             	add    esp,0x10
  4070b9:	5b                   	pop    ebx
  4070ba:	5e                   	pop    esi
  4070bb:	5f                   	pop    edi
  4070bc:	5d                   	pop    ebp
  4070bd:	c3                   	ret    
  4070be:	89 e8                	mov    eax,ebp
  4070c0:	eb 8e                	jmp    407050 <___rshift_D2A+0xa0>
  4070c2:	8d b4 26 00 00 00 00 	lea    esi,[esi+eiz*1+0x0]
  4070c9:	8d bc 27 00 00 00 00 	lea    edi,[edi+eiz*1+0x0]

004070d0 <___trailz_D2A>:
  4070d0:	53                   	push   ebx
  4070d1:	8b 44 24 08          	mov    eax,DWORD PTR [esp+0x8]
  4070d5:	8b 48 10             	mov    ecx,DWORD PTR [eax+0x10]
  4070d8:	8d 50 14             	lea    edx,[eax+0x14]
  4070db:	8d 1c 8a             	lea    ebx,[edx+ecx*4]
  4070de:	39 da                	cmp    edx,ebx
  4070e0:	73 28                	jae    40710a <___trailz_D2A+0x3a>
  4070e2:	8b 48 14             	mov    ecx,DWORD PTR [eax+0x14]
  4070e5:	31 c0                	xor    eax,eax
  4070e7:	85 c9                	test   ecx,ecx
  4070e9:	74 0b                	je     4070f6 <___trailz_D2A+0x26>
  4070eb:	eb 15                	jmp    407102 <___trailz_D2A+0x32>
  4070ed:	8d 76 00             	lea    esi,[esi+0x0]
  4070f0:	8b 0a                	mov    ecx,DWORD PTR [edx]
  4070f2:	85 c9                	test   ecx,ecx
  4070f4:	75 0c                	jne    407102 <___trailz_D2A+0x32>
  4070f6:	83 c2 04             	add    edx,0x4
  4070f9:	83 c0 20             	add    eax,0x20
  4070fc:	39 d3                	cmp    ebx,edx
  4070fe:	77 f0                	ja     4070f0 <___trailz_D2A+0x20>
  407100:	5b                   	pop    ebx
  407101:	c3                   	ret    
  407102:	f3 0f bc c9          	tzcnt  ecx,ecx
  407106:	01 c8                	add    eax,ecx
  407108:	5b                   	pop    ebx
  407109:	c3                   	ret    
  40710a:	31 c0                	xor    eax,eax
  40710c:	5b                   	pop    ebx
  40710d:	c3                   	ret    
  40710e:	90                   	nop
  40710f:	90                   	nop

00407110 <___rv_alloc_D2A>:
  407110:	53                   	push   ebx
  407111:	31 db                	xor    ebx,ebx
  407113:	83 ec 18             	sub    esp,0x18
  407116:	8b 4c 24 20          	mov    ecx,DWORD PTR [esp+0x20]
  40711a:	83 f9 13             	cmp    ecx,0x13
  40711d:	76 11                	jbe    407130 <___rv_alloc_D2A+0x20>
  40711f:	b8 04 00 00 00       	mov    eax,0x4
  407124:	01 c0                	add    eax,eax
  407126:	83 c3 01             	add    ebx,0x1
  407129:	8d 50 10             	lea    edx,[eax+0x10]
  40712c:	39 ca                	cmp    edx,ecx
  40712e:	76 f4                	jbe    407124 <___rv_alloc_D2A+0x14>
  407130:	89 1c 24             	mov    DWORD PTR [esp],ebx
  407133:	e8 a8 03 00 00       	call   4074e0 <___Balloc_D2A>
  407138:	89 18                	mov    DWORD PTR [eax],ebx
  40713a:	83 c4 18             	add    esp,0x18
  40713d:	83 c0 04             	add    eax,0x4
  407140:	5b                   	pop    ebx
  407141:	c3                   	ret    
  407142:	8d b4 26 00 00 00 00 	lea    esi,[esi+eiz*1+0x0]
  407149:	8d bc 27 00 00 00 00 	lea    edi,[edi+eiz*1+0x0]

00407150 <___nrv_alloc_D2A>:
  407150:	56                   	push   esi
  407151:	53                   	push   ebx
  407152:	83 ec 14             	sub    esp,0x14
  407155:	8b 44 24 28          	mov    eax,DWORD PTR [esp+0x28]
  407159:	8b 5c 24 20          	mov    ebx,DWORD PTR [esp+0x20]
  40715d:	8b 74 24 24          	mov    esi,DWORD PTR [esp+0x24]
  407161:	89 04 24             	mov    DWORD PTR [esp],eax
  407164:	e8 a7 ff ff ff       	call   407110 <___rv_alloc_D2A>
  407169:	0f b6 13             	movzx  edx,BYTE PTR [ebx]
  40716c:	8d 4b 01             	lea    ecx,[ebx+0x1]
  40716f:	84 d2                	test   dl,dl
  407171:	88 10                	mov    BYTE PTR [eax],dl
  407173:	89 c2                	mov    edx,eax
  407175:	74 10                	je     407187 <___nrv_alloc_D2A+0x37>
  407177:	83 c1 01             	add    ecx,0x1
  40717a:	0f b6 59 ff          	movzx  ebx,BYTE PTR [ecx-0x1]
  40717e:	83 c2 01             	add    edx,0x1
  407181:	84 db                	test   bl,bl
  407183:	88 1a                	mov    BYTE PTR [edx],bl
  407185:	75 f0                	jne    407177 <___nrv_alloc_D2A+0x27>
  407187:	85 f6                	test   esi,esi
  407189:	74 02                	je     40718d <___nrv_alloc_D2A+0x3d>
  40718b:	89 16                	mov    DWORD PTR [esi],edx
  40718d:	83 c4 14             	add    esp,0x14
  407190:	5b                   	pop    ebx
  407191:	5e                   	pop    esi
  407192:	c3                   	ret    
  407193:	8d b6 00 00 00 00    	lea    esi,[esi+0x0]
  407199:	8d bc 27 00 00 00 00 	lea    edi,[edi+eiz*1+0x0]

004071a0 <___freedtoa>:
  4071a0:	8b 44 24 04          	mov    eax,DWORD PTR [esp+0x4]
  4071a4:	ba 01 00 00 00       	mov    edx,0x1
  4071a9:	8b 48 fc             	mov    ecx,DWORD PTR [eax-0x4]
  4071ac:	83 e8 04             	sub    eax,0x4
  4071af:	d3 e2                	shl    edx,cl
  4071b1:	89 48 04             	mov    DWORD PTR [eax+0x4],ecx
  4071b4:	89 50 08             	mov    DWORD PTR [eax+0x8],edx
  4071b7:	89 44 24 04          	mov    DWORD PTR [esp+0x4],eax
  4071bb:	e9 f0 03 00 00       	jmp    4075b0 <___Bfree_D2A>

004071c0 <___quorem_D2A>:
  4071c0:	55                   	push   ebp
  4071c1:	57                   	push   edi
  4071c2:	56                   	push   esi
  4071c3:	53                   	push   ebx
  4071c4:	83 ec 4c             	sub    esp,0x4c
  4071c7:	8b 44 24 64          	mov    eax,DWORD PTR [esp+0x64]
  4071cb:	8b 7c 24 60          	mov    edi,DWORD PTR [esp+0x60]
  4071cf:	8b 50 10             	mov    edx,DWORD PTR [eax+0x10]
  4071d2:	31 c0                	xor    eax,eax
  4071d4:	3b 57 10             	cmp    edx,DWORD PTR [edi+0x10]
  4071d7:	0f 8f d6 01 00 00    	jg     4073b3 <___quorem_D2A+0x1f3>
  4071dd:	8b 44 24 64          	mov    eax,DWORD PTR [esp+0x64]
  4071e1:	8b 74 24 60          	mov    esi,DWORD PTR [esp+0x60]
  4071e5:	83 c0 14             	add    eax,0x14
  4071e8:	89 c7                	mov    edi,eax
  4071ea:	89 44 24 38          	mov    DWORD PTR [esp+0x38],eax
  4071ee:	8d 42 ff             	lea    eax,[edx-0x1]
  4071f1:	31 d2                	xor    edx,edx
  4071f3:	89 44 24 30          	mov    DWORD PTR [esp+0x30],eax
  4071f7:	c1 e0 02             	shl    eax,0x2
  4071fa:	01 c7                	add    edi,eax
  4071fc:	8d 5e 14             	lea    ebx,[esi+0x14]
  4071ff:	01 d8                	add    eax,ebx
  407201:	89 7c 24 28          	mov    DWORD PTR [esp+0x28],edi
  407205:	8b 3f                	mov    edi,DWORD PTR [edi]
  407207:	89 44 24 3c          	mov    DWORD PTR [esp+0x3c],eax
  40720b:	8b 00                	mov    eax,DWORD PTR [eax]
  40720d:	89 5c 24 2c          	mov    DWORD PTR [esp+0x2c],ebx
  407211:	8d 4f 01             	lea    ecx,[edi+0x1]
  407214:	f7 f1                	div    ecx
  407216:	89 7c 24 10          	mov    DWORD PTR [esp+0x10],edi
  40721a:	85 c0                	test   eax,eax
  40721c:	89 c5                	mov    ebp,eax
  40721e:	89 44 24 34          	mov    DWORD PTR [esp+0x34],eax
  407222:	0f 84 c7 00 00 00    	je     4072ef <___quorem_D2A+0x12f>
  407228:	8b 7c 24 38          	mov    edi,DWORD PTR [esp+0x38]
  40722c:	89 de                	mov    esi,ebx
  40722e:	c7 44 24 20 00 00 00 	mov    DWORD PTR [esp+0x20],0x0
  407235:	00 
  407236:	c7 44 24 24 00 00 00 	mov    DWORD PTR [esp+0x24],0x0
  40723d:	00 
  40723e:	c7 44 24 10 00 00 00 	mov    DWORD PTR [esp+0x10],0x0
  407245:	00 
  407246:	c7 44 24 14 00 00 00 	mov    DWORD PTR [esp+0x14],0x0
  40724d:	00 
  40724e:	66 90                	xchg   ax,ax
  407250:	83 c7 04             	add    edi,0x4
  407253:	89 e8                	mov    eax,ebp
  407255:	f7 67 fc             	mul    DWORD PTR [edi-0x4]
  407258:	03 44 24 20          	add    eax,DWORD PTR [esp+0x20]
  40725c:	13 54 24 24          	adc    edx,DWORD PTR [esp+0x24]
  407260:	c7 44 24 1c 00 00 00 	mov    DWORD PTR [esp+0x1c],0x0
  407267:	00 
  407268:	89 44 24 18          	mov    DWORD PTR [esp+0x18],eax
  40726c:	89 d3                	mov    ebx,edx
  40726e:	89 d9                	mov    ecx,ebx
  407270:	31 db                	xor    ebx,ebx
  407272:	89 4c 24 20          	mov    DWORD PTR [esp+0x20],ecx
  407276:	8b 0e                	mov    ecx,DWORD PTR [esi]
  407278:	89 5c 24 24          	mov    DWORD PTR [esp+0x24],ebx
  40727c:	31 db                	xor    ebx,ebx
  40727e:	2b 4c 24 18          	sub    ecx,DWORD PTR [esp+0x18]
  407282:	1b 5c 24 1c          	sbb    ebx,DWORD PTR [esp+0x1c]
  407286:	2b 4c 24 10          	sub    ecx,DWORD PTR [esp+0x10]
  40728a:	1b 5c 24 14          	sbb    ebx,DWORD PTR [esp+0x14]
  40728e:	83 c6 04             	add    esi,0x4
  407291:	c7 44 24 14 00 00 00 	mov    DWORD PTR [esp+0x14],0x0
  407298:	00 
  407299:	89 d8                	mov    eax,ebx
  40729b:	83 e0 01             	and    eax,0x1
  40729e:	39 7c 24 28          	cmp    DWORD PTR [esp+0x28],edi
  4072a2:	89 44 24 10          	mov    DWORD PTR [esp+0x10],eax
  4072a6:	89 4e fc             	mov    DWORD PTR [esi-0x4],ecx
  4072a9:	73 a5                	jae    407250 <___quorem_D2A+0x90>
  4072ab:	8b 44 24 3c          	mov    eax,DWORD PTR [esp+0x3c]
  4072af:	8b 38                	mov    edi,DWORD PTR [eax]
  4072b1:	85 ff                	test   edi,edi
  4072b3:	75 3a                	jne    4072ef <___quorem_D2A+0x12f>
  4072b5:	8b 4c 24 2c          	mov    ecx,DWORD PTR [esp+0x2c]
  4072b9:	89 c6                	mov    esi,eax
  4072bb:	83 e8 04             	sub    eax,0x4
  4072be:	39 c1                	cmp    ecx,eax
  4072c0:	73 22                	jae    4072e4 <___quorem_D2A+0x124>
  4072c2:	8b 76 fc             	mov    esi,DWORD PTR [esi-0x4]
  4072c5:	85 f6                	test   esi,esi
  4072c7:	75 1b                	jne    4072e4 <___quorem_D2A+0x124>
  4072c9:	8b 54 24 30          	mov    edx,DWORD PTR [esp+0x30]
  4072cd:	eb 07                	jmp    4072d6 <___quorem_D2A+0x116>
  4072cf:	90                   	nop
  4072d0:	8b 18                	mov    ebx,DWORD PTR [eax]
  4072d2:	85 db                	test   ebx,ebx
  4072d4:	75 0a                	jne    4072e0 <___quorem_D2A+0x120>
  4072d6:	83 e8 04             	sub    eax,0x4
  4072d9:	83 ea 01             	sub    edx,0x1
  4072dc:	39 c1                	cmp    ecx,eax
  4072de:	72 f0                	jb     4072d0 <___quorem_D2A+0x110>
  4072e0:	89 54 24 30          	mov    DWORD PTR [esp+0x30],edx
  4072e4:	8b 44 24 60          	mov    eax,DWORD PTR [esp+0x60]
  4072e8:	8b 7c 24 30          	mov    edi,DWORD PTR [esp+0x30]
  4072ec:	89 78 10             	mov    DWORD PTR [eax+0x10],edi
  4072ef:	8b 44 24 64          	mov    eax,DWORD PTR [esp+0x64]
  4072f3:	89 44 24 04          	mov    DWORD PTR [esp+0x4],eax
  4072f7:	8b 44 24 60          	mov    eax,DWORD PTR [esp+0x60]
  4072fb:	89 04 24             	mov    DWORD PTR [esp],eax
  4072fe:	e8 2d 08 00 00       	call   407b30 <___cmp_D2A>
  407303:	85 c0                	test   eax,eax
  407305:	0f 88 a4 00 00 00    	js     4073af <___quorem_D2A+0x1ef>
  40730b:	31 f6                	xor    esi,esi
  40730d:	31 ff                	xor    edi,edi
  40730f:	8d 45 01             	lea    eax,[ebp+0x1]
  407312:	8b 6c 24 2c          	mov    ebp,DWORD PTR [esp+0x2c]
  407316:	89 74 24 10          	mov    DWORD PTR [esp+0x10],esi
  40731a:	8b 74 24 38          	mov    esi,DWORD PTR [esp+0x38]
  40731e:	89 7c 24 14          	mov    DWORD PTR [esp+0x14],edi
  407322:	8b 7c 24 28          	mov    edi,DWORD PTR [esp+0x28]
  407326:	89 44 24 34          	mov    DWORD PTR [esp+0x34],eax
  40732a:	8d b6 00 00 00 00    	lea    esi,[esi+0x0]
  407330:	83 c6 04             	add    esi,0x4
  407333:	8b 45 00             	mov    eax,DWORD PTR [ebp+0x0]
  407336:	31 db                	xor    ebx,ebx
  407338:	8b 4e fc             	mov    ecx,DWORD PTR [esi-0x4]
  40733b:	31 d2                	xor    edx,edx
  40733d:	29 c8                	sub    eax,ecx
  40733f:	19 da                	sbb    edx,ebx
  407341:	2b 44 24 10          	sub    eax,DWORD PTR [esp+0x10]
  407345:	1b 54 24 14          	sbb    edx,DWORD PTR [esp+0x14]
  407349:	83 c5 04             	add    ebp,0x4
  40734c:	c7 44 24 14 00 00 00 	mov    DWORD PTR [esp+0x14],0x0
  407353:	00 
  407354:	89 d3                	mov    ebx,edx
  407356:	83 e3 01             	and    ebx,0x1
  407359:	39 f7                	cmp    edi,esi
  40735b:	89 5c 24 10          	mov    DWORD PTR [esp+0x10],ebx
  40735f:	89 45 fc             	mov    DWORD PTR [ebp-0x4],eax
  407362:	73 cc                	jae    407330 <___quorem_D2A+0x170>
  407364:	8b 44 24 2c          	mov    eax,DWORD PTR [esp+0x2c]
  407368:	8b 5c 24 30          	mov    ebx,DWORD PTR [esp+0x30]
  40736c:	8d 14 98             	lea    edx,[eax+ebx*4]
  40736f:	8b 3a                	mov    edi,DWORD PTR [edx]
  407371:	85 ff                	test   edi,edi
  407373:	75 3a                	jne    4073af <___quorem_D2A+0x1ef>
  407375:	8b 4c 24 2c          	mov    ecx,DWORD PTR [esp+0x2c]
  407379:	8d 42 fc             	lea    eax,[edx-0x4]
  40737c:	39 c1                	cmp    ecx,eax
  40737e:	73 24                	jae    4073a4 <___quorem_D2A+0x1e4>
  407380:	8b 72 fc             	mov    esi,DWORD PTR [edx-0x4]
  407383:	85 f6                	test   esi,esi
  407385:	75 1d                	jne    4073a4 <___quorem_D2A+0x1e4>
  407387:	89 da                	mov    edx,ebx
  407389:	eb 0b                	jmp    407396 <___quorem_D2A+0x1d6>
  40738b:	90                   	nop
  40738c:	8d 74 26 00          	lea    esi,[esi+eiz*1+0x0]
  407390:	8b 18                	mov    ebx,DWORD PTR [eax]
  407392:	85 db                	test   ebx,ebx
  407394:	75 0a                	jne    4073a0 <___quorem_D2A+0x1e0>
  407396:	83 e8 04             	sub    eax,0x4
  407399:	83 ea 01             	sub    edx,0x1
  40739c:	39 c1                	cmp    ecx,eax
  40739e:	72 f0                	jb     407390 <___quorem_D2A+0x1d0>
  4073a0:	89 54 24 30          	mov    DWORD PTR [esp+0x30],edx
  4073a4:	8b 44 24 60          	mov    eax,DWORD PTR [esp+0x60]
  4073a8:	8b 7c 24 30          	mov    edi,DWORD PTR [esp+0x30]
  4073ac:	89 78 10             	mov    DWORD PTR [eax+0x10],edi
  4073af:	8b 44 24 34          	mov    eax,DWORD PTR [esp+0x34]
  4073b3:	83 c4 4c             	add    esp,0x4c
  4073b6:	5b                   	pop    ebx
  4073b7:	5e                   	pop    esi
  4073b8:	5f                   	pop    edi
  4073b9:	5d                   	pop    ebp
  4073ba:	c3                   	ret    
  4073bb:	90                   	nop
  4073bc:	90                   	nop
  4073bd:	90                   	nop
  4073be:	90                   	nop
  4073bf:	90                   	nop

004073c0 <_dtoa_lock>:
  4073c0:	55                   	push   ebp
  4073c1:	89 e5                	mov    ebp,esp
  4073c3:	53                   	push   ebx
  4073c4:	89 c3                	mov    ebx,eax
  4073c6:	83 ec 14             	sub    esp,0x14
  4073c9:	8b 15 c8 d9 40 00    	mov    edx,DWORD PTR ds:0x40d9c8
  4073cf:	83 fa 02             	cmp    edx,0x2
  4073d2:	74 7f                	je     407453 <_dtoa_lock+0x93>
  4073d4:	85 d2                	test   edx,edx
  4073d6:	75 1d                	jne    4073f5 <_dtoa_lock+0x35>
  4073d8:	eb 2a                	jmp    407404 <_dtoa_lock+0x44>
  4073da:	8d b6 00 00 00 00    	lea    esi,[esi+0x0]
  4073e0:	c7 04 24 01 00 00 00 	mov    DWORD PTR [esp],0x1
  4073e7:	e8 34 0c 00 00       	call   408020 <_Sleep@4>
  4073ec:	83 ec 04             	sub    esp,0x4
  4073ef:	8b 15 c8 d9 40 00    	mov    edx,DWORD PTR ds:0x40d9c8
  4073f5:	83 fa 01             	cmp    edx,0x1
  4073f8:	74 e6                	je     4073e0 <_dtoa_lock+0x20>
  4073fa:	83 fa 02             	cmp    edx,0x2
  4073fd:	74 54                	je     407453 <_dtoa_lock+0x93>
  4073ff:	8b 5d fc             	mov    ebx,DWORD PTR [ebp-0x4]
  407402:	c9                   	leave  
  407403:	c3                   	ret    
  407404:	c7 44 24 04 01 00 00 	mov    DWORD PTR [esp+0x4],0x1
  40740b:	00 
  40740c:	c7 04 24 c8 d9 40 00 	mov    DWORD PTR [esp],0x40d9c8
  407413:	e8 30 0c 00 00       	call   408048 <_InterlockedExchange@8>
  407418:	83 ec 08             	sub    esp,0x8
  40741b:	85 c0                	test   eax,eax
  40741d:	75 51                	jne    407470 <_dtoa_lock+0xb0>
  40741f:	c7 04 24 e0 d9 40 00 	mov    DWORD PTR [esp],0x40d9e0
  407426:	e8 25 0c 00 00       	call   408050 <_InitializeCriticalSection@4>
  40742b:	83 ec 04             	sub    esp,0x4
  40742e:	c7 04 24 f8 d9 40 00 	mov    DWORD PTR [esp],0x40d9f8
  407435:	e8 16 0c 00 00       	call   408050 <_InitializeCriticalSection@4>
  40743a:	83 ec 04             	sub    esp,0x4
  40743d:	c7 04 24 90 74 40 00 	mov    DWORD PTR [esp],0x407490
  407444:	e8 97 9e ff ff       	call   4012e0 <_atexit>
  407449:	c7 05 c8 d9 40 00 02 	mov    DWORD PTR ds:0x40d9c8,0x2
  407450:	00 00 00 
  407453:	8d 04 5b             	lea    eax,[ebx+ebx*2]
  407456:	8d 04 c5 e0 d9 40 00 	lea    eax,[eax*8+0x40d9e0]
  40745d:	89 04 24             	mov    DWORD PTR [esp],eax
  407460:	e8 33 0c 00 00       	call   408098 <_EnterCriticalSection@4>
  407465:	8b 5d fc             	mov    ebx,DWORD PTR [ebp-0x4]
  407468:	83 ec 04             	sub    esp,0x4
  40746b:	c9                   	leave  
  40746c:	c3                   	ret    
  40746d:	8d 76 00             	lea    esi,[esi+0x0]
  407470:	83 f8 02             	cmp    eax,0x2
  407473:	0f 85 76 ff ff ff    	jne    4073ef <_dtoa_lock+0x2f>
  407479:	c7 05 c8 d9 40 00 02 	mov    DWORD PTR ds:0x40d9c8,0x2
  407480:	00 00 00 
  407483:	eb ce                	jmp    407453 <_dtoa_lock+0x93>
  407485:	8d 74 26 00          	lea    esi,[esi+eiz*1+0x0]
  407489:	8d bc 27 00 00 00 00 	lea    edi,[edi+eiz*1+0x0]

00407490 <_dtoa_lock_cleanup>:
  407490:	55                   	push   ebp
  407491:	89 e5                	mov    ebp,esp
  407493:	83 ec 18             	sub    esp,0x18
  407496:	c7 44 24 04 03 00 00 	mov    DWORD PTR [esp+0x4],0x3
  40749d:	00 
  40749e:	c7 04 24 c8 d9 40 00 	mov    DWORD PTR [esp],0x40d9c8
  4074a5:	e8 9e 0b 00 00       	call   408048 <_InterlockedExchange@8>
  4074aa:	83 ec 08             	sub    esp,0x8
  4074ad:	83 f8 02             	cmp    eax,0x2
  4074b0:	74 02                	je     4074b4 <_dtoa_lock_cleanup+0x24>
  4074b2:	c9                   	leave  
  4074b3:	c3                   	ret    
  4074b4:	c7 04 24 e0 d9 40 00 	mov    DWORD PTR [esp],0x40d9e0
  4074bb:	e8 e0 0b 00 00       	call   4080a0 <_DeleteCriticalSection@4>
  4074c0:	83 ec 04             	sub    esp,0x4
  4074c3:	c7 04 24 f8 d9 40 00 	mov    DWORD PTR [esp],0x40d9f8
  4074ca:	e8 d1 0b 00 00       	call   4080a0 <_DeleteCriticalSection@4>
  4074cf:	83 ec 04             	sub    esp,0x4
  4074d2:	c9                   	leave  
  4074d3:	c3                   	ret    
  4074d4:	8d b6 00 00 00 00    	lea    esi,[esi+0x0]
  4074da:	8d bf 00 00 00 00    	lea    edi,[edi+0x0]

004074e0 <___Balloc_D2A>:
  4074e0:	55                   	push   ebp
  4074e1:	31 c0                	xor    eax,eax
  4074e3:	89 e5                	mov    ebp,esp
  4074e5:	57                   	push   edi
  4074e6:	56                   	push   esi
  4074e7:	53                   	push   ebx
  4074e8:	83 ec 1c             	sub    esp,0x1c
  4074eb:	8b 75 08             	mov    esi,DWORD PTR [ebp+0x8]
  4074ee:	e8 cd fe ff ff       	call   4073c0 <_dtoa_lock>
  4074f3:	83 fe 09             	cmp    esi,0x9
  4074f6:	7f 2e                	jg     407526 <___Balloc_D2A+0x46>
  4074f8:	8b 1c b5 a0 d9 40 00 	mov    ebx,DWORD PTR [esi*4+0x40d9a0]
  4074ff:	85 db                	test   ebx,ebx
  407501:	74 6e                	je     407571 <___Balloc_D2A+0x91>
  407503:	8b 03                	mov    eax,DWORD PTR [ebx]
  407505:	83 3d c8 d9 40 00 02 	cmp    DWORD PTR ds:0x40d9c8,0x2
  40750c:	89 04 b5 a0 d9 40 00 	mov    DWORD PTR [esi*4+0x40d9a0],eax
  407513:	75 44                	jne    407559 <___Balloc_D2A+0x79>
  407515:	c7 04 24 e0 d9 40 00 	mov    DWORD PTR [esp],0x40d9e0
  40751c:	e8 17 0b 00 00       	call   408038 <_LeaveCriticalSection@4>
  407521:	83 ec 04             	sub    esp,0x4
  407524:	eb 33                	jmp    407559 <___Balloc_D2A+0x79>
  407526:	bf 01 00 00 00       	mov    edi,0x1
  40752b:	89 f1                	mov    ecx,esi
  40752d:	d3 e7                	shl    edi,cl
  40752f:	8d 04 bd 1b 00 00 00 	lea    eax,[edi*4+0x1b]
  407536:	c1 e8 03             	shr    eax,0x3
  407539:	c1 e0 03             	shl    eax,0x3
  40753c:	89 04 24             	mov    DWORD PTR [esp],eax
  40753f:	e8 34 0a 00 00       	call   407f78 <_malloc>
  407544:	85 c0                	test   eax,eax
  407546:	89 c3                	mov    ebx,eax
  407548:	74 5f                	je     4075a9 <___Balloc_D2A+0xc9>
  40754a:	83 3d c8 d9 40 00 02 	cmp    DWORD PTR ds:0x40d9c8,0x2
  407551:	89 73 04             	mov    DWORD PTR [ebx+0x4],esi
  407554:	89 7b 08             	mov    DWORD PTR [ebx+0x8],edi
  407557:	74 bc                	je     407515 <___Balloc_D2A+0x35>
  407559:	c7 43 10 00 00 00 00 	mov    DWORD PTR [ebx+0x10],0x0
  407560:	89 d8                	mov    eax,ebx
  407562:	c7 43 0c 00 00 00 00 	mov    DWORD PTR [ebx+0xc],0x0
  407569:	8d 65 f4             	lea    esp,[ebp-0xc]
  40756c:	5b                   	pop    ebx
  40756d:	5e                   	pop    esi
  40756e:	5f                   	pop    edi
  40756f:	5d                   	pop    ebp
  407570:	c3                   	ret    
  407571:	8b 1d 20 90 40 00    	mov    ebx,DWORD PTR ds:0x409020
  407577:	bf 01 00 00 00       	mov    edi,0x1
  40757c:	89 f1                	mov    ecx,esi
  40757e:	d3 e7                	shl    edi,cl
  407580:	8d 04 bd 1b 00 00 00 	lea    eax,[edi*4+0x1b]
  407587:	c1 e8 03             	shr    eax,0x3
  40758a:	89 da                	mov    edx,ebx
  40758c:	81 ea a0 d0 40 00    	sub    edx,0x40d0a0
  407592:	c1 fa 03             	sar    edx,0x3
  407595:	01 c2                	add    edx,eax
  407597:	81 fa 20 01 00 00    	cmp    edx,0x120
  40759d:	77 9a                	ja     407539 <___Balloc_D2A+0x59>
  40759f:	8d 04 c3             	lea    eax,[ebx+eax*8]
  4075a2:	a3 20 90 40 00       	mov    ds:0x409020,eax
  4075a7:	eb a1                	jmp    40754a <___Balloc_D2A+0x6a>
  4075a9:	31 c0                	xor    eax,eax
  4075ab:	eb bc                	jmp    407569 <___Balloc_D2A+0x89>
  4075ad:	8d 76 00             	lea    esi,[esi+0x0]

004075b0 <___Bfree_D2A>:
  4075b0:	55                   	push   ebp
  4075b1:	89 e5                	mov    ebp,esp
  4075b3:	53                   	push   ebx
  4075b4:	83 ec 14             	sub    esp,0x14
  4075b7:	8b 5d 08             	mov    ebx,DWORD PTR [ebp+0x8]
  4075ba:	85 db                	test   ebx,ebx
  4075bc:	74 29                	je     4075e7 <___Bfree_D2A+0x37>
  4075be:	83 7b 04 09          	cmp    DWORD PTR [ebx+0x4],0x9
  4075c2:	7f 2c                	jg     4075f0 <___Bfree_D2A+0x40>
  4075c4:	31 c0                	xor    eax,eax
  4075c6:	e8 f5 fd ff ff       	call   4073c0 <_dtoa_lock>
  4075cb:	8b 43 04             	mov    eax,DWORD PTR [ebx+0x4]
  4075ce:	83 3d c8 d9 40 00 02 	cmp    DWORD PTR ds:0x40d9c8,0x2
  4075d5:	8b 14 85 a0 d9 40 00 	mov    edx,DWORD PTR [eax*4+0x40d9a0]
  4075dc:	89 1c 85 a0 d9 40 00 	mov    DWORD PTR [eax*4+0x40d9a0],ebx
  4075e3:	89 13                	mov    DWORD PTR [ebx],edx
  4075e5:	74 19                	je     407600 <___Bfree_D2A+0x50>
  4075e7:	8b 5d fc             	mov    ebx,DWORD PTR [ebp-0x4]
  4075ea:	c9                   	leave  
  4075eb:	c3                   	ret    
  4075ec:	8d 74 26 00          	lea    esi,[esi+eiz*1+0x0]
  4075f0:	8b 5d fc             	mov    ebx,DWORD PTR [ebp-0x4]
  4075f3:	c9                   	leave  
  4075f4:	e9 a7 09 00 00       	jmp    407fa0 <_free>
  4075f9:	8d b4 26 00 00 00 00 	lea    esi,[esi+eiz*1+0x0]
  407600:	c7 04 24 e0 d9 40 00 	mov    DWORD PTR [esp],0x40d9e0
  407607:	e8 2c 0a 00 00       	call   408038 <_LeaveCriticalSection@4>
  40760c:	8b 5d fc             	mov    ebx,DWORD PTR [ebp-0x4]
  40760f:	83 ec 04             	sub    esp,0x4
  407612:	c9                   	leave  
  407613:	c3                   	ret    
  407614:	8d b6 00 00 00 00    	lea    esi,[esi+0x0]
  40761a:	8d bf 00 00 00 00    	lea    edi,[edi+0x0]

00407620 <___multadd_D2A>:
  407620:	55                   	push   ebp
  407621:	31 c9                	xor    ecx,ecx
  407623:	57                   	push   edi
  407624:	56                   	push   esi
  407625:	53                   	push   ebx
  407626:	83 ec 2c             	sub    esp,0x2c
  407629:	8b 44 24 40          	mov    eax,DWORD PTR [esp+0x40]
  40762d:	8b 7c 24 48          	mov    edi,DWORD PTR [esp+0x48]
  407631:	8b 40 10             	mov    eax,DWORD PTR [eax+0x10]
  407634:	89 fd                	mov    ebp,edi
  407636:	c1 fd 1f             	sar    ebp,0x1f
  407639:	89 44 24 1c          	mov    DWORD PTR [esp+0x1c],eax
  40763d:	8b 44 24 40          	mov    eax,DWORD PTR [esp+0x40]
  407641:	8d 58 14             	lea    ebx,[eax+0x14]
  407644:	8b 44 24 44          	mov    eax,DWORD PTR [esp+0x44]
  407648:	89 44 24 10          	mov    DWORD PTR [esp+0x10],eax
  40764c:	c1 f8 1f             	sar    eax,0x1f
  40764f:	89 44 24 14          	mov    DWORD PTR [esp+0x14],eax
  407653:	8b 04 8b             	mov    eax,DWORD PTR [ebx+ecx*4]
  407656:	8b 74 24 14          	mov    esi,DWORD PTR [esp+0x14]
  40765a:	0f af f0             	imul   esi,eax
  40765d:	f7 64 24 10          	mul    DWORD PTR [esp+0x10]
  407661:	01 f2                	add    edx,esi
  407663:	01 f8                	add    eax,edi
  407665:	11 ea                	adc    edx,ebp
  407667:	89 d5                	mov    ebp,edx
  407669:	89 ef                	mov    edi,ebp
  40766b:	31 ed                	xor    ebp,ebp
  40766d:	89 04 8b             	mov    DWORD PTR [ebx+ecx*4],eax
  407670:	83 c1 01             	add    ecx,0x1
  407673:	39 4c 24 1c          	cmp    DWORD PTR [esp+0x1c],ecx
  407677:	7f da                	jg     407653 <___multadd_D2A+0x33>
  407679:	89 ea                	mov    edx,ebp
  40767b:	8b 44 24 40          	mov    eax,DWORD PTR [esp+0x40]
  40767f:	09 fa                	or     edx,edi
  407681:	74 1d                	je     4076a0 <___multadd_D2A+0x80>
  407683:	8b 54 24 1c          	mov    edx,DWORD PTR [esp+0x1c]
  407687:	3b 50 08             	cmp    edx,DWORD PTR [eax+0x8]
  40768a:	7d 1c                	jge    4076a8 <___multadd_D2A+0x88>
  40768c:	8b 54 24 40          	mov    edx,DWORD PTR [esp+0x40]
  407690:	8b 44 24 1c          	mov    eax,DWORD PTR [esp+0x1c]
  407694:	89 7c 82 14          	mov    DWORD PTR [edx+eax*4+0x14],edi
  407698:	83 c0 01             	add    eax,0x1
  40769b:	89 42 10             	mov    DWORD PTR [edx+0x10],eax
  40769e:	89 d0                	mov    eax,edx
  4076a0:	83 c4 2c             	add    esp,0x2c
  4076a3:	5b                   	pop    ebx
  4076a4:	5e                   	pop    esi
  4076a5:	5f                   	pop    edi
  4076a6:	5d                   	pop    ebp
  4076a7:	c3                   	ret    
  4076a8:	8b 40 04             	mov    eax,DWORD PTR [eax+0x4]
  4076ab:	89 44 24 10          	mov    DWORD PTR [esp+0x10],eax
  4076af:	83 c0 01             	add    eax,0x1
  4076b2:	89 04 24             	mov    DWORD PTR [esp],eax
  4076b5:	e8 26 fe ff ff       	call   4074e0 <___Balloc_D2A>
  4076ba:	85 c0                	test   eax,eax
  4076bc:	89 c3                	mov    ebx,eax
  4076be:	74 3a                	je     4076fa <___multadd_D2A+0xda>
  4076c0:	8d 48 0c             	lea    ecx,[eax+0xc]
  4076c3:	8b 44 24 40          	mov    eax,DWORD PTR [esp+0x40]
  4076c7:	8b 40 10             	mov    eax,DWORD PTR [eax+0x10]
  4076ca:	89 0c 24             	mov    DWORD PTR [esp],ecx
  4076cd:	8d 14 85 08 00 00 00 	lea    edx,[eax*4+0x8]
  4076d4:	8b 44 24 40          	mov    eax,DWORD PTR [esp+0x40]
  4076d8:	89 54 24 08          	mov    DWORD PTR [esp+0x8],edx
  4076dc:	83 c0 0c             	add    eax,0xc
  4076df:	89 44 24 04          	mov    DWORD PTR [esp+0x4],eax
  4076e3:	e8 80 08 00 00       	call   407f68 <_memcpy>
  4076e8:	8b 44 24 40          	mov    eax,DWORD PTR [esp+0x40]
  4076ec:	89 04 24             	mov    DWORD PTR [esp],eax
  4076ef:	e8 bc fe ff ff       	call   4075b0 <___Bfree_D2A>
  4076f4:	89 5c 24 40          	mov    DWORD PTR [esp+0x40],ebx
  4076f8:	eb 92                	jmp    40768c <___multadd_D2A+0x6c>
  4076fa:	31 c0                	xor    eax,eax
  4076fc:	eb a2                	jmp    4076a0 <___multadd_D2A+0x80>
  4076fe:	66 90                	xchg   ax,ax

00407700 <___i2b_D2A>:
  407700:	83 ec 1c             	sub    esp,0x1c
  407703:	c7 04 24 01 00 00 00 	mov    DWORD PTR [esp],0x1
  40770a:	e8 d1 fd ff ff       	call   4074e0 <___Balloc_D2A>
  40770f:	85 c0                	test   eax,eax
  407711:	74 0e                	je     407721 <___i2b_D2A+0x21>
  407713:	8b 54 24 20          	mov    edx,DWORD PTR [esp+0x20]
  407717:	c7 40 10 01 00 00 00 	mov    DWORD PTR [eax+0x10],0x1
  40771e:	89 50 14             	mov    DWORD PTR [eax+0x14],edx
  407721:	83 c4 1c             	add    esp,0x1c
  407724:	c3                   	ret    
  407725:	8d 74 26 00          	lea    esi,[esi+eiz*1+0x0]
  407729:	8d bc 27 00 00 00 00 	lea    edi,[edi+eiz*1+0x0]

00407730 <___mult_D2A>:
  407730:	55                   	push   ebp
  407731:	57                   	push   edi
  407732:	56                   	push   esi
  407733:	53                   	push   ebx
  407734:	83 ec 3c             	sub    esp,0x3c
  407737:	8b 7c 24 50          	mov    edi,DWORD PTR [esp+0x50]
  40773b:	8b 6c 24 54          	mov    ebp,DWORD PTR [esp+0x54]
  40773f:	8b 77 10             	mov    esi,DWORD PTR [edi+0x10]
  407742:	8b 5d 10             	mov    ebx,DWORD PTR [ebp+0x10]
  407745:	39 de                	cmp    esi,ebx
  407747:	7d 0c                	jge    407755 <___mult_D2A+0x25>
  407749:	89 f0                	mov    eax,esi
  40774b:	89 de                	mov    esi,ebx
  40774d:	89 c3                	mov    ebx,eax
  40774f:	89 f8                	mov    eax,edi
  407751:	89 ef                	mov    edi,ebp
  407753:	89 c5                	mov    ebp,eax
  407755:	8d 04 1e             	lea    eax,[esi+ebx*1]
  407758:	3b 47 08             	cmp    eax,DWORD PTR [edi+0x8]
  40775b:	89 44 24 20          	mov    DWORD PTR [esp+0x20],eax
  40775f:	0f 9f c0             	setg   al
  407762:	0f b6 c0             	movzx  eax,al
  407765:	03 47 04             	add    eax,DWORD PTR [edi+0x4]
  407768:	89 04 24             	mov    DWORD PTR [esp],eax
  40776b:	e8 70 fd ff ff       	call   4074e0 <___Balloc_D2A>
  407770:	85 c0                	test   eax,eax
  407772:	89 44 24 2c          	mov    DWORD PTR [esp+0x2c],eax
  407776:	0f 84 08 01 00 00    	je     407884 <___mult_D2A+0x154>
  40777c:	8b 4c 24 20          	mov    ecx,DWORD PTR [esp+0x20]
  407780:	8d 40 14             	lea    eax,[eax+0x14]
  407783:	89 44 24 18          	mov    DWORD PTR [esp+0x18],eax
  407787:	8d 0c 88             	lea    ecx,[eax+ecx*4]
  40778a:	89 ca                	mov    edx,ecx
  40778c:	39 d0                	cmp    eax,edx
  40778e:	89 4c 24 28          	mov    DWORD PTR [esp+0x28],ecx
  407792:	73 11                	jae    4077a5 <___mult_D2A+0x75>
  407794:	8b 54 24 28          	mov    edx,DWORD PTR [esp+0x28]
  407798:	c7 00 00 00 00 00    	mov    DWORD PTR [eax],0x0
  40779e:	83 c0 04             	add    eax,0x4
  4077a1:	39 c2                	cmp    edx,eax
  4077a3:	77 f3                	ja     407798 <___mult_D2A+0x68>
  4077a5:	8d 47 14             	lea    eax,[edi+0x14]
  4077a8:	89 44 24 24          	mov    DWORD PTR [esp+0x24],eax
  4077ac:	8d 04 b0             	lea    eax,[eax+esi*4]
  4077af:	89 44 24 10          	mov    DWORD PTR [esp+0x10],eax
  4077b3:	8d 45 14             	lea    eax,[ebp+0x14]
  4077b6:	8d 1c 98             	lea    ebx,[eax+ebx*4]
  4077b9:	39 d8                	cmp    eax,ebx
  4077bb:	89 44 24 14          	mov    DWORD PTR [esp+0x14],eax
  4077bf:	89 5c 24 1c          	mov    DWORD PTR [esp+0x1c],ebx
  4077c3:	73 74                	jae    407839 <___mult_D2A+0x109>
  4077c5:	83 44 24 14 04       	add    DWORD PTR [esp+0x14],0x4
  4077ca:	8b 44 24 14          	mov    eax,DWORD PTR [esp+0x14]
  4077ce:	8b 68 fc             	mov    ebp,DWORD PTR [eax-0x4]
  4077d1:	85 ed                	test   ebp,ebp
  4077d3:	74 55                	je     40782a <___mult_D2A+0xfa>
  4077d5:	8b 7c 24 18          	mov    edi,DWORD PTR [esp+0x18]
  4077d9:	8b 74 24 24          	mov    esi,DWORD PTR [esp+0x24]
  4077dd:	c7 44 24 08 00 00 00 	mov    DWORD PTR [esp+0x8],0x0
  4077e4:	00 
  4077e5:	c7 44 24 0c 00 00 00 	mov    DWORD PTR [esp+0xc],0x0
  4077ec:	00 
  4077ed:	eb 03                	jmp    4077f2 <___mult_D2A+0xc2>
  4077ef:	90                   	nop
  4077f0:	89 c7                	mov    edi,eax
  4077f2:	83 c6 04             	add    esi,0x4
  4077f5:	8b 0f                	mov    ecx,DWORD PTR [edi]
  4077f7:	89 e8                	mov    eax,ebp
  4077f9:	f7 66 fc             	mul    DWORD PTR [esi-0x4]
  4077fc:	31 db                	xor    ebx,ebx
  4077fe:	01 c1                	add    ecx,eax
  407800:	11 d3                	adc    ebx,edx
  407802:	03 4c 24 08          	add    ecx,DWORD PTR [esp+0x8]
  407806:	13 5c 24 0c          	adc    ebx,DWORD PTR [esp+0xc]
  40780a:	89 0f                	mov    DWORD PTR [edi],ecx
  40780c:	89 da                	mov    edx,ebx
  40780e:	89 d0                	mov    eax,edx
  407810:	31 d2                	xor    edx,edx
  407812:	39 74 24 10          	cmp    DWORD PTR [esp+0x10],esi
  407816:	89 44 24 08          	mov    DWORD PTR [esp+0x8],eax
  40781a:	8d 47 04             	lea    eax,[edi+0x4]
  40781d:	89 54 24 0c          	mov    DWORD PTR [esp+0xc],edx
  407821:	77 cd                	ja     4077f0 <___mult_D2A+0xc0>
  407823:	8b 44 24 08          	mov    eax,DWORD PTR [esp+0x8]
  407827:	89 47 04             	mov    DWORD PTR [edi+0x4],eax
  40782a:	8b 44 24 14          	mov    eax,DWORD PTR [esp+0x14]
  40782e:	83 44 24 18 04       	add    DWORD PTR [esp+0x18],0x4
  407833:	39 44 24 1c          	cmp    DWORD PTR [esp+0x1c],eax
  407837:	77 8c                	ja     4077c5 <___mult_D2A+0x95>
  407839:	8b 7c 24 20          	mov    edi,DWORD PTR [esp+0x20]
  40783d:	85 ff                	test   edi,edi
  40783f:	7e 30                	jle    407871 <___mult_D2A+0x141>
  407841:	8b 5c 24 28          	mov    ebx,DWORD PTR [esp+0x28]
  407845:	8b 73 fc             	mov    esi,DWORD PTR [ebx-0x4]
  407848:	85 f6                	test   esi,esi
  40784a:	75 25                	jne    407871 <___mult_D2A+0x141>
  40784c:	8b 54 24 20          	mov    edx,DWORD PTR [esp+0x20]
  407850:	89 d0                	mov    eax,edx
  407852:	c1 e0 02             	shl    eax,0x2
  407855:	29 c3                	sub    ebx,eax
  407857:	89 d8                	mov    eax,ebx
  407859:	eb 0d                	jmp    407868 <___mult_D2A+0x138>
  40785b:	90                   	nop
  40785c:	8d 74 26 00          	lea    esi,[esi+eiz*1+0x0]
  407860:	8b 4c 90 fc          	mov    ecx,DWORD PTR [eax+edx*4-0x4]
  407864:	85 c9                	test   ecx,ecx
  407866:	75 05                	jne    40786d <___mult_D2A+0x13d>
  407868:	83 ea 01             	sub    edx,0x1
  40786b:	75 f3                	jne    407860 <___mult_D2A+0x130>
  40786d:	89 54 24 20          	mov    DWORD PTR [esp+0x20],edx
  407871:	8b 44 24 2c          	mov    eax,DWORD PTR [esp+0x2c]
  407875:	8b 5c 24 20          	mov    ebx,DWORD PTR [esp+0x20]
  407879:	89 58 10             	mov    DWORD PTR [eax+0x10],ebx
  40787c:	83 c4 3c             	add    esp,0x3c
  40787f:	5b                   	pop    ebx
  407880:	5e                   	pop    esi
  407881:	5f                   	pop    edi
  407882:	5d                   	pop    ebp
  407883:	c3                   	ret    
  407884:	31 c0                	xor    eax,eax
  407886:	eb f4                	jmp    40787c <___mult_D2A+0x14c>
  407888:	90                   	nop
  407889:	8d b4 26 00 00 00 00 	lea    esi,[esi+eiz*1+0x0]

00407890 <___pow5mult_D2A>:
  407890:	55                   	push   ebp
  407891:	89 e5                	mov    ebp,esp
  407893:	57                   	push   edi
  407894:	56                   	push   esi
  407895:	53                   	push   ebx
  407896:	83 ec 1c             	sub    esp,0x1c
  407899:	8b 5d 0c             	mov    ebx,DWORD PTR [ebp+0xc]
  40789c:	8b 55 08             	mov    edx,DWORD PTR [ebp+0x8]
  40789f:	89 d8                	mov    eax,ebx
  4078a1:	83 e0 03             	and    eax,0x3
  4078a4:	0f 85 9e 00 00 00    	jne    407948 <___pow5mult_D2A+0xb8>
  4078aa:	c1 fb 02             	sar    ebx,0x2
  4078ad:	89 d0                	mov    eax,edx
  4078af:	85 db                	test   ebx,ebx
  4078b1:	74 4e                	je     407901 <___pow5mult_D2A+0x71>
  4078b3:	8b 3d 80 d0 40 00    	mov    edi,DWORD PTR ds:0x40d080
  4078b9:	85 ff                	test   edi,edi
  4078bb:	0f 84 d5 00 00 00    	je     407996 <___pow5mult_D2A+0x106>
  4078c1:	f6 c3 01             	test   bl,0x1
  4078c4:	75 13                	jne    4078d9 <___pow5mult_D2A+0x49>
  4078c6:	d1 fb                	sar    ebx,1
  4078c8:	74 35                	je     4078ff <___pow5mult_D2A+0x6f>
  4078ca:	8b 37                	mov    esi,DWORD PTR [edi]
  4078cc:	85 f6                	test   esi,esi
  4078ce:	66 90                	xchg   ax,ax
  4078d0:	74 3e                	je     407910 <___pow5mult_D2A+0x80>
  4078d2:	89 f7                	mov    edi,esi
  4078d4:	f6 c3 01             	test   bl,0x1
  4078d7:	74 ed                	je     4078c6 <___pow5mult_D2A+0x36>
  4078d9:	89 7c 24 04          	mov    DWORD PTR [esp+0x4],edi
  4078dd:	89 14 24             	mov    DWORD PTR [esp],edx
  4078e0:	89 55 e4             	mov    DWORD PTR [ebp-0x1c],edx
  4078e3:	e8 48 fe ff ff       	call   407730 <___mult_D2A>
  4078e8:	85 c0                	test   eax,eax
  4078ea:	89 c6                	mov    esi,eax
  4078ec:	74 7f                	je     40796d <___pow5mult_D2A+0xdd>
  4078ee:	8b 55 e4             	mov    edx,DWORD PTR [ebp-0x1c]
  4078f1:	89 14 24             	mov    DWORD PTR [esp],edx
  4078f4:	e8 b7 fc ff ff       	call   4075b0 <___Bfree_D2A>
  4078f9:	d1 fb                	sar    ebx,1
  4078fb:	89 f2                	mov    edx,esi
  4078fd:	75 cb                	jne    4078ca <___pow5mult_D2A+0x3a>
  4078ff:	89 d0                	mov    eax,edx
  407901:	8d 65 f4             	lea    esp,[ebp-0xc]
  407904:	5b                   	pop    ebx
  407905:	5e                   	pop    esi
  407906:	5f                   	pop    edi
  407907:	5d                   	pop    ebp
  407908:	c3                   	ret    
  407909:	8d b4 26 00 00 00 00 	lea    esi,[esi+eiz*1+0x0]
  407910:	b8 01 00 00 00       	mov    eax,0x1
  407915:	89 55 e4             	mov    DWORD PTR [ebp-0x1c],edx
  407918:	e8 a3 fa ff ff       	call   4073c0 <_dtoa_lock>
  40791d:	8b 37                	mov    esi,DWORD PTR [edi]
  40791f:	8b 55 e4             	mov    edx,DWORD PTR [ebp-0x1c]
  407922:	85 f6                	test   esi,esi
  407924:	74 51                	je     407977 <___pow5mult_D2A+0xe7>
  407926:	83 3d c8 d9 40 00 02 	cmp    DWORD PTR ds:0x40d9c8,0x2
  40792d:	75 a3                	jne    4078d2 <___pow5mult_D2A+0x42>
  40792f:	c7 04 24 f8 d9 40 00 	mov    DWORD PTR [esp],0x40d9f8
  407936:	89 f7                	mov    edi,esi
  407938:	89 55 e4             	mov    DWORD PTR [ebp-0x1c],edx
  40793b:	e8 f8 06 00 00       	call   408038 <_LeaveCriticalSection@4>
  407940:	8b 55 e4             	mov    edx,DWORD PTR [ebp-0x1c]
  407943:	83 ec 04             	sub    esp,0x4
  407946:	eb 8c                	jmp    4078d4 <___pow5mult_D2A+0x44>
  407948:	8b 04 85 5c a3 40 00 	mov    eax,DWORD PTR [eax*4+0x40a35c]
  40794f:	89 14 24             	mov    DWORD PTR [esp],edx
  407952:	c7 44 24 08 00 00 00 	mov    DWORD PTR [esp+0x8],0x0
  407959:	00 
  40795a:	89 44 24 04          	mov    DWORD PTR [esp+0x4],eax
  40795e:	e8 bd fc ff ff       	call   407620 <___multadd_D2A>
  407963:	85 c0                	test   eax,eax
  407965:	89 c2                	mov    edx,eax
  407967:	0f 85 3d ff ff ff    	jne    4078aa <___pow5mult_D2A+0x1a>
  40796d:	31 c0                	xor    eax,eax
  40796f:	8d 65 f4             	lea    esp,[ebp-0xc]
  407972:	5b                   	pop    ebx
  407973:	5e                   	pop    esi
  407974:	5f                   	pop    edi
  407975:	5d                   	pop    ebp
  407976:	c3                   	ret    
  407977:	89 7c 24 04          	mov    DWORD PTR [esp+0x4],edi
  40797b:	89 3c 24             	mov    DWORD PTR [esp],edi
  40797e:	e8 ad fd ff ff       	call   407730 <___mult_D2A>
  407983:	85 c0                	test   eax,eax
  407985:	89 c6                	mov    esi,eax
  407987:	89 07                	mov    DWORD PTR [edi],eax
  407989:	74 e2                	je     40796d <___pow5mult_D2A+0xdd>
  40798b:	c7 00 00 00 00 00    	mov    DWORD PTR [eax],0x0
  407991:	8b 55 e4             	mov    edx,DWORD PTR [ebp-0x1c]
  407994:	eb 90                	jmp    407926 <___pow5mult_D2A+0x96>
  407996:	b8 01 00 00 00       	mov    eax,0x1
  40799b:	89 55 e4             	mov    DWORD PTR [ebp-0x1c],edx
  40799e:	e8 1d fa ff ff       	call   4073c0 <_dtoa_lock>
  4079a3:	8b 3d 80 d0 40 00    	mov    edi,DWORD PTR ds:0x40d080
  4079a9:	8b 55 e4             	mov    edx,DWORD PTR [ebp-0x1c]
  4079ac:	85 ff                	test   edi,edi
  4079ae:	74 27                	je     4079d7 <___pow5mult_D2A+0x147>
  4079b0:	83 3d c8 d9 40 00 02 	cmp    DWORD PTR ds:0x40d9c8,0x2
  4079b7:	0f 85 04 ff ff ff    	jne    4078c1 <___pow5mult_D2A+0x31>
  4079bd:	c7 04 24 f8 d9 40 00 	mov    DWORD PTR [esp],0x40d9f8
  4079c4:	89 55 e4             	mov    DWORD PTR [ebp-0x1c],edx
  4079c7:	e8 6c 06 00 00       	call   408038 <_LeaveCriticalSection@4>
  4079cc:	8b 55 e4             	mov    edx,DWORD PTR [ebp-0x1c]
  4079cf:	83 ec 04             	sub    esp,0x4
  4079d2:	e9 ea fe ff ff       	jmp    4078c1 <___pow5mult_D2A+0x31>
  4079d7:	c7 04 24 01 00 00 00 	mov    DWORD PTR [esp],0x1
  4079de:	e8 fd fa ff ff       	call   4074e0 <___Balloc_D2A>
  4079e3:	85 c0                	test   eax,eax
  4079e5:	89 c7                	mov    edi,eax
  4079e7:	74 1e                	je     407a07 <___pow5mult_D2A+0x177>
  4079e9:	c7 40 14 71 02 00 00 	mov    DWORD PTR [eax+0x14],0x271
  4079f0:	8b 55 e4             	mov    edx,DWORD PTR [ebp-0x1c]
  4079f3:	c7 40 10 01 00 00 00 	mov    DWORD PTR [eax+0x10],0x1
  4079fa:	a3 80 d0 40 00       	mov    ds:0x40d080,eax
  4079ff:	c7 00 00 00 00 00    	mov    DWORD PTR [eax],0x0
  407a05:	eb a9                	jmp    4079b0 <___pow5mult_D2A+0x120>
  407a07:	c7 05 80 d0 40 00 00 	mov    DWORD PTR ds:0x40d080,0x0
  407a0e:	00 00 00 
  407a11:	31 c0                	xor    eax,eax
  407a13:	e9 57 ff ff ff       	jmp    40796f <___pow5mult_D2A+0xdf>
  407a18:	90                   	nop
  407a19:	8d b4 26 00 00 00 00 	lea    esi,[esi+eiz*1+0x0]

00407a20 <___lshift_D2A>:
  407a20:	55                   	push   ebp
  407a21:	57                   	push   edi
  407a22:	56                   	push   esi
  407a23:	53                   	push   ebx
  407a24:	83 ec 2c             	sub    esp,0x2c
  407a27:	8b 44 24 40          	mov    eax,DWORD PTR [esp+0x40]
  407a2b:	8b 74 24 44          	mov    esi,DWORD PTR [esp+0x44]
  407a2f:	89 c7                	mov    edi,eax
  407a31:	8b 50 04             	mov    edx,DWORD PTR [eax+0x4]
  407a34:	8b 40 10             	mov    eax,DWORD PTR [eax+0x10]
  407a37:	89 f3                	mov    ebx,esi
  407a39:	c1 fb 05             	sar    ebx,0x5
  407a3c:	01 d8                	add    eax,ebx
  407a3e:	8d 68 01             	lea    ebp,[eax+0x1]
  407a41:	89 44 24 18          	mov    DWORD PTR [esp+0x18],eax
  407a45:	8b 47 08             	mov    eax,DWORD PTR [edi+0x8]
  407a48:	39 c5                	cmp    ebp,eax
  407a4a:	7e 0d                	jle    407a59 <___lshift_D2A+0x39>
  407a4c:	8d 74 26 00          	lea    esi,[esi+eiz*1+0x0]
  407a50:	01 c0                	add    eax,eax
  407a52:	83 c2 01             	add    edx,0x1
  407a55:	39 c5                	cmp    ebp,eax
  407a57:	7f f7                	jg     407a50 <___lshift_D2A+0x30>
  407a59:	89 14 24             	mov    DWORD PTR [esp],edx
  407a5c:	e8 7f fa ff ff       	call   4074e0 <___Balloc_D2A>
  407a61:	85 c0                	test   eax,eax
  407a63:	89 44 24 14          	mov    DWORD PTR [esp+0x14],eax
  407a67:	0f 84 bc 00 00 00    	je     407b29 <___lshift_D2A+0x109>
  407a6d:	85 db                	test   ebx,ebx
  407a6f:	8d 50 14             	lea    edx,[eax+0x14]
  407a72:	7e 13                	jle    407a87 <___lshift_D2A+0x67>
  407a74:	31 c0                	xor    eax,eax
  407a76:	c7 04 82 00 00 00 00 	mov    DWORD PTR [edx+eax*4],0x0
  407a7d:	83 c0 01             	add    eax,0x1
  407a80:	39 d8                	cmp    eax,ebx
  407a82:	75 f2                	jne    407a76 <___lshift_D2A+0x56>
  407a84:	8d 14 82             	lea    edx,[edx+eax*4]
  407a87:	8b 7c 24 40          	mov    edi,DWORD PTR [esp+0x40]
  407a8b:	8b 44 24 40          	mov    eax,DWORD PTR [esp+0x40]
  407a8f:	8b 4f 10             	mov    ecx,DWORD PTR [edi+0x10]
  407a92:	83 c0 14             	add    eax,0x14
  407a95:	83 e6 1f             	and    esi,0x1f
  407a98:	89 74 24 0c          	mov    DWORD PTR [esp+0xc],esi
  407a9c:	8d 3c 88             	lea    edi,[eax+ecx*4]
  407a9f:	89 f9                	mov    ecx,edi
  407aa1:	74 72                	je     407b15 <___lshift_D2A+0xf5>
  407aa3:	c7 44 24 10 20 00 00 	mov    DWORD PTR [esp+0x10],0x20
  407aaa:	00 
  407aab:	89 6c 24 1c          	mov    DWORD PTR [esp+0x1c],ebp
  407aaf:	89 cd                	mov    ebp,ecx
  407ab1:	29 74 24 10          	sub    DWORD PTR [esp+0x10],esi
  407ab5:	31 f6                	xor    esi,esi
  407ab7:	eb 09                	jmp    407ac2 <___lshift_D2A+0xa2>
  407ab9:	8d b4 26 00 00 00 00 	lea    esi,[esi+eiz*1+0x0]
  407ac0:	89 fa                	mov    edx,edi
  407ac2:	8b 18                	mov    ebx,DWORD PTR [eax]
  407ac4:	83 c0 04             	add    eax,0x4
  407ac7:	0f b6 4c 24 0c       	movzx  ecx,BYTE PTR [esp+0xc]
  407acc:	8d 7a 04             	lea    edi,[edx+0x4]
  407acf:	d3 e3                	shl    ebx,cl
  407ad1:	0f b6 4c 24 10       	movzx  ecx,BYTE PTR [esp+0x10]
  407ad6:	09 f3                	or     ebx,esi
  407ad8:	89 1a                	mov    DWORD PTR [edx],ebx
  407ada:	8b 70 fc             	mov    esi,DWORD PTR [eax-0x4]
  407add:	d3 ee                	shr    esi,cl
  407adf:	39 c5                	cmp    ebp,eax
  407ae1:	77 dd                	ja     407ac0 <___lshift_D2A+0xa0>
  407ae3:	85 f6                	test   esi,esi
  407ae5:	8b 6c 24 1c          	mov    ebp,DWORD PTR [esp+0x1c]
  407ae9:	89 72 04             	mov    DWORD PTR [edx+0x4],esi
  407aec:	74 07                	je     407af5 <___lshift_D2A+0xd5>
  407aee:	8b 6c 24 18          	mov    ebp,DWORD PTR [esp+0x18]
  407af2:	83 c5 02             	add    ebp,0x2
  407af5:	8b 7c 24 14          	mov    edi,DWORD PTR [esp+0x14]
  407af9:	8d 45 ff             	lea    eax,[ebp-0x1]
  407afc:	89 47 10             	mov    DWORD PTR [edi+0x10],eax
  407aff:	8b 44 24 40          	mov    eax,DWORD PTR [esp+0x40]
  407b03:	89 04 24             	mov    DWORD PTR [esp],eax
  407b06:	e8 a5 fa ff ff       	call   4075b0 <___Bfree_D2A>
  407b0b:	89 f8                	mov    eax,edi
  407b0d:	83 c4 2c             	add    esp,0x2c
  407b10:	5b                   	pop    ebx
  407b11:	5e                   	pop    esi
  407b12:	5f                   	pop    edi
  407b13:	5d                   	pop    ebp
  407b14:	c3                   	ret    
  407b15:	89 fb                	mov    ebx,edi
  407b17:	83 c0 04             	add    eax,0x4
  407b1a:	8b 48 fc             	mov    ecx,DWORD PTR [eax-0x4]
  407b1d:	83 c2 04             	add    edx,0x4
  407b20:	39 c3                	cmp    ebx,eax
  407b22:	89 4a fc             	mov    DWORD PTR [edx-0x4],ecx
  407b25:	77 f0                	ja     407b17 <___lshift_D2A+0xf7>
  407b27:	eb cc                	jmp    407af5 <___lshift_D2A+0xd5>
  407b29:	31 c0                	xor    eax,eax
  407b2b:	eb e0                	jmp    407b0d <___lshift_D2A+0xed>
  407b2d:	8d 76 00             	lea    esi,[esi+0x0]

00407b30 <___cmp_D2A>:
  407b30:	53                   	push   ebx
  407b31:	8b 4c 24 08          	mov    ecx,DWORD PTR [esp+0x8]
  407b35:	8b 54 24 0c          	mov    edx,DWORD PTR [esp+0xc]
  407b39:	8b 41 10             	mov    eax,DWORD PTR [ecx+0x10]
  407b3c:	8b 5a 10             	mov    ebx,DWORD PTR [edx+0x10]
  407b3f:	29 d8                	sub    eax,ebx
  407b41:	85 c0                	test   eax,eax
  407b43:	75 24                	jne    407b69 <___cmp_D2A+0x39>
  407b45:	c1 e3 02             	shl    ebx,0x2
  407b48:	83 c1 14             	add    ecx,0x14
  407b4b:	8d 04 19             	lea    eax,[ecx+ebx*1]
  407b4e:	8d 54 1a 14          	lea    edx,[edx+ebx*1+0x14]
  407b52:	eb 04                	jmp    407b58 <___cmp_D2A+0x28>
  407b54:	39 c1                	cmp    ecx,eax
  407b56:	73 18                	jae    407b70 <___cmp_D2A+0x40>
  407b58:	83 ea 04             	sub    edx,0x4
  407b5b:	83 e8 04             	sub    eax,0x4
  407b5e:	8b 1a                	mov    ebx,DWORD PTR [edx]
  407b60:	39 18                	cmp    DWORD PTR [eax],ebx
  407b62:	74 f0                	je     407b54 <___cmp_D2A+0x24>
  407b64:	19 c0                	sbb    eax,eax
  407b66:	83 c8 01             	or     eax,0x1
  407b69:	5b                   	pop    ebx
  407b6a:	c3                   	ret    
  407b6b:	90                   	nop
  407b6c:	8d 74 26 00          	lea    esi,[esi+eiz*1+0x0]
  407b70:	31 c0                	xor    eax,eax
  407b72:	5b                   	pop    ebx
  407b73:	c3                   	ret    
  407b74:	8d b6 00 00 00 00    	lea    esi,[esi+0x0]
  407b7a:	8d bf 00 00 00 00    	lea    edi,[edi+0x0]

00407b80 <___diff_D2A>:
  407b80:	55                   	push   ebp
  407b81:	57                   	push   edi
  407b82:	56                   	push   esi
  407b83:	53                   	push   ebx
  407b84:	83 ec 2c             	sub    esp,0x2c
  407b87:	8b 74 24 40          	mov    esi,DWORD PTR [esp+0x40]
  407b8b:	8b 5c 24 44          	mov    ebx,DWORD PTR [esp+0x44]
  407b8f:	89 34 24             	mov    DWORD PTR [esp],esi
  407b92:	89 5c 24 04          	mov    DWORD PTR [esp+0x4],ebx
  407b96:	e8 95 ff ff ff       	call   407b30 <___cmp_D2A>
  407b9b:	85 c0                	test   eax,eax
  407b9d:	0f 84 1f 01 00 00    	je     407cc2 <___diff_D2A+0x142>
  407ba3:	0f 88 3f 01 00 00    	js     407ce8 <___diff_D2A+0x168>
  407ba9:	31 ff                	xor    edi,edi
  407bab:	8b 46 04             	mov    eax,DWORD PTR [esi+0x4]
  407bae:	89 04 24             	mov    DWORD PTR [esp],eax
  407bb1:	e8 2a f9 ff ff       	call   4074e0 <___Balloc_D2A>
  407bb6:	85 c0                	test   eax,eax
  407bb8:	89 c2                	mov    edx,eax
  407bba:	89 44 24 1c          	mov    DWORD PTR [esp+0x1c],eax
  407bbe:	0f 84 34 01 00 00    	je     407cf8 <___diff_D2A+0x178>
  407bc4:	89 78 0c             	mov    DWORD PTR [eax+0xc],edi
  407bc7:	8b 46 10             	mov    eax,DWORD PTR [esi+0x10]
  407bca:	83 c6 14             	add    esi,0x14
  407bcd:	8d 6b 14             	lea    ebp,[ebx+0x14]
  407bd0:	8d 7a 14             	lea    edi,[edx+0x14]
  407bd3:	c7 44 24 08 00 00 00 	mov    DWORD PTR [esp+0x8],0x0
  407bda:	00 
  407bdb:	89 44 24 18          	mov    DWORD PTR [esp+0x18],eax
  407bdf:	8d 04 86             	lea    eax,[esi+eax*4]
  407be2:	89 44 24 10          	mov    DWORD PTR [esp+0x10],eax
  407be6:	8b 43 10             	mov    eax,DWORD PTR [ebx+0x10]
  407be9:	c7 44 24 0c 00 00 00 	mov    DWORD PTR [esp+0xc],0x0
  407bf0:	00 
  407bf1:	8d 44 85 00          	lea    eax,[ebp+eax*4+0x0]
  407bf5:	89 44 24 14          	mov    DWORD PTR [esp+0x14],eax
  407bf9:	8d b4 26 00 00 00 00 	lea    esi,[esi+eiz*1+0x0]
  407c00:	83 c5 04             	add    ebp,0x4
  407c03:	83 c6 04             	add    esi,0x4
  407c06:	8b 4d fc             	mov    ecx,DWORD PTR [ebp-0x4]
  407c09:	8b 46 fc             	mov    eax,DWORD PTR [esi-0x4]
  407c0c:	31 d2                	xor    edx,edx
  407c0e:	31 db                	xor    ebx,ebx
  407c10:	29 c8                	sub    eax,ecx
  407c12:	19 da                	sbb    edx,ebx
  407c14:	2b 44 24 08          	sub    eax,DWORD PTR [esp+0x8]
  407c18:	1b 54 24 0c          	sbb    edx,DWORD PTR [esp+0xc]
  407c1c:	83 c7 04             	add    edi,0x4
  407c1f:	c7 44 24 0c 00 00 00 	mov    DWORD PTR [esp+0xc],0x0
  407c26:	00 
  407c27:	89 d1                	mov    ecx,edx
  407c29:	83 e1 01             	and    ecx,0x1
  407c2c:	39 6c 24 14          	cmp    DWORD PTR [esp+0x14],ebp
  407c30:	89 4c 24 08          	mov    DWORD PTR [esp+0x8],ecx
  407c34:	89 47 fc             	mov    DWORD PTR [edi-0x4],eax
  407c37:	77 c7                	ja     407c00 <___diff_D2A+0x80>
  407c39:	39 74 24 10          	cmp    DWORD PTR [esp+0x10],esi
  407c3d:	76 4b                	jbe    407c8a <___diff_D2A+0x10a>
  407c3f:	8b 5c 24 0c          	mov    ebx,DWORD PTR [esp+0xc]
  407c43:	8b 4c 24 08          	mov    ecx,DWORD PTR [esp+0x8]
  407c47:	89 7c 24 14          	mov    DWORD PTR [esp+0x14],edi
  407c4b:	89 74 24 08          	mov    DWORD PTR [esp+0x8],esi
  407c4f:	90                   	nop
  407c50:	83 c6 04             	add    esi,0x4
  407c53:	8b 46 fc             	mov    eax,DWORD PTR [esi-0x4]
  407c56:	31 d2                	xor    edx,edx
  407c58:	29 c8                	sub    eax,ecx
  407c5a:	19 da                	sbb    edx,ebx
  407c5c:	83 c7 04             	add    edi,0x4
  407c5f:	89 d5                	mov    ebp,edx
  407c61:	31 db                	xor    ebx,ebx
  407c63:	83 e5 01             	and    ebp,0x1
  407c66:	39 74 24 10          	cmp    DWORD PTR [esp+0x10],esi
  407c6a:	89 e9                	mov    ecx,ebp
  407c6c:	89 47 fc             	mov    DWORD PTR [edi-0x4],eax
  407c6f:	77 df                	ja     407c50 <___diff_D2A+0xd0>
  407c71:	8b 6c 24 08          	mov    ebp,DWORD PTR [esp+0x8]
  407c75:	8b 7c 24 10          	mov    edi,DWORD PTR [esp+0x10]
  407c79:	8b 5c 24 14          	mov    ebx,DWORD PTR [esp+0x14]
  407c7d:	f7 d5                	not    ebp
  407c7f:	8d 54 3d 00          	lea    edx,[ebp+edi*1+0x0]
  407c83:	c1 ea 02             	shr    edx,0x2
  407c86:	8d 7c 93 04          	lea    edi,[ebx+edx*4+0x4]
  407c8a:	85 c0                	test   eax,eax
  407c8c:	75 21                	jne    407caf <___diff_D2A+0x12f>
  407c8e:	8b 54 24 18          	mov    edx,DWORD PTR [esp+0x18]
  407c92:	89 d0                	mov    eax,edx
  407c94:	c1 e0 02             	shl    eax,0x2
  407c97:	29 c7                	sub    edi,eax
  407c99:	89 d0                	mov    eax,edx
  407c9b:	90                   	nop
  407c9c:	8d 74 26 00          	lea    esi,[esi+eiz*1+0x0]
  407ca0:	83 e8 01             	sub    eax,0x1
  407ca3:	8b 6c 87 fc          	mov    ebp,DWORD PTR [edi+eax*4-0x4]
  407ca7:	85 ed                	test   ebp,ebp
  407ca9:	74 f5                	je     407ca0 <___diff_D2A+0x120>
  407cab:	89 44 24 18          	mov    DWORD PTR [esp+0x18],eax
  407caf:	8b 44 24 1c          	mov    eax,DWORD PTR [esp+0x1c]
  407cb3:	8b 54 24 18          	mov    edx,DWORD PTR [esp+0x18]
  407cb7:	89 50 10             	mov    DWORD PTR [eax+0x10],edx
  407cba:	83 c4 2c             	add    esp,0x2c
  407cbd:	5b                   	pop    ebx
  407cbe:	5e                   	pop    esi
  407cbf:	5f                   	pop    edi
  407cc0:	5d                   	pop    ebp
  407cc1:	c3                   	ret    
  407cc2:	c7 04 24 00 00 00 00 	mov    DWORD PTR [esp],0x0
  407cc9:	e8 12 f8 ff ff       	call   4074e0 <___Balloc_D2A>
  407cce:	85 c0                	test   eax,eax
  407cd0:	74 26                	je     407cf8 <___diff_D2A+0x178>
  407cd2:	c7 40 10 01 00 00 00 	mov    DWORD PTR [eax+0x10],0x1
  407cd9:	c7 40 14 00 00 00 00 	mov    DWORD PTR [eax+0x14],0x0
  407ce0:	83 c4 2c             	add    esp,0x2c
  407ce3:	5b                   	pop    ebx
  407ce4:	5e                   	pop    esi
  407ce5:	5f                   	pop    edi
  407ce6:	5d                   	pop    ebp
  407ce7:	c3                   	ret    
  407ce8:	89 f0                	mov    eax,esi
  407cea:	bf 01 00 00 00       	mov    edi,0x1
  407cef:	89 de                	mov    esi,ebx
  407cf1:	89 c3                	mov    ebx,eax
  407cf3:	e9 b3 fe ff ff       	jmp    407bab <___diff_D2A+0x2b>
  407cf8:	31 c0                	xor    eax,eax
  407cfa:	eb be                	jmp    407cba <___diff_D2A+0x13a>
  407cfc:	8d 74 26 00          	lea    esi,[esi+eiz*1+0x0]

00407d00 <___b2d_D2A>:
  407d00:	55                   	push   ebp
  407d01:	b9 20 00 00 00       	mov    ecx,0x20
  407d06:	57                   	push   edi
  407d07:	56                   	push   esi
  407d08:	53                   	push   ebx
  407d09:	83 ec 14             	sub    esp,0x14
  407d0c:	8b 44 24 28          	mov    eax,DWORD PTR [esp+0x28]
  407d10:	8b 7c 24 2c          	mov    edi,DWORD PTR [esp+0x2c]
  407d14:	8d 58 14             	lea    ebx,[eax+0x14]
  407d17:	8b 40 10             	mov    eax,DWORD PTR [eax+0x10]
  407d1a:	8d 2c 83             	lea    ebp,[ebx+eax*4]
  407d1d:	8b 55 fc             	mov    edx,DWORD PTR [ebp-0x4]
  407d20:	8d 75 fc             	lea    esi,[ebp-0x4]
  407d23:	0f bd c2             	bsr    eax,edx
  407d26:	83 f0 1f             	xor    eax,0x1f
  407d29:	29 c1                	sub    ecx,eax
  407d2b:	83 f8 0a             	cmp    eax,0xa
  407d2e:	89 0f                	mov    DWORD PTR [edi],ecx
  407d30:	7f 3e                	jg     407d70 <___b2d_D2A+0x70>
  407d32:	b9 0b 00 00 00       	mov    ecx,0xb
  407d37:	89 d7                	mov    edi,edx
  407d39:	29 c1                	sub    ecx,eax
  407d3b:	d3 ef                	shr    edi,cl
  407d3d:	81 cf 00 00 f0 3f    	or     edi,0x3ff00000
  407d43:	89 7c 24 04          	mov    DWORD PTR [esp+0x4],edi
  407d47:	31 ff                	xor    edi,edi
  407d49:	39 f3                	cmp    ebx,esi
  407d4b:	c7 04 24 00 00 00 00 	mov    DWORD PTR [esp],0x0
  407d52:	73 05                	jae    407d59 <___b2d_D2A+0x59>
  407d54:	8b 7d f8             	mov    edi,DWORD PTR [ebp-0x8]
  407d57:	d3 ef                	shr    edi,cl
  407d59:	8d 48 15             	lea    ecx,[eax+0x15]
  407d5c:	d3 e2                	shl    edx,cl
  407d5e:	09 d7                	or     edi,edx
  407d60:	89 3c 24             	mov    DWORD PTR [esp],edi
  407d63:	dd 04 24             	fld    QWORD PTR [esp]
  407d66:	83 c4 14             	add    esp,0x14
  407d69:	5b                   	pop    ebx
  407d6a:	5e                   	pop    esi
  407d6b:	5f                   	pop    edi
  407d6c:	5d                   	pop    ebp
  407d6d:	c3                   	ret    
  407d6e:	66 90                	xchg   ax,ax
  407d70:	31 ff                	xor    edi,edi
  407d72:	39 f3                	cmp    ebx,esi
  407d74:	73 06                	jae    407d7c <___b2d_D2A+0x7c>
  407d76:	8b 7d f8             	mov    edi,DWORD PTR [ebp-0x8]
  407d79:	8d 75 f8             	lea    esi,[ebp-0x8]
  407d7c:	89 c1                	mov    ecx,eax
  407d7e:	83 e9 0b             	sub    ecx,0xb
  407d81:	89 4c 24 0c          	mov    DWORD PTR [esp+0xc],ecx
  407d85:	74 49                	je     407dd0 <___b2d_D2A+0xd0>
  407d87:	0f b6 4c 24 0c       	movzx  ecx,BYTE PTR [esp+0xc]
  407d8c:	bd 2b 00 00 00       	mov    ebp,0x2b
  407d91:	29 c5                	sub    ebp,eax
  407d93:	89 f8                	mov    eax,edi
  407d95:	c7 04 24 00 00 00 00 	mov    DWORD PTR [esp],0x0
  407d9c:	d3 e2                	shl    edx,cl
  407d9e:	89 e9                	mov    ecx,ebp
  407da0:	d3 e8                	shr    eax,cl
  407da2:	81 ca 00 00 f0 3f    	or     edx,0x3ff00000
  407da8:	09 c2                	or     edx,eax
  407daa:	31 c0                	xor    eax,eax
  407dac:	39 de                	cmp    esi,ebx
  407dae:	89 54 24 04          	mov    DWORD PTR [esp+0x4],edx
  407db2:	76 05                	jbe    407db9 <___b2d_D2A+0xb9>
  407db4:	8b 46 fc             	mov    eax,DWORD PTR [esi-0x4]
  407db7:	d3 e8                	shr    eax,cl
  407db9:	0f b6 4c 24 0c       	movzx  ecx,BYTE PTR [esp+0xc]
  407dbe:	d3 e7                	shl    edi,cl
  407dc0:	09 f8                	or     eax,edi
  407dc2:	89 04 24             	mov    DWORD PTR [esp],eax
  407dc5:	dd 04 24             	fld    QWORD PTR [esp]
  407dc8:	83 c4 14             	add    esp,0x14
  407dcb:	5b                   	pop    ebx
  407dcc:	5e                   	pop    esi
  407dcd:	5f                   	pop    edi
  407dce:	5d                   	pop    ebp
  407dcf:	c3                   	ret    
  407dd0:	81 ca 00 00 f0 3f    	or     edx,0x3ff00000
  407dd6:	89 3c 24             	mov    DWORD PTR [esp],edi
  407dd9:	89 54 24 04          	mov    DWORD PTR [esp+0x4],edx
  407ddd:	dd 04 24             	fld    QWORD PTR [esp]
  407de0:	83 c4 14             	add    esp,0x14
  407de3:	5b                   	pop    ebx
  407de4:	5e                   	pop    esi
  407de5:	5f                   	pop    edi
  407de6:	5d                   	pop    ebp
  407de7:	c3                   	ret    
  407de8:	90                   	nop
  407de9:	8d b4 26 00 00 00 00 	lea    esi,[esi+eiz*1+0x0]

00407df0 <___d2b_D2A>:
  407df0:	55                   	push   ebp
  407df1:	57                   	push   edi
  407df2:	56                   	push   esi
  407df3:	53                   	push   ebx
  407df4:	83 ec 1c             	sub    esp,0x1c
  407df7:	dd 44 24 30          	fld    QWORD PTR [esp+0x30]
  407dfb:	c7 04 24 01 00 00 00 	mov    DWORD PTR [esp],0x1
  407e02:	dd 5c 24 08          	fstp   QWORD PTR [esp+0x8]
  407e06:	e8 d5 f6 ff ff       	call   4074e0 <___Balloc_D2A>
  407e0b:	85 c0                	test   eax,eax
  407e0d:	0f 84 c5 00 00 00    	je     407ed8 <___d2b_D2A+0xe8>
  407e13:	8b 54 24 0c          	mov    edx,DWORD PTR [esp+0xc]
  407e17:	89 d3                	mov    ebx,edx
  407e19:	81 e2 ff ff ff 7f    	and    edx,0x7fffffff
  407e1f:	c1 ea 14             	shr    edx,0x14
  407e22:	81 e3 ff ff 0f 00    	and    ebx,0xfffff
  407e28:	85 d2                	test   edx,edx
  407e2a:	74 06                	je     407e32 <___d2b_D2A+0x42>
  407e2c:	81 cb 00 00 10 00    	or     ebx,0x100000
  407e32:	8b 7c 24 08          	mov    edi,DWORD PTR [esp+0x8]
  407e36:	85 ff                	test   edi,edi
  407e38:	75 3e                	jne    407e78 <___d2b_D2A+0x88>
  407e3a:	f3 0f bc cb          	tzcnt  ecx,ebx
  407e3e:	d3 eb                	shr    ebx,cl
  407e40:	85 d2                	test   edx,edx
  407e42:	8d 71 20             	lea    esi,[ecx+0x20]
  407e45:	b9 01 00 00 00       	mov    ecx,0x1
  407e4a:	89 58 14             	mov    DWORD PTR [eax+0x14],ebx
  407e4d:	c7 40 10 01 00 00 00 	mov    DWORD PTR [eax+0x10],0x1
  407e54:	74 56                	je     407eac <___d2b_D2A+0xbc>
  407e56:	8b 7c 24 38          	mov    edi,DWORD PTR [esp+0x38]
  407e5a:	8d 94 16 cd fb ff ff 	lea    edx,[esi+edx*1-0x433]
  407e61:	89 17                	mov    DWORD PTR [edi],edx
  407e63:	ba 35 00 00 00       	mov    edx,0x35
  407e68:	29 f2                	sub    edx,esi
  407e6a:	8b 74 24 3c          	mov    esi,DWORD PTR [esp+0x3c]
  407e6e:	89 16                	mov    DWORD PTR [esi],edx
  407e70:	83 c4 1c             	add    esp,0x1c
  407e73:	5b                   	pop    ebx
  407e74:	5e                   	pop    esi
  407e75:	5f                   	pop    edi
  407e76:	5d                   	pop    ebp
  407e77:	c3                   	ret    
  407e78:	f3 0f bc f7          	tzcnt  esi,edi
  407e7c:	89 f1                	mov    ecx,esi
  407e7e:	d3 ef                	shr    edi,cl
  407e80:	85 f6                	test   esi,esi
  407e82:	74 4f                	je     407ed3 <___d2b_D2A+0xe3>
  407e84:	b9 20 00 00 00       	mov    ecx,0x20
  407e89:	89 dd                	mov    ebp,ebx
  407e8b:	29 f1                	sub    ecx,esi
  407e8d:	d3 e5                	shl    ebp,cl
  407e8f:	89 e9                	mov    ecx,ebp
  407e91:	09 f9                	or     ecx,edi
  407e93:	89 48 14             	mov    DWORD PTR [eax+0x14],ecx
  407e96:	89 f1                	mov    ecx,esi
  407e98:	d3 eb                	shr    ebx,cl
  407e9a:	83 fb 01             	cmp    ebx,0x1
  407e9d:	19 c9                	sbb    ecx,ecx
  407e9f:	83 c1 02             	add    ecx,0x2
  407ea2:	85 d2                	test   edx,edx
  407ea4:	89 58 18             	mov    DWORD PTR [eax+0x18],ebx
  407ea7:	89 48 10             	mov    DWORD PTR [eax+0x10],ecx
  407eaa:	75 aa                	jne    407e56 <___d2b_D2A+0x66>
  407eac:	8b 7c 24 38          	mov    edi,DWORD PTR [esp+0x38]
  407eb0:	81 ee 32 04 00 00    	sub    esi,0x432
  407eb6:	0f bd 54 88 10       	bsr    edx,DWORD PTR [eax+ecx*4+0x10]
  407ebb:	c1 e1 05             	shl    ecx,0x5
  407ebe:	89 37                	mov    DWORD PTR [edi],esi
  407ec0:	8b 74 24 3c          	mov    esi,DWORD PTR [esp+0x3c]
  407ec4:	83 f2 1f             	xor    edx,0x1f
  407ec7:	29 d1                	sub    ecx,edx
  407ec9:	89 0e                	mov    DWORD PTR [esi],ecx
  407ecb:	83 c4 1c             	add    esp,0x1c
  407ece:	5b                   	pop    ebx
  407ecf:	5e                   	pop    esi
  407ed0:	5f                   	pop    edi
  407ed1:	5d                   	pop    ebp
  407ed2:	c3                   	ret    
  407ed3:	89 78 14             	mov    DWORD PTR [eax+0x14],edi
  407ed6:	eb c2                	jmp    407e9a <___d2b_D2A+0xaa>
  407ed8:	31 c0                	xor    eax,eax
  407eda:	eb 94                	jmp    407e70 <___d2b_D2A+0x80>
  407edc:	8d 74 26 00          	lea    esi,[esi+eiz*1+0x0]

00407ee0 <___strcp_D2A>:
  407ee0:	8b 4c 24 08          	mov    ecx,DWORD PTR [esp+0x8]
  407ee4:	8b 44 24 04          	mov    eax,DWORD PTR [esp+0x4]
  407ee8:	8d 51 01             	lea    edx,[ecx+0x1]
  407eeb:	0f b6 09             	movzx  ecx,BYTE PTR [ecx]
  407eee:	84 c9                	test   cl,cl
  407ef0:	88 08                	mov    BYTE PTR [eax],cl
  407ef2:	74 10                	je     407f04 <___strcp_D2A+0x24>
  407ef4:	83 c2 01             	add    edx,0x1
  407ef7:	0f b6 4a ff          	movzx  ecx,BYTE PTR [edx-0x1]
  407efb:	83 c0 01             	add    eax,0x1
  407efe:	84 c9                	test   cl,cl
  407f00:	88 08                	mov    BYTE PTR [eax],cl
  407f02:	75 f0                	jne    407ef4 <___strcp_D2A+0x14>
  407f04:	f3 c3                	repz ret 
  407f06:	90                   	nop
  407f07:	90                   	nop
  407f08:	90                   	nop
  407f09:	90                   	nop
  407f0a:	90                   	nop
  407f0b:	90                   	nop
  407f0c:	90                   	nop
  407f0d:	90                   	nop
  407f0e:	90                   	nop
  407f0f:	90                   	nop

00407f10 <_wcstombs>:
  407f10:	ff 25 30 e2 40 00    	jmp    DWORD PTR ds:0x40e230
  407f16:	90                   	nop
  407f17:	90                   	nop

00407f18 <_wcslen>:
  407f18:	ff 25 2c e2 40 00    	jmp    DWORD PTR ds:0x40e22c
  407f1e:	90                   	nop
  407f1f:	90                   	nop

00407f20 <_vfprintf>:
  407f20:	ff 25 28 e2 40 00    	jmp    DWORD PTR ds:0x40e228
  407f26:	90                   	nop
  407f27:	90                   	nop

00407f28 <_tolower>:
  407f28:	ff 25 24 e2 40 00    	jmp    DWORD PTR ds:0x40e224
  407f2e:	90                   	nop
  407f2f:	90                   	nop

00407f30 <_strlen>:
  407f30:	ff 25 20 e2 40 00    	jmp    DWORD PTR ds:0x40e220
  407f36:	90                   	nop
  407f37:	90                   	nop

00407f38 <_strcoll>:
  407f38:	ff 25 1c e2 40 00    	jmp    DWORD PTR ds:0x40e21c
  407f3e:	90                   	nop
  407f3f:	90                   	nop

00407f40 <_strchr>:
  407f40:	ff 25 18 e2 40 00    	jmp    DWORD PTR ds:0x40e218
  407f46:	90                   	nop
  407f47:	90                   	nop

00407f48 <_signal>:
  407f48:	ff 25 14 e2 40 00    	jmp    DWORD PTR ds:0x40e214
  407f4e:	90                   	nop
  407f4f:	90                   	nop

00407f50 <_setlocale>:
  407f50:	ff 25 10 e2 40 00    	jmp    DWORD PTR ds:0x40e210
  407f56:	90                   	nop
  407f57:	90                   	nop

00407f58 <_realloc>:
  407f58:	ff 25 0c e2 40 00    	jmp    DWORD PTR ds:0x40e20c
  407f5e:	90                   	nop
  407f5f:	90                   	nop

00407f60 <_puts>:
  407f60:	ff 25 08 e2 40 00    	jmp    DWORD PTR ds:0x40e208
  407f66:	90                   	nop
  407f67:	90                   	nop

00407f68 <_memcpy>:
  407f68:	ff 25 04 e2 40 00    	jmp    DWORD PTR ds:0x40e204
  407f6e:	90                   	nop
  407f6f:	90                   	nop

00407f70 <_mbstowcs>:
  407f70:	ff 25 00 e2 40 00    	jmp    DWORD PTR ds:0x40e200
  407f76:	90                   	nop
  407f77:	90                   	nop

00407f78 <_malloc>:
  407f78:	ff 25 fc e1 40 00    	jmp    DWORD PTR ds:0x40e1fc
  407f7e:	90                   	nop
  407f7f:	90                   	nop

00407f80 <_localeconv>:
  407f80:	ff 25 f8 e1 40 00    	jmp    DWORD PTR ds:0x40e1f8
  407f86:	90                   	nop
  407f87:	90                   	nop

00407f88 <_isspace>:
  407f88:	ff 25 f4 e1 40 00    	jmp    DWORD PTR ds:0x40e1f4
  407f8e:	90                   	nop
  407f8f:	90                   	nop

00407f90 <_getenv>:
  407f90:	ff 25 f0 e1 40 00    	jmp    DWORD PTR ds:0x40e1f0
  407f96:	90                   	nop
  407f97:	90                   	nop

00407f98 <_fwrite>:
  407f98:	ff 25 ec e1 40 00    	jmp    DWORD PTR ds:0x40e1ec
  407f9e:	90                   	nop
  407f9f:	90                   	nop

00407fa0 <_free>:
  407fa0:	ff 25 e8 e1 40 00    	jmp    DWORD PTR ds:0x40e1e8
  407fa6:	90                   	nop
  407fa7:	90                   	nop

00407fa8 <_fputc>:
  407fa8:	ff 25 e4 e1 40 00    	jmp    DWORD PTR ds:0x40e1e4
  407fae:	90                   	nop
  407faf:	90                   	nop

00407fb0 <_calloc>:
  407fb0:	ff 25 e0 e1 40 00    	jmp    DWORD PTR ds:0x40e1e0
  407fb6:	90                   	nop
  407fb7:	90                   	nop

00407fb8 <_atoi>:
  407fb8:	ff 25 dc e1 40 00    	jmp    DWORD PTR ds:0x40e1dc
  407fbe:	90                   	nop
  407fbf:	90                   	nop

00407fc0 <_abort>:
  407fc0:	ff 25 d4 e1 40 00    	jmp    DWORD PTR ds:0x40e1d4
  407fc6:	90                   	nop
  407fc7:	90                   	nop

00407fc8 <__setmode>:
  407fc8:	ff 25 d0 e1 40 00    	jmp    DWORD PTR ds:0x40e1d0
  407fce:	90                   	nop
  407fcf:	90                   	nop

00407fd0 <__fullpath>:
  407fd0:	ff 25 c4 e1 40 00    	jmp    DWORD PTR ds:0x40e1c4
  407fd6:	90                   	nop
  407fd7:	90                   	nop

00407fd8 <__errno>:
  407fd8:	ff 25 c0 e1 40 00    	jmp    DWORD PTR ds:0x40e1c0
  407fde:	90                   	nop
  407fdf:	90                   	nop

00407fe0 <__cexit>:
  407fe0:	ff 25 bc e1 40 00    	jmp    DWORD PTR ds:0x40e1bc
  407fe6:	90                   	nop
  407fe7:	90                   	nop

00407fe8 <___p__fmode>:
  407fe8:	ff 25 b4 e1 40 00    	jmp    DWORD PTR ds:0x40e1b4
  407fee:	90                   	nop
  407fef:	90                   	nop

00407ff0 <___p__environ>:
  407ff0:	ff 25 b0 e1 40 00    	jmp    DWORD PTR ds:0x40e1b0
  407ff6:	90                   	nop
  407ff7:	90                   	nop

00407ff8 <___getmainargs>:
  407ff8:	ff 25 a8 e1 40 00    	jmp    DWORD PTR ds:0x40e1a8
  407ffe:	90                   	nop
  407fff:	90                   	nop

00408000 <_WideCharToMultiByte@32>:
  408000:	ff 25 94 e1 40 00    	jmp    DWORD PTR ds:0x40e194
  408006:	90                   	nop
  408007:	90                   	nop

00408008 <_VirtualQuery@12>:
  408008:	ff 25 90 e1 40 00    	jmp    DWORD PTR ds:0x40e190
  40800e:	90                   	nop
  40800f:	90                   	nop

00408010 <_VirtualProtect@16>:
  408010:	ff 25 8c e1 40 00    	jmp    DWORD PTR ds:0x40e18c
  408016:	90                   	nop
  408017:	90                   	nop

00408018 <_TlsGetValue@4>:
  408018:	ff 25 88 e1 40 00    	jmp    DWORD PTR ds:0x40e188
  40801e:	90                   	nop
  40801f:	90                   	nop

00408020 <_Sleep@4>:
  408020:	ff 25 84 e1 40 00    	jmp    DWORD PTR ds:0x40e184
  408026:	90                   	nop
  408027:	90                   	nop

00408028 <_SetUnhandledExceptionFilter@4>:
  408028:	ff 25 80 e1 40 00    	jmp    DWORD PTR ds:0x40e180
  40802e:	90                   	nop
  40802f:	90                   	nop

00408030 <_MultiByteToWideChar@24>:
  408030:	ff 25 7c e1 40 00    	jmp    DWORD PTR ds:0x40e17c
  408036:	90                   	nop
  408037:	90                   	nop

00408038 <_LeaveCriticalSection@4>:
  408038:	ff 25 78 e1 40 00    	jmp    DWORD PTR ds:0x40e178
  40803e:	90                   	nop
  40803f:	90                   	nop

00408040 <_IsDBCSLeadByteEx@8>:
  408040:	ff 25 74 e1 40 00    	jmp    DWORD PTR ds:0x40e174
  408046:	90                   	nop
  408047:	90                   	nop

00408048 <_InterlockedExchange@8>:
  408048:	ff 25 70 e1 40 00    	jmp    DWORD PTR ds:0x40e170
  40804e:	90                   	nop
  40804f:	90                   	nop

00408050 <_InitializeCriticalSection@4>:
  408050:	ff 25 6c e1 40 00    	jmp    DWORD PTR ds:0x40e16c
  408056:	90                   	nop
  408057:	90                   	nop

00408058 <_GetProcAddress@8>:
  408058:	ff 25 68 e1 40 00    	jmp    DWORD PTR ds:0x40e168
  40805e:	90                   	nop
  40805f:	90                   	nop

00408060 <_GetModuleHandleA@4>:
  408060:	ff 25 64 e1 40 00    	jmp    DWORD PTR ds:0x40e164
  408066:	90                   	nop
  408067:	90                   	nop

00408068 <_GetLastError@0>:
  408068:	ff 25 60 e1 40 00    	jmp    DWORD PTR ds:0x40e160
  40806e:	90                   	nop
  40806f:	90                   	nop

00408070 <_GetCommandLineA@0>:
  408070:	ff 25 5c e1 40 00    	jmp    DWORD PTR ds:0x40e15c
  408076:	90                   	nop
  408077:	90                   	nop

00408078 <_FindNextFileA@8>:
  408078:	ff 25 58 e1 40 00    	jmp    DWORD PTR ds:0x40e158
  40807e:	90                   	nop
  40807f:	90                   	nop

00408080 <_FindFirstFileA@8>:
  408080:	ff 25 54 e1 40 00    	jmp    DWORD PTR ds:0x40e154
  408086:	90                   	nop
  408087:	90                   	nop

00408088 <_FindClose@4>:
  408088:	ff 25 50 e1 40 00    	jmp    DWORD PTR ds:0x40e150
  40808e:	90                   	nop
  40808f:	90                   	nop

00408090 <_ExitProcess@4>:
  408090:	ff 25 4c e1 40 00    	jmp    DWORD PTR ds:0x40e14c
  408096:	90                   	nop
  408097:	90                   	nop

00408098 <_EnterCriticalSection@4>:
  408098:	ff 25 48 e1 40 00    	jmp    DWORD PTR ds:0x40e148
  40809e:	90                   	nop
  40809f:	90                   	nop

004080a0 <_DeleteCriticalSection@4>:
  4080a0:	ff 25 44 e1 40 00    	jmp    DWORD PTR ds:0x40e144
  4080a6:	90                   	nop
  4080a7:	90                   	nop

004080a8 <.text>:
  4080a8:	66 90                	xchg   ax,ax
  4080aa:	66 90                	xchg   ax,ax
  4080ac:	66 90                	xchg   ax,ax
  4080ae:	66 90                	xchg   ax,ax

004080b0 <___udivdi3>:
  4080b0:	55                   	push   ebp
  4080b1:	57                   	push   edi
  4080b2:	56                   	push   esi
  4080b3:	53                   	push   ebx
  4080b4:	83 ec 14             	sub    esp,0x14
  4080b7:	8b 74 24 34          	mov    esi,DWORD PTR [esp+0x34]
  4080bb:	8b 7c 24 28          	mov    edi,DWORD PTR [esp+0x28]
  4080bf:	8b 6c 24 2c          	mov    ebp,DWORD PTR [esp+0x2c]
  4080c3:	8b 4c 24 30          	mov    ecx,DWORD PTR [esp+0x30]
  4080c7:	85 f6                	test   esi,esi
  4080c9:	89 3c 24             	mov    DWORD PTR [esp],edi
  4080cc:	89 e8                	mov    eax,ebp
  4080ce:	89 ca                	mov    edx,ecx
  4080d0:	75 2e                	jne    408100 <___udivdi3+0x50>
  4080d2:	39 e9                	cmp    ecx,ebp
  4080d4:	77 5c                	ja     408132 <___udivdi3+0x82>
  4080d6:	85 c9                	test   ecx,ecx
  4080d8:	89 cb                	mov    ebx,ecx
  4080da:	75 0b                	jne    4080e7 <___udivdi3+0x37>
  4080dc:	b8 01 00 00 00       	mov    eax,0x1
  4080e1:	31 d2                	xor    edx,edx
  4080e3:	f7 f1                	div    ecx
  4080e5:	89 c3                	mov    ebx,eax
  4080e7:	89 e8                	mov    eax,ebp
  4080e9:	31 d2                	xor    edx,edx
  4080eb:	f7 f3                	div    ebx
  4080ed:	89 c5                	mov    ebp,eax
  4080ef:	89 f8                	mov    eax,edi
  4080f1:	f7 f3                	div    ebx
  4080f3:	89 ea                	mov    edx,ebp
  4080f5:	83 c4 14             	add    esp,0x14
  4080f8:	5b                   	pop    ebx
  4080f9:	5e                   	pop    esi
  4080fa:	5f                   	pop    edi
  4080fb:	5d                   	pop    ebp
  4080fc:	c3                   	ret    
  4080fd:	8d 76 00             	lea    esi,[esi+0x0]
  408100:	39 ee                	cmp    esi,ebp
  408102:	77 22                	ja     408126 <___udivdi3+0x76>
  408104:	0f bd de             	bsr    ebx,esi
  408107:	83 f3 1f             	xor    ebx,0x1f
  40810a:	75 36                	jne    408142 <___udivdi3+0x92>
  40810c:	3b 0c 24             	cmp    ecx,DWORD PTR [esp]
  40810f:	ba 00 00 00 00       	mov    edx,0x0
  408114:	0f 86 86 00 00 00    	jbe    4081a0 <___udivdi3+0xf0>
  40811a:	39 ee                	cmp    esi,ebp
  40811c:	0f 82 7e 00 00 00    	jb     4081a0 <___udivdi3+0xf0>
  408122:	31 c0                	xor    eax,eax
  408124:	eb cf                	jmp    4080f5 <___udivdi3+0x45>
  408126:	31 d2                	xor    edx,edx
  408128:	31 c0                	xor    eax,eax
  40812a:	83 c4 14             	add    esp,0x14
  40812d:	5b                   	pop    ebx
  40812e:	5e                   	pop    esi
  40812f:	5f                   	pop    edi
  408130:	5d                   	pop    ebp
  408131:	c3                   	ret    
  408132:	89 f8                	mov    eax,edi
  408134:	89 ea                	mov    edx,ebp
  408136:	f7 f1                	div    ecx
  408138:	31 d2                	xor    edx,edx
  40813a:	83 c4 14             	add    esp,0x14
  40813d:	5b                   	pop    ebx
  40813e:	5e                   	pop    esi
  40813f:	5f                   	pop    edi
  408140:	5d                   	pop    ebp
  408141:	c3                   	ret    
  408142:	bf 20 00 00 00       	mov    edi,0x20
  408147:	89 d9                	mov    ecx,ebx
  408149:	29 df                	sub    edi,ebx
  40814b:	89 d5                	mov    ebp,edx
  40814d:	d3 e6                	shl    esi,cl
  40814f:	89 f9                	mov    ecx,edi
  408151:	d3 ed                	shr    ebp,cl
  408153:	89 d9                	mov    ecx,ebx
  408155:	d3 e2                	shl    edx,cl
  408157:	09 f5                	or     ebp,esi
  408159:	89 54 24 04          	mov    DWORD PTR [esp+0x4],edx
  40815d:	8b 14 24             	mov    edx,DWORD PTR [esp]
  408160:	89 f9                	mov    ecx,edi
  408162:	89 c6                	mov    esi,eax
  408164:	d3 ee                	shr    esi,cl
  408166:	89 d9                	mov    ecx,ebx
  408168:	d3 e0                	shl    eax,cl
  40816a:	89 f9                	mov    ecx,edi
  40816c:	d3 ea                	shr    edx,cl
  40816e:	89 d7                	mov    edi,edx
  408170:	89 f2                	mov    edx,esi
  408172:	09 c7                	or     edi,eax
  408174:	89 f8                	mov    eax,edi
  408176:	f7 f5                	div    ebp
  408178:	89 d6                	mov    esi,edx
  40817a:	89 c7                	mov    edi,eax
  40817c:	f7 64 24 04          	mul    DWORD PTR [esp+0x4]
  408180:	39 d6                	cmp    esi,edx
  408182:	72 2c                	jb     4081b0 <___udivdi3+0x100>
  408184:	8b 2c 24             	mov    ebp,DWORD PTR [esp]
  408187:	89 d9                	mov    ecx,ebx
  408189:	d3 e5                	shl    ebp,cl
  40818b:	39 c5                	cmp    ebp,eax
  40818d:	73 04                	jae    408193 <___udivdi3+0xe3>
  40818f:	39 d6                	cmp    esi,edx
  408191:	74 1d                	je     4081b0 <___udivdi3+0x100>
  408193:	89 f8                	mov    eax,edi
  408195:	31 d2                	xor    edx,edx
  408197:	e9 59 ff ff ff       	jmp    4080f5 <___udivdi3+0x45>
  40819c:	8d 74 26 00          	lea    esi,[esi+eiz*1+0x0]
  4081a0:	b8 01 00 00 00       	mov    eax,0x1
  4081a5:	e9 4b ff ff ff       	jmp    4080f5 <___udivdi3+0x45>
  4081aa:	8d b6 00 00 00 00    	lea    esi,[esi+0x0]
  4081b0:	8d 47 ff             	lea    eax,[edi-0x1]
  4081b3:	31 d2                	xor    edx,edx
  4081b5:	83 c4 14             	add    esp,0x14
  4081b8:	5b                   	pop    ebx
  4081b9:	5e                   	pop    esi
  4081ba:	5f                   	pop    edi
  4081bb:	5d                   	pop    ebp
  4081bc:	c3                   	ret    
  4081bd:	90                   	nop
  4081be:	90                   	nop
  4081bf:	90                   	nop

004081c0 <___umoddi3>:
  4081c0:	55                   	push   ebp
  4081c1:	57                   	push   edi
  4081c2:	56                   	push   esi
  4081c3:	53                   	push   ebx
  4081c4:	83 ec 1c             	sub    esp,0x1c
  4081c7:	8b 44 24 3c          	mov    eax,DWORD PTR [esp+0x3c]
  4081cb:	8b 4c 24 30          	mov    ecx,DWORD PTR [esp+0x30]
  4081cf:	8b 6c 24 34          	mov    ebp,DWORD PTR [esp+0x34]
  4081d3:	8b 5c 24 38          	mov    ebx,DWORD PTR [esp+0x38]
  4081d7:	85 c0                	test   eax,eax
  4081d9:	89 c2                	mov    edx,eax
  4081db:	89 4c 24 0c          	mov    DWORD PTR [esp+0xc],ecx
  4081df:	89 ee                	mov    esi,ebp
  4081e1:	89 1c 24             	mov    DWORD PTR [esp],ebx
  4081e4:	89 4c 24 04          	mov    DWORD PTR [esp+0x4],ecx
  4081e8:	89 6c 24 08          	mov    DWORD PTR [esp+0x8],ebp
  4081ec:	75 16                	jne    408204 <___umoddi3+0x44>
  4081ee:	39 eb                	cmp    ebx,ebp
  4081f0:	76 4e                	jbe    408240 <___umoddi3+0x80>
  4081f2:	89 c8                	mov    eax,ecx
  4081f4:	89 ea                	mov    edx,ebp
  4081f6:	f7 f3                	div    ebx
  4081f8:	89 d0                	mov    eax,edx
  4081fa:	31 d2                	xor    edx,edx
  4081fc:	83 c4 1c             	add    esp,0x1c
  4081ff:	5b                   	pop    ebx
  408200:	5e                   	pop    esi
  408201:	5f                   	pop    edi
  408202:	5d                   	pop    ebp
  408203:	c3                   	ret    
  408204:	39 e8                	cmp    eax,ebp
  408206:	77 58                	ja     408260 <___umoddi3+0xa0>
  408208:	0f bd f8             	bsr    edi,eax
  40820b:	83 f7 1f             	xor    edi,0x1f
  40820e:	75 60                	jne    408270 <___umoddi3+0xb0>
  408210:	8b 7c 24 04          	mov    edi,DWORD PTR [esp+0x4]
  408214:	39 3c 24             	cmp    DWORD PTR [esp],edi
  408217:	0f 87 e4 00 00 00    	ja     408301 <___umoddi3+0x141>
  40821d:	89 ef                	mov    edi,ebp
  40821f:	89 ce                	mov    esi,ecx
  408221:	29 de                	sub    esi,ebx
  408223:	19 c7                	sbb    edi,eax
  408225:	89 74 24 04          	mov    DWORD PTR [esp+0x4],esi
  408229:	89 7c 24 08          	mov    DWORD PTR [esp+0x8],edi
  40822d:	8b 44 24 04          	mov    eax,DWORD PTR [esp+0x4]
  408231:	8b 54 24 08          	mov    edx,DWORD PTR [esp+0x8]
  408235:	83 c4 1c             	add    esp,0x1c
  408238:	5b                   	pop    ebx
  408239:	5e                   	pop    esi
  40823a:	5f                   	pop    edi
  40823b:	5d                   	pop    ebp
  40823c:	c3                   	ret    
  40823d:	8d 76 00             	lea    esi,[esi+0x0]
  408240:	85 db                	test   ebx,ebx
  408242:	89 df                	mov    edi,ebx
  408244:	75 0b                	jne    408251 <___umoddi3+0x91>
  408246:	b8 01 00 00 00       	mov    eax,0x1
  40824b:	31 d2                	xor    edx,edx
  40824d:	f7 f3                	div    ebx
  40824f:	89 c7                	mov    edi,eax
  408251:	89 e8                	mov    eax,ebp
  408253:	31 d2                	xor    edx,edx
  408255:	f7 f7                	div    edi
  408257:	89 c8                	mov    eax,ecx
  408259:	f7 f7                	div    edi
  40825b:	eb 9b                	jmp    4081f8 <___umoddi3+0x38>
  40825d:	8d 76 00             	lea    esi,[esi+0x0]
  408260:	89 c8                	mov    eax,ecx
  408262:	89 ea                	mov    edx,ebp
  408264:	83 c4 1c             	add    esp,0x1c
  408267:	5b                   	pop    ebx
  408268:	5e                   	pop    esi
  408269:	5f                   	pop    edi
  40826a:	5d                   	pop    ebp
  40826b:	c3                   	ret    
  40826c:	8d 74 26 00          	lea    esi,[esi+eiz*1+0x0]
  408270:	8b 2c 24             	mov    ebp,DWORD PTR [esp]
  408273:	bb 20 00 00 00       	mov    ebx,0x20
  408278:	89 f9                	mov    ecx,edi
  40827a:	29 fb                	sub    ebx,edi
  40827c:	d3 e2                	shl    edx,cl
  40827e:	89 d9                	mov    ecx,ebx
  408280:	89 e8                	mov    eax,ebp
  408282:	d3 e8                	shr    eax,cl
  408284:	89 f9                	mov    ecx,edi
  408286:	89 04 24             	mov    DWORD PTR [esp],eax
  408289:	89 e8                	mov    eax,ebp
  40828b:	d3 e0                	shl    eax,cl
  40828d:	89 d9                	mov    ecx,ebx
  40828f:	89 c5                	mov    ebp,eax
  408291:	89 44 24 08          	mov    DWORD PTR [esp+0x8],eax
  408295:	8b 44 24 0c          	mov    eax,DWORD PTR [esp+0xc]
  408299:	09 14 24             	or     DWORD PTR [esp],edx
  40829c:	89 f2                	mov    edx,esi
  40829e:	d3 ea                	shr    edx,cl
  4082a0:	89 f9                	mov    ecx,edi
  4082a2:	d3 e6                	shl    esi,cl
  4082a4:	89 d9                	mov    ecx,ebx
  4082a6:	d3 e8                	shr    eax,cl
  4082a8:	89 f9                	mov    ecx,edi
  4082aa:	09 f0                	or     eax,esi
  4082ac:	8b 74 24 0c          	mov    esi,DWORD PTR [esp+0xc]
  4082b0:	f7 34 24             	div    DWORD PTR [esp]
  4082b3:	d3 e6                	shl    esi,cl
  4082b5:	89 74 24 04          	mov    DWORD PTR [esp+0x4],esi
  4082b9:	89 d6                	mov    esi,edx
  4082bb:	f7 e5                	mul    ebp
  4082bd:	39 d6                	cmp    esi,edx
  4082bf:	89 c1                	mov    ecx,eax
  4082c1:	89 d5                	mov    ebp,edx
  4082c3:	72 2f                	jb     4082f4 <___umoddi3+0x134>
  4082c5:	39 44 24 04          	cmp    DWORD PTR [esp+0x4],eax
  4082c9:	72 25                	jb     4082f0 <___umoddi3+0x130>
  4082cb:	8b 44 24 04          	mov    eax,DWORD PTR [esp+0x4]
  4082cf:	29 c8                	sub    eax,ecx
  4082d1:	19 ee                	sbb    esi,ebp
  4082d3:	89 f9                	mov    ecx,edi
  4082d5:	89 f2                	mov    edx,esi
  4082d7:	d3 e8                	shr    eax,cl
  4082d9:	89 d9                	mov    ecx,ebx
  4082db:	d3 e2                	shl    edx,cl
  4082dd:	89 f9                	mov    ecx,edi
  4082df:	d3 ee                	shr    esi,cl
  4082e1:	09 d0                	or     eax,edx
  4082e3:	89 f2                	mov    edx,esi
  4082e5:	83 c4 1c             	add    esp,0x1c
  4082e8:	5b                   	pop    ebx
  4082e9:	5e                   	pop    esi
  4082ea:	5f                   	pop    edi
  4082eb:	5d                   	pop    ebp
  4082ec:	c3                   	ret    
  4082ed:	8d 76 00             	lea    esi,[esi+0x0]
  4082f0:	39 d6                	cmp    esi,edx
  4082f2:	75 d7                	jne    4082cb <___umoddi3+0x10b>
  4082f4:	89 d5                	mov    ebp,edx
  4082f6:	89 c1                	mov    ecx,eax
  4082f8:	2b 4c 24 08          	sub    ecx,DWORD PTR [esp+0x8]
  4082fc:	1b 2c 24             	sbb    ebp,DWORD PTR [esp]
  4082ff:	eb ca                	jmp    4082cb <___umoddi3+0x10b>
  408301:	3b 44 24 08          	cmp    eax,DWORD PTR [esp+0x8]
  408305:	0f 82 12 ff ff ff    	jb     40821d <___umoddi3+0x5d>
  40830b:	e9 1d ff ff ff       	jmp    40822d <___umoddi3+0x6d>

00408310 <_stricoll>:
  408310:	ff 25 a0 e1 40 00    	jmp    DWORD PTR ds:0x40e1a0
  408316:	90                   	nop
  408317:	90                   	nop

00408318 <_strdup>:
  408318:	ff 25 9c e1 40 00    	jmp    DWORD PTR ds:0x40e19c
  40831e:	90                   	nop
  40831f:	90                   	nop

00408320 <_register_frame_ctor>:
  408320:	55                   	push   ebp
  408321:	89 e5                	mov    ebp,esp
  408323:	83 ec 18             	sub    esp,0x18
  408326:	e8 d5 8f ff ff       	call   401300 <___gcc_register_frame>
  40832b:	c7 04 24 90 13 40 00 	mov    DWORD PTR [esp],0x401390
  408332:	e8 a9 8f ff ff       	call   4012e0 <_atexit>
  408337:	c9                   	leave  
  408338:	c3                   	ret    
  408339:	90                   	nop
  40833a:	90                   	nop
  40833b:	90                   	nop
  40833c:	90                   	nop
  40833d:	90                   	nop
  40833e:	90                   	nop
  40833f:	90                   	nop

00408340 <__CTOR_LIST__>:
  408340:	ff                   	(bad)  
  408341:	ff                   	(bad)  
  408342:	ff                   	(bad)  
  408343:	ff 20                	jmp    DWORD PTR [eax]

00408344 <.ctors.65535>:
  408344:	20 83 40 00 00 00    	and    BYTE PTR [ebx+0x40],al
	...

0040834c <__DTOR_LIST__>:
  40834c:	ff                   	(bad)  
  40834d:	ff                   	(bad)  
  40834e:	ff                   	(bad)  
  40834f:	ff 00                	inc    DWORD PTR [eax]
  408351:	00 00                	add    BYTE PTR [eax],al
	...

Disassembly of section .data:

00409000 <__CRT_glob>:
  409000:	02 00                	add    al,BYTE PTR [eax]
	...

00409004 <__fmode>:
  409004:	00 40 00             	add    BYTE PTR [eax+0x0],al
	...

00409008 <_p.1784>:
  409008:	50                   	push   eax
  409009:	83 40 00 40          	add    DWORD PTR [eax+0x0],0x40

0040900c <_fpi.3794>:
  40900c:	40                   	inc    eax
  40900d:	00 00                	add    BYTE PTR [eax],al
  40900f:	00 c3                	add    bl,al
  409011:	bf ff ff c0 3f       	mov    edi,0x3fc0ffff
  409016:	00 00                	add    BYTE PTR [eax],al
  409018:	01 00                	add    DWORD PTR [eax],eax
  40901a:	00 00                	add    BYTE PTR [eax],al
  40901c:	00 00                	add    BYTE PTR [eax],al
	...

00409020 <_pmem_next>:
  409020:	a0 d0 40 00 00       	mov    al,ds:0x40d0

00409024 <___JCR_END__>:
  409024:	00 00                	add    BYTE PTR [eax],al
	...

Disassembly of section .rdata:

0040a000 <.rdata>:
  40a000:	6c                   	ins    BYTE PTR es:[edi],dx
  40a001:	69 62 67 63 63 5f 73 	imul   esp,DWORD PTR [edx+0x67],0x735f6363
  40a008:	5f                   	pop    edi
  40a009:	64 77 32             	fs ja  40a03e <.rdata+0x3e>
  40a00c:	2d 31 2e 64 6c       	sub    eax,0x6c642e31
  40a011:	6c                   	ins    BYTE PTR es:[edi],dx
  40a012:	00 5f 5f             	add    BYTE PTR [edi+0x5f],bl
  40a015:	72 65                	jb     40a07c <.rdata+0x8>
  40a017:	67 69 73 74 65 72 5f 	imul   esi,DWORD PTR [bp+di+0x74],0x665f7265
  40a01e:	66 
  40a01f:	72 61                	jb     40a082 <.rdata+0xe>
  40a021:	6d                   	ins    DWORD PTR es:[edi],dx
  40a022:	65 5f                	gs pop edi
  40a024:	69 6e 66 6f 00 6c 69 	imul   ebp,DWORD PTR [esi+0x66],0x696c006f
  40a02b:	62 67 63             	bound  esp,QWORD PTR [edi+0x63]
  40a02e:	6a 2d                	push   0x2d
  40a030:	31 33                	xor    DWORD PTR [ebx],esi
  40a032:	2e 64 6c             	cs fs ins BYTE PTR es:[edi],dx
  40a035:	6c                   	ins    BYTE PTR es:[edi],dx
  40a036:	00 5f 4a             	add    BYTE PTR [edi+0x4a],bl
  40a039:	76 5f                	jbe    40a09a <.rdata+0x26>
  40a03b:	52                   	push   edx
  40a03c:	65 67 69 73 74 65 72 	imul   esi,DWORD PTR gs:[bp+di+0x74],0x6c437265
  40a043:	43 6c 
  40a045:	61                   	popa   
  40a046:	73 73                	jae    40a0bb <.rdata+0x47>
  40a048:	65 73 00             	gs jae 40a04b <.rdata+0x4b>
  40a04b:	5f                   	pop    edi
  40a04c:	5f                   	pop    edi
  40a04d:	64 65 72 65          	fs gs jb 40a0b6 <.rdata+0x42>
  40a051:	67 69 73 74 65 72 5f 	imul   esi,DWORD PTR [bp+di+0x74],0x665f7265
  40a058:	66 
  40a059:	72 61                	jb     40a0bc <.rdata+0x48>
  40a05b:	6d                   	ins    DWORD PTR es:[edi],dx
  40a05c:	65 5f                	gs pop edi
  40a05e:	69 6e 66 6f 00 00 48 	imul   ebp,DWORD PTR [esi+0x66],0x4800006f

0040a064 <.rdata>:
  40a064:	48                   	dec    eax
  40a065:	65 6c                	gs ins BYTE PTR es:[edi],dx
  40a067:	6c                   	ins    BYTE PTR es:[edi],dx
  40a068:	6f                   	outs   dx,DWORD PTR ds:[esi]
  40a069:	20 57 6f             	and    BYTE PTR [edi+0x6f],dl
  40a06c:	72 6c                	jb     40a0da <.rdata+0x66>
  40a06e:	64 00 10             	add    BYTE PTR fs:[eax],dl

0040a070 <___dyn_tls_init_callback>:
  40a070:	10 19                	adc    BYTE PTR [ecx],bl
  40a072:	40                   	inc    eax
	...

0040a074 <.rdata>:
  40a074:	4d                   	dec    ebp
  40a075:	69 6e 67 77 20 72 75 	imul   ebp,DWORD PTR [esi+0x67],0x75722077
  40a07c:	6e                   	outs   dx,BYTE PTR ds:[esi]
  40a07d:	74 69                	je     40a0e8 <.rdata+0x74>
  40a07f:	6d                   	ins    DWORD PTR es:[edi],dx
  40a080:	65 20 66 61          	and    BYTE PTR gs:[esi+0x61],ah
  40a084:	69 6c 75 72 65 3a 0a 	imul   ebp,DWORD PTR [ebp+esi*2+0x72],0xa3a65
  40a08b:	00 
  40a08c:	20 20                	and    BYTE PTR [eax],ah
  40a08e:	56                   	push   esi
  40a08f:	69 72 74 75 61 6c 51 	imul   esi,DWORD PTR [edx+0x74],0x516c6175
  40a096:	75 65                	jne    40a0fd <.rdata+0x89>
  40a098:	72 79                	jb     40a113 <.rdata+0x9f>
  40a09a:	20 66 61             	and    BYTE PTR [esi+0x61],ah
  40a09d:	69 6c 65 64 20 66 6f 	imul   ebp,DWORD PTR [ebp+eiz*2+0x64],0x726f6620
  40a0a4:	72 
  40a0a5:	20 25 64 20 62 79    	and    BYTE PTR ds:0x79622064,ah
  40a0ab:	74 65                	je     40a112 <.rdata+0x9e>
  40a0ad:	73 20                	jae    40a0cf <.rdata+0x5b>
  40a0af:	61                   	popa   
  40a0b0:	74 20                	je     40a0d2 <.rdata+0x5e>
  40a0b2:	61                   	popa   
  40a0b3:	64 64 72 65          	fs fs jb 40a11c <.rdata+0xa8>
  40a0b7:	73 73                	jae    40a12c <.rdata+0xc>
  40a0b9:	20 25 70 00 00 00    	and    BYTE PTR ds:0x70,ah
  40a0bf:	00 20                	add    BYTE PTR [eax],ah
  40a0c1:	20 55 6e             	and    BYTE PTR [ebp+0x6e],dl
  40a0c4:	6b 6e 6f 77          	imul   ebp,DWORD PTR [esi+0x6f],0x77
  40a0c8:	6e                   	outs   dx,BYTE PTR ds:[esi]
  40a0c9:	20 70 73             	and    BYTE PTR [eax+0x73],dh
  40a0cc:	65 75 64             	gs jne 40a133 <.rdata+0x13>
  40a0cf:	6f                   	outs   dx,DWORD PTR ds:[esi]
  40a0d0:	20 72 65             	and    BYTE PTR [edx+0x65],dh
  40a0d3:	6c                   	ins    BYTE PTR es:[edi],dx
  40a0d4:	6f                   	outs   dx,DWORD PTR ds:[esi]
  40a0d5:	63 61 74             	arpl   WORD PTR [ecx+0x74],sp
  40a0d8:	69 6f 6e 20 70 72 6f 	imul   ebp,DWORD PTR [edi+0x6e],0x6f727020
  40a0df:	74 6f                	je     40a150 <.rdata+0x10>
  40a0e1:	63 6f 6c             	arpl   WORD PTR [edi+0x6c],bp
  40a0e4:	20 76 65             	and    BYTE PTR [esi+0x65],dh
  40a0e7:	72 73                	jb     40a15c <.rdata+0x1c>
  40a0e9:	69 6f 6e 20 25 64 2e 	imul   ebp,DWORD PTR [edi+0x6e],0x2e642520
  40a0f0:	0a 00                	or     al,BYTE PTR [eax]
  40a0f2:	00 00                	add    BYTE PTR [eax],al
  40a0f4:	20 20                	and    BYTE PTR [eax],ah
  40a0f6:	55                   	push   ebp
  40a0f7:	6e                   	outs   dx,BYTE PTR ds:[esi]
  40a0f8:	6b 6e 6f 77          	imul   ebp,DWORD PTR [esi+0x6f],0x77
  40a0fc:	6e                   	outs   dx,BYTE PTR ds:[esi]
  40a0fd:	20 70 73             	and    BYTE PTR [eax+0x73],dh
  40a100:	65 75 64             	gs jne 40a167 <.rdata+0x27>
  40a103:	6f                   	outs   dx,DWORD PTR ds:[esi]
  40a104:	20 72 65             	and    BYTE PTR [edx+0x65],dh
  40a107:	6c                   	ins    BYTE PTR es:[edi],dx
  40a108:	6f                   	outs   dx,DWORD PTR ds:[esi]
  40a109:	63 61 74             	arpl   WORD PTR [ecx+0x74],sp
  40a10c:	69 6f 6e 20 62 69 74 	imul   ebp,DWORD PTR [edi+0x6e],0x74696220
  40a113:	20 73 69             	and    BYTE PTR [ebx+0x69],dh
  40a116:	7a 65                	jp     40a17d <.rdata+0x3d>
  40a118:	20 25 64 2e 0a 00    	and    BYTE PTR ds:0xa2e64,ah
	...

0040a120 <.rdata>:
  40a120:	2e 00 67 6c          	add    BYTE PTR cs:[edi+0x6c],ah
  40a124:	6f                   	outs   dx,DWORD PTR ds:[esi]
  40a125:	62 2d 31 2e 30 2d    	bound  ebp,QWORD PTR ds:0x2d302e31
  40a12b:	6d                   	ins    DWORD PTR es:[edi],dx
  40a12c:	69 6e 67 77 33 32 00 	imul   ebp,DWORD PTR [esi+0x67],0x323377
	...

0040a134 <.rdata>:
  40a134:	00 00                	add    BYTE PTR [eax],al
  40a136:	2e 00 00             	add    BYTE PTR cs:[eax],al
  40a139:	00 00                	add    BYTE PTR [eax],al
	...

0040a13c <.rdata>:
  40a13c:	25 73 00 00 4e       	and    eax,0x4e000073

0040a140 <.rdata>:
  40a140:	4e                   	dec    esi
  40a141:	61                   	popa   
  40a142:	4e                   	dec    esi
  40a143:	00 49 6e             	add    BYTE PTR [ecx+0x6e],cl
  40a146:	66 00 28             	data16 add BYTE PTR [eax],ch
  40a149:	00 6e 00             	add    BYTE PTR [esi+0x0],ch
  40a14c:	75 00                	jne    40a14e <.rdata+0xe>
  40a14e:	6c                   	ins    BYTE PTR es:[edi],dx
  40a14f:	00 6c 00 29          	add    BYTE PTR [eax+eax*1+0x29],ch
  40a153:	00 00                	add    BYTE PTR [eax],al
  40a155:	00 28                	add    BYTE PTR [eax],ch
  40a157:	6e                   	outs   dx,BYTE PTR ds:[esi]
  40a158:	75 6c                	jne    40a1c6 <.rdata+0x86>
  40a15a:	6c                   	ins    BYTE PTR es:[edi],dx
  40a15b:	29 00                	sub    DWORD PTR [eax],eax
  40a15d:	50                   	push   eax
  40a15e:	52                   	push   edx
  40a15f:	49                   	dec    ecx
  40a160:	4e                   	dec    esi
  40a161:	54                   	push   esp
  40a162:	46                   	inc    esi
  40a163:	5f                   	pop    edi
  40a164:	45                   	inc    ebp
  40a165:	58                   	pop    eax
  40a166:	50                   	push   eax
  40a167:	4f                   	dec    edi
  40a168:	4e                   	dec    esi
  40a169:	45                   	inc    ebp
  40a16a:	4e                   	dec    esi
  40a16b:	54                   	push   esp
  40a16c:	5f                   	pop    edi
  40a16d:	44                   	inc    esp
  40a16e:	49                   	dec    ecx
  40a16f:	47                   	inc    edi
  40a170:	49                   	dec    ecx
  40a171:	54                   	push   esp
  40a172:	53                   	push   ebx
  40a173:	00 b0 51 40 00 82    	add    BYTE PTR [eax-0x7dffbfaf],dh
  40a179:	50                   	push   eax
  40a17a:	40                   	inc    eax
  40a17b:	00 82 50 40 00 90    	add    BYTE PTR [edx-0x6fffbfb0],al
  40a181:	51                   	push   ecx
  40a182:	40                   	inc    eax
  40a183:	00 82 50 40 00 80    	add    BYTE PTR [edx-0x7fffbfb0],al
  40a189:	51                   	push   ecx
  40a18a:	40                   	inc    eax
  40a18b:	00 82 50 40 00 82    	add    BYTE PTR [edx-0x7dffbfb0],al
  40a191:	50                   	push   eax
  40a192:	40                   	inc    eax
  40a193:	00 82 50 40 00 82    	add    BYTE PTR [edx-0x7dffbfb0],al
  40a199:	50                   	push   eax
  40a19a:	40                   	inc    eax
  40a19b:	00 40 51             	add    BYTE PTR [eax+0x51],al
  40a19e:	40                   	inc    eax
  40a19f:	00 20                	add    BYTE PTR [eax],ah
  40a1a1:	51                   	push   ecx
  40a1a2:	40                   	inc    eax
  40a1a3:	00 82 50 40 00 00    	add    BYTE PTR [edx+0x4050],al
  40a1a9:	51                   	push   ecx
  40a1aa:	40                   	inc    eax
  40a1ab:	00 e0                	add    al,ah
  40a1ad:	50                   	push   eax
  40a1ae:	40                   	inc    eax
  40a1af:	00 82 50 40 00 76    	add    BYTE PTR [edx+0x76004050],al
  40a1b5:	50                   	push   eax
  40a1b6:	40                   	inc    eax
  40a1b7:	00 82 50 40 00 82    	add    BYTE PTR [edx-0x7dffbfb0],al
  40a1bd:	50                   	push   eax
  40a1be:	40                   	inc    eax
  40a1bf:	00 82 50 40 00 82    	add    BYTE PTR [edx-0x7dffbfb0],al
  40a1c5:	50                   	push   eax
  40a1c6:	40                   	inc    eax
  40a1c7:	00 82 50 40 00 82    	add    BYTE PTR [edx-0x7dffbfb0],al
  40a1cd:	50                   	push   eax
  40a1ce:	40                   	inc    eax
  40a1cf:	00 82 50 40 00 82    	add    BYTE PTR [edx-0x7dffbfb0],al
  40a1d5:	50                   	push   eax
  40a1d6:	40                   	inc    eax
  40a1d7:	00 82 50 40 00 82    	add    BYTE PTR [edx-0x7dffbfb0],al
  40a1dd:	50                   	push   eax
  40a1de:	40                   	inc    eax
  40a1df:	00 82 50 40 00 82    	add    BYTE PTR [edx-0x7dffbfb0],al
  40a1e5:	50                   	push   eax
  40a1e6:	40                   	inc    eax
  40a1e7:	00 82 50 40 00 82    	add    BYTE PTR [edx-0x7dffbfb0],al
  40a1ed:	50                   	push   eax
  40a1ee:	40                   	inc    eax
  40a1ef:	00 82 50 40 00 82    	add    BYTE PTR [edx-0x7dffbfb0],al
  40a1f5:	50                   	push   eax
  40a1f6:	40                   	inc    eax
  40a1f7:	00 51 50             	add    BYTE PTR [ecx+0x50],dl
  40a1fa:	40                   	inc    eax
  40a1fb:	00 82 50 40 00 25    	add    BYTE PTR [edx+0x25004050],al
  40a201:	50                   	push   eax
  40a202:	40                   	inc    eax
  40a203:	00 82 50 40 00 00    	add    BYTE PTR [edx+0x4050],al
  40a209:	50                   	push   eax
  40a20a:	40                   	inc    eax
  40a20b:	00 d5                	add    ch,dl
  40a20d:	4f                   	dec    edi
  40a20e:	40                   	inc    eax
  40a20f:	00 b0 4f 40 00 82    	add    BYTE PTR [eax-0x7dffbfb1],dh
  40a215:	50                   	push   eax
  40a216:	40                   	inc    eax
  40a217:	00 80 4f 40 00 82    	add    BYTE PTR [eax-0x7dffbfb1],al
  40a21d:	50                   	push   eax
  40a21e:	40                   	inc    eax
  40a21f:	00 82 50 40 00 90    	add    BYTE PTR [edx-0x6fffbfb0],al
  40a225:	4c                   	dec    esp
  40a226:	40                   	inc    eax
  40a227:	00 82 50 40 00 82    	add    BYTE PTR [edx-0x7dffbfb0],al
  40a22d:	50                   	push   eax
  40a22e:	40                   	inc    eax
  40a22f:	00 82 50 40 00 82    	add    BYTE PTR [edx-0x7dffbfb0],al
  40a235:	50                   	push   eax
  40a236:	40                   	inc    eax
  40a237:	00 82 50 40 00 82    	add    BYTE PTR [edx-0x7dffbfb0],al
  40a23d:	50                   	push   eax
  40a23e:	40                   	inc    eax
  40a23f:	00 d0                	add    al,dl
  40a241:	51                   	push   ecx
  40a242:	40                   	inc    eax
  40a243:	00 82 50 40 00 82    	add    BYTE PTR [edx-0x7dffbfb0],al
  40a249:	50                   	push   eax
  40a24a:	40                   	inc    eax
  40a24b:	00 82 50 40 00 82    	add    BYTE PTR [edx-0x7dffbfb0],al
  40a251:	50                   	push   eax
  40a252:	40                   	inc    eax
  40a253:	00 30                	add    BYTE PTR [eax],dh
  40a255:	4e                   	dec    esi
  40a256:	40                   	inc    eax
  40a257:	00 82 50 40 00 82    	add    BYTE PTR [edx-0x7dffbfb0],al
  40a25d:	50                   	push   eax
  40a25e:	40                   	inc    eax
  40a25f:	00 82 50 40 00 82    	add    BYTE PTR [edx-0x7dffbfb0],al
  40a265:	50                   	push   eax
  40a266:	40                   	inc    eax
  40a267:	00 82 50 40 00 82    	add    BYTE PTR [edx-0x7dffbfb0],al
  40a26d:	50                   	push   eax
  40a26e:	40                   	inc    eax
  40a26f:	00 82 50 40 00 82    	add    BYTE PTR [edx-0x7dffbfb0],al
  40a275:	50                   	push   eax
  40a276:	40                   	inc    eax
  40a277:	00 00                	add    BYTE PTR [eax],al
  40a279:	4e                   	dec    esi
  40a27a:	40                   	inc    eax
  40a27b:	00 82 50 40 00 f0    	add    BYTE PTR [edx-0xfffbfb0],al
  40a281:	4c                   	dec    esp
  40a282:	40                   	inc    eax
  40a283:	00 20                	add    BYTE PTR [eax],ah
  40a285:	4f                   	dec    edi
  40a286:	40                   	inc    eax
  40a287:	00 f0                	add    al,dh
  40a289:	4e                   	dec    esi
  40a28a:	40                   	inc    eax
  40a28b:	00 c0                	add    al,al
  40a28d:	4e                   	dec    esi
  40a28e:	40                   	inc    eax
  40a28f:	00 94 4e 40 00 90 4d 	add    BYTE PTR [esi+ecx*2+0x4d900040],dl
  40a296:	40                   	inc    eax
  40a297:	00 20                	add    BYTE PTR [eax],ah
  40a299:	4f                   	dec    edi
  40a29a:	40                   	inc    eax
  40a29b:	00 70 4d             	add    BYTE PTR [eax+0x4d],dh
  40a29e:	40                   	inc    eax
  40a29f:	00 82 50 40 00 77    	add    BYTE PTR [edx+0x77004050],al
  40a2a5:	4c                   	dec    esp
  40a2a6:	40                   	inc    eax
  40a2a7:	00 82 50 40 00 30    	add    BYTE PTR [edx+0x30004050],al
  40a2ad:	4d                   	dec    ebp
  40a2ae:	40                   	inc    eax
  40a2af:	00 30                	add    BYTE PTR [eax],dh
  40a2b1:	4e                   	dec    esi
  40a2b2:	40                   	inc    eax
  40a2b3:	00 b4 4d 40 00 82 50 	add    BYTE PTR [ebp+ecx*2+0x50820040],dh
  40a2ba:	40                   	inc    eax
  40a2bb:	00 82 50 40 00 b7    	add    BYTE PTR [edx-0x48ffbfb0],al
  40a2c1:	4c                   	dec    esp
  40a2c2:	40                   	inc    eax
  40a2c3:	00 20                	add    BYTE PTR [eax],ah
  40a2c5:	4c                   	dec    esp
  40a2c6:	40                   	inc    eax
  40a2c7:	00 30                	add    BYTE PTR [eax],dh
  40a2c9:	4e                   	dec    esi
  40a2ca:	40                   	inc    eax
  40a2cb:	00 82 50 40 00 82    	add    BYTE PTR [edx-0x7dffbfb0],al
  40a2d1:	50                   	push   eax
  40a2d2:	40                   	inc    eax
  40a2d3:	00 30                	add    BYTE PTR [eax],dh
  40a2d5:	4e                   	dec    esi
  40a2d6:	40                   	inc    eax
  40a2d7:	00 82 50 40 00 20    	add    BYTE PTR [edx+0x20004050],al
  40a2dd:	4c                   	dec    esp
  40a2de:	40                   	inc    eax
	...

0040a2e0 <.rdata>:
  40a2e0:	49                   	dec    ecx
  40a2e1:	6e                   	outs   dx,BYTE PTR ds:[esi]
  40a2e2:	66 69 6e 69 74 79    	imul   bp,WORD PTR [esi+0x69],0x7974
  40a2e8:	00 4e 61             	add    BYTE PTR [esi+0x61],cl
  40a2eb:	4e                   	dec    esi
  40a2ec:	00 30                	add    BYTE PTR [eax],dh
  40a2ee:	00 00                	add    BYTE PTR [eax],al
  40a2f0:	08 5c 40 00          	or     BYTE PTR [eax+eax*2+0x0],bl
  40a2f4:	43                   	inc    ebx
  40a2f5:	5b                   	pop    ebx
  40a2f6:	40                   	inc    eax
  40a2f7:	00 43 5b             	add    BYTE PTR [ebx+0x5b],al
  40a2fa:	40                   	inc    eax
  40a2fb:	00 74 5c 40          	add    BYTE PTR [esp+ebx*2+0x40],dh
  40a2ff:	00 40 5c             	add    BYTE PTR [eax+0x5c],al
  40a302:	40                   	inc    eax
  40a303:	00 00                	add    BYTE PTR [eax],al
  40a305:	00 c0                	add    al,al
  40a307:	3f                   	aas    
  40a308:	61                   	popa   
  40a309:	43                   	inc    ebx
  40a30a:	6f                   	outs   dx,DWORD PTR ds:[esi]
  40a30b:	63 a7 87 d2 3f b3    	arpl   WORD PTR [edi-0x4cc02d79],sp
  40a311:	c8 60 8b 28          	enter  0x8b60,0x28
  40a315:	8a c6                	mov    al,dh
  40a317:	3f                   	aas    
  40a318:	fb                   	sti    
  40a319:	79 9f                	jns    40a2ba <.rdata+0x17a>
  40a31b:	50                   	push   eax
  40a31c:	13 44 d3 3f          	adc    eax,DWORD PTR [ebx+edx*8+0x3f]
  40a320:	04 fa                	add    al,0xfa
  40a322:	7d 9d                	jge    40a2c1 <.rdata+0x181>
  40a324:	16                   	push   ss
  40a325:	2d 94 3c 32 5a       	sub    eax,0x5a323c94
  40a32a:	47                   	inc    edi
  40a32b:	55                   	push   ebp
  40a32c:	13 44 d3 3f          	adc    eax,DWORD PTR [ebx+edx*8+0x3f]
  40a330:	00 00                	add    BYTE PTR [eax],al
  40a332:	80 3f 00             	cmp    BYTE PTR [edi],0x0
  40a335:	00 20                	add    BYTE PTR [eax],ah
  40a337:	41                   	inc    ecx
  40a338:	00 00                	add    BYTE PTR [eax],al
  40a33a:	40                   	inc    eax
  40a33b:	40                   	inc    eax
  40a33c:	00 00                	add    BYTE PTR [eax],al
  40a33e:	e0 40                	loopne 40a380 <___tens_D2A>
  40a340:	00 00                	add    BYTE PTR [eax],al
  40a342:	a0 40 00 00 00       	mov    al,ds:0x40
  40a347:	3f                   	aas    
	...

0040a360 <_p05.15632>:
  40a360:	05 00 00 00 19       	add    eax,0x19000000
  40a365:	00 00                	add    BYTE PTR [eax],al
  40a367:	00 7d 00             	add    BYTE PTR [ebp+0x0],bh
	...

0040a380 <___tens_D2A>:
  40a380:	00 00                	add    BYTE PTR [eax],al
  40a382:	00 00                	add    BYTE PTR [eax],al
  40a384:	00 00                	add    BYTE PTR [eax],al
  40a386:	f0 3f                	lock aas 
  40a388:	00 00                	add    BYTE PTR [eax],al
  40a38a:	00 00                	add    BYTE PTR [eax],al
  40a38c:	00 00                	add    BYTE PTR [eax],al
  40a38e:	24 40                	and    al,0x40
  40a390:	00 00                	add    BYTE PTR [eax],al
  40a392:	00 00                	add    BYTE PTR [eax],al
  40a394:	00 00                	add    BYTE PTR [eax],al
  40a396:	59                   	pop    ecx
  40a397:	40                   	inc    eax
  40a398:	00 00                	add    BYTE PTR [eax],al
  40a39a:	00 00                	add    BYTE PTR [eax],al
  40a39c:	00 40 8f             	add    BYTE PTR [eax-0x71],al
  40a39f:	40                   	inc    eax
  40a3a0:	00 00                	add    BYTE PTR [eax],al
  40a3a2:	00 00                	add    BYTE PTR [eax],al
  40a3a4:	00 88 c3 40 00 00    	add    BYTE PTR [eax+0x40c3],cl
  40a3aa:	00 00                	add    BYTE PTR [eax],al
  40a3ac:	00 6a f8             	add    BYTE PTR [edx-0x8],ch
  40a3af:	40                   	inc    eax
  40a3b0:	00 00                	add    BYTE PTR [eax],al
  40a3b2:	00 00                	add    BYTE PTR [eax],al
  40a3b4:	80 84 2e 41 00 00 00 	add    BYTE PTR [esi+ebp*1+0x41],0x0
  40a3bb:	00 
  40a3bc:	d0 12                	rcl    BYTE PTR [edx],1
  40a3be:	63 41 00             	arpl   WORD PTR [ecx+0x0],ax
  40a3c1:	00 00                	add    BYTE PTR [eax],al
  40a3c3:	00 84 d7 97 41 00 00 	add    BYTE PTR [edi+edx*8+0x4197],al
  40a3ca:	00 00                	add    BYTE PTR [eax],al
  40a3cc:	65 cd cd             	gs int 0xcd
  40a3cf:	41                   	inc    ecx
  40a3d0:	00 00                	add    BYTE PTR [eax],al
  40a3d2:	00 20                	add    BYTE PTR [eax],ah
  40a3d4:	5f                   	pop    edi
  40a3d5:	a0 02 42 00 00       	mov    al,ds:0x4202
  40a3da:	00 e8                	add    al,ch
  40a3dc:	76 48                	jbe    40a426 <___tens_D2A+0xa6>
  40a3de:	37                   	aaa    
  40a3df:	42                   	inc    edx
  40a3e0:	00 00                	add    BYTE PTR [eax],al
  40a3e2:	00 a2 94 1a 6d 42    	add    BYTE PTR [edx+0x426d1a94],ah
  40a3e8:	00 00                	add    BYTE PTR [eax],al
  40a3ea:	40                   	inc    eax
  40a3eb:	e5 9c                	in     eax,0x9c
  40a3ed:	30 a2 42 00 00 90    	xor    BYTE PTR [edx-0x6fffffbe],ah
  40a3f3:	1e                   	push   ds
  40a3f4:	c4 bc d6 42 00 00 34 	les    edi,FWORD PTR [esi+edx*8+0x34000042]
  40a3fb:	26 f5                	es cmc 
  40a3fd:	6b 0c 43 00          	imul   ecx,DWORD PTR [ebx+eax*2],0x0
  40a401:	80 e0 37             	and    al,0x37
  40a404:	79 c3                	jns    40a3c9 <___tens_D2A+0x49>
  40a406:	41                   	inc    ecx
  40a407:	43                   	inc    ebx
  40a408:	00 a0 d8 85 57 34    	add    BYTE PTR [eax+0x345785d8],ah
  40a40e:	76 43                	jbe    40a453 <___tinytens_D2A+0x13>
  40a410:	00 c8                	add    al,cl
  40a412:	4e                   	dec    esi
  40a413:	67 6d                	ins    DWORD PTR es:[di],dx
  40a415:	c1 ab 43 00 3d 91 60 	shr    DWORD PTR [ebx-0x6ec2ffbd],0x60
  40a41c:	e4 58                	in     al,0x58
  40a41e:	e1 43                	loope  40a463 <___tinytens_D2A+0x23>
  40a420:	40                   	inc    eax
  40a421:	8c b5 78 1d af 15    	mov    WORD PTR [ebp+0x15af1d78],?
  40a427:	44                   	inc    esp
  40a428:	50                   	push   eax
  40a429:	ef                   	out    dx,eax
  40a42a:	e2 d6                	loop   40a402 <___tens_D2A+0x82>
  40a42c:	e4 1a                	in     al,0x1a
  40a42e:	4b                   	dec    ebx
  40a42f:	44                   	inc    esp
  40a430:	92                   	xchg   edx,eax
  40a431:	d5 4d                	aad    0x4d
  40a433:	06                   	push   es
  40a434:	cf                   	iret   
  40a435:	f0 80 44 00 00 00    	lock add BYTE PTR [eax+eax*1+0x0],0x0
  40a43b:	00 00                	add    BYTE PTR [eax],al
  40a43d:	00 00                	add    BYTE PTR [eax],al
	...

0040a440 <___tinytens_D2A>:
  40a440:	bc 89 d8 97 b2       	mov    esp,0xb297d889
  40a445:	d2 9c 3c 33 a7 a8 d5 	rcr    BYTE PTR [esp+edi*1-0x2a5758cd],cl
  40a44c:	23 f6                	and    esi,esi
  40a44e:	49                   	dec    ecx
  40a44f:	39 3d a7 f4 44 fd    	cmp    DWORD PTR ds:0xfd44f4a7,edi
  40a455:	0f a5 32             	shld   DWORD PTR [edx],esi,cl
  40a458:	9d                   	popf   
  40a459:	97                   	xchg   edi,eax
  40a45a:	8c cf                	mov    edi,cs
  40a45c:	08 ba 5b 25 43 6f    	or     BYTE PTR [edx+0x6f43255b],bh
  40a462:	ac                   	lods   al,BYTE PTR ds:[esi]
  40a463:	64 28 06             	sub    BYTE PTR fs:[esi],al
  40a466:	c8 0a 00 00          	enter  0xa,0x0
	...

0040a480 <___bigtens_D2A>:
  40a480:	00 80 e0 37 79 c3    	add    BYTE PTR [eax-0x3c86c820],al
  40a486:	41                   	inc    ecx
  40a487:	43                   	inc    ebx
  40a488:	17                   	pop    ss
  40a489:	6e                   	outs   dx,BYTE PTR ds:[esi]
  40a48a:	05 b5 b5 b8 93       	add    eax,0x93b8b5b5
  40a48f:	46                   	inc    esi
  40a490:	f5                   	cmc    
  40a491:	f9                   	stc    
  40a492:	3f                   	aas    
  40a493:	e9 03 4f 38 4d       	jmp    4d78f39b <.debug_line+0x4d37b39b>
  40a498:	32 1d 30 f9 48 77    	xor    bl,BYTE PTR ds:0x7748f930
  40a49e:	82                   	(bad)  
  40a49f:	5a                   	pop    edx
  40a4a0:	3c bf                	cmp    al,0xbf
  40a4a2:	73 7f                	jae    40a523 <.rdata$zzz+0x13>
  40a4a4:	dd 4f 15             	fisttp QWORD PTR [edi+0x15]
  40a4a7:	75 00                	jne    40a4a9 <___bigtens_D2A+0x29>
	...

0040a4c0 <.rdata$zzz>:
  40a4c0:	47                   	inc    edi
  40a4c1:	43                   	inc    ebx
  40a4c2:	43                   	inc    ebx
  40a4c3:	3a 20                	cmp    ah,BYTE PTR [eax]
  40a4c5:	28 47 4e             	sub    BYTE PTR [edi+0x4e],al
  40a4c8:	55                   	push   ebp
  40a4c9:	29 20                	sub    DWORD PTR [eax],esp
  40a4cb:	34 2e                	xor    al,0x2e
  40a4cd:	38 2e                	cmp    BYTE PTR [esi],ch
  40a4cf:	32 00                	xor    al,BYTE PTR [eax]
  40a4d1:	00 00                	add    BYTE PTR [eax],al
	...

0040a4d4 <.rdata$zzz>:
  40a4d4:	47                   	inc    edi
  40a4d5:	43                   	inc    ebx
  40a4d6:	43                   	inc    ebx
  40a4d7:	3a 20                	cmp    ah,BYTE PTR [eax]
  40a4d9:	28 47 4e             	sub    BYTE PTR [edi+0x4e],al
  40a4dc:	55                   	push   ebp
  40a4dd:	29 20                	sub    DWORD PTR [eax],esp
  40a4df:	34 2e                	xor    al,0x2e
  40a4e1:	38 2e                	cmp    BYTE PTR [esi],ch
  40a4e3:	31 00                	xor    DWORD PTR [eax],eax
  40a4e5:	00 00                	add    BYTE PTR [eax],al
	...

0040a4e8 <.rdata$zzz>:
  40a4e8:	47                   	inc    edi
  40a4e9:	43                   	inc    ebx
  40a4ea:	43                   	inc    ebx
  40a4eb:	3a 20                	cmp    ah,BYTE PTR [eax]
  40a4ed:	28 47 4e             	sub    BYTE PTR [edi+0x4e],al
  40a4f0:	55                   	push   ebp
  40a4f1:	29 20                	sub    DWORD PTR [eax],esp
  40a4f3:	34 2e                	xor    al,0x2e
  40a4f5:	38 2e                	cmp    BYTE PTR [esi],ch
  40a4f7:	31 00                	xor    DWORD PTR [eax],eax
  40a4f9:	00 00                	add    BYTE PTR [eax],al
	...

0040a4fc <.rdata$zzz>:
  40a4fc:	47                   	inc    edi
  40a4fd:	43                   	inc    ebx
  40a4fe:	43                   	inc    ebx
  40a4ff:	3a 20                	cmp    ah,BYTE PTR [eax]
  40a501:	28 47 4e             	sub    BYTE PTR [edi+0x4e],al
  40a504:	55                   	push   ebp
  40a505:	29 20                	sub    DWORD PTR [eax],esp
  40a507:	34 2e                	xor    al,0x2e
  40a509:	38 2e                	cmp    BYTE PTR [esi],ch
  40a50b:	32 00                	xor    al,BYTE PTR [eax]
  40a50d:	00 00                	add    BYTE PTR [eax],al
	...

0040a510 <.rdata$zzz>:
  40a510:	47                   	inc    edi
  40a511:	43                   	inc    ebx
  40a512:	43                   	inc    ebx
  40a513:	3a 20                	cmp    ah,BYTE PTR [eax]
  40a515:	28 47 4e             	sub    BYTE PTR [edi+0x4e],al
  40a518:	55                   	push   ebp
  40a519:	29 20                	sub    DWORD PTR [eax],esp
  40a51b:	34 2e                	xor    al,0x2e
  40a51d:	38 2e                	cmp    BYTE PTR [esi],ch
  40a51f:	32 00                	xor    al,BYTE PTR [eax]
  40a521:	00 00                	add    BYTE PTR [eax],al
	...

0040a524 <.rdata$zzz>:
  40a524:	47                   	inc    edi
  40a525:	43                   	inc    ebx
  40a526:	43                   	inc    ebx
  40a527:	3a 20                	cmp    ah,BYTE PTR [eax]
  40a529:	28 47 4e             	sub    BYTE PTR [edi+0x4e],al
  40a52c:	55                   	push   ebp
  40a52d:	29 20                	sub    DWORD PTR [eax],esp
  40a52f:	34 2e                	xor    al,0x2e
  40a531:	38 2e                	cmp    BYTE PTR [esi],ch
  40a533:	32 00                	xor    al,BYTE PTR [eax]
  40a535:	00 00                	add    BYTE PTR [eax],al
	...

0040a538 <.rdata$zzz>:
  40a538:	47                   	inc    edi
  40a539:	43                   	inc    ebx
  40a53a:	43                   	inc    ebx
  40a53b:	3a 20                	cmp    ah,BYTE PTR [eax]
  40a53d:	28 47 4e             	sub    BYTE PTR [edi+0x4e],al
  40a540:	55                   	push   ebp
  40a541:	29 20                	sub    DWORD PTR [eax],esp
  40a543:	34 2e                	xor    al,0x2e
  40a545:	38 2e                	cmp    BYTE PTR [esi],ch
  40a547:	32 00                	xor    al,BYTE PTR [eax]
  40a549:	00 00                	add    BYTE PTR [eax],al
	...

0040a54c <.rdata$zzz>:
  40a54c:	47                   	inc    edi
  40a54d:	43                   	inc    ebx
  40a54e:	43                   	inc    ebx
  40a54f:	3a 20                	cmp    ah,BYTE PTR [eax]
  40a551:	28 47 4e             	sub    BYTE PTR [edi+0x4e],al
  40a554:	55                   	push   ebp
  40a555:	29 20                	sub    DWORD PTR [eax],esp
  40a557:	34 2e                	xor    al,0x2e
  40a559:	38 2e                	cmp    BYTE PTR [esi],ch
  40a55b:	32 00                	xor    al,BYTE PTR [eax]
  40a55d:	00 00                	add    BYTE PTR [eax],al
	...

0040a560 <.rdata$zzz>:
  40a560:	47                   	inc    edi
  40a561:	43                   	inc    ebx
  40a562:	43                   	inc    ebx
  40a563:	3a 20                	cmp    ah,BYTE PTR [eax]
  40a565:	28 47 4e             	sub    BYTE PTR [edi+0x4e],al
  40a568:	55                   	push   ebp
  40a569:	29 20                	sub    DWORD PTR [eax],esp
  40a56b:	34 2e                	xor    al,0x2e
  40a56d:	38 2e                	cmp    BYTE PTR [esi],ch
  40a56f:	32 00                	xor    al,BYTE PTR [eax]
  40a571:	00 00                	add    BYTE PTR [eax],al
	...

0040a574 <.rdata$zzz>:
  40a574:	47                   	inc    edi
  40a575:	43                   	inc    ebx
  40a576:	43                   	inc    ebx
  40a577:	3a 20                	cmp    ah,BYTE PTR [eax]
  40a579:	28 47 4e             	sub    BYTE PTR [edi+0x4e],al
  40a57c:	55                   	push   ebp
  40a57d:	29 20                	sub    DWORD PTR [eax],esp
  40a57f:	34 2e                	xor    al,0x2e
  40a581:	38 2e                	cmp    BYTE PTR [esi],ch
  40a583:	32 00                	xor    al,BYTE PTR [eax]
  40a585:	00 00                	add    BYTE PTR [eax],al
	...

0040a588 <.rdata$zzz>:
  40a588:	47                   	inc    edi
  40a589:	43                   	inc    ebx
  40a58a:	43                   	inc    ebx
  40a58b:	3a 20                	cmp    ah,BYTE PTR [eax]
  40a58d:	28 47 4e             	sub    BYTE PTR [edi+0x4e],al
  40a590:	55                   	push   ebp
  40a591:	29 20                	sub    DWORD PTR [eax],esp
  40a593:	34 2e                	xor    al,0x2e
  40a595:	38 2e                	cmp    BYTE PTR [esi],ch
  40a597:	32 00                	xor    al,BYTE PTR [eax]
  40a599:	00 00                	add    BYTE PTR [eax],al
	...

0040a59c <.rdata$zzz>:
  40a59c:	47                   	inc    edi
  40a59d:	43                   	inc    ebx
  40a59e:	43                   	inc    ebx
  40a59f:	3a 20                	cmp    ah,BYTE PTR [eax]
  40a5a1:	28 47 4e             	sub    BYTE PTR [edi+0x4e],al
  40a5a4:	55                   	push   ebp
  40a5a5:	29 20                	sub    DWORD PTR [eax],esp
  40a5a7:	34 2e                	xor    al,0x2e
  40a5a9:	38 2e                	cmp    BYTE PTR [esi],ch
  40a5ab:	32 00                	xor    al,BYTE PTR [eax]
  40a5ad:	00 00                	add    BYTE PTR [eax],al
	...

0040a5b0 <.rdata$zzz>:
  40a5b0:	47                   	inc    edi
  40a5b1:	43                   	inc    ebx
  40a5b2:	43                   	inc    ebx
  40a5b3:	3a 20                	cmp    ah,BYTE PTR [eax]
  40a5b5:	28 47 4e             	sub    BYTE PTR [edi+0x4e],al
  40a5b8:	55                   	push   ebp
  40a5b9:	29 20                	sub    DWORD PTR [eax],esp
  40a5bb:	34 2e                	xor    al,0x2e
  40a5bd:	38 2e                	cmp    BYTE PTR [esi],ch
  40a5bf:	32 00                	xor    al,BYTE PTR [eax]
  40a5c1:	00 00                	add    BYTE PTR [eax],al
	...

0040a5c4 <.rdata$zzz>:
  40a5c4:	47                   	inc    edi
  40a5c5:	43                   	inc    ebx
  40a5c6:	43                   	inc    ebx
  40a5c7:	3a 20                	cmp    ah,BYTE PTR [eax]
  40a5c9:	28 47 4e             	sub    BYTE PTR [edi+0x4e],al
  40a5cc:	55                   	push   ebp
  40a5cd:	29 20                	sub    DWORD PTR [eax],esp
  40a5cf:	34 2e                	xor    al,0x2e
  40a5d1:	38 2e                	cmp    BYTE PTR [esi],ch
  40a5d3:	32 00                	xor    al,BYTE PTR [eax]
  40a5d5:	00 00                	add    BYTE PTR [eax],al
	...

0040a5d8 <.rdata$zzz>:
  40a5d8:	47                   	inc    edi
  40a5d9:	43                   	inc    ebx
  40a5da:	43                   	inc    ebx
  40a5db:	3a 20                	cmp    ah,BYTE PTR [eax]
  40a5dd:	28 47 4e             	sub    BYTE PTR [edi+0x4e],al
  40a5e0:	55                   	push   ebp
  40a5e1:	29 20                	sub    DWORD PTR [eax],esp
  40a5e3:	34 2e                	xor    al,0x2e
  40a5e5:	38 2e                	cmp    BYTE PTR [esi],ch
  40a5e7:	32 00                	xor    al,BYTE PTR [eax]
  40a5e9:	00 00                	add    BYTE PTR [eax],al
	...

0040a5ec <.rdata$zzz>:
  40a5ec:	47                   	inc    edi
  40a5ed:	43                   	inc    ebx
  40a5ee:	43                   	inc    ebx
  40a5ef:	3a 20                	cmp    ah,BYTE PTR [eax]
  40a5f1:	28 47 4e             	sub    BYTE PTR [edi+0x4e],al
  40a5f4:	55                   	push   ebp
  40a5f5:	29 20                	sub    DWORD PTR [eax],esp
  40a5f7:	34 2e                	xor    al,0x2e
  40a5f9:	38 2e                	cmp    BYTE PTR [esi],ch
  40a5fb:	31 00                	xor    DWORD PTR [eax],eax
  40a5fd:	00 00                	add    BYTE PTR [eax],al
	...

0040a600 <.rdata$zzz>:
  40a600:	47                   	inc    edi
  40a601:	43                   	inc    ebx
  40a602:	43                   	inc    ebx
  40a603:	3a 20                	cmp    ah,BYTE PTR [eax]
  40a605:	28 47 4e             	sub    BYTE PTR [edi+0x4e],al
  40a608:	55                   	push   ebp
  40a609:	29 20                	sub    DWORD PTR [eax],esp
  40a60b:	34 2e                	xor    al,0x2e
  40a60d:	38 2e                	cmp    BYTE PTR [esi],ch
  40a60f:	32 00                	xor    al,BYTE PTR [eax]
  40a611:	00 00                	add    BYTE PTR [eax],al
	...

0040a614 <.rdata$zzz>:
  40a614:	47                   	inc    edi
  40a615:	43                   	inc    ebx
  40a616:	43                   	inc    ebx
  40a617:	3a 20                	cmp    ah,BYTE PTR [eax]
  40a619:	28 47 4e             	sub    BYTE PTR [edi+0x4e],al
  40a61c:	55                   	push   ebp
  40a61d:	29 20                	sub    DWORD PTR [eax],esp
  40a61f:	34 2e                	xor    al,0x2e
  40a621:	38 2e                	cmp    BYTE PTR [esi],ch
  40a623:	32 00                	xor    al,BYTE PTR [eax]
  40a625:	00 00                	add    BYTE PTR [eax],al
	...

0040a628 <.rdata$zzz>:
  40a628:	47                   	inc    edi
  40a629:	43                   	inc    ebx
  40a62a:	43                   	inc    ebx
  40a62b:	3a 20                	cmp    ah,BYTE PTR [eax]
  40a62d:	28 47 4e             	sub    BYTE PTR [edi+0x4e],al
  40a630:	55                   	push   ebp
  40a631:	29 20                	sub    DWORD PTR [eax],esp
  40a633:	34 2e                	xor    al,0x2e
  40a635:	38 2e                	cmp    BYTE PTR [esi],ch
  40a637:	32 00                	xor    al,BYTE PTR [eax]
  40a639:	00 00                	add    BYTE PTR [eax],al
	...

0040a63c <.rdata$zzz>:
  40a63c:	47                   	inc    edi
  40a63d:	43                   	inc    ebx
  40a63e:	43                   	inc    ebx
  40a63f:	3a 20                	cmp    ah,BYTE PTR [eax]
  40a641:	28 47 4e             	sub    BYTE PTR [edi+0x4e],al
  40a644:	55                   	push   ebp
  40a645:	29 20                	sub    DWORD PTR [eax],esp
  40a647:	34 2e                	xor    al,0x2e
  40a649:	38 2e                	cmp    BYTE PTR [esi],ch
  40a64b:	32 00                	xor    al,BYTE PTR [eax]
  40a64d:	00 00                	add    BYTE PTR [eax],al
	...

0040a650 <.rdata$zzz>:
  40a650:	47                   	inc    edi
  40a651:	43                   	inc    ebx
  40a652:	43                   	inc    ebx
  40a653:	3a 20                	cmp    ah,BYTE PTR [eax]
  40a655:	28 47 4e             	sub    BYTE PTR [edi+0x4e],al
  40a658:	55                   	push   ebp
  40a659:	29 20                	sub    DWORD PTR [eax],esp
  40a65b:	34 2e                	xor    al,0x2e
  40a65d:	38 2e                	cmp    BYTE PTR [esi],ch
  40a65f:	32 00                	xor    al,BYTE PTR [eax]
  40a661:	00 00                	add    BYTE PTR [eax],al
	...

0040a664 <.rdata$zzz>:
  40a664:	47                   	inc    edi
  40a665:	43                   	inc    ebx
  40a666:	43                   	inc    ebx
  40a667:	3a 20                	cmp    ah,BYTE PTR [eax]
  40a669:	28 47 4e             	sub    BYTE PTR [edi+0x4e],al
  40a66c:	55                   	push   ebp
  40a66d:	29 20                	sub    DWORD PTR [eax],esp
  40a66f:	34 2e                	xor    al,0x2e
  40a671:	38 2e                	cmp    BYTE PTR [esi],ch
  40a673:	32 00                	xor    al,BYTE PTR [eax]
  40a675:	00 00                	add    BYTE PTR [eax],al
	...

0040a678 <.rdata$zzz>:
  40a678:	47                   	inc    edi
  40a679:	43                   	inc    ebx
  40a67a:	43                   	inc    ebx
  40a67b:	3a 20                	cmp    ah,BYTE PTR [eax]
  40a67d:	28 47 4e             	sub    BYTE PTR [edi+0x4e],al
  40a680:	55                   	push   ebp
  40a681:	29 20                	sub    DWORD PTR [eax],esp
  40a683:	34 2e                	xor    al,0x2e
  40a685:	38 2e                	cmp    BYTE PTR [esi],ch
  40a687:	32 00                	xor    al,BYTE PTR [eax]
  40a689:	00 00                	add    BYTE PTR [eax],al
	...

0040a68c <.rdata$zzz>:
  40a68c:	47                   	inc    edi
  40a68d:	43                   	inc    ebx
  40a68e:	43                   	inc    ebx
  40a68f:	3a 20                	cmp    ah,BYTE PTR [eax]
  40a691:	28 47 4e             	sub    BYTE PTR [edi+0x4e],al
  40a694:	55                   	push   ebp
  40a695:	29 20                	sub    DWORD PTR [eax],esp
  40a697:	34 2e                	xor    al,0x2e
  40a699:	38 2e                	cmp    BYTE PTR [esi],ch
  40a69b:	32 00                	xor    al,BYTE PTR [eax]
  40a69d:	00 00                	add    BYTE PTR [eax],al
	...

0040a6a0 <.rdata$zzz>:
  40a6a0:	47                   	inc    edi
  40a6a1:	43                   	inc    ebx
  40a6a2:	43                   	inc    ebx
  40a6a3:	3a 20                	cmp    ah,BYTE PTR [eax]
  40a6a5:	28 47 4e             	sub    BYTE PTR [edi+0x4e],al
  40a6a8:	55                   	push   ebp
  40a6a9:	29 20                	sub    DWORD PTR [eax],esp
  40a6ab:	34 2e                	xor    al,0x2e
  40a6ad:	38 2e                	cmp    BYTE PTR [esi],ch
  40a6af:	32 00                	xor    al,BYTE PTR [eax]
  40a6b1:	00 00                	add    BYTE PTR [eax],al
	...

0040a6b4 <.rdata$zzz>:
  40a6b4:	47                   	inc    edi
  40a6b5:	43                   	inc    ebx
  40a6b6:	43                   	inc    ebx
  40a6b7:	3a 20                	cmp    ah,BYTE PTR [eax]
  40a6b9:	28 47 4e             	sub    BYTE PTR [edi+0x4e],al
  40a6bc:	55                   	push   ebp
  40a6bd:	29 20                	sub    DWORD PTR [eax],esp
  40a6bf:	34 2e                	xor    al,0x2e
  40a6c1:	38 2e                	cmp    BYTE PTR [esi],ch
  40a6c3:	32 00                	xor    al,BYTE PTR [eax]
  40a6c5:	00 00                	add    BYTE PTR [eax],al
	...

0040a6c8 <.rdata$zzz>:
  40a6c8:	47                   	inc    edi
  40a6c9:	43                   	inc    ebx
  40a6ca:	43                   	inc    ebx
  40a6cb:	3a 20                	cmp    ah,BYTE PTR [eax]
  40a6cd:	28 47 4e             	sub    BYTE PTR [edi+0x4e],al
  40a6d0:	55                   	push   ebp
  40a6d1:	29 20                	sub    DWORD PTR [eax],esp
  40a6d3:	34 2e                	xor    al,0x2e
  40a6d5:	38 2e                	cmp    BYTE PTR [esi],ch
  40a6d7:	32 00                	xor    al,BYTE PTR [eax]
  40a6d9:	00 00                	add    BYTE PTR [eax],al
	...

0040a6dc <.rdata$zzz>:
  40a6dc:	47                   	inc    edi
  40a6dd:	43                   	inc    ebx
  40a6de:	43                   	inc    ebx
  40a6df:	3a 20                	cmp    ah,BYTE PTR [eax]
  40a6e1:	28 47 4e             	sub    BYTE PTR [edi+0x4e],al
  40a6e4:	55                   	push   ebp
  40a6e5:	29 20                	sub    DWORD PTR [eax],esp
  40a6e7:	34 2e                	xor    al,0x2e
  40a6e9:	38 2e                	cmp    BYTE PTR [esi],ch
  40a6eb:	32 00                	xor    al,BYTE PTR [eax]
  40a6ed:	00 00                	add    BYTE PTR [eax],al
	...

0040a6f0 <.rdata$zzz>:
  40a6f0:	47                   	inc    edi
  40a6f1:	43                   	inc    ebx
  40a6f2:	43                   	inc    ebx
  40a6f3:	3a 20                	cmp    ah,BYTE PTR [eax]
  40a6f5:	28 47 4e             	sub    BYTE PTR [edi+0x4e],al
  40a6f8:	55                   	push   ebp
  40a6f9:	29 20                	sub    DWORD PTR [eax],esp
  40a6fb:	34 2e                	xor    al,0x2e
  40a6fd:	38 2e                	cmp    BYTE PTR [esi],ch
  40a6ff:	32 00                	xor    al,BYTE PTR [eax]
  40a701:	00 00                	add    BYTE PTR [eax],al
	...

0040a704 <.rdata$zzz>:
  40a704:	47                   	inc    edi
  40a705:	43                   	inc    ebx
  40a706:	43                   	inc    ebx
  40a707:	3a 20                	cmp    ah,BYTE PTR [eax]
  40a709:	28 47 4e             	sub    BYTE PTR [edi+0x4e],al
  40a70c:	55                   	push   ebp
  40a70d:	29 20                	sub    DWORD PTR [eax],esp
  40a70f:	34 2e                	xor    al,0x2e
  40a711:	38 2e                	cmp    BYTE PTR [esi],ch
  40a713:	31 00                	xor    DWORD PTR [eax],eax
  40a715:	00 00                	add    BYTE PTR [eax],al
	...

0040a718 <.rdata$zzz>:
  40a718:	47                   	inc    edi
  40a719:	43                   	inc    ebx
  40a71a:	43                   	inc    ebx
  40a71b:	3a 20                	cmp    ah,BYTE PTR [eax]
  40a71d:	28 47 4e             	sub    BYTE PTR [edi+0x4e],al
  40a720:	55                   	push   ebp
  40a721:	29 20                	sub    DWORD PTR [eax],esp
  40a723:	34 2e                	xor    al,0x2e
  40a725:	38 2e                	cmp    BYTE PTR [esi],ch
  40a727:	31 00                	xor    DWORD PTR [eax],eax
  40a729:	00 00                	add    BYTE PTR [eax],al
	...

0040a72c <.rdata$zzz>:
  40a72c:	47                   	inc    edi
  40a72d:	43                   	inc    ebx
  40a72e:	43                   	inc    ebx
  40a72f:	3a 20                	cmp    ah,BYTE PTR [eax]
  40a731:	28 47 4e             	sub    BYTE PTR [edi+0x4e],al
  40a734:	55                   	push   ebp
  40a735:	29 20                	sub    DWORD PTR [eax],esp
  40a737:	34 2e                	xor    al,0x2e
  40a739:	38 2e                	cmp    BYTE PTR [esi],ch
  40a73b:	31 00                	xor    DWORD PTR [eax],eax
  40a73d:	00 00                	add    BYTE PTR [eax],al
	...

Disassembly of section .eh_frame:

0040b000 <.eh_frame>:
  40b000:	14 00                	adc    al,0x0
  40b002:	00 00                	add    BYTE PTR [eax],al
  40b004:	00 00                	add    BYTE PTR [eax],al
  40b006:	00 00                	add    BYTE PTR [eax],al
  40b008:	01 7a 52             	add    DWORD PTR [edx+0x52],edi
  40b00b:	00 01                	add    BYTE PTR [ecx],al
  40b00d:	7c 08                	jl     40b017 <.eh_frame+0x17>
  40b00f:	01 1b                	add    DWORD PTR [ebx],ebx
  40b011:	0c 04                	or     al,0x4
  40b013:	04 88                	add    al,0x88
  40b015:	01 00                	add    DWORD PTR [eax],eax
  40b017:	00 20                	add    BYTE PTR [eax],ah
  40b019:	00 00                	add    BYTE PTR [eax],al
  40b01b:	00 1c 00             	add    BYTE PTR [eax+eax*1],bl
  40b01e:	00 00                	add    BYTE PTR [eax],al
  40b020:	e0 5f                	loopne 40b081 <.eh_frame+0x81>
  40b022:	ff                   	(bad)  
  40b023:	ff 73 01             	push   DWORD PTR [ebx+0x1]
  40b026:	00 00                	add    BYTE PTR [eax],al
  40b028:	00 41 0e             	add    BYTE PTR [ecx+0xe],al
  40b02b:	08 83 02 43 0e 20    	or     BYTE PTR [ebx+0x200e4302],al
  40b031:	02 51 0a             	add    dl,BYTE PTR [ecx+0xa]
  40b034:	0e                   	push   cs
  40b035:	08 41 c3             	or     BYTE PTR [ecx-0x3d],al
  40b038:	0e                   	push   cs
  40b039:	04 4a                	add    al,0x4a
  40b03b:	0b 18                	or     ebx,DWORD PTR [eax]
  40b03d:	00 00                	add    BYTE PTR [eax],al
  40b03f:	00 40 00             	add    BYTE PTR [eax+0x0],al
  40b042:	00 00                	add    BYTE PTR [eax],al
  40b044:	3c 61                	cmp    al,0x61
  40b046:	ff                   	(bad)  
  40b047:	ff                   	(bad)  
  40b048:	df 00                	fild   WORD PTR [eax]
  40b04a:	00 00                	add    BYTE PTR [eax],al
  40b04c:	00 41 0e             	add    BYTE PTR [ecx+0xe],al
  40b04f:	08 85 02 42 0d 05    	or     BYTE PTR [ebp+0x50d4202],al
  40b055:	44                   	inc    esp
  40b056:	83 03 14             	add    DWORD PTR [ebx],0x14
  40b059:	00 00                	add    BYTE PTR [eax],al
  40b05b:	00 5c 00 00          	add    BYTE PTR [eax+eax*1+0x0],bl
  40b05f:	00 00                	add    BYTE PTR [eax],al
  40b061:	62                   	(bad)  
  40b062:	ff                   	(bad)  
  40b063:	ff                   	(bad)  
  40b064:	3f                   	aas    
  40b065:	00 00                	add    BYTE PTR [eax],al
  40b067:	00 00                	add    BYTE PTR [eax],al
  40b069:	43                   	inc    ebx
  40b06a:	0e                   	push   cs
  40b06b:	40                   	inc    eax
  40b06c:	7b 0e                	jnp    40b07c <.eh_frame+0x7c>
  40b06e:	04 00                	add    al,0x0
  40b070:	10 00                	adc    BYTE PTR [eax],al
  40b072:	00 00                	add    BYTE PTR [eax],al
  40b074:	74 00                	je     40b076 <.eh_frame+0x76>
  40b076:	00 00                	add    BYTE PTR [eax],al
  40b078:	28 62 ff             	sub    BYTE PTR [edx-0x1],ah
  40b07b:	ff 15 00 00 00 00    	call   DWORD PTR ds:0x0
  40b081:	43                   	inc    ebx
  40b082:	0e                   	push   cs
  40b083:	20 10                	and    BYTE PTR [eax],dl
  40b085:	00 00                	add    BYTE PTR [eax],al
  40b087:	00 88 00 00 00 34    	add    BYTE PTR [eax+0x34000000],cl
  40b08d:	62                   	(bad)  
  40b08e:	ff                   	(bad)  
  40b08f:	ff 15 00 00 00 00    	call   DWORD PTR ds:0x0
  40b095:	43                   	inc    ebx
  40b096:	0e                   	push   cs
  40b097:	20 10                	and    BYTE PTR [eax],dl
  40b099:	00 00                	add    BYTE PTR [eax],al
  40b09b:	00 9c 00 00 00 40 62 	add    BYTE PTR [eax+eax*1+0x62400000],bl
  40b0a2:	ff                   	(bad)  
  40b0a3:	ff 07                	inc    DWORD PTR [edi]
  40b0a5:	00 00                	add    BYTE PTR [eax],al
  40b0a7:	00 00                	add    BYTE PTR [eax],al
  40b0a9:	00 00                	add    BYTE PTR [eax],al
  40b0ab:	00 10                	add    BYTE PTR [eax],dl
  40b0ad:	00 00                	add    BYTE PTR [eax],al
  40b0af:	00 b0 00 00 00 3c    	add    BYTE PTR [eax+0x3c000000],dh
  40b0b5:	62                   	(bad)  
  40b0b6:	ff                   	(bad)  
  40b0b7:	ff 07                	inc    DWORD PTR [edi]
  40b0b9:	00 00                	add    BYTE PTR [eax],al
  40b0bb:	00 00                	add    BYTE PTR [eax],al
  40b0bd:	00 00                	add    BYTE PTR [eax],al
	...

0040b0c0 <___EH_FRAME_BEGIN__>:
  40b0c0:	14 00                	adc    al,0x0
  40b0c2:	00 00                	add    BYTE PTR [eax],al
  40b0c4:	00 00                	add    BYTE PTR [eax],al
  40b0c6:	00 00                	add    BYTE PTR [eax],al
  40b0c8:	01 7a 52             	add    DWORD PTR [edx+0x52],edi
  40b0cb:	00 01                	add    BYTE PTR [ecx],al
  40b0cd:	7c 08                	jl     40b0d7 <___EH_FRAME_BEGIN__+0x17>
  40b0cf:	01 1b                	add    DWORD PTR [ebx],ebx
  40b0d1:	0c 04                	or     al,0x4
  40b0d3:	04 88                	add    al,0x88
  40b0d5:	01 00                	add    DWORD PTR [eax],eax
  40b0d7:	00 1c 00             	add    BYTE PTR [eax+eax*1],bl
  40b0da:	00 00                	add    BYTE PTR [eax],al
  40b0dc:	1c 00                	sbb    al,0x0
  40b0de:	00 00                	add    BYTE PTR [eax],al
  40b0e0:	20 62 ff             	and    BYTE PTR [edx-0x1],ah
  40b0e3:	ff 8d 00 00 00 00    	dec    DWORD PTR [ebp+0x0]
  40b0e9:	41                   	inc    ecx
  40b0ea:	0e                   	push   cs
  40b0eb:	08 85 02 42 0d 05    	or     BYTE PTR [ebp+0x50d4202],al
  40b0f1:	02 89 c5 0c 04 04    	add    cl,BYTE PTR [ecx+0x4040cc5]
  40b0f7:	00 1c 00             	add    BYTE PTR [eax+eax*1],bl
  40b0fa:	00 00                	add    BYTE PTR [eax],al
  40b0fc:	3c 00                	cmp    al,0x0
  40b0fe:	00 00                	add    BYTE PTR [eax],al
  40b100:	90                   	nop
  40b101:	62                   	(bad)  
  40b102:	ff                   	(bad)  
  40b103:	ff 42 00             	inc    DWORD PTR [edx+0x0]
  40b106:	00 00                	add    BYTE PTR [eax],al
  40b108:	00 41 0e             	add    BYTE PTR [ecx+0xe],al
  40b10b:	08 85 02 42 0d 05    	or     BYTE PTR [ebp+0x50d4202],al
  40b111:	7e c5                	jle    40b0d8 <___EH_FRAME_BEGIN__+0x18>
  40b113:	0c 04                	or     al,0x4
  40b115:	04 00                	add    al,0x0
	...

0040b118 <.eh_frame>:
  40b118:	14 00                	adc    al,0x0
  40b11a:	00 00                	add    BYTE PTR [eax],al
  40b11c:	00 00                	add    BYTE PTR [eax],al
  40b11e:	00 00                	add    BYTE PTR [eax],al
  40b120:	01 7a 52             	add    DWORD PTR [edx+0x52],edi
  40b123:	00 01                	add    BYTE PTR [ecx],al
  40b125:	7c 08                	jl     40b12f <.eh_frame+0x17>
  40b127:	01 1b                	add    DWORD PTR [ebx],ebx
  40b129:	0c 04                	or     al,0x4
  40b12b:	04 88                	add    al,0x88
  40b12d:	01 00                	add    DWORD PTR [eax],eax
  40b12f:	00 1c 00             	add    BYTE PTR [eax+eax*1],bl
  40b132:	00 00                	add    BYTE PTR [eax],al
  40b134:	1c 00                	sbb    al,0x0
  40b136:	00 00                	add    BYTE PTR [eax],al
  40b138:	a8 62                	test   al,0x62
  40b13a:	ff                   	(bad)  
  40b13b:	ff 37                	push   DWORD PTR [edi]
  40b13d:	00 00                	add    BYTE PTR [eax],al
  40b13f:	00 00                	add    BYTE PTR [eax],al
  40b141:	41                   	inc    ecx
  40b142:	0e                   	push   cs
  40b143:	08 85 02 42 0d 05    	or     BYTE PTR [ebp+0x50d4202],al
  40b149:	73 c5                	jae    40b110 <___EH_FRAME_BEGIN__+0x50>
  40b14b:	0c 04                	or     al,0x4
  40b14d:	04 00                	add    al,0x0
	...

0040b150 <.eh_frame>:
  40b150:	14 00                	adc    al,0x0
  40b152:	00 00                	add    BYTE PTR [eax],al
  40b154:	00 00                	add    BYTE PTR [eax],al
  40b156:	00 00                	add    BYTE PTR [eax],al
  40b158:	01 7a 52             	add    DWORD PTR [edx+0x52],edi
  40b15b:	00 01                	add    BYTE PTR [ecx],al
  40b15d:	7c 08                	jl     40b167 <.eh_frame+0x17>
  40b15f:	01 1b                	add    DWORD PTR [ebx],ebx
  40b161:	0c 04                	or     al,0x4
  40b163:	04 88                	add    al,0x88
  40b165:	01 00                	add    DWORD PTR [eax],eax
  40b167:	00 3c 00             	add    BYTE PTR [eax+eax*1],bh
  40b16a:	00 00                	add    BYTE PTR [eax],al
  40b16c:	1c 00                	sbb    al,0x0
  40b16e:	00 00                	add    BYTE PTR [eax],al
  40b170:	b0 62                	mov    al,0x62
  40b172:	ff                   	(bad)  
  40b173:	ff 0b                	dec    DWORD PTR [ebx]
  40b175:	03 00                	add    eax,DWORD PTR [eax]
  40b177:	00 00                	add    BYTE PTR [eax],al
  40b179:	41                   	inc    ecx
  40b17a:	0e                   	push   cs
  40b17b:	08 85 02 42 0d 05    	or     BYTE PTR [ebp+0x50d4202],al
  40b181:	46                   	inc    esi
  40b182:	87 03                	xchg   DWORD PTR [ebx],eax
  40b184:	86 04 83             	xchg   BYTE PTR [ebx+eax*4],al
  40b187:	05 03 59 01 0a       	add    eax,0xa015903
  40b18c:	c3                   	ret    
  40b18d:	41                   	inc    ecx
  40b18e:	c6 41 c7 41          	mov    BYTE PTR [ecx-0x39],0x41
  40b192:	c5 0c 04             	lds    ecx,FWORD PTR [esp+eax*1]
  40b195:	04 41                	add    al,0x41
  40b197:	0b 03                	or     eax,DWORD PTR [ebx]
  40b199:	73 01                	jae    40b19c <.eh_frame+0x4c>
  40b19b:	0a c3                	or     al,bl
  40b19d:	41                   	inc    ecx
  40b19e:	c6 41 c7 41          	mov    BYTE PTR [ecx-0x39],0x41
  40b1a2:	c5 0c 04             	lds    ecx,FWORD PTR [esp+eax*1]
  40b1a5:	04 41                	add    al,0x41
  40b1a7:	0b 14 00             	or     edx,DWORD PTR [eax+eax*1]

0040b1a8 <.eh_frame>:
  40b1a8:	14 00                	adc    al,0x0
  40b1aa:	00 00                	add    BYTE PTR [eax],al
  40b1ac:	00 00                	add    BYTE PTR [eax],al
  40b1ae:	00 00                	add    BYTE PTR [eax],al
  40b1b0:	01 7a 52             	add    DWORD PTR [edx+0x52],edi
  40b1b3:	00 01                	add    BYTE PTR [ecx],al
  40b1b5:	7c 08                	jl     40b1bf <.eh_frame+0x17>
  40b1b7:	01 1b                	add    DWORD PTR [ebx],ebx
  40b1b9:	0c 04                	or     al,0x4
  40b1bb:	04 88                	add    al,0x88
  40b1bd:	01 00                	add    DWORD PTR [eax],eax
  40b1bf:	00 1c 00             	add    BYTE PTR [eax+eax*1],bl
  40b1c2:	00 00                	add    BYTE PTR [eax],al
  40b1c4:	1c 00                	sbb    al,0x0
  40b1c6:	00 00                	add    BYTE PTR [eax],al
  40b1c8:	68 65 ff ff dc       	push   0xdcffff65
  40b1cd:	00 00                	add    BYTE PTR [eax],al
  40b1cf:	00 00                	add    BYTE PTR [eax],al
  40b1d1:	5d                   	pop    ebp
  40b1d2:	0e                   	push   cs
  40b1d3:	08 83 02 02 a4 c3    	or     BYTE PTR [ebx-0x3c5bfdfe],al
  40b1d9:	0e                   	push   cs
  40b1da:	04 42                	add    al,0x42
  40b1dc:	0e                   	push   cs
  40b1dd:	08 83 02 14 00 00    	or     BYTE PTR [ebx+0x1402],al

0040b1e0 <.eh_frame>:
  40b1e0:	14 00                	adc    al,0x0
  40b1e2:	00 00                	add    BYTE PTR [eax],al
  40b1e4:	00 00                	add    BYTE PTR [eax],al
  40b1e6:	00 00                	add    BYTE PTR [eax],al
  40b1e8:	01 7a 52             	add    DWORD PTR [edx+0x52],edi
  40b1eb:	00 01                	add    BYTE PTR [ecx],al
  40b1ed:	7c 08                	jl     40b1f7 <.eh_frame+0x17>
  40b1ef:	01 1b                	add    DWORD PTR [ebx],ebx
  40b1f1:	0c 04                	or     al,0x4
  40b1f3:	04 88                	add    al,0x88
  40b1f5:	01 00                	add    DWORD PTR [eax],eax
  40b1f7:	00 10                	add    BYTE PTR [eax],dl
  40b1f9:	00 00                	add    BYTE PTR [eax],al
  40b1fb:	00 1c 00             	add    BYTE PTR [eax+eax*1],bl
  40b1fe:	00 00                	add    BYTE PTR [eax],al
  40b200:	10 66 ff             	adc    BYTE PTR [esi-0x1],ah
  40b203:	ff 03                	inc    DWORD PTR [ebx]
  40b205:	00 00                	add    BYTE PTR [eax],al
  40b207:	00 00                	add    BYTE PTR [eax],al
  40b209:	00 00                	add    BYTE PTR [eax],al
	...

0040b20c <.eh_frame>:
  40b20c:	14 00                	adc    al,0x0
  40b20e:	00 00                	add    BYTE PTR [eax],al
  40b210:	00 00                	add    BYTE PTR [eax],al
  40b212:	00 00                	add    BYTE PTR [eax],al
  40b214:	01 7a 52             	add    DWORD PTR [edx+0x52],edi
  40b217:	00 01                	add    BYTE PTR [ecx],al
  40b219:	7c 08                	jl     40b223 <.eh_frame+0x17>
  40b21b:	01 1b                	add    DWORD PTR [ebx],ebx
  40b21d:	0c 04                	or     al,0x4
  40b21f:	04 88                	add    al,0x88
  40b221:	01 00                	add    DWORD PTR [eax],eax
  40b223:	00 14 00             	add    BYTE PTR [eax+eax*1],dl
  40b226:	00 00                	add    BYTE PTR [eax],al
  40b228:	1c 00                	sbb    al,0x0
  40b22a:	00 00                	add    BYTE PTR [eax],al
  40b22c:	f4                   	hlt    
  40b22d:	65 ff                	gs (bad) 
  40b22f:	ff 2c 00             	jmp    FWORD PTR [eax+eax*1]
  40b232:	00 00                	add    BYTE PTR [eax],al
  40b234:	00 4e 0e             	add    BYTE PTR [esi+0xe],cl
  40b237:	10 5c 0e 04          	adc    BYTE PTR [esi+ecx*1+0x4],bl
  40b23b:	00 20                	add    BYTE PTR [eax],ah
  40b23d:	00 00                	add    BYTE PTR [eax],al
  40b23f:	00 34 00             	add    BYTE PTR [eax+eax*1],dh
  40b242:	00 00                	add    BYTE PTR [eax],al
  40b244:	0c 66                	or     al,0x66
  40b246:	ff                   	(bad)  
  40b247:	ff 49 00             	dec    DWORD PTR [ecx+0x0]
  40b24a:	00 00                	add    BYTE PTR [eax],al
  40b24c:	00 41 0e             	add    BYTE PTR [ecx+0xe],al
  40b24f:	08 83 02 43 0e 20    	or     BYTE PTR [ebx+0x200e4302],al
  40b255:	6d                   	ins    DWORD PTR es:[edi],dx
  40b256:	0a 0e                	or     cl,BYTE PTR [esi]
  40b258:	08 41 c3             	or     BYTE PTR [ecx-0x3d],al
  40b25b:	0e                   	push   cs
  40b25c:	04 41                	add    al,0x41
  40b25e:	0b 00                	or     eax,DWORD PTR [eax]
  40b260:	10 00                	adc    BYTE PTR [eax],al
  40b262:	00 00                	add    BYTE PTR [eax],al
  40b264:	58                   	pop    eax
  40b265:	00 00                	add    BYTE PTR [eax],al
  40b267:	00 38                	add    BYTE PTR [eax],bh
  40b269:	66 ff                	data16 (bad) 
  40b26b:	ff 1c 00             	call   FWORD PTR [eax+eax*1]
  40b26e:	00 00                	add    BYTE PTR [eax],al
  40b270:	00 00                	add    BYTE PTR [eax],al
	...

0040b274 <.eh_frame>:
  40b274:	14 00                	adc    al,0x0
  40b276:	00 00                	add    BYTE PTR [eax],al
  40b278:	00 00                	add    BYTE PTR [eax],al
  40b27a:	00 00                	add    BYTE PTR [eax],al
  40b27c:	01 7a 52             	add    DWORD PTR [edx+0x52],edi
  40b27f:	00 01                	add    BYTE PTR [ecx],al
  40b281:	7c 08                	jl     40b28b <.eh_frame+0x17>
  40b283:	01 1b                	add    DWORD PTR [ebx],ebx
  40b285:	0c 04                	or     al,0x4
  40b287:	04 88                	add    al,0x88
  40b289:	01 00                	add    DWORD PTR [eax],eax
  40b28b:	00 1c 00             	add    BYTE PTR [eax+eax*1],bl
  40b28e:	00 00                	add    BYTE PTR [eax],al
  40b290:	1c 00                	sbb    al,0x0
  40b292:	00 00                	add    BYTE PTR [eax],al
  40b294:	2c 66                	sub    al,0x66
  40b296:	ff                   	(bad)  
  40b297:	ff 43 00             	inc    DWORD PTR [ebx+0x0]
  40b29a:	00 00                	add    BYTE PTR [eax],al
  40b29c:	00 43 0e             	add    BYTE PTR [ebx+0xe],al
  40b29f:	20 55 0a             	and    BYTE PTR [ebp+0xa],dl
  40b2a2:	0e                   	push   cs
  40b2a3:	04 48                	add    al,0x48
  40b2a5:	0b 60 0e             	or     esp,DWORD PTR [eax+0xe]
  40b2a8:	04 00                	add    al,0x0
  40b2aa:	00 00                	add    BYTE PTR [eax],al
  40b2ac:	38 00                	cmp    BYTE PTR [eax],al
  40b2ae:	00 00                	add    BYTE PTR [eax],al
  40b2b0:	3c 00                	cmp    al,0x0
  40b2b2:	00 00                	add    BYTE PTR [eax],al
  40b2b4:	5c                   	pop    esp
  40b2b5:	66 ff                	data16 (bad) 
  40b2b7:	ff 86 00 00 00 00    	inc    DWORD PTR [esi+0x0]
  40b2bd:	41                   	inc    ecx
  40b2be:	0e                   	push   cs
  40b2bf:	08 86 02 41 0e 0c    	or     BYTE PTR [esi+0xc0e4102],al
  40b2c5:	83 03 43             	add    DWORD PTR [ebx],0x43
  40b2c8:	0e                   	push   cs
  40b2c9:	20 64 0a 0e          	and    BYTE PTR [edx+ecx*1+0xe],ah
  40b2cd:	0c 46                	or     al,0x46
  40b2cf:	c3                   	ret    
  40b2d0:	0e                   	push   cs
  40b2d1:	08 41 c6             	or     BYTE PTR [ecx-0x3a],al
  40b2d4:	0e                   	push   cs
  40b2d5:	04 43                	add    al,0x43
  40b2d7:	0b 6b 0a             	or     ebp,DWORD PTR [ebx+0xa]
  40b2da:	0e                   	push   cs
  40b2db:	0c 46                	or     al,0x46
  40b2dd:	c3                   	ret    
  40b2de:	0e                   	push   cs
  40b2df:	08 41 c6             	or     BYTE PTR [ecx-0x3a],al
  40b2e2:	0e                   	push   cs
  40b2e3:	04 43                	add    al,0x43
  40b2e5:	0b 00                	or     eax,DWORD PTR [eax]
  40b2e7:	00 10                	add    BYTE PTR [eax],dl
  40b2e9:	00 00                	add    BYTE PTR [eax],al
  40b2eb:	00 78 00             	add    BYTE PTR [eax+0x0],bh
  40b2ee:	00 00                	add    BYTE PTR [eax],al
  40b2f0:	b0 66                	mov    al,0x66
  40b2f2:	ff                   	(bad)  
  40b2f3:	ff 03                	inc    DWORD PTR [ebx]
  40b2f5:	00 00                	add    BYTE PTR [eax],al
  40b2f7:	00 00                	add    BYTE PTR [eax],al
  40b2f9:	00 00                	add    BYTE PTR [eax],al
	...

0040b2fc <.eh_frame>:
  40b2fc:	14 00                	adc    al,0x0
  40b2fe:	00 00                	add    BYTE PTR [eax],al
  40b300:	00 00                	add    BYTE PTR [eax],al
  40b302:	00 00                	add    BYTE PTR [eax],al
  40b304:	01 7a 52             	add    DWORD PTR [edx+0x52],edi
  40b307:	00 01                	add    BYTE PTR [ecx],al
  40b309:	7c 08                	jl     40b313 <.eh_frame+0x17>
  40b30b:	01 1b                	add    DWORD PTR [ebx],ebx
  40b30d:	0c 04                	or     al,0x4
  40b30f:	04 88                	add    al,0x88
  40b311:	01 00                	add    DWORD PTR [eax],eax
  40b313:	00 24 00             	add    BYTE PTR [eax+eax*1],ah
  40b316:	00 00                	add    BYTE PTR [eax],al
  40b318:	1c 00                	sbb    al,0x0
  40b31a:	00 00                	add    BYTE PTR [eax],al
  40b31c:	94                   	xchg   esp,eax
  40b31d:	66 ff                	data16 (bad) 
  40b31f:	ff 62 00             	jmp    DWORD PTR [edx+0x0]
  40b322:	00 00                	add    BYTE PTR [eax],al
  40b324:	00 41 0e             	add    BYTE PTR [ecx+0xe],al
  40b327:	08 85 02 42 0d 05    	or     BYTE PTR [ebp+0x50d4202],al
  40b32d:	45                   	inc    ebp
  40b32e:	86 03                	xchg   BYTE PTR [ebx],al
  40b330:	83 04 02 57          	add    DWORD PTR [edx+eax*1],0x57
  40b334:	c3                   	ret    
  40b335:	41                   	inc    ecx
  40b336:	c6 41 c5 0c          	mov    BYTE PTR [ecx-0x3b],0xc
  40b33a:	04 04                	add    al,0x4
  40b33c:	34 00                	xor    al,0x0
  40b33e:	00 00                	add    BYTE PTR [eax],al
  40b340:	44                   	inc    esp
  40b341:	00 00                	add    BYTE PTR [eax],al
  40b343:	00 dc                	add    ah,bl
  40b345:	66 ff                	data16 (bad) 
  40b347:	ff 81 00 00 00 00    	inc    DWORD PTR [ecx+0x0]
  40b34d:	41                   	inc    ecx
  40b34e:	0e                   	push   cs
  40b34f:	08 85 02 42 0d 05    	or     BYTE PTR [ebp+0x50d4202],al
  40b355:	41                   	inc    ecx
  40b356:	86 03                	xchg   BYTE PTR [ebx],al
  40b358:	46                   	inc    esi
  40b359:	83 04 4f 0a          	add    DWORD PTR [edi+ecx*2],0xa
  40b35d:	c3                   	ret    
  40b35e:	41                   	inc    ecx
  40b35f:	c6 41 c5 0c          	mov    BYTE PTR [ecx-0x3b],0xc
  40b363:	04 04                	add    al,0x4
  40b365:	45                   	inc    ebp
  40b366:	0b 02                	or     eax,DWORD PTR [edx]
  40b368:	57                   	push   edi
  40b369:	0a c3                	or     al,bl
  40b36b:	41                   	inc    ecx
  40b36c:	c6 41 c5 0c          	mov    BYTE PTR [ecx-0x3b],0xc
  40b370:	04 04                	add    al,0x4
  40b372:	41                   	inc    ecx
  40b373:	0b 2c 00             	or     ebp,DWORD PTR [eax+eax*1]
  40b376:	00 00                	add    BYTE PTR [eax],al
  40b378:	7c 00                	jl     40b37a <.eh_frame+0x7e>
  40b37a:	00 00                	add    BYTE PTR [eax],al
  40b37c:	34 67                	xor    al,0x67
  40b37e:	ff                   	(bad)  
  40b37f:	ff 91 00 00 00 00    	call   DWORD PTR [ecx+0x0]
  40b385:	41                   	inc    ecx
  40b386:	0e                   	push   cs
  40b387:	08 85 02 42 0d 05    	or     BYTE PTR [ebp+0x50d4202],al
  40b38d:	44                   	inc    esp
  40b38e:	83 03 52             	add    DWORD PTR [ebx],0x52
  40b391:	0a c5                	or     al,ch
  40b393:	c3                   	ret    
  40b394:	0c 04                	or     al,0x4
  40b396:	04 47                	add    al,0x47
  40b398:	0b 02                	or     eax,DWORD PTR [edx]
  40b39a:	45                   	inc    ebp
  40b39b:	0a c3                	or     al,bl
  40b39d:	c5 0c 04             	lds    ecx,FWORD PTR [esp+eax*1]
  40b3a0:	04 41                	add    al,0x41
  40b3a2:	0b 00                	or     eax,DWORD PTR [eax]
  40b3a4:	28 00                	sub    BYTE PTR [eax],al
  40b3a6:	00 00                	add    BYTE PTR [eax],al
  40b3a8:	ac                   	lods   al,BYTE PTR ds:[esi]
  40b3a9:	00 00                	add    BYTE PTR [eax],al
  40b3ab:	00 a4 67 ff ff 97 00 	add    BYTE PTR [edi+eiz*2+0x97ffff],ah
  40b3b2:	00 00                	add    BYTE PTR [eax],al
  40b3b4:	00 41 0e             	add    BYTE PTR [ecx+0xe],al
  40b3b7:	08 85 02 42 0d 05    	or     BYTE PTR [ebp+0x50d4202],al
  40b3bd:	61                   	popa   
  40b3be:	0a c5                	or     al,ch
  40b3c0:	0c 04                	or     al,0x4
  40b3c2:	04 41                	add    al,0x41
  40b3c4:	0b 02                	or     eax,DWORD PTR [edx]
  40b3c6:	47                   	inc    edi
  40b3c7:	0a c5                	or     al,ch
  40b3c9:	0c 04                	or     al,0x4
  40b3cb:	04 44                	add    al,0x44
  40b3cd:	0b 00                	or     eax,DWORD PTR [eax]
	...

0040b3d0 <.eh_frame>:
  40b3d0:	14 00                	adc    al,0x0
  40b3d2:	00 00                	add    BYTE PTR [eax],al
  40b3d4:	00 00                	add    BYTE PTR [eax],al
  40b3d6:	00 00                	add    BYTE PTR [eax],al
  40b3d8:	01 7a 52             	add    DWORD PTR [edx+0x52],edi
  40b3db:	00 01                	add    BYTE PTR [ecx],al
  40b3dd:	7c 08                	jl     40b3e7 <.eh_frame+0x17>
  40b3df:	01 1b                	add    DWORD PTR [ebx],ebx
  40b3e1:	0c 04                	or     al,0x4
  40b3e3:	04 88                	add    al,0x88
  40b3e5:	01 00                	add    DWORD PTR [eax],eax
  40b3e7:	00 1c 00             	add    BYTE PTR [eax+eax*1],bl
  40b3ea:	00 00                	add    BYTE PTR [eax],al
  40b3ec:	1c 00                	sbb    al,0x0
  40b3ee:	00 00                	add    BYTE PTR [eax],al
  40b3f0:	00 68 ff             	add    BYTE PTR [eax-0x1],ch
  40b3f3:	ff 4a 00             	dec    DWORD PTR [edx+0x0]
  40b3f6:	00 00                	add    BYTE PTR [eax],al
  40b3f8:	00 41 0e             	add    BYTE PTR [ecx+0xe],al
  40b3fb:	08 86 02 41 0e 0c    	or     BYTE PTR [esi+0xc0e4102],al
  40b401:	83 03 43             	add    DWORD PTR [ebx],0x43
  40b404:	0e                   	push   cs
  40b405:	20 00                	and    BYTE PTR [eax],al
  40b407:	00 3c 00             	add    BYTE PTR [eax+eax*1],bh
  40b40a:	00 00                	add    BYTE PTR [eax],al
  40b40c:	3c 00                	cmp    al,0x0
  40b40e:	00 00                	add    BYTE PTR [eax],al
  40b410:	30 68 ff             	xor    BYTE PTR [eax-0x1],ch
  40b413:	ff e3                	jmp    ebx
  40b415:	00 00                	add    BYTE PTR [eax],al
  40b417:	00 00                	add    BYTE PTR [eax],al
  40b419:	41                   	inc    ecx
  40b41a:	0e                   	push   cs
  40b41b:	08 85 02 42 0d 05    	or     BYTE PTR [ebp+0x50d4202],al
  40b421:	41                   	inc    ecx
  40b422:	87 03                	xchg   DWORD PTR [ebx],eax
  40b424:	43                   	inc    ebx
  40b425:	86 04 43             	xchg   BYTE PTR [ebx+eax*2],al
  40b428:	83 05 02 43 0a c3 41 	add    DWORD PTR ds:0xc30a4302,0x41
  40b42f:	c6 41 c7 41          	mov    BYTE PTR [ecx-0x39],0x41
  40b433:	c5 0c 04             	lds    ecx,FWORD PTR [esp+eax*1]
  40b436:	04 41                	add    al,0x41
  40b438:	0b 02                	or     eax,DWORD PTR [edx]
  40b43a:	76 0a                	jbe    40b446 <.eh_frame+0x76>
  40b43c:	c3                   	ret    
  40b43d:	41                   	inc    ecx
  40b43e:	c6 41 c7 41          	mov    BYTE PTR [ecx-0x39],0x41
  40b442:	c5 0c 04             	lds    ecx,FWORD PTR [esp+eax*1]
  40b445:	04 41                	add    al,0x41
  40b447:	0b 34 00             	or     esi,DWORD PTR [eax+eax*1]
  40b44a:	00 00                	add    BYTE PTR [eax],al
  40b44c:	7c 00                	jl     40b44e <.eh_frame+0x7e>
  40b44e:	00 00                	add    BYTE PTR [eax],al
  40b450:	e0 68                	loopne 40b4ba <.eh_frame+0x3a>
  40b452:	ff                   	(bad)  
  40b453:	ff d1                	call   ecx
  40b455:	01 00                	add    DWORD PTR [eax],eax
  40b457:	00 00                	add    BYTE PTR [eax],al
  40b459:	6a 0e                	push   0xe
  40b45b:	08 87 02 41 0e 0c    	or     BYTE PTR [edi+0xc0e4102],al
  40b461:	86 03                	xchg   BYTE PTR [ebx],al
  40b463:	41                   	inc    ecx
  40b464:	0e                   	push   cs
  40b465:	10 83 04 43 0e 30    	adc    BYTE PTR [ebx+0x300e4304],al
  40b46b:	02 e3                	add    ah,bl
  40b46d:	0a 0e                	or     cl,BYTE PTR [esi]
  40b46f:	10 41 c3             	adc    BYTE PTR [ecx-0x3d],al
  40b472:	0e                   	push   cs
  40b473:	0c 41                	or     al,0x41
  40b475:	c6                   	(bad)  
  40b476:	0e                   	push   cs
  40b477:	08 41 c7             	or     BYTE PTR [ecx-0x39],al
  40b47a:	0e                   	push   cs
  40b47b:	04 41                	add    al,0x41
  40b47d:	0b 00                	or     eax,DWORD PTR [eax]
	...

0040b480 <.eh_frame>:
  40b480:	14 00                	adc    al,0x0
  40b482:	00 00                	add    BYTE PTR [eax],al
  40b484:	00 00                	add    BYTE PTR [eax],al
  40b486:	00 00                	add    BYTE PTR [eax],al
  40b488:	01 7a 52             	add    DWORD PTR [edx+0x52],edi
  40b48b:	00 01                	add    BYTE PTR [ecx],al
  40b48d:	7c 08                	jl     40b497 <.eh_frame+0x17>
  40b48f:	01 1b                	add    DWORD PTR [ebx],ebx
  40b491:	0c 04                	or     al,0x4
  40b493:	04 88                	add    al,0x88
  40b495:	01 00                	add    DWORD PTR [eax],eax
  40b497:	00 38                	add    BYTE PTR [eax],bh
  40b499:	00 00                	add    BYTE PTR [eax],al
  40b49b:	00 1c 00             	add    BYTE PTR [eax+eax*1],bl
  40b49e:	00 00                	add    BYTE PTR [eax],al
  40b4a0:	a0 6a ff ff 90       	mov    al,ds:0x90ffff6a
  40b4a5:	00 00                	add    BYTE PTR [eax],al
  40b4a7:	00 00                	add    BYTE PTR [eax],al
  40b4a9:	41                   	inc    ecx
  40b4aa:	0e                   	push   cs
  40b4ab:	08 87 02 43 0e 0c    	or     BYTE PTR [edi+0xc0e4302],al
  40b4b1:	86 03                	xchg   BYTE PTR [ebx],al
  40b4b3:	41                   	inc    ecx
  40b4b4:	0e                   	push   cs
  40b4b5:	10 83 04 02 4d 0a    	adc    BYTE PTR [ebx+0xa4d0204],al
  40b4bb:	c3                   	ret    
  40b4bc:	0e                   	push   cs
  40b4bd:	0c 41                	or     al,0x41
  40b4bf:	c6                   	(bad)  
  40b4c0:	0e                   	push   cs
  40b4c1:	08 41 c7             	or     BYTE PTR [ecx-0x39],al
  40b4c4:	0e                   	push   cs
  40b4c5:	04 41                	add    al,0x41
  40b4c7:	0b 78 c3             	or     edi,DWORD PTR [eax-0x3d]
  40b4ca:	0e                   	push   cs
  40b4cb:	0c 41                	or     al,0x41
  40b4cd:	c6                   	(bad)  
  40b4ce:	0e                   	push   cs
  40b4cf:	08 41 c7             	or     BYTE PTR [ecx-0x39],al
  40b4d2:	0e                   	push   cs
  40b4d3:	04 6c                	add    al,0x6c
  40b4d5:	00 00                	add    BYTE PTR [eax],al
  40b4d7:	00 58 00             	add    BYTE PTR [eax+0x0],bl
  40b4da:	00 00                	add    BYTE PTR [eax],al
  40b4dc:	f4                   	hlt    
  40b4dd:	6a ff                	push   0xffffffff
  40b4df:	ff 0f                	dec    DWORD PTR [edi]
  40b4e1:	02 00                	add    al,BYTE PTR [eax]
  40b4e3:	00 00                	add    BYTE PTR [eax],al
  40b4e5:	41                   	inc    ecx
  40b4e6:	0e                   	push   cs
  40b4e7:	08 85 02 41 0e 0c    	or     BYTE PTR [ebp+0xc0e4102],al
  40b4ed:	87 03                	xchg   DWORD PTR [ebx],eax
  40b4ef:	41                   	inc    ecx
  40b4f0:	0e                   	push   cs
  40b4f1:	10 86 04 41 0e 14    	adc    BYTE PTR [esi+0x140e4104],al
  40b4f7:	83 05 43 0e 18 02 dc 	add    DWORD PTR ds:0x2180e43,0xffffffdc
  40b4fe:	0a 0e                	or     cl,BYTE PTR [esi]
  40b500:	14 43                	adc    al,0x43
  40b502:	c3                   	ret    
  40b503:	0e                   	push   cs
  40b504:	10 41 c6             	adc    BYTE PTR [ecx-0x3a],al
  40b507:	0e                   	push   cs
  40b508:	0c 41                	or     al,0x41
  40b50a:	c7                   	(bad)  
  40b50b:	0e                   	push   cs
  40b50c:	08 41 c5             	or     BYTE PTR [ecx-0x3b],al
  40b50f:	0e                   	push   cs
  40b510:	04 47                	add    al,0x47
  40b512:	0b 02                	or     eax,DWORD PTR [edx]
  40b514:	86 0a                	xchg   BYTE PTR [edx],cl
  40b516:	0e                   	push   cs
  40b517:	14 41                	adc    al,0x41
  40b519:	c3                   	ret    
  40b51a:	0e                   	push   cs
  40b51b:	10 44 c6 0e          	adc    BYTE PTR [esi+eax*8+0xe],al
  40b51f:	0c 41                	or     al,0x41
  40b521:	c7                   	(bad)  
  40b522:	0e                   	push   cs
  40b523:	08 41 c5             	or     BYTE PTR [ecx-0x3b],al
  40b526:	0e                   	push   cs
  40b527:	04 43                	add    al,0x43
  40b529:	0b 02                	or     eax,DWORD PTR [edx]
  40b52b:	78 0a                	js     40b537 <.eh_frame+0xb7>
  40b52d:	0e                   	push   cs
  40b52e:	14 44                	adc    al,0x44
  40b530:	c3                   	ret    
  40b531:	0e                   	push   cs
  40b532:	10 41 c6             	adc    BYTE PTR [ecx-0x3a],al
  40b535:	0e                   	push   cs
  40b536:	0c 41                	or     al,0x41
  40b538:	c7                   	(bad)  
  40b539:	0e                   	push   cs
  40b53a:	08 41 c5             	or     BYTE PTR [ecx-0x3b],al
  40b53d:	0e                   	push   cs
  40b53e:	04 41                	add    al,0x41
  40b540:	0b 00                	or     eax,DWORD PTR [eax]
  40b542:	00 00                	add    BYTE PTR [eax],al
  40b544:	38 00                	cmp    BYTE PTR [eax],al
  40b546:	00 00                	add    BYTE PTR [eax],al
  40b548:	c8 00 00 00          	enter  0x0,0x0
  40b54c:	94                   	xchg   esp,eax
  40b54d:	6c                   	ins    BYTE PTR es:[edi],dx
  40b54e:	ff                   	(bad)  
  40b54f:	ff 5e 00             	call   FWORD PTR [esi+0x0]
  40b552:	00 00                	add    BYTE PTR [eax],al
  40b554:	00 41 0e             	add    BYTE PTR [ecx+0xe],al
  40b557:	08 85 02 41 0e 0c    	or     BYTE PTR [ebp+0xc0e4102],al
  40b55d:	87 03                	xchg   DWORD PTR [ebx],eax
  40b55f:	41                   	inc    ecx
  40b560:	0e                   	push   cs
  40b561:	10 86 04 43 0e 14    	adc    BYTE PTR [esi+0x140e4304],al
  40b567:	83 05 43 0e 30 02 50 	add    DWORD PTR ds:0x2300e43,0x50
  40b56e:	0e                   	push   cs
  40b56f:	14 41                	adc    al,0x41
  40b571:	c3                   	ret    
  40b572:	0e                   	push   cs
  40b573:	10 41 c6             	adc    BYTE PTR [ecx-0x3a],al
  40b576:	0e                   	push   cs
  40b577:	0c 41                	or     al,0x41
  40b579:	c7                   	(bad)  
  40b57a:	0e                   	push   cs
  40b57b:	08 41 c5             	or     BYTE PTR [ecx-0x3b],al
  40b57e:	0e                   	push   cs
  40b57f:	04 54                	add    al,0x54
  40b581:	00 00                	add    BYTE PTR [eax],al
  40b583:	00 04 01             	add    BYTE PTR [ecx+eax*1],al
  40b586:	00 00                	add    BYTE PTR [eax],al
  40b588:	b8 6c ff ff 30       	mov    eax,0x30ffff6c
  40b58d:	02 00                	add    al,BYTE PTR [eax]
  40b58f:	00 00                	add    BYTE PTR [eax],al
  40b591:	41                   	inc    ecx
  40b592:	0e                   	push   cs
  40b593:	08 85 02 41 0e 0c    	or     BYTE PTR [ebp+0xc0e4102],al
  40b599:	87 03                	xchg   DWORD PTR [ebx],eax
  40b59b:	43                   	inc    ebx
  40b59c:	0e                   	push   cs
  40b59d:	10 86 04 41 0e 14    	adc    BYTE PTR [esi+0x140e4104],al
  40b5a3:	83 05 43 0e 40 02 aa 	add    DWORD PTR ds:0x2400e43,0xffffffaa
  40b5aa:	0a 0e                	or     cl,BYTE PTR [esi]
  40b5ac:	14 41                	adc    al,0x41
  40b5ae:	c3                   	ret    
  40b5af:	0e                   	push   cs
  40b5b0:	10 41 c6             	adc    BYTE PTR [ecx-0x3a],al
  40b5b3:	0e                   	push   cs
  40b5b4:	0c 41                	or     al,0x41
  40b5b6:	c7                   	(bad)  
  40b5b7:	0e                   	push   cs
  40b5b8:	08 41 c5             	or     BYTE PTR [ecx-0x3b],al
  40b5bb:	0e                   	push   cs
  40b5bc:	04 41                	add    al,0x41
  40b5be:	0b 02                	or     eax,DWORD PTR [edx]
  40b5c0:	43                   	inc    ebx
  40b5c1:	0a 0e                	or     cl,BYTE PTR [esi]
  40b5c3:	14 43                	adc    al,0x43
  40b5c5:	c3                   	ret    
  40b5c6:	0e                   	push   cs
  40b5c7:	10 41 c6             	adc    BYTE PTR [ecx-0x3a],al
  40b5ca:	0e                   	push   cs
  40b5cb:	0c 41                	or     al,0x41
  40b5cd:	c7                   	(bad)  
  40b5ce:	0e                   	push   cs
  40b5cf:	08 41 c5             	or     BYTE PTR [ecx-0x3b],al
  40b5d2:	0e                   	push   cs
  40b5d3:	04 41                	add    al,0x41
  40b5d5:	0b 00                	or     eax,DWORD PTR [eax]
  40b5d7:	00 30                	add    BYTE PTR [eax],dh
  40b5d9:	00 00                	add    BYTE PTR [eax],al
  40b5db:	00 5c 01 00          	add    BYTE PTR [ecx+eax*1+0x0],bl
  40b5df:	00 90 6e ff ff 4d    	add    BYTE PTR [eax+0x4dffff6e],dl
  40b5e5:	00 00                	add    BYTE PTR [eax],al
  40b5e7:	00 00                	add    BYTE PTR [eax],al
  40b5e9:	41                   	inc    ecx
  40b5ea:	0e                   	push   cs
  40b5eb:	08 87 02 43 0e 0c    	or     BYTE PTR [edi+0xc0e4302],al
  40b5f1:	86 03                	xchg   BYTE PTR [ebx],al
  40b5f3:	41                   	inc    ecx
  40b5f4:	0e                   	push   cs
  40b5f5:	10 83 04 43 0e 20    	adc    BYTE PTR [ebx+0x200e4304],al
  40b5fb:	7f 0e                	jg     40b60b <.eh_frame+0x18b>
  40b5fd:	10 43 c3             	adc    BYTE PTR [ebx-0x3d],al
  40b600:	0e                   	push   cs
  40b601:	0c 41                	or     al,0x41
  40b603:	c6                   	(bad)  
  40b604:	0e                   	push   cs
  40b605:	08 41 c7             	or     BYTE PTR [ecx-0x39],al
  40b608:	0e                   	push   cs
  40b609:	04 00                	add    al,0x0
  40b60b:	00 44 00 00          	add    BYTE PTR [eax+eax*1+0x0],al
  40b60f:	00 90 01 00 00 ac    	add    BYTE PTR [eax-0x53ffffff],dl
  40b615:	6e                   	outs   dx,BYTE PTR ds:[esi]
  40b616:	ff                   	(bad)  
  40b617:	ff 61 00             	jmp    DWORD PTR [ecx+0x0]
  40b61a:	00 00                	add    BYTE PTR [eax],al
  40b61c:	00 41 0e             	add    BYTE PTR [ecx+0xe],al
  40b61f:	08 87 02 41 0e 0c    	or     BYTE PTR [edi+0xc0e4102],al
  40b625:	86 03                	xchg   BYTE PTR [ebx],al
  40b627:	43                   	inc    ebx
  40b628:	0e                   	push   cs
  40b629:	10 83 04 45 0e 20    	adc    BYTE PTR [ebx+0x200e4504],al
  40b62f:	02 45 0a             	add    al,BYTE PTR [ebp+0xa]
  40b632:	0e                   	push   cs
  40b633:	10 43 c3             	adc    BYTE PTR [ebx-0x3d],al
  40b636:	0e                   	push   cs
  40b637:	0c 41                	or     al,0x41
  40b639:	c6                   	(bad)  
  40b63a:	0e                   	push   cs
  40b63b:	08 41 c7             	or     BYTE PTR [ecx-0x39],al
  40b63e:	0e                   	push   cs
  40b63f:	04 41                	add    al,0x41
  40b641:	0b 43 0e             	or     eax,DWORD PTR [ebx+0xe]
  40b644:	10 46 c3             	adc    BYTE PTR [esi-0x3d],al
  40b647:	0e                   	push   cs
  40b648:	0c 41                	or     al,0x41
  40b64a:	c6                   	(bad)  
  40b64b:	0e                   	push   cs
  40b64c:	08 41 c7             	or     BYTE PTR [ecx-0x39],al
  40b64f:	0e                   	push   cs
  40b650:	04 00                	add    al,0x0
  40b652:	00 00                	add    BYTE PTR [eax],al
  40b654:	10 00                	adc    BYTE PTR [eax],al
  40b656:	00 00                	add    BYTE PTR [eax],al
  40b658:	d8 01                	fadd   DWORD PTR [ecx]
  40b65a:	00 00                	add    BYTE PTR [eax],al
  40b65c:	d4 6e                	aam    0x6e
  40b65e:	ff                   	(bad)  
  40b65f:	ff 19                	call   FWORD PTR [ecx]
  40b661:	00 00                	add    BYTE PTR [eax],al
  40b663:	00 00                	add    BYTE PTR [eax],al
  40b665:	00 00                	add    BYTE PTR [eax],al
  40b667:	00 28                	add    BYTE PTR [eax],ch
  40b669:	00 00                	add    BYTE PTR [eax],al
  40b66b:	00 ec                	add    ah,ch
  40b66d:	01 00                	add    DWORD PTR [eax],eax
  40b66f:	00 e0                	add    al,ah
  40b671:	6e                   	outs   dx,BYTE PTR ds:[esi]
  40b672:	ff                   	(bad)  
  40b673:	ff                   	(bad)  
  40b674:	3a 00                	cmp    al,BYTE PTR [eax]
  40b676:	00 00                	add    BYTE PTR [eax],al
  40b678:	00 41 0e             	add    BYTE PTR [ecx+0xe],al
  40b67b:	08 86 02 43 0e 0c    	or     BYTE PTR [esi+0xc0e4302],al
  40b681:	83 03 45             	add    DWORD PTR [ebx],0x45
  40b684:	0e                   	push   cs
  40b685:	20 6e 0e             	and    BYTE PTR [esi+0xe],ch
  40b688:	0c 41                	or     al,0x41
  40b68a:	c3                   	ret    
  40b68b:	0e                   	push   cs
  40b68c:	08 41 c6             	or     BYTE PTR [ecx-0x3a],al
  40b68f:	0e                   	push   cs
  40b690:	04 00                	add    al,0x0
  40b692:	00 00                	add    BYTE PTR [eax],al
  40b694:	3c 00                	cmp    al,0x0
  40b696:	00 00                	add    BYTE PTR [eax],al
  40b698:	18 02                	sbb    BYTE PTR [edx],al
  40b69a:	00 00                	add    BYTE PTR [eax],al
  40b69c:	f4                   	hlt    
  40b69d:	6e                   	outs   dx,BYTE PTR ds:[esi]
  40b69e:	ff                   	(bad)  
  40b69f:	ff af 05 00 00 00    	jmp    FWORD PTR [edi+0x5]
  40b6a5:	41                   	inc    ecx
  40b6a6:	0e                   	push   cs
  40b6a7:	08 85 02 42 0d 05    	or     BYTE PTR [ebp+0x50d4202],al
  40b6ad:	43                   	inc    ebx
  40b6ae:	87 03                	xchg   DWORD PTR [ebx],eax
  40b6b0:	86 04 83             	xchg   BYTE PTR [ebx+eax*4],al
  40b6b3:	05 02 59 0a c3       	add    eax,0xc30a5902
  40b6b8:	41                   	inc    ecx
  40b6b9:	c6 41 c7 41          	mov    BYTE PTR [ecx-0x39],0x41
  40b6bd:	c5 0c 04             	lds    ecx,FWORD PTR [esp+eax*1]
  40b6c0:	04 41                	add    al,0x41
  40b6c2:	0b 03                	or     eax,DWORD PTR [ebx]
  40b6c4:	2d 03 0a c3 41       	sub    eax,0x41c30a03
  40b6c9:	c6 41 c7 41          	mov    BYTE PTR [ecx-0x39],0x41
  40b6cd:	c5 0c 04             	lds    ecx,FWORD PTR [esp+eax*1]
  40b6d0:	04 41                	add    al,0x41
  40b6d2:	0b 00                	or     eax,DWORD PTR [eax]
  40b6d4:	38 00                	cmp    BYTE PTR [eax],al
  40b6d6:	00 00                	add    BYTE PTR [eax],al
  40b6d8:	58                   	pop    eax
  40b6d9:	02 00                	add    al,BYTE PTR [eax]
  40b6db:	00 64 74 ff          	add    BYTE PTR [esp+esi*2-0x1],ah
  40b6df:	ff b4 00 00 00 00 41 	push   DWORD PTR [eax+eax*1+0x41000000]
  40b6e6:	0e                   	push   cs
  40b6e7:	08 85 02 42 0d 05    	or     BYTE PTR [ebp+0x50d4202],al
  40b6ed:	46                   	inc    esi
  40b6ee:	87 03                	xchg   DWORD PTR [ebx],eax
  40b6f0:	86 04 83             	xchg   BYTE PTR [ebx+eax*4],al
  40b6f3:	05 78 0a c3 41       	add    eax,0x41c30a78
  40b6f8:	c6 41 c7 41          	mov    BYTE PTR [ecx-0x39],0x41
  40b6fc:	c5 0c 04             	lds    ecx,FWORD PTR [esp+eax*1]
  40b6ff:	04 41                	add    al,0x41
  40b701:	0b 02                	or     eax,DWORD PTR [edx]
  40b703:	6b c3 41             	imul   eax,ebx,0x41
  40b706:	c6 41 c7 41          	mov    BYTE PTR [ecx-0x39],0x41
  40b70a:	c5 0c 04             	lds    ecx,FWORD PTR [esp+eax*1]
  40b70d:	04 00                	add    al,0x0
  40b70f:	00 10                	add    BYTE PTR [eax],dl
  40b711:	00 00                	add    BYTE PTR [eax],al
  40b713:	00 94 02 00 00 e8 74 	add    BYTE PTR [edx+eax*1+0x74e80000],dl
  40b71a:	ff                   	(bad)  
  40b71b:	ff 15 00 00 00 00    	call   DWORD PTR ds:0x0
  40b721:	00 00                	add    BYTE PTR [eax],al
	...

0040b724 <.eh_frame>:
  40b724:	14 00                	adc    al,0x0
  40b726:	00 00                	add    BYTE PTR [eax],al
  40b728:	00 00                	add    BYTE PTR [eax],al
  40b72a:	00 00                	add    BYTE PTR [eax],al
  40b72c:	01 7a 52             	add    DWORD PTR [edx+0x52],edi
  40b72f:	00 01                	add    BYTE PTR [ecx],al
  40b731:	7c 08                	jl     40b73b <.eh_frame+0x17>
  40b733:	01 1b                	add    DWORD PTR [ebx],ebx
  40b735:	0c 04                	or     al,0x4
  40b737:	04 88                	add    al,0x88
  40b739:	01 00                	add    DWORD PTR [eax],eax
  40b73b:	00 3c 00             	add    BYTE PTR [eax+eax*1],bh
  40b73e:	00 00                	add    BYTE PTR [eax],al
  40b740:	1c 00                	sbb    al,0x0
  40b742:	00 00                	add    BYTE PTR [eax],al
  40b744:	dc 74 ff ff          	fdiv   QWORD PTR [edi+edi*8-0x1]
  40b748:	fd                   	std    
  40b749:	03 00                	add    eax,DWORD PTR [eax]
  40b74b:	00 00                	add    BYTE PTR [eax],al
  40b74d:	41                   	inc    ecx
  40b74e:	0e                   	push   cs
  40b74f:	08 85 02 42 0d 05    	or     BYTE PTR [ebp+0x50d4202],al
  40b755:	46                   	inc    esi
  40b756:	87 03                	xchg   DWORD PTR [ebx],eax
  40b758:	86 04 83             	xchg   BYTE PTR [ebx+eax*4],al
  40b75b:	05 02 ae 0a c3       	add    eax,0xc30aae02
  40b760:	41                   	inc    ecx
  40b761:	c6 41 c7 41          	mov    BYTE PTR [ecx-0x39],0x41
  40b765:	c5 0c 04             	lds    ecx,FWORD PTR [esp+eax*1]
  40b768:	04 46                	add    al,0x46
  40b76a:	0b 03                	or     eax,DWORD PTR [ebx]
  40b76c:	66 02 0a             	data16 add cl,BYTE PTR [edx]
  40b76f:	c3                   	ret    
  40b770:	43                   	inc    ebx
  40b771:	c6 41 c7 41          	mov    BYTE PTR [ecx-0x39],0x41
  40b775:	c5 0c 04             	lds    ecx,FWORD PTR [esp+eax*1]
  40b778:	04 45                	add    al,0x45
  40b77a:	0b 00                	or     eax,DWORD PTR [eax]

0040b77c <.eh_frame>:
  40b77c:	14 00                	adc    al,0x0
  40b77e:	00 00                	add    BYTE PTR [eax],al
  40b780:	00 00                	add    BYTE PTR [eax],al
  40b782:	00 00                	add    BYTE PTR [eax],al
  40b784:	01 7a 52             	add    DWORD PTR [edx+0x52],edi
  40b787:	00 01                	add    BYTE PTR [ecx],al
  40b789:	7c 08                	jl     40b793 <.eh_frame+0x17>
  40b78b:	01 1b                	add    DWORD PTR [ebx],ebx
  40b78d:	0c 04                	or     al,0x4
  40b78f:	04 88                	add    al,0x88
  40b791:	01 00                	add    DWORD PTR [eax],eax
  40b793:	00 40 00             	add    BYTE PTR [eax+0x0],al
  40b796:	00 00                	add    BYTE PTR [eax],al
  40b798:	1c 00                	sbb    al,0x0
  40b79a:	00 00                	add    BYTE PTR [eax],al
  40b79c:	84 78 ff             	test   BYTE PTR [eax-0x1],bh
  40b79f:	ff 9c 00 00 00 00 41 	call   FWORD PTR [eax+eax*1+0x41000000]
  40b7a6:	0e                   	push   cs
  40b7a7:	08 85 02 42 0d 05    	or     BYTE PTR [ebp+0x50d4202],al
  40b7ad:	41                   	inc    ecx
  40b7ae:	86 03                	xchg   BYTE PTR [ebx],al
  40b7b0:	49                   	dec    ecx
  40b7b1:	83 04 78 0a          	add    DWORD PTR [eax+edi*2],0xa
  40b7b5:	c3                   	ret    
  40b7b6:	41                   	inc    ecx
  40b7b7:	c6 41 c5 0c          	mov    BYTE PTR [ecx-0x3b],0xc
  40b7bb:	04 04                	add    al,0x4
  40b7bd:	41                   	inc    ecx
  40b7be:	0b 02                	or     eax,DWORD PTR [edx]
  40b7c0:	43                   	inc    ebx
  40b7c1:	0a c3                	or     al,bl
  40b7c3:	41                   	inc    ecx
  40b7c4:	c6 41 c5 0c          	mov    BYTE PTR [ecx-0x3b],0xc
  40b7c8:	04 04                	add    al,0x4
  40b7ca:	43                   	inc    ebx
  40b7cb:	0b 49 c3             	or     ecx,DWORD PTR [ecx-0x3d]
  40b7ce:	41                   	inc    ecx
  40b7cf:	c6 41 c5 0c          	mov    BYTE PTR [ecx-0x3b],0xc
  40b7d3:	04 04                	add    al,0x4
  40b7d5:	00 00                	add    BYTE PTR [eax],al
  40b7d7:	00 28                	add    BYTE PTR [eax],ch
  40b7d9:	00 00                	add    BYTE PTR [eax],al
  40b7db:	00 60 00             	add    BYTE PTR [eax+0x0],ah
  40b7de:	00 00                	add    BYTE PTR [eax],al
  40b7e0:	e0 78                	loopne 40b85a <.eh_frame+0xde>
  40b7e2:	ff                   	(bad)  
  40b7e3:	ff cd                	dec    ebp
  40b7e5:	00 00                	add    BYTE PTR [eax],al
  40b7e7:	00 00                	add    BYTE PTR [eax],al
  40b7e9:	41                   	inc    ecx
  40b7ea:	0e                   	push   cs
  40b7eb:	08 85 02 42 0d 05    	or     BYTE PTR [ebp+0x50d4202],al
  40b7f1:	42                   	inc    edx
  40b7f2:	86 03                	xchg   BYTE PTR [ebx],al
  40b7f4:	83 04 02 6b          	add    DWORD PTR [edx+eax*1],0x6b
  40b7f8:	0a c3                	or     al,bl
  40b7fa:	41                   	inc    ecx
  40b7fb:	c6 41 c5 0c          	mov    BYTE PTR [ecx-0x3b],0xc
  40b7ff:	04 04                	add    al,0x4
  40b801:	41                   	inc    ecx
  40b802:	0b 00                	or     eax,DWORD PTR [eax]
  40b804:	40                   	inc    eax
  40b805:	00 00                	add    BYTE PTR [eax],al
  40b807:	00 8c 00 00 00 84 79 	add    BYTE PTR [eax+eax*1+0x79840000],cl
  40b80e:	ff                   	(bad)  
  40b80f:	ff 9b 01 00 00 00    	call   FWORD PTR [ebx+0x1]
  40b815:	41                   	inc    ecx
  40b816:	0e                   	push   cs
  40b817:	08 85 02 41 0e 0c    	or     BYTE PTR [ebp+0xc0e4102],al
  40b81d:	87 03                	xchg   DWORD PTR [ebx],eax
  40b81f:	41                   	inc    ecx
  40b820:	0e                   	push   cs
  40b821:	10 86 04 41 0e 14    	adc    BYTE PTR [esi+0x140e4104],al
  40b827:	83 05 46 0e c0 02 03 	add    DWORD PTR ds:0x2c00e46,0x3
  40b82e:	29 01                	sub    DWORD PTR [ecx],eax
  40b830:	0a 0e                	or     cl,BYTE PTR [esi]
  40b832:	14 41                	adc    al,0x41
  40b834:	c3                   	ret    
  40b835:	0e                   	push   cs
  40b836:	10 41 c6             	adc    BYTE PTR [ecx-0x3a],al
  40b839:	0e                   	push   cs
  40b83a:	0c 41                	or     al,0x41
  40b83c:	c7                   	(bad)  
  40b83d:	0e                   	push   cs
  40b83e:	08 41 c5             	or     BYTE PTR [ecx-0x3b],al
  40b841:	0e                   	push   cs
  40b842:	04 41                	add    al,0x41
  40b844:	0b 00                	or     eax,DWORD PTR [eax]
  40b846:	00 00                	add    BYTE PTR [eax],al
  40b848:	20 00                	and    BYTE PTR [eax],al
  40b84a:	00 00                	add    BYTE PTR [eax],al
  40b84c:	d0 00                	rol    BYTE PTR [eax],1
  40b84e:	00 00                	add    BYTE PTR [eax],al
  40b850:	e0 7a                	loopne 40b8cc <.eh_frame+0x150>
  40b852:	ff                   	(bad)  
  40b853:	ff 46 00             	inc    DWORD PTR [esi+0x0]
  40b856:	00 00                	add    BYTE PTR [eax],al
  40b858:	00 41 0e             	add    BYTE PTR [ecx+0xe],al
  40b85b:	08 83 02 43 0e 10    	or     BYTE PTR [ebx+0x100e4302],al
  40b861:	71 0a                	jno    40b86d <.eh_frame+0xf1>
  40b863:	0e                   	push   cs
  40b864:	08 41 c3             	or     BYTE PTR [ecx-0x3d],al
  40b867:	0e                   	push   cs
  40b868:	04 41                	add    al,0x41
  40b86a:	0b 00                	or     eax,DWORD PTR [eax]
  40b86c:	24 00                	and    al,0x0
  40b86e:	00 00                	add    BYTE PTR [eax],al
  40b870:	f4                   	hlt    
  40b871:	00 00                	add    BYTE PTR [eax],al
  40b873:	00 0c 7b             	add    BYTE PTR [ebx+edi*2],cl
  40b876:	ff                   	(bad)  
  40b877:	ff 44 00 00          	inc    DWORD PTR [eax+eax*1+0x0]
  40b87b:	00 00                	add    BYTE PTR [eax],al
  40b87d:	41                   	inc    ecx
  40b87e:	0e                   	push   cs
  40b87f:	08 85 02 42 0d 05    	or     BYTE PTR [ebp+0x50d4202],al
  40b885:	44                   	inc    esp
  40b886:	83 03 6a             	add    DWORD PTR [ebx],0x6a
  40b889:	0a c5                	or     al,ch
  40b88b:	c3                   	ret    
  40b88c:	0c 04                	or     al,0x4
  40b88e:	04 41                	add    al,0x41
  40b890:	0b 00                	or     eax,DWORD PTR [eax]
  40b892:	00 00                	add    BYTE PTR [eax],al
  40b894:	28 00                	sub    BYTE PTR [eax],al
  40b896:	00 00                	add    BYTE PTR [eax],al
  40b898:	1c 01                	sbb    al,0x1
  40b89a:	00 00                	add    BYTE PTR [eax],al
  40b89c:	34 7b                	xor    al,0x7b
  40b89e:	ff                   	(bad)  
  40b89f:	ff 5a 00             	call   FWORD PTR [edx+0x0]
  40b8a2:	00 00                	add    BYTE PTR [eax],al
  40b8a4:	00 41 0e             	add    BYTE PTR [ecx+0xe],al
  40b8a7:	08 85 02 42 0d 05    	or     BYTE PTR [ebp+0x50d4202],al
  40b8ad:	44                   	inc    esp
  40b8ae:	83 03 6b             	add    DWORD PTR [ebx],0x6b
  40b8b1:	0a c5                	or     al,ch
  40b8b3:	c3                   	ret    
  40b8b4:	0c 04                	or     al,0x4
  40b8b6:	04 41                	add    al,0x41
  40b8b8:	0b 66 c3             	or     esp,DWORD PTR [esi-0x3d]
  40b8bb:	c5 0c 04             	lds    ecx,FWORD PTR [esp+eax*1]
  40b8be:	04 00                	add    al,0x0
  40b8c0:	18 00                	sbb    BYTE PTR [eax],al
  40b8c2:	00 00                	add    BYTE PTR [eax],al
  40b8c4:	48                   	dec    eax
  40b8c5:	01 00                	add    DWORD PTR [eax],eax
  40b8c7:	00 68 7b             	add    BYTE PTR [eax+0x7b],ch
  40b8ca:	ff                   	(bad)  
  40b8cb:	ff 27                	jmp    DWORD PTR [edi]
  40b8cd:	00 00                	add    BYTE PTR [eax],al
  40b8cf:	00 00                	add    BYTE PTR [eax],al
  40b8d1:	43                   	inc    ebx
  40b8d2:	0e                   	push   cs
  40b8d3:	10 51 0a             	adc    BYTE PTR [ecx+0xa],dl
  40b8d6:	0e                   	push   cs
  40b8d7:	04 41                	add    al,0x41
  40b8d9:	0b 00                	or     eax,DWORD PTR [eax]
  40b8db:	00 34 00             	add    BYTE PTR [eax+eax*1],dh
  40b8de:	00 00                	add    BYTE PTR [eax],al
  40b8e0:	64 01 00             	add    DWORD PTR fs:[eax],eax
  40b8e3:	00 7c 7b ff          	add    BYTE PTR [ebx+edi*2-0x1],bh
  40b8e7:	ff 63 00             	jmp    DWORD PTR [ebx+0x0]
  40b8ea:	00 00                	add    BYTE PTR [eax],al
  40b8ec:	00 41 0e             	add    BYTE PTR [ecx+0xe],al
  40b8ef:	08 86 02 41 0e 0c    	or     BYTE PTR [esi+0xc0e4102],al
  40b8f5:	83 03 43             	add    DWORD PTR [ebx],0x43
  40b8f8:	0e                   	push   cs
  40b8f9:	20 02                	and    BYTE PTR [edx],al
  40b8fb:	4a                   	dec    edx
  40b8fc:	0a 0e                	or     cl,BYTE PTR [esi]
  40b8fe:	0c 41                	or     al,0x41
  40b900:	c3                   	ret    
  40b901:	0e                   	push   cs
  40b902:	08 41 c6             	or     BYTE PTR [ecx-0x3a],al
  40b905:	0e                   	push   cs
  40b906:	04 41                	add    al,0x41
  40b908:	0b 4e 0e             	or     ecx,DWORD PTR [esi+0xe]
  40b90b:	0c 41                	or     al,0x41
  40b90d:	c3                   	ret    
  40b90e:	0e                   	push   cs
  40b90f:	08 41 c6             	or     BYTE PTR [ecx-0x3a],al
  40b912:	0e                   	push   cs
  40b913:	04 14                	add    al,0x14

0040b914 <.eh_frame>:
  40b914:	14 00                	adc    al,0x0
  40b916:	00 00                	add    BYTE PTR [eax],al
  40b918:	00 00                	add    BYTE PTR [eax],al
  40b91a:	00 00                	add    BYTE PTR [eax],al
  40b91c:	01 7a 52             	add    DWORD PTR [edx+0x52],edi
  40b91f:	00 01                	add    BYTE PTR [ecx],al
  40b921:	7c 08                	jl     40b92b <.eh_frame+0x17>
  40b923:	01 1b                	add    DWORD PTR [ebx],ebx
  40b925:	0c 04                	or     al,0x4
  40b927:	04 88                	add    al,0x88
  40b929:	01 00                	add    DWORD PTR [eax],eax
  40b92b:	00 14 00             	add    BYTE PTR [eax+eax*1],dl
  40b92e:	00 00                	add    BYTE PTR [eax],al
  40b930:	1c 00                	sbb    al,0x0
  40b932:	00 00                	add    BYTE PTR [eax],al
  40b934:	9c                   	pushf  
  40b935:	7b ff                	jnp    40b936 <.eh_frame+0x22>
  40b937:	ff 2b                	jmp    FWORD PTR [ebx]
  40b939:	00 00                	add    BYTE PTR [eax],al
  40b93b:	00 00                	add    BYTE PTR [eax],al
  40b93d:	43                   	inc    ebx
  40b93e:	0e                   	push   cs
  40b93f:	20 67 0e             	and    BYTE PTR [edi+0xe],ah
  40b942:	04 00                	add    al,0x0

0040b944 <.eh_frame>:
  40b944:	14 00                	adc    al,0x0
  40b946:	00 00                	add    BYTE PTR [eax],al
  40b948:	00 00                	add    BYTE PTR [eax],al
  40b94a:	00 00                	add    BYTE PTR [eax],al
  40b94c:	01 7a 52             	add    DWORD PTR [edx+0x52],edi
  40b94f:	00 01                	add    BYTE PTR [ecx],al
  40b951:	7c 08                	jl     40b95b <.eh_frame+0x17>
  40b953:	01 1b                	add    DWORD PTR [ebx],ebx
  40b955:	0c 04                	or     al,0x4
  40b957:	04 88                	add    al,0x88
  40b959:	01 00                	add    DWORD PTR [eax],eax
  40b95b:	00 34 00             	add    BYTE PTR [eax+eax*1],dh
  40b95e:	00 00                	add    BYTE PTR [eax],al
  40b960:	1c 00                	sbb    al,0x0
  40b962:	00 00                	add    BYTE PTR [eax],al
  40b964:	9c                   	pushf  
  40b965:	7b ff                	jnp    40b966 <.eh_frame+0x22>
  40b967:	ff 76 00             	push   DWORD PTR [esi+0x0]
  40b96a:	00 00                	add    BYTE PTR [eax],al
  40b96c:	00 41 0e             	add    BYTE PTR [ecx+0xe],al
  40b96f:	08 86 02 41 0e 0c    	or     BYTE PTR [esi+0xc0e4102],al
  40b975:	83 03 43             	add    DWORD PTR [ebx],0x43
  40b978:	0e                   	push   cs
  40b979:	30 02                	xor    BYTE PTR [edx],al
  40b97b:	40                   	inc    eax
  40b97c:	0a 0e                	or     cl,BYTE PTR [esi]
  40b97e:	0c 41                	or     al,0x41
  40b980:	c3                   	ret    
  40b981:	0e                   	push   cs
  40b982:	08 41 c6             	or     BYTE PTR [ecx-0x3a],al
  40b985:	0e                   	push   cs
  40b986:	04 41                	add    al,0x41
  40b988:	0b 6b 0e             	or     ebp,DWORD PTR [ebx+0xe]
  40b98b:	0c 41                	or     al,0x41
  40b98d:	c3                   	ret    
  40b98e:	0e                   	push   cs
  40b98f:	08 41 c6             	or     BYTE PTR [ecx-0x3a],al
  40b992:	0e                   	push   cs
  40b993:	04 14                	add    al,0x14

0040b994 <.eh_frame>:
  40b994:	14 00                	adc    al,0x0
  40b996:	00 00                	add    BYTE PTR [eax],al
  40b998:	00 00                	add    BYTE PTR [eax],al
  40b99a:	00 00                	add    BYTE PTR [eax],al
  40b99c:	01 7a 52             	add    DWORD PTR [edx+0x52],edi
  40b99f:	00 01                	add    BYTE PTR [ecx],al
  40b9a1:	7c 08                	jl     40b9ab <.eh_frame+0x17>
  40b9a3:	01 1b                	add    DWORD PTR [ebx],ebx
  40b9a5:	0c 04                	or     al,0x4
  40b9a7:	04 88                	add    al,0x88
  40b9a9:	01 00                	add    DWORD PTR [eax],eax
  40b9ab:	00 20                	add    BYTE PTR [eax],ah
  40b9ad:	00 00                	add    BYTE PTR [eax],al
  40b9af:	00 1c 00             	add    BYTE PTR [eax+eax*1],bl
  40b9b2:	00 00                	add    BYTE PTR [eax],al
  40b9b4:	cc                   	int3   
  40b9b5:	7b ff                	jnp    40b9b6 <.eh_frame+0x22>
  40b9b7:	ff                   	(bad)  
  40b9b8:	fe 00                	inc    BYTE PTR [eax]
  40b9ba:	00 00                	add    BYTE PTR [eax],al
  40b9bc:	00 41 0e             	add    BYTE PTR [ecx+0xe],al
  40b9bf:	08 83 02 45 0e 50    	or     BYTE PTR [ebx+0x500e4502],al
  40b9c5:	02 a9 0a 0e 08 41    	add    ch,BYTE PTR [ecx+0x41080e0a]
  40b9cb:	c3                   	ret    
  40b9cc:	0e                   	push   cs
  40b9cd:	04 41                	add    al,0x41
  40b9cf:	0b 28                	or     ebp,DWORD PTR [eax]
  40b9d1:	00 00                	add    BYTE PTR [eax],al
  40b9d3:	00 40 00             	add    BYTE PTR [eax+0x0],al
  40b9d6:	00 00                	add    BYTE PTR [eax],al
  40b9d8:	a8 7c                	test   al,0x7c
  40b9da:	ff                   	(bad)  
  40b9db:	ff 54 00 00          	call   DWORD PTR [eax+eax*1+0x0]
  40b9df:	00 00                	add    BYTE PTR [eax],al
  40b9e1:	41                   	inc    ecx
  40b9e2:	0e                   	push   cs
  40b9e3:	08 83 02 43 0e 20    	or     BYTE PTR [ebx+0x200e4302],al
  40b9e9:	69 0a 0e 08 41 c3    	imul   ecx,DWORD PTR [edx],0xc341080e
  40b9ef:	0e                   	push   cs
  40b9f0:	04 42                	add    al,0x42
  40b9f2:	0b 62 0e             	or     esp,DWORD PTR [edx+0xe]
  40b9f5:	08 41 c3             	or     BYTE PTR [ecx-0x3d],al
  40b9f8:	0e                   	push   cs
  40b9f9:	04 00                	add    al,0x0
  40b9fb:	00 3c 00             	add    BYTE PTR [eax+eax*1],bh
  40b9fe:	00 00                	add    BYTE PTR [eax],al
  40ba00:	6c                   	ins    BYTE PTR es:[edi],dx
  40ba01:	00 00                	add    BYTE PTR [eax],al
  40ba03:	00 dc                	add    ah,bl
  40ba05:	7c ff                	jl     40ba06 <.eh_frame+0x72>
  40ba07:	ff 08                	dec    DWORD PTR [eax]
  40ba09:	01 00                	add    DWORD PTR [eax],eax
  40ba0b:	00 00                	add    BYTE PTR [eax],al
  40ba0d:	41                   	inc    ecx
  40ba0e:	0e                   	push   cs
  40ba0f:	08 85 02 41 0e 0c    	or     BYTE PTR [ebp+0xc0e4102],al
  40ba15:	87 03                	xchg   DWORD PTR [ebx],eax
  40ba17:	41                   	inc    ecx
  40ba18:	0e                   	push   cs
  40ba19:	10 86 04 43 0e 14    	adc    BYTE PTR [esi+0x140e4304],al
  40ba1f:	83 05 45 0e 60 02 c1 	add    DWORD PTR ds:0x2600e45,0xffffffc1
  40ba26:	0a 0e                	or     cl,BYTE PTR [esi]
  40ba28:	14 41                	adc    al,0x41
  40ba2a:	c3                   	ret    
  40ba2b:	0e                   	push   cs
  40ba2c:	10 41 c6             	adc    BYTE PTR [ecx-0x3a],al
  40ba2f:	0e                   	push   cs
  40ba30:	0c 41                	or     al,0x41
  40ba32:	c7                   	(bad)  
  40ba33:	0e                   	push   cs
  40ba34:	08 41 c5             	or     BYTE PTR [ecx-0x3b],al
  40ba37:	0e                   	push   cs
  40ba38:	04 41                	add    al,0x41
  40ba3a:	0b 00                	or     eax,DWORD PTR [eax]
  40ba3c:	2c 00                	sub    al,0x0
  40ba3e:	00 00                	add    BYTE PTR [eax],al
  40ba40:	ac                   	lods   al,BYTE PTR ds:[esi]
  40ba41:	00 00                	add    BYTE PTR [eax],al
  40ba43:	00 ac 7d ff ff a7 00 	add    BYTE PTR [ebp+edi*2+0xa7ffff],ch
  40ba4a:	00 00                	add    BYTE PTR [eax],al
  40ba4c:	00 41 0e             	add    BYTE PTR [ecx+0xe],al
  40ba4f:	08 87 02 46 0e 0c    	or     BYTE PTR [edi+0xc0e4602],al
  40ba55:	86 03                	xchg   BYTE PTR [ebx],al
  40ba57:	43                   	inc    ebx
  40ba58:	0e                   	push   cs
  40ba59:	10 83 04 02 81 0a    	adc    BYTE PTR [ebx+0xa810204],al
  40ba5f:	c3                   	ret    
  40ba60:	0e                   	push   cs
  40ba61:	0c 41                	or     al,0x41
  40ba63:	c6                   	(bad)  
  40ba64:	0e                   	push   cs
  40ba65:	08 41 c7             	or     BYTE PTR [ecx-0x39],al
  40ba68:	0e                   	push   cs
  40ba69:	04 43                	add    al,0x43
  40ba6b:	0b 3c 00             	or     edi,DWORD PTR [eax+eax*1]
  40ba6e:	00 00                	add    BYTE PTR [eax],al
  40ba70:	dc 00                	fadd   QWORD PTR [eax]
  40ba72:	00 00                	add    BYTE PTR [eax],al
  40ba74:	2c 7e                	sub    al,0x7e
  40ba76:	ff                   	(bad)  
  40ba77:	ff 8f 00 00 00 00    	dec    DWORD PTR [edi+0x0]
  40ba7d:	41                   	inc    ecx
  40ba7e:	0e                   	push   cs
  40ba7f:	08 85 02 41 0e 0c    	or     BYTE PTR [ebp+0xc0e4102],al
  40ba85:	87 03                	xchg   DWORD PTR [ebx],eax
  40ba87:	41                   	inc    ecx
  40ba88:	0e                   	push   cs
  40ba89:	10 86 04 41 0e 14    	adc    BYTE PTR [esi+0x140e4104],al
  40ba8f:	83 05 43 0e 30 02 41 	add    DWORD PTR ds:0x2300e43,0x41
  40ba96:	0a 0e                	or     cl,BYTE PTR [esi]
  40ba98:	14 41                	adc    al,0x41
  40ba9a:	c3                   	ret    
  40ba9b:	0e                   	push   cs
  40ba9c:	10 41 c6             	adc    BYTE PTR [ecx-0x3a],al
  40ba9f:	0e                   	push   cs
  40baa0:	0c 41                	or     al,0x41
  40baa2:	c7                   	(bad)  
  40baa3:	0e                   	push   cs
  40baa4:	08 41 c5             	or     BYTE PTR [ecx-0x3b],al
  40baa7:	0e                   	push   cs
  40baa8:	04 44                	add    al,0x44
  40baaa:	0b 00                	or     eax,DWORD PTR [eax]
  40baac:	30 00                	xor    BYTE PTR [eax],al
  40baae:	00 00                	add    BYTE PTR [eax],al
  40bab0:	1c 01                	sbb    al,0x1
  40bab2:	00 00                	add    BYTE PTR [eax],al
  40bab4:	7c 7e                	jl     40bb34 <.eh_frame+0x1a0>
  40bab6:	ff                   	(bad)  
  40bab7:	ff 28                	jmp    FWORD PTR [eax]
  40bab9:	02 00                	add    al,BYTE PTR [eax]
  40babb:	00 00                	add    BYTE PTR [eax],al
  40babd:	41                   	inc    ecx
  40babe:	0e                   	push   cs
  40babf:	08 85 02 42 0d 05    	or     BYTE PTR [ebp+0x50d4202],al
  40bac5:	41                   	inc    ecx
  40bac6:	87 03                	xchg   DWORD PTR [ebx],eax
  40bac8:	43                   	inc    ebx
  40bac9:	86 04 43             	xchg   BYTE PTR [ebx+eax*2],al
  40bacc:	83 05 03 93 01 0a c3 	add    DWORD PTR ds:0xa019303,0xffffffc3
  40bad3:	41                   	inc    ecx
  40bad4:	c6 41 c7 41          	mov    BYTE PTR [ecx-0x39],0x41
  40bad8:	c5 0c 04             	lds    ecx,FWORD PTR [esp+eax*1]
  40badb:	04 41                	add    al,0x41
  40badd:	0b 00                	or     eax,DWORD PTR [eax]
  40badf:	00 30                	add    BYTE PTR [eax],dh
  40bae1:	00 00                	add    BYTE PTR [eax],al
  40bae3:	00 50 01             	add    BYTE PTR [eax+0x1],dl
  40bae6:	00 00                	add    BYTE PTR [eax],al
  40bae8:	78 80                	js     40ba6a <.eh_frame+0xd6>
  40baea:	ff                   	(bad)  
  40baeb:	ff d6                	call   esi
  40baed:	02 00                	add    al,BYTE PTR [eax]
  40baef:	00 00                	add    BYTE PTR [eax],al
  40baf1:	41                   	inc    ecx
  40baf2:	0e                   	push   cs
  40baf3:	08 85 02 42 0d 05    	or     BYTE PTR [ebp+0x50d4202],al
  40baf9:	41                   	inc    ecx
  40bafa:	87 03                	xchg   DWORD PTR [ebx],eax
  40bafc:	43                   	inc    ebx
  40bafd:	86 04 46             	xchg   BYTE PTR [esi+eax*2],al
  40bb00:	83 05 03 ad 01 0a c3 	add    DWORD PTR ds:0xa01ad03,0xffffffc3
  40bb07:	41                   	inc    ecx
  40bb08:	c6 41 c7 41          	mov    BYTE PTR [ecx-0x39],0x41
  40bb0c:	c5 0c 04             	lds    ecx,FWORD PTR [esp+eax*1]
  40bb0f:	04 43                	add    al,0x43
  40bb11:	0b 00                	or     eax,DWORD PTR [eax]
  40bb13:	00 30                	add    BYTE PTR [eax],dh
  40bb15:	00 00                	add    BYTE PTR [eax],al
  40bb17:	00 84 01 00 00 24 83 	add    BYTE PTR [ecx+eax*1-0x7cdc0000],al
  40bb1e:	ff                   	(bad)  
  40bb1f:	ff 2f                	jmp    FWORD PTR [edi]
  40bb21:	03 00                	add    eax,DWORD PTR [eax]
  40bb23:	00 00                	add    BYTE PTR [eax],al
  40bb25:	41                   	inc    ecx
  40bb26:	0e                   	push   cs
  40bb27:	08 85 02 42 0d 05    	or     BYTE PTR [ebp+0x50d4202],al
  40bb2d:	42                   	inc    edx
  40bb2e:	87 03                	xchg   DWORD PTR [ebx],eax
  40bb30:	86 04 43             	xchg   BYTE PTR [ebx+eax*2],al
  40bb33:	83 05 03 52 01 0a c3 	add    DWORD PTR ds:0xa015203,0xffffffc3
  40bb3a:	41                   	inc    ecx
  40bb3b:	c6 41 c7 41          	mov    BYTE PTR [ecx-0x39],0x41
  40bb3f:	c5 0c 04             	lds    ecx,FWORD PTR [esp+eax*1]
  40bb42:	04 43                	add    al,0x43
  40bb44:	0b 00                	or     eax,DWORD PTR [eax]
  40bb46:	00 00                	add    BYTE PTR [eax],al
  40bb48:	3c 00                	cmp    al,0x0
  40bb4a:	00 00                	add    BYTE PTR [eax],al
  40bb4c:	b8 01 00 00 20       	mov    eax,0x20000001
  40bb51:	86 ff                	xchg   bh,bh
  40bb53:	ff c7                	inc    edi
  40bb55:	00 00                	add    BYTE PTR [eax],al
  40bb57:	00 00                	add    BYTE PTR [eax],al
  40bb59:	41                   	inc    ecx
  40bb5a:	0e                   	push   cs
  40bb5b:	08 85 02 44 0e 0c    	or     BYTE PTR [ebp+0xc0e4402],al
  40bb61:	87 03                	xchg   DWORD PTR [ebx],eax
  40bb63:	43                   	inc    ebx
  40bb64:	0e                   	push   cs
  40bb65:	10 86 04 46 0e 14    	adc    BYTE PTR [esi+0x140e4604],al
  40bb6b:	83 05 48 0e 30 02 a3 	add    DWORD PTR ds:0x2300e48,0xffffffa3
  40bb72:	0a 0e                	or     cl,BYTE PTR [esi]
  40bb74:	14 41                	adc    al,0x41
  40bb76:	c3                   	ret    
  40bb77:	0e                   	push   cs
  40bb78:	10 41 c6             	adc    BYTE PTR [ecx-0x3a],al
  40bb7b:	0e                   	push   cs
  40bb7c:	0c 41                	or     al,0x41
  40bb7e:	c7                   	(bad)  
  40bb7f:	0e                   	push   cs
  40bb80:	08 41 c5             	or     BYTE PTR [ecx-0x3b],al
  40bb83:	0e                   	push   cs
  40bb84:	04 43                	add    al,0x43
  40bb86:	0b 00                	or     eax,DWORD PTR [eax]
  40bb88:	34 00                	xor    al,0x0
  40bb8a:	00 00                	add    BYTE PTR [eax],al
  40bb8c:	f8                   	clc    
  40bb8d:	01 00                	add    DWORD PTR [eax],eax
  40bb8f:	00 b0 86 ff ff ab    	add    BYTE PTR [eax-0x5400007a],dh
  40bb95:	00 00                	add    BYTE PTR [eax],al
  40bb97:	00 00                	add    BYTE PTR [eax],al
  40bb99:	41                   	inc    ecx
  40bb9a:	0e                   	push   cs
  40bb9b:	08 86 02 41 0e 0c    	or     BYTE PTR [esi+0xc0e4102],al
  40bba1:	83 03 45             	add    DWORD PTR [ebx],0x45
  40bba4:	0e                   	push   cs
  40bba5:	50                   	push   eax
  40bba6:	02 76 0a             	add    dh,BYTE PTR [esi+0xa]
  40bba9:	0e                   	push   cs
  40bbaa:	0c 41                	or     al,0x41
  40bbac:	c3                   	ret    
  40bbad:	0e                   	push   cs
  40bbae:	08 41 c6             	or     BYTE PTR [ecx-0x3a],al
  40bbb1:	0e                   	push   cs
  40bbb2:	04 41                	add    al,0x41
  40bbb4:	0b 68 0e             	or     ebp,DWORD PTR [eax+0xe]
  40bbb7:	0c 41                	or     al,0x41
  40bbb9:	c3                   	ret    
  40bbba:	0e                   	push   cs
  40bbbb:	08 41 c6             	or     BYTE PTR [ecx-0x3a],al
  40bbbe:	0e                   	push   cs
  40bbbf:	04 44                	add    al,0x44
  40bbc1:	00 00                	add    BYTE PTR [eax],al
  40bbc3:	00 30                	add    BYTE PTR [eax],dh
  40bbc5:	02 00                	add    al,BYTE PTR [eax]
  40bbc7:	00 28                	add    BYTE PTR [eax],ch
  40bbc9:	87 ff                	xchg   edi,edi
  40bbcb:	ff                   	(bad)  
  40bbcc:	dd 00                	fld    QWORD PTR [eax]
  40bbce:	00 00                	add    BYTE PTR [eax],al
  40bbd0:	00 41 0e             	add    BYTE PTR [ecx+0xe],al
  40bbd3:	08 87 02 41 0e 0c    	or     BYTE PTR [edi+0xc0e4102],al
  40bbd9:	86 03                	xchg   BYTE PTR [ebx],al
  40bbdb:	41                   	inc    ecx
  40bbdc:	0e                   	push   cs
  40bbdd:	10 83 04 45 0e 50    	adc    BYTE PTR [ebx+0x500e4504],al
  40bbe3:	02 9d 0a 0e 10 41    	add    bl,BYTE PTR [ebp+0x41100e0a]
  40bbe9:	c3                   	ret    
  40bbea:	0e                   	push   cs
  40bbeb:	0c 41                	or     al,0x41
  40bbed:	c6                   	(bad)  
  40bbee:	0e                   	push   cs
  40bbef:	08 41 c7             	or     BYTE PTR [ecx-0x39],al
  40bbf2:	0e                   	push   cs
  40bbf3:	04 48                	add    al,0x48
  40bbf5:	0b 69 0e             	or     ebp,DWORD PTR [ecx+0xe]
  40bbf8:	10 41 c3             	adc    BYTE PTR [ecx-0x3d],al
  40bbfb:	0e                   	push   cs
  40bbfc:	0c 41                	or     al,0x41
  40bbfe:	c6                   	(bad)  
  40bbff:	0e                   	push   cs
  40bc00:	08 41 c7             	or     BYTE PTR [ecx-0x39],al
  40bc03:	0e                   	push   cs
  40bc04:	04 00                	add    al,0x0
  40bc06:	00 00                	add    BYTE PTR [eax],al
  40bc08:	44                   	inc    esp
  40bc09:	00 00                	add    BYTE PTR [eax],al
  40bc0b:	00 78 02             	add    BYTE PTR [eax+0x2],bh
  40bc0e:	00 00                	add    BYTE PTR [eax],al
  40bc10:	c0 87 ff ff 75 01 00 	rol    BYTE PTR [edi+0x175ffff],0x0
  40bc17:	00 00                	add    BYTE PTR [eax],al
  40bc19:	41                   	inc    ecx
  40bc1a:	0e                   	push   cs
  40bc1b:	08 87 02 41 0e 0c    	or     BYTE PTR [edi+0xc0e4102],al
  40bc21:	86 03                	xchg   BYTE PTR [ebx],al
  40bc23:	41                   	inc    ecx
  40bc24:	0e                   	push   cs
  40bc25:	10 83 04 45 0e 50    	adc    BYTE PTR [ebx+0x500e4504],al
  40bc2b:	02 d4                	add    dl,ah
  40bc2d:	0a 0e                	or     cl,BYTE PTR [esi]
  40bc2f:	10 41 c3             	adc    BYTE PTR [ecx-0x3d],al
  40bc32:	0e                   	push   cs
  40bc33:	0c 41                	or     al,0x41
  40bc35:	c6                   	(bad)  
  40bc36:	0e                   	push   cs
  40bc37:	08 41 c7             	or     BYTE PTR [ecx-0x39],al
  40bc3a:	0e                   	push   cs
  40bc3b:	04 41                	add    al,0x41
  40bc3d:	0b 6f 0a             	or     ebp,DWORD PTR [edi+0xa]
  40bc40:	0e                   	push   cs
  40bc41:	10 41 c3             	adc    BYTE PTR [ecx-0x3d],al
  40bc44:	0e                   	push   cs
  40bc45:	0c 41                	or     al,0x41
  40bc47:	c6                   	(bad)  
  40bc48:	0e                   	push   cs
  40bc49:	08 41 c7             	or     BYTE PTR [ecx-0x39],al
  40bc4c:	0e                   	push   cs
  40bc4d:	04 41                	add    al,0x41
  40bc4f:	0b 30                	or     esi,DWORD PTR [eax]
  40bc51:	00 00                	add    BYTE PTR [eax],al
  40bc53:	00 c0                	add    al,al
  40bc55:	02 00                	add    al,BYTE PTR [eax]
  40bc57:	00 f8                	add    al,bh
  40bc59:	88 ff                	mov    bh,bh
  40bc5b:	ff c5                	inc    ebp
  40bc5d:	05 00 00 00 41       	add    eax,0x41000000
  40bc62:	0e                   	push   cs
  40bc63:	08 85 02 42 0d 05    	or     BYTE PTR [ebp+0x50d4202],al
  40bc69:	41                   	inc    ecx
  40bc6a:	87 03                	xchg   DWORD PTR [ebx],eax
  40bc6c:	47                   	inc    edi
  40bc6d:	86 04 83             	xchg   BYTE PTR [ebx+eax*4],al
  40bc70:	05 03 7b 04 0a       	add    eax,0xa047b03
  40bc75:	c3                   	ret    
  40bc76:	41                   	inc    ecx
  40bc77:	c6 41 c7 41          	mov    BYTE PTR [ecx-0x39],0x41
  40bc7b:	c5 0c 04             	lds    ecx,FWORD PTR [esp+eax*1]
  40bc7e:	04 47                	add    al,0x47
  40bc80:	0b 00                	or     eax,DWORD PTR [eax]
  40bc82:	00 00                	add    BYTE PTR [eax],al
  40bc84:	3c 00                	cmp    al,0x0
  40bc86:	00 00                	add    BYTE PTR [eax],al
  40bc88:	f4                   	hlt    
  40bc89:	02 00                	add    al,BYTE PTR [eax]
  40bc8b:	00 94 8e ff ff 68 09 	add    BYTE PTR [esi+ecx*4+0x968ffff],dl
  40bc92:	00 00                	add    BYTE PTR [eax],al
  40bc94:	00 41 0e             	add    BYTE PTR [ecx+0xe],al
  40bc97:	08 85 02 41 0e 0c    	or     BYTE PTR [ebp+0xc0e4102],al
  40bc9d:	87 03                	xchg   DWORD PTR [ebx],eax
  40bc9f:	41                   	inc    ecx
  40bca0:	0e                   	push   cs
  40bca1:	10 86 04 41 0e 14    	adc    BYTE PTR [esi+0x140e4104],al
  40bca7:	83 05 43 0e 70 03 32 	add    DWORD PTR ds:0x3700e43,0x32
  40bcae:	01 0a                	add    DWORD PTR [edx],ecx
  40bcb0:	0e                   	push   cs
  40bcb1:	14 41                	adc    al,0x41
  40bcb3:	c3                   	ret    
  40bcb4:	0e                   	push   cs
  40bcb5:	10 41 c6             	adc    BYTE PTR [ecx-0x3a],al
  40bcb8:	0e                   	push   cs
  40bcb9:	0c 41                	or     al,0x41
  40bcbb:	c7                   	(bad)  
  40bcbc:	0e                   	push   cs
  40bcbd:	08 41 c5             	or     BYTE PTR [ecx-0x3b],al
  40bcc0:	0e                   	push   cs
  40bcc1:	04 43                	add    al,0x43
  40bcc3:	0b 14 00             	or     edx,DWORD PTR [eax+eax*1]

0040bcc4 <.eh_frame>:
  40bcc4:	14 00                	adc    al,0x0
  40bcc6:	00 00                	add    BYTE PTR [eax],al
  40bcc8:	00 00                	add    BYTE PTR [eax],al
  40bcca:	00 00                	add    BYTE PTR [eax],al
  40bccc:	01 7a 52             	add    DWORD PTR [edx+0x52],edi
  40bccf:	00 01                	add    BYTE PTR [ecx],al
  40bcd1:	7c 08                	jl     40bcdb <.eh_frame+0x17>
  40bcd3:	01 1b                	add    DWORD PTR [ebx],ebx
  40bcd5:	0c 04                	or     al,0x4
  40bcd7:	04 88                	add    al,0x88
  40bcd9:	01 00                	add    DWORD PTR [eax],eax
  40bcdb:	00 4c 00 00          	add    BYTE PTR [eax+eax*1+0x0],cl
  40bcdf:	00 1c 00             	add    BYTE PTR [eax+eax*1],bl
  40bce2:	00 00                	add    BYTE PTR [eax],al
  40bce4:	ac                   	lods   al,BYTE PTR ds:[esi]
  40bce5:	97                   	xchg   edi,eax
  40bce6:	ff                   	(bad)  
  40bce7:	ff                   	(bad)  
  40bce8:	7b 01                	jnp    40bceb <.eh_frame+0x27>
  40bcea:	00 00                	add    BYTE PTR [eax],al
  40bcec:	00 41 0e             	add    BYTE PTR [ecx+0xe],al
  40bcef:	08 85 02 42 0d 05    	or     BYTE PTR [ebp+0x50d4202],al
  40bcf5:	45                   	inc    ebp
  40bcf6:	86 03                	xchg   BYTE PTR [ebx],al
  40bcf8:	83 04 02 a1          	add    DWORD PTR [edx+eax*1],0xffffffa1
  40bcfc:	0a c3                	or     al,bl
  40bcfe:	41                   	inc    ecx
  40bcff:	c6 41 c5 0c          	mov    BYTE PTR [ecx-0x3b],0xc
  40bd03:	04 04                	add    al,0x4
  40bd05:	45                   	inc    ebp
  40bd06:	0b 59 0a             	or     ebx,DWORD PTR [ecx+0xa]
  40bd09:	c3                   	ret    
  40bd0a:	41                   	inc    ecx
  40bd0b:	c6 41 c5 0c          	mov    BYTE PTR [ecx-0x3b],0xc
  40bd0f:	04 04                	add    al,0x4
  40bd11:	45                   	inc    ebp
  40bd12:	0b 4e 0a             	or     ecx,DWORD PTR [esi+0xa]
  40bd15:	c3                   	ret    
  40bd16:	41                   	inc    ecx
  40bd17:	c6 41 c5 0c          	mov    BYTE PTR [ecx-0x3b],0xc
  40bd1b:	04 04                	add    al,0x4
  40bd1d:	41                   	inc    ecx
  40bd1e:	0b 02                	or     eax,DWORD PTR [edx]
  40bd20:	68 0a c3 41 c6       	push   0xc641c30a
  40bd25:	41                   	inc    ecx
  40bd26:	c5 0c 04             	lds    ecx,FWORD PTR [esp+eax*1]
  40bd29:	04 45                	add    al,0x45
  40bd2b:	0b 2c 00             	or     ebp,DWORD PTR [eax+eax*1]
  40bd2e:	00 00                	add    BYTE PTR [eax],al
  40bd30:	6c                   	ins    BYTE PTR es:[edi],dx
  40bd31:	00 00                	add    BYTE PTR [eax],al
  40bd33:	00 dc                	add    ah,bl
  40bd35:	98                   	cwde   
  40bd36:	ff                   	(bad)  
  40bd37:	ff 97 00 00 00 00    	call   DWORD PTR [edi+0x0]
  40bd3d:	41                   	inc    ecx
  40bd3e:	0e                   	push   cs
  40bd3f:	08 86 02 43 0e 0c    	or     BYTE PTR [esi+0xc0e4302],al
  40bd45:	83 03 43             	add    DWORD PTR [ebx],0x43
  40bd48:	0e                   	push   cs
  40bd49:	40                   	inc    eax
  40bd4a:	02 7a 0a             	add    bh,BYTE PTR [edx+0xa]
  40bd4d:	0e                   	push   cs
  40bd4e:	0c 41                	or     al,0x41
  40bd50:	c3                   	ret    
  40bd51:	0e                   	push   cs
  40bd52:	08 41 c6             	or     BYTE PTR [ecx-0x3a],al
  40bd55:	0e                   	push   cs
  40bd56:	04 41                	add    al,0x41
  40bd58:	0b 00                	or     eax,DWORD PTR [eax]
  40bd5a:	00 00                	add    BYTE PTR [eax],al
  40bd5c:	68 00 00 00 9c       	push   0x9c000000
  40bd61:	00 00                	add    BYTE PTR [eax],al
  40bd63:	00 4c 99 ff          	add    BYTE PTR [ecx+ebx*4-0x1],cl
  40bd67:	ff 6d 01             	jmp    FWORD PTR [ebp+0x1]
  40bd6a:	00 00                	add    BYTE PTR [eax],al
  40bd6c:	00 41 0e             	add    BYTE PTR [ecx+0xe],al
  40bd6f:	08 85 02 41 0e 0c    	or     BYTE PTR [ebp+0xc0e4102],al
  40bd75:	87 03                	xchg   DWORD PTR [ebx],eax
  40bd77:	41                   	inc    ecx
  40bd78:	0e                   	push   cs
  40bd79:	10 86 04 41 0e 14    	adc    BYTE PTR [esi+0x140e4104],al
  40bd7f:	83 05 43 0e 50 02 de 	add    DWORD PTR ds:0x2500e43,0xffffffde
  40bd86:	0a 0e                	or     cl,BYTE PTR [esi]
  40bd88:	14 43                	adc    al,0x43
  40bd8a:	c3                   	ret    
  40bd8b:	0e                   	push   cs
  40bd8c:	10 41 c6             	adc    BYTE PTR [ecx-0x3a],al
  40bd8f:	0e                   	push   cs
  40bd90:	0c 41                	or     al,0x41
  40bd92:	c7                   	(bad)  
  40bd93:	0e                   	push   cs
  40bd94:	08 41 c5             	or     BYTE PTR [ecx-0x3b],al
  40bd97:	0e                   	push   cs
  40bd98:	04 45                	add    al,0x45
  40bd9a:	0b 02                	or     eax,DWORD PTR [edx]
  40bd9c:	59                   	pop    ecx
  40bd9d:	0a 0e                	or     cl,BYTE PTR [esi]
  40bd9f:	14 43                	adc    al,0x43
  40bda1:	c3                   	ret    
  40bda2:	0e                   	push   cs
  40bda3:	10 41 c6             	adc    BYTE PTR [ecx-0x3a],al
  40bda6:	0e                   	push   cs
  40bda7:	0c 41                	or     al,0x41
  40bda9:	c7                   	(bad)  
  40bdaa:	0e                   	push   cs
  40bdab:	08 41 c5             	or     BYTE PTR [ecx-0x3b],al
  40bdae:	0e                   	push   cs
  40bdaf:	04 41                	add    al,0x41
  40bdb1:	0b 43 0a             	or     eax,DWORD PTR [ebx+0xa]
  40bdb4:	0e                   	push   cs
  40bdb5:	14 43                	adc    al,0x43
  40bdb7:	c3                   	ret    
  40bdb8:	0e                   	push   cs
  40bdb9:	10 41 c6             	adc    BYTE PTR [ecx-0x3a],al
  40bdbc:	0e                   	push   cs
  40bdbd:	0c 41                	or     al,0x41
  40bdbf:	c7                   	(bad)  
  40bdc0:	0e                   	push   cs
  40bdc1:	08 41 c5             	or     BYTE PTR [ecx-0x3b],al
  40bdc4:	0e                   	push   cs
  40bdc5:	04 47                	add    al,0x47
  40bdc7:	0b 20                	or     esp,DWORD PTR [eax]
  40bdc9:	00 00                	add    BYTE PTR [eax],al
  40bdcb:	00 08                	add    BYTE PTR [eax],cl
  40bdcd:	01 00                	add    DWORD PTR [eax],eax
  40bdcf:	00 50 9a             	add    BYTE PTR [eax-0x66],dl
  40bdd2:	ff                   	(bad)  
  40bdd3:	ff 87 00 00 00 00    	inc    DWORD PTR [edi+0x0]
  40bdd9:	41                   	inc    ecx
  40bdda:	0e                   	push   cs
  40bddb:	08 83 02 45 0e 40    	or     BYTE PTR [ebx+0x400e4502],al
  40bde1:	02 76 0a             	add    dh,BYTE PTR [esi+0xa]
  40bde4:	0e                   	push   cs
  40bde5:	08 41 c3             	or     BYTE PTR [ecx-0x3d],al
  40bde8:	0e                   	push   cs
  40bde9:	04 43                	add    al,0x43
  40bdeb:	0b 14 00             	or     edx,DWORD PTR [eax+eax*1]

0040bdec <.eh_frame>:
  40bdec:	14 00                	adc    al,0x0
  40bdee:	00 00                	add    BYTE PTR [eax],al
  40bdf0:	00 00                	add    BYTE PTR [eax],al
  40bdf2:	00 00                	add    BYTE PTR [eax],al
  40bdf4:	01 7a 52             	add    DWORD PTR [edx+0x52],edi
  40bdf7:	00 01                	add    BYTE PTR [ecx],al
  40bdf9:	7c 08                	jl     40be03 <.eh_frame+0x17>
  40bdfb:	01 1b                	add    DWORD PTR [ebx],ebx
  40bdfd:	0c 04                	or     al,0x4
  40bdff:	04 88                	add    al,0x88
  40be01:	01 00                	add    DWORD PTR [eax],eax
  40be03:	00 24 00             	add    BYTE PTR [eax+eax*1],ah
  40be06:	00 00                	add    BYTE PTR [eax],al
  40be08:	1c 00                	sbb    al,0x0
  40be0a:	00 00                	add    BYTE PTR [eax],al
  40be0c:	a4                   	movs   BYTE PTR es:[edi],BYTE PTR ds:[esi]
  40be0d:	9a ff ff 89 00 00 00 	call   0x0:0x89ffff
  40be14:	00 41 0e             	add    BYTE PTR [ecx+0xe],al
  40be17:	08 85 02 42 0d 05    	or     BYTE PTR [ebp+0x50d4202],al
  40be1d:	62 0a                	bound  ecx,QWORD PTR [edx]
  40be1f:	c5 0c 04             	lds    ecx,FWORD PTR [esp+eax*1]
  40be22:	04 41                	add    al,0x41
  40be24:	0b 02                	or     eax,DWORD PTR [edx]
  40be26:	62                   	(bad)  
  40be27:	c5 0c 04             	lds    ecx,FWORD PTR [esp+eax*1]
  40be2a:	04 00                	add    al,0x0
  40be2c:	34 00                	xor    al,0x0
  40be2e:	00 00                	add    BYTE PTR [eax],al
  40be30:	44                   	inc    esp
  40be31:	00 00                	add    BYTE PTR [eax],al
  40be33:	00 0c 9b             	add    BYTE PTR [ebx+ebx*4],cl
  40be36:	ff                   	(bad)  
  40be37:	ff 76 00             	push   DWORD PTR [esi+0x0]
  40be3a:	00 00                	add    BYTE PTR [eax],al
  40be3c:	00 41 0e             	add    BYTE PTR [ecx+0xe],al
  40be3f:	08 87 02 41 0e 0c    	or     BYTE PTR [edi+0xc0e4102],al
  40be45:	86 03                	xchg   BYTE PTR [ebx],al
  40be47:	41                   	inc    ecx
  40be48:	0e                   	push   cs
  40be49:	10 83 04 43 0e 30    	adc    BYTE PTR [ebx+0x300e4304],al
  40be4f:	02 64 0a 0e          	add    ah,BYTE PTR [edx+ecx*1+0xe]
  40be53:	10 41 c3             	adc    BYTE PTR [ecx-0x3d],al
  40be56:	0e                   	push   cs
  40be57:	0c 41                	or     al,0x41
  40be59:	c6                   	(bad)  
  40be5a:	0e                   	push   cs
  40be5b:	08 41 c7             	or     BYTE PTR [ecx-0x39],al
  40be5e:	0e                   	push   cs
  40be5f:	04 43                	add    al,0x43
  40be61:	0b 00                	or     eax,DWORD PTR [eax]
  40be63:	00 80 00 00 00 7c    	add    BYTE PTR [eax+0x7c000000],al
  40be69:	00 00                	add    BYTE PTR [eax],al
  40be6b:	00 54 9b ff          	add    BYTE PTR [ebx+ebx*4-0x1],dl
  40be6f:	ff 4b 01             	dec    DWORD PTR [ebx+0x1]
  40be72:	00 00                	add    BYTE PTR [eax],al
  40be74:	00 41 0e             	add    BYTE PTR [ecx+0xe],al
  40be77:	08 85 02 41 0e 0c    	or     BYTE PTR [ebp+0xc0e4102],al
  40be7d:	87 03                	xchg   DWORD PTR [ebx],eax
  40be7f:	41                   	inc    ecx
  40be80:	0e                   	push   cs
  40be81:	10 86 04 43 0e 14    	adc    BYTE PTR [esi+0x140e4304],al
  40be87:	83 05 43 0e 50 02 a2 	add    DWORD PTR ds:0x2500e43,0xffffffa2
  40be8e:	0a 0e                	or     cl,BYTE PTR [esi]
  40be90:	14 41                	adc    al,0x41
  40be92:	c3                   	ret    
  40be93:	0e                   	push   cs
  40be94:	10 41 c6             	adc    BYTE PTR [ecx-0x3a],al
  40be97:	0e                   	push   cs
  40be98:	0c 41                	or     al,0x41
  40be9a:	c7                   	(bad)  
  40be9b:	0e                   	push   cs
  40be9c:	08 41 c5             	or     BYTE PTR [ecx-0x3b],al
  40be9f:	0e                   	push   cs
  40bea0:	04 41                	add    al,0x41
  40bea2:	0b 4b 0a             	or     ecx,DWORD PTR [ebx+0xa]
  40bea5:	0e                   	push   cs
  40bea6:	14 43                	adc    al,0x43
  40bea8:	c3                   	ret    
  40bea9:	0e                   	push   cs
  40beaa:	10 41 c6             	adc    BYTE PTR [ecx-0x3a],al
  40bead:	0e                   	push   cs
  40beae:	0c 41                	or     al,0x41
  40beb0:	c7                   	(bad)  
  40beb1:	0e                   	push   cs
  40beb2:	08 41 c5             	or     BYTE PTR [ecx-0x3b],al
  40beb5:	0e                   	push   cs
  40beb6:	04 41                	add    al,0x41
  40beb8:	0b 4d 0a             	or     ecx,DWORD PTR [ebp+0xa]
  40bebb:	0e                   	push   cs
  40bebc:	14 41                	adc    al,0x41
  40bebe:	c3                   	ret    
  40bebf:	0e                   	push   cs
  40bec0:	10 44 c6 0e          	adc    BYTE PTR [esi+eax*8+0xe],al
  40bec4:	0c 41                	or     al,0x41
  40bec6:	c7                   	(bad)  
  40bec7:	0e                   	push   cs
  40bec8:	08 41 c5             	or     BYTE PTR [ecx-0x3b],al
  40becb:	0e                   	push   cs
  40becc:	04 41                	add    al,0x41
  40bece:	0b 02                	or     eax,DWORD PTR [edx]
  40bed0:	53                   	push   ebx
  40bed1:	0a 0e                	or     cl,BYTE PTR [esi]
  40bed3:	14 43                	adc    al,0x43
  40bed5:	c3                   	ret    
  40bed6:	0e                   	push   cs
  40bed7:	10 41 c6             	adc    BYTE PTR [ecx-0x3a],al
  40beda:	0e                   	push   cs
  40bedb:	0c 41                	or     al,0x41
  40bedd:	c7                   	(bad)  
  40bede:	0e                   	push   cs
  40bedf:	08 41 c5             	or     BYTE PTR [ecx-0x3b],al
  40bee2:	0e                   	push   cs
  40bee3:	04 41                	add    al,0x41
  40bee5:	0b 00                	or     eax,DWORD PTR [eax]
	...

0040bee8 <.eh_frame>:
  40bee8:	14 00                	adc    al,0x0
  40beea:	00 00                	add    BYTE PTR [eax],al
  40beec:	00 00                	add    BYTE PTR [eax],al
  40beee:	00 00                	add    BYTE PTR [eax],al
  40bef0:	01 7a 52             	add    DWORD PTR [edx+0x52],edi
  40bef3:	00 01                	add    BYTE PTR [ecx],al
  40bef5:	7c 08                	jl     40beff <.eh_frame+0x17>
  40bef7:	01 1b                	add    DWORD PTR [ebx],ebx
  40bef9:	0c 04                	or     al,0x4
  40befb:	04 88                	add    al,0x88
  40befd:	01 00                	add    DWORD PTR [eax],eax
  40beff:	00 84 00 00 00 1c 00 	add    BYTE PTR [eax+eax*1+0x1c0000],al
  40bf06:	00 00                	add    BYTE PTR [eax],al
  40bf08:	08 9c ff ff 9f 14 00 	or     BYTE PTR [edi+edi*8+0x149fff],bl
  40bf0f:	00 00                	add    BYTE PTR [eax],al
  40bf11:	41                   	inc    ecx
  40bf12:	0e                   	push   cs
  40bf13:	08 85 02 41 0e 0c    	or     BYTE PTR [ebp+0xc0e4102],al
  40bf19:	87 03                	xchg   DWORD PTR [ebx],eax
  40bf1b:	41                   	inc    ecx
  40bf1c:	0e                   	push   cs
  40bf1d:	10 86 04 41 0e 14    	adc    BYTE PTR [esi+0x140e4104],al
  40bf23:	83 05 43 0e 80 01 03 	add    DWORD PTR ds:0x1800e43,0x3
  40bf2a:	20 01                	and    BYTE PTR [ecx],al
  40bf2c:	0a 0e                	or     cl,BYTE PTR [esi]
  40bf2e:	14 41                	adc    al,0x41
  40bf30:	c3                   	ret    
  40bf31:	0e                   	push   cs
  40bf32:	10 41 c6             	adc    BYTE PTR [ecx-0x3a],al
  40bf35:	0e                   	push   cs
  40bf36:	0c 41                	or     al,0x41
  40bf38:	c7                   	(bad)  
  40bf39:	0e                   	push   cs
  40bf3a:	08 41 c5             	or     BYTE PTR [ecx-0x3b],al
  40bf3d:	0e                   	push   cs
  40bf3e:	04 45                	add    al,0x45
  40bf40:	0b 6f 0a             	or     ebp,DWORD PTR [edi+0xa]
  40bf43:	0e                   	push   cs
  40bf44:	14 41                	adc    al,0x41
  40bf46:	c3                   	ret    
  40bf47:	0e                   	push   cs
  40bf48:	10 41 c6             	adc    BYTE PTR [ecx-0x3a],al
  40bf4b:	0e                   	push   cs
  40bf4c:	0c 41                	or     al,0x41
  40bf4e:	c7                   	(bad)  
  40bf4f:	0e                   	push   cs
  40bf50:	08 41 c5             	or     BYTE PTR [ecx-0x3b],al
  40bf53:	0e                   	push   cs
  40bf54:	04 41                	add    al,0x41
  40bf56:	0b 6f 0a             	or     ebp,DWORD PTR [edi+0xa]
  40bf59:	0e                   	push   cs
  40bf5a:	14 41                	adc    al,0x41
  40bf5c:	c3                   	ret    
  40bf5d:	0e                   	push   cs
  40bf5e:	10 41 c6             	adc    BYTE PTR [ecx-0x3a],al
  40bf61:	0e                   	push   cs
  40bf62:	0c 41                	or     al,0x41
  40bf64:	c7                   	(bad)  
  40bf65:	0e                   	push   cs
  40bf66:	08 41 c5             	or     BYTE PTR [ecx-0x3b],al
  40bf69:	0e                   	push   cs
  40bf6a:	04 41                	add    al,0x41
  40bf6c:	0b 03                	or     eax,DWORD PTR [ebx]
  40bf6e:	35 07 0a 0e 14       	xor    eax,0x140e0a07
  40bf73:	41                   	inc    ecx
  40bf74:	c3                   	ret    
  40bf75:	0e                   	push   cs
  40bf76:	10 41 c6             	adc    BYTE PTR [ecx-0x3a],al
  40bf79:	0e                   	push   cs
  40bf7a:	0c 41                	or     al,0x41
  40bf7c:	c7                   	(bad)  
  40bf7d:	0e                   	push   cs
  40bf7e:	08 41 c5             	or     BYTE PTR [ecx-0x3b],al
  40bf81:	0e                   	push   cs
  40bf82:	04 41                	add    al,0x41
  40bf84:	0b 00                	or     eax,DWORD PTR [eax]
	...

0040bf88 <.eh_frame>:
  40bf88:	14 00                	adc    al,0x0
  40bf8a:	00 00                	add    BYTE PTR [eax],al
  40bf8c:	00 00                	add    BYTE PTR [eax],al
  40bf8e:	00 00                	add    BYTE PTR [eax],al
  40bf90:	01 7a 52             	add    DWORD PTR [edx+0x52],edi
  40bf93:	00 01                	add    BYTE PTR [ecx],al
  40bf95:	7c 08                	jl     40bf9f <.eh_frame+0x17>
  40bf97:	01 1b                	add    DWORD PTR [ebx],ebx
  40bf99:	0c 04                	or     al,0x4
  40bf9b:	04 88                	add    al,0x88
  40bf9d:	01 00                	add    DWORD PTR [eax],eax
  40bf9f:	00 54 00 00          	add    BYTE PTR [eax+eax*1+0x0],dl
  40bfa3:	00 1c 00             	add    BYTE PTR [eax+eax*1],bl
  40bfa6:	00 00                	add    BYTE PTR [eax],al
  40bfa8:	08 b0 ff ff 12 01    	or     BYTE PTR [eax+0x112ffff],dh
  40bfae:	00 00                	add    BYTE PTR [eax],al
  40bfb0:	00 41 0e             	add    BYTE PTR [ecx+0xe],al
  40bfb3:	08 85 02 41 0e 0c    	or     BYTE PTR [ebp+0xc0e4102],al
  40bfb9:	87 03                	xchg   DWORD PTR [ebx],eax
  40bfbb:	41                   	inc    ecx
  40bfbc:	0e                   	push   cs
  40bfbd:	10 86 04 41 0e 14    	adc    BYTE PTR [esi+0x140e4104],al
  40bfc3:	83 05 43 0e 24 02 c2 	add    DWORD PTR ds:0x2240e43,0xffffffc2
  40bfca:	0a 0e                	or     cl,BYTE PTR [esi]
  40bfcc:	14 41                	adc    al,0x41
  40bfce:	c3                   	ret    
  40bfcf:	0e                   	push   cs
  40bfd0:	10 41 c6             	adc    BYTE PTR [ecx-0x3a],al
  40bfd3:	0e                   	push   cs
  40bfd4:	0c 41                	or     al,0x41
  40bfd6:	c7                   	(bad)  
  40bfd7:	0e                   	push   cs
  40bfd8:	08 41 c5             	or     BYTE PTR [ecx-0x3b],al
  40bfdb:	0e                   	push   cs
  40bfdc:	04 43                	add    al,0x43
  40bfde:	0b 79 0a             	or     edi,DWORD PTR [ecx+0xa]
  40bfe1:	0e                   	push   cs
  40bfe2:	14 41                	adc    al,0x41
  40bfe4:	c3                   	ret    
  40bfe5:	0e                   	push   cs
  40bfe6:	10 41 c6             	adc    BYTE PTR [ecx-0x3a],al
  40bfe9:	0e                   	push   cs
  40bfea:	0c 41                	or     al,0x41
  40bfec:	c7                   	(bad)  
  40bfed:	0e                   	push   cs
  40bfee:	08 41 c5             	or     BYTE PTR [ecx-0x3b],al
  40bff1:	0e                   	push   cs
  40bff2:	04 41                	add    al,0x41
  40bff4:	0b 00                	or     eax,DWORD PTR [eax]
  40bff6:	00 00                	add    BYTE PTR [eax],al
  40bff8:	24 00                	and    al,0x0
  40bffa:	00 00                	add    BYTE PTR [eax],al
  40bffc:	74 00                	je     40bffe <.eh_frame+0x76>
  40bffe:	00 00                	add    BYTE PTR [eax],al
  40c000:	d0                   	(bad)  
  40c001:	b0 ff                	mov    al,0xff
  40c003:	ff                   	(bad)  
  40c004:	3e 00 00             	add    BYTE PTR ds:[eax],al
  40c007:	00 00                	add    BYTE PTR [eax],al
  40c009:	41                   	inc    ecx
  40c00a:	0e                   	push   cs
  40c00b:	08 83 02 70 0a c3    	or     BYTE PTR [ebx-0x3cf58ffe],al
  40c011:	0e                   	push   cs
  40c012:	04 41                	add    al,0x41
  40c014:	0b 47 0a             	or     eax,DWORD PTR [edi+0xa]
  40c017:	c3                   	ret    
  40c018:	0e                   	push   cs
  40c019:	04 41                	add    al,0x41
  40c01b:	0b 43 c3             	or     eax,DWORD PTR [ebx-0x3d]
  40c01e:	0e                   	push   cs
  40c01f:	04 14                	add    al,0x14

0040c020 <.eh_frame>:
  40c020:	14 00                	adc    al,0x0
  40c022:	00 00                	add    BYTE PTR [eax],al
  40c024:	00 00                	add    BYTE PTR [eax],al
  40c026:	00 00                	add    BYTE PTR [eax],al
  40c028:	01 7a 52             	add    DWORD PTR [edx+0x52],edi
  40c02b:	00 01                	add    BYTE PTR [ecx],al
  40c02d:	7c 08                	jl     40c037 <.eh_frame+0x17>
  40c02f:	01 1b                	add    DWORD PTR [ebx],ebx
  40c031:	0c 04                	or     al,0x4
  40c033:	04 88                	add    al,0x88
  40c035:	01 00                	add    DWORD PTR [eax],eax
  40c037:	00 1c 00             	add    BYTE PTR [eax+eax*1],bl
  40c03a:	00 00                	add    BYTE PTR [eax],al
  40c03c:	1c 00                	sbb    al,0x0
  40c03e:	00 00                	add    BYTE PTR [eax],al
  40c040:	d0                   	(bad)  
  40c041:	b0 ff                	mov    al,0xff
  40c043:	ff 32                	push   DWORD PTR [edx]
  40c045:	00 00                	add    BYTE PTR [eax],al
  40c047:	00 00                	add    BYTE PTR [eax],al
  40c049:	41                   	inc    ecx
  40c04a:	0e                   	push   cs
  40c04b:	08 83 02 45 0e 20    	or     BYTE PTR [ebx+0x200e4502],al
  40c051:	67 0e                	addr16 push cs
  40c053:	08 44 c3 0e          	or     BYTE PTR [ebx+eax*8+0xe],al
  40c057:	04 28                	add    al,0x28
  40c059:	00 00                	add    BYTE PTR [eax],al
  40c05b:	00 3c 00             	add    BYTE PTR [eax+eax*1],bh
  40c05e:	00 00                	add    BYTE PTR [eax],al
  40c060:	f0 b0 ff             	lock mov al,0xff
  40c063:	ff 43 00             	inc    DWORD PTR [ebx+0x0]
  40c066:	00 00                	add    BYTE PTR [eax],al
  40c068:	00 41 0e             	add    BYTE PTR [ecx+0xe],al
  40c06b:	08 86 02 41 0e 0c    	or     BYTE PTR [esi+0xc0e4102],al
  40c071:	83 03 43             	add    DWORD PTR [ebx],0x43
  40c074:	0e                   	push   cs
  40c075:	20 7b 0e             	and    BYTE PTR [ebx+0xe],bh
  40c078:	0c 41                	or     al,0x41
  40c07a:	c3                   	ret    
  40c07b:	0e                   	push   cs
  40c07c:	08 41 c6             	or     BYTE PTR [ecx-0x3a],al
  40c07f:	0e                   	push   cs
  40c080:	04 00                	add    al,0x0
  40c082:	00 00                	add    BYTE PTR [eax],al
  40c084:	10 00                	adc    BYTE PTR [eax],al
  40c086:	00 00                	add    BYTE PTR [eax],al
  40c088:	68 00 00 00 14       	push   0x14000000
  40c08d:	b1 ff                	mov    cl,0xff
  40c08f:	ff 20                	jmp    DWORD PTR [eax]
  40c091:	00 00                	add    BYTE PTR [eax],al
  40c093:	00 00                	add    BYTE PTR [eax],al
  40c095:	00 00                	add    BYTE PTR [eax],al
  40c097:	00 3c 00             	add    BYTE PTR [eax+eax*1],bh
  40c09a:	00 00                	add    BYTE PTR [eax],al
  40c09c:	7c 00                	jl     40c09e <.eh_frame+0x7e>
  40c09e:	00 00                	add    BYTE PTR [eax],al
  40c0a0:	20 b1 ff ff fb 01    	and    BYTE PTR [ecx+0x1fbffff],dh
  40c0a6:	00 00                	add    BYTE PTR [eax],al
  40c0a8:	00 41 0e             	add    BYTE PTR [ecx+0xe],al
  40c0ab:	08 85 02 41 0e 0c    	or     BYTE PTR [ebp+0xc0e4102],al
  40c0b1:	87 03                	xchg   DWORD PTR [ebx],eax
  40c0b3:	41                   	inc    ecx
  40c0b4:	0e                   	push   cs
  40c0b5:	10 86 04 41 0e 14    	adc    BYTE PTR [esi+0x140e4104],al
  40c0bb:	83 05 43 0e 60 03 ef 	add    DWORD PTR ds:0x3600e43,0xffffffef
  40c0c2:	01 0e                	add    DWORD PTR [esi],ecx
  40c0c4:	14 41                	adc    al,0x41
  40c0c6:	c3                   	ret    
  40c0c7:	0e                   	push   cs
  40c0c8:	10 41 c6             	adc    BYTE PTR [ecx-0x3a],al
  40c0cb:	0e                   	push   cs
  40c0cc:	0c 41                	or     al,0x41
  40c0ce:	c7                   	(bad)  
  40c0cf:	0e                   	push   cs
  40c0d0:	08 41 c5             	or     BYTE PTR [ecx-0x3b],al
  40c0d3:	0e                   	push   cs
  40c0d4:	04 00                	add    al,0x0
	...

0040c0d8 <.eh_frame>:
  40c0d8:	14 00                	adc    al,0x0
  40c0da:	00 00                	add    BYTE PTR [eax],al
  40c0dc:	00 00                	add    BYTE PTR [eax],al
  40c0de:	00 00                	add    BYTE PTR [eax],al
  40c0e0:	01 7a 52             	add    DWORD PTR [edx+0x52],edi
  40c0e3:	00 01                	add    BYTE PTR [ecx],al
  40c0e5:	7c 08                	jl     40c0ef <.eh_frame+0x17>
  40c0e7:	01 1b                	add    DWORD PTR [ebx],ebx
  40c0e9:	0c 04                	or     al,0x4
  40c0eb:	04 88                	add    al,0x88
  40c0ed:	01 00                	add    DWORD PTR [eax],eax
  40c0ef:	00 2c 00             	add    BYTE PTR [eax+eax*1],ch
  40c0f2:	00 00                	add    BYTE PTR [eax],al
  40c0f4:	1c 00                	sbb    al,0x0
  40c0f6:	00 00                	add    BYTE PTR [eax],al
  40c0f8:	c8 b2 ff ff          	enter  0xffb2,0xff
  40c0fc:	c5 00                	lds    eax,FWORD PTR [eax]
  40c0fe:	00 00                	add    BYTE PTR [eax],al
  40c100:	00 41 0e             	add    BYTE PTR [ecx+0xe],al
  40c103:	08 85 02 42 0d 05    	or     BYTE PTR [ebp+0x50d4202],al
  40c109:	41                   	inc    ecx
  40c10a:	83 03 7f             	add    DWORD PTR [ebx],0x7f
  40c10d:	0a c5                	or     al,ch
  40c10f:	c3                   	ret    
  40c110:	0c 04                	or     al,0x4
  40c112:	04 41                	add    al,0x41
  40c114:	0b 02                	or     eax,DWORD PTR [edx]
  40c116:	68 0a c3 c5 0c       	push   0xcc5c30a
  40c11b:	04 04                	add    al,0x4
  40c11d:	44                   	inc    esp
  40c11e:	0b 00                	or     eax,DWORD PTR [eax]
  40c120:	24 00                	and    al,0x0
  40c122:	00 00                	add    BYTE PTR [eax],al
  40c124:	4c                   	dec    esp
  40c125:	00 00                	add    BYTE PTR [eax],al
  40c127:	00 68 b3             	add    BYTE PTR [eax-0x4d],ch
  40c12a:	ff                   	(bad)  
  40c12b:	ff 44 00 00          	inc    DWORD PTR [eax+eax*1+0x0]
  40c12f:	00 00                	add    BYTE PTR [eax],al
  40c131:	41                   	inc    ecx
  40c132:	0e                   	push   cs
  40c133:	08 85 02 42 0d 05    	or     BYTE PTR [ebp+0x50d4202],al
  40c139:	60                   	pusha  
  40c13a:	0a c5                	or     al,ch
  40c13c:	0c 04                	or     al,0x4
  40c13e:	04 41                	add    al,0x41
  40c140:	0b 5f c5             	or     ebx,DWORD PTR [edi-0x3b]
  40c143:	0c 04                	or     al,0x4
  40c145:	04 00                	add    al,0x0
  40c147:	00 2c 00             	add    BYTE PTR [eax+eax*1],ch
  40c14a:	00 00                	add    BYTE PTR [eax],al
  40c14c:	74 00                	je     40c14e <.eh_frame+0x76>
  40c14e:	00 00                	add    BYTE PTR [eax],al
  40c150:	90                   	nop
  40c151:	b3 ff                	mov    bl,0xff
  40c153:	ff cd                	dec    ebp
  40c155:	00 00                	add    BYTE PTR [eax],al
  40c157:	00 00                	add    BYTE PTR [eax],al
  40c159:	41                   	inc    ecx
  40c15a:	0e                   	push   cs
  40c15b:	08 85 02 44 0d 05    	or     BYTE PTR [ebp+0x50d4402],al
  40c161:	46                   	inc    esi
  40c162:	87 03                	xchg   DWORD PTR [ebx],eax
  40c164:	86 04 83             	xchg   BYTE PTR [ebx+eax*4],al
  40c167:	05 02 82 0a c3       	add    eax,0xc30a8202
  40c16c:	41                   	inc    ecx
  40c16d:	c6 41 c7 41          	mov    BYTE PTR [ecx-0x39],0x41
  40c171:	c5 0c 04             	lds    ecx,FWORD PTR [esp+eax*1]
  40c174:	04 41                	add    al,0x41
  40c176:	0b 00                	or     eax,DWORD PTR [eax]
  40c178:	30 00                	xor    BYTE PTR [eax],al
  40c17a:	00 00                	add    BYTE PTR [eax],al
  40c17c:	a4                   	movs   BYTE PTR es:[edi],BYTE PTR ds:[esi]
  40c17d:	00 00                	add    BYTE PTR [eax],al
  40c17f:	00 30                	add    BYTE PTR [eax],dh
  40c181:	b4 ff                	mov    ah,0xff
  40c183:	ff 64 00 00          	jmp    DWORD PTR [eax+eax*1+0x0]
  40c187:	00 00                	add    BYTE PTR [eax],al
  40c189:	41                   	inc    ecx
  40c18a:	0e                   	push   cs
  40c18b:	08 85 02 42 0d 05    	or     BYTE PTR [ebp+0x50d4202],al
  40c191:	44                   	inc    esp
  40c192:	83 03 74             	add    DWORD PTR [ebx],0x74
  40c195:	0a c5                	or     al,ch
  40c197:	c3                   	ret    
  40c198:	0c 04                	or     al,0x4
  40c19a:	04 45                	add    al,0x45
  40c19c:	0b 44 0a c5          	or     eax,DWORD PTR [edx+ecx*1-0x3b]
  40c1a0:	c3                   	ret    
  40c1a1:	0c 04                	or     al,0x4
  40c1a3:	04 4c                	add    al,0x4c
  40c1a5:	0b 53 c3             	or     edx,DWORD PTR [ebx-0x3d]
  40c1a8:	c5 0c 04             	lds    ecx,FWORD PTR [esp+eax*1]
  40c1ab:	04 3c                	add    al,0x3c
  40c1ad:	00 00                	add    BYTE PTR [eax],al
  40c1af:	00 d8                	add    al,bl
  40c1b1:	00 00                	add    BYTE PTR [eax],al
  40c1b3:	00 6c b4 ff          	add    BYTE PTR [esp+esi*4-0x1],ch
  40c1b7:	ff                   	(bad)  
  40c1b8:	de 00                	fiadd  WORD PTR [eax]
  40c1ba:	00 00                	add    BYTE PTR [eax],al
  40c1bc:	00 41 0e             	add    BYTE PTR [ecx+0xe],al
  40c1bf:	08 85 02 43 0e 0c    	or     BYTE PTR [ebp+0xc0e4302],al
  40c1c5:	87 03                	xchg   DWORD PTR [ebx],eax
  40c1c7:	41                   	inc    ecx
  40c1c8:	0e                   	push   cs
  40c1c9:	10 86 04 41 0e 14    	adc    BYTE PTR [esi+0x140e4104],al
  40c1cf:	83 05 43 0e 40 02 7a 	add    DWORD PTR ds:0x2400e43,0x7a
  40c1d6:	0a 0e                	or     cl,BYTE PTR [esi]
  40c1d8:	14 41                	adc    al,0x41
  40c1da:	c3                   	ret    
  40c1db:	0e                   	push   cs
  40c1dc:	10 41 c6             	adc    BYTE PTR [ecx-0x3a],al
  40c1df:	0e                   	push   cs
  40c1e0:	0c 41                	or     al,0x41
  40c1e2:	c7                   	(bad)  
  40c1e3:	0e                   	push   cs
  40c1e4:	08 41 c5             	or     BYTE PTR [ecx-0x3b],al
  40c1e7:	0e                   	push   cs
  40c1e8:	04 41                	add    al,0x41
  40c1ea:	0b 00                	or     eax,DWORD PTR [eax]
  40c1ec:	14 00                	adc    al,0x0
  40c1ee:	00 00                	add    BYTE PTR [eax],al
  40c1f0:	18 01                	sbb    BYTE PTR [ecx],al
  40c1f2:	00 00                	add    BYTE PTR [eax],al
  40c1f4:	0c b5                	or     al,0xb5
  40c1f6:	ff                   	(bad)  
  40c1f7:	ff 25 00 00 00 00    	jmp    DWORD PTR ds:0x0
  40c1fd:	43                   	inc    ebx
  40c1fe:	0e                   	push   cs
  40c1ff:	20 61 0e             	and    BYTE PTR [ecx+0xe],ah
  40c202:	04 00                	add    al,0x0
  40c204:	3c 00                	cmp    al,0x0
  40c206:	00 00                	add    BYTE PTR [eax],al
  40c208:	30 01                	xor    BYTE PTR [ecx],al
  40c20a:	00 00                	add    BYTE PTR [eax],al
  40c20c:	24 b5                	and    al,0xb5
  40c20e:	ff                   	(bad)  
  40c20f:	ff 58 01             	call   FWORD PTR [eax+0x1]
  40c212:	00 00                	add    BYTE PTR [eax],al
  40c214:	00 41 0e             	add    BYTE PTR [ecx+0xe],al
  40c217:	08 85 02 41 0e 0c    	or     BYTE PTR [ebp+0xc0e4102],al
  40c21d:	87 03                	xchg   DWORD PTR [ebx],eax
  40c21f:	41                   	inc    ecx
  40c220:	0e                   	push   cs
  40c221:	10 86 04 41 0e 14    	adc    BYTE PTR [esi+0x140e4104],al
  40c227:	83 05 43 0e 50 03 48 	add    DWORD PTR ds:0x3500e43,0x48
  40c22e:	01 0a                	add    DWORD PTR [edx],ecx
  40c230:	0e                   	push   cs
  40c231:	14 41                	adc    al,0x41
  40c233:	c3                   	ret    
  40c234:	0e                   	push   cs
  40c235:	10 41 c6             	adc    BYTE PTR [ecx-0x3a],al
  40c238:	0e                   	push   cs
  40c239:	0c 41                	or     al,0x41
  40c23b:	c7                   	(bad)  
  40c23c:	0e                   	push   cs
  40c23d:	08 41 c5             	or     BYTE PTR [ecx-0x3b],al
  40c240:	0e                   	push   cs
  40c241:	04 41                	add    al,0x41
  40c243:	0b 3c 00             	or     edi,DWORD PTR [eax+eax*1]
  40c246:	00 00                	add    BYTE PTR [eax],al
  40c248:	70 01                	jo     40c24b <.eh_frame+0x173>
  40c24a:	00 00                	add    BYTE PTR [eax],al
  40c24c:	44                   	inc    esp
  40c24d:	b6 ff                	mov    dh,0xff
  40c24f:	ff 88 01 00 00 00    	dec    DWORD PTR [eax+0x1]
  40c255:	41                   	inc    ecx
  40c256:	0e                   	push   cs
  40c257:	08 85 02 42 0d 05    	or     BYTE PTR [ebp+0x50d4202],al
  40c25d:	46                   	inc    esi
  40c25e:	87 03                	xchg   DWORD PTR [ebx],eax
  40c260:	86 04 83             	xchg   BYTE PTR [ebx+eax*4],al
  40c263:	05 02 6c 0a c3       	add    eax,0xc30a6c02
  40c268:	41                   	inc    ecx
  40c269:	c6 41 c7 41          	mov    BYTE PTR [ecx-0x39],0x41
  40c26d:	c5 0c 04             	lds    ecx,FWORD PTR [esp+eax*1]
  40c270:	04 48                	add    al,0x48
  40c272:	0b 02                	or     eax,DWORD PTR [edx]
  40c274:	63 0a                	arpl   WORD PTR [edx],cx
  40c276:	c3                   	ret    
  40c277:	41                   	inc    ecx
  40c278:	c6 41 c7 41          	mov    BYTE PTR [ecx-0x39],0x41
  40c27c:	c5 0c 04             	lds    ecx,FWORD PTR [esp+eax*1]
  40c27f:	04 41                	add    al,0x41
  40c281:	0b 00                	or     eax,DWORD PTR [eax]
  40c283:	00 3c 00             	add    BYTE PTR [eax+eax*1],bh
  40c286:	00 00                	add    BYTE PTR [eax],al
  40c288:	b0 01                	mov    al,0x1
  40c28a:	00 00                	add    BYTE PTR [eax],al
  40c28c:	94                   	xchg   esp,eax
  40c28d:	b7 ff                	mov    bh,0xff
  40c28f:	ff 0d 01 00 00 00    	dec    DWORD PTR ds:0x1
  40c295:	41                   	inc    ecx
  40c296:	0e                   	push   cs
  40c297:	08 85 02 41 0e 0c    	or     BYTE PTR [ebp+0xc0e4102],al
  40c29d:	87 03                	xchg   DWORD PTR [ebx],eax
  40c29f:	41                   	inc    ecx
  40c2a0:	0e                   	push   cs
  40c2a1:	10 86 04 41 0e 14    	adc    BYTE PTR [esi+0x140e4104],al
  40c2a7:	83 05 43 0e 40 02 e9 	add    DWORD PTR ds:0x2400e43,0xffffffe9
  40c2ae:	0a 0e                	or     cl,BYTE PTR [esi]
  40c2b0:	14 41                	adc    al,0x41
  40c2b2:	c3                   	ret    
  40c2b3:	0e                   	push   cs
  40c2b4:	10 41 c6             	adc    BYTE PTR [ecx-0x3a],al
  40c2b7:	0e                   	push   cs
  40c2b8:	0c 41                	or     al,0x41
  40c2ba:	c7                   	(bad)  
  40c2bb:	0e                   	push   cs
  40c2bc:	08 41 c5             	or     BYTE PTR [ecx-0x3b],al
  40c2bf:	0e                   	push   cs
  40c2c0:	04 41                	add    al,0x41
  40c2c2:	0b 00                	or     eax,DWORD PTR [eax]
  40c2c4:	20 00                	and    BYTE PTR [eax],al
  40c2c6:	00 00                	add    BYTE PTR [eax],al
  40c2c8:	f0 01 00             	lock add DWORD PTR [eax],eax
  40c2cb:	00 64 b8 ff          	add    BYTE PTR [eax+edi*4-0x1],ah
  40c2cf:	ff 44 00 00          	inc    DWORD PTR [eax+eax*1+0x0]
  40c2d3:	00 00                	add    BYTE PTR [eax],al
  40c2d5:	41                   	inc    ecx
  40c2d6:	0e                   	push   cs
  40c2d7:	08 83 02 79 0a c3    	or     BYTE PTR [ebx-0x3cf586fe],al
  40c2dd:	0e                   	push   cs
  40c2de:	04 46                	add    al,0x46
  40c2e0:	0b 43 c3             	or     eax,DWORD PTR [ebx-0x3d]
  40c2e3:	0e                   	push   cs
  40c2e4:	04 00                	add    al,0x0
  40c2e6:	00 00                	add    BYTE PTR [eax],al
  40c2e8:	54                   	push   esp
  40c2e9:	00 00                	add    BYTE PTR [eax],al
  40c2eb:	00 14 02             	add    BYTE PTR [edx+eax*1],dl
  40c2ee:	00 00                	add    BYTE PTR [eax],al
  40c2f0:	90                   	nop
  40c2f1:	b8 ff ff 7c 01       	mov    eax,0x17cffff
  40c2f6:	00 00                	add    BYTE PTR [eax],al
  40c2f8:	00 41 0e             	add    BYTE PTR [ecx+0xe],al
  40c2fb:	08 85 02 41 0e 0c    	or     BYTE PTR [ebp+0xc0e4102],al
  40c301:	87 03                	xchg   DWORD PTR [ebx],eax
  40c303:	41                   	inc    ecx
  40c304:	0e                   	push   cs
  40c305:	10 86 04 41 0e 14    	adc    BYTE PTR [esi+0x140e4104],al
  40c30b:	83 05 43 0e 40 03 36 	add    DWORD PTR ds:0x3400e43,0x36
  40c312:	01 0a                	add    DWORD PTR [edx],ecx
  40c314:	0e                   	push   cs
  40c315:	14 41                	adc    al,0x41
  40c317:	c3                   	ret    
  40c318:	0e                   	push   cs
  40c319:	10 41 c6             	adc    BYTE PTR [ecx-0x3a],al
  40c31c:	0e                   	push   cs
  40c31d:	0c 41                	or     al,0x41
  40c31f:	c7                   	(bad)  
  40c320:	0e                   	push   cs
  40c321:	08 41 c5             	or     BYTE PTR [ecx-0x3b],al
  40c324:	0e                   	push   cs
  40c325:	04 41                	add    al,0x41
  40c327:	0b 61 0a             	or     esp,DWORD PTR [ecx+0xa]
  40c32a:	0e                   	push   cs
  40c32b:	14 41                	adc    al,0x41
  40c32d:	c3                   	ret    
  40c32e:	0e                   	push   cs
  40c32f:	10 41 c6             	adc    BYTE PTR [ecx-0x3a],al
  40c332:	0e                   	push   cs
  40c333:	0c 41                	or     al,0x41
  40c335:	c7                   	(bad)  
  40c336:	0e                   	push   cs
  40c337:	08 41 c5             	or     BYTE PTR [ecx-0x3b],al
  40c33a:	0e                   	push   cs
  40c33b:	04 41                	add    al,0x41
  40c33d:	0b 00                	or     eax,DWORD PTR [eax]
  40c33f:	00 68 00             	add    BYTE PTR [eax+0x0],ch
  40c342:	00 00                	add    BYTE PTR [eax],al
  40c344:	6c                   	ins    BYTE PTR es:[edi],dx
  40c345:	02 00                	add    al,BYTE PTR [eax]
  40c347:	00 b8 b9 ff ff e8    	add    BYTE PTR [eax-0x17000047],bh
  40c34d:	00 00                	add    BYTE PTR [eax],al
  40c34f:	00 00                	add    BYTE PTR [eax],al
  40c351:	41                   	inc    ecx
  40c352:	0e                   	push   cs
  40c353:	08 85 02 46 0e 0c    	or     BYTE PTR [ebp+0xc0e4602],al
  40c359:	87 03                	xchg   DWORD PTR [ebx],eax
  40c35b:	41                   	inc    ecx
  40c35c:	0e                   	push   cs
  40c35d:	10 86 04 41 0e 14    	adc    BYTE PTR [esi+0x140e4104],al
  40c363:	83 05 43 0e 28 02 5d 	add    DWORD PTR ds:0x2280e43,0x5d
  40c36a:	0a 0e                	or     cl,BYTE PTR [esi]
  40c36c:	14 41                	adc    al,0x41
  40c36e:	c3                   	ret    
  40c36f:	0e                   	push   cs
  40c370:	10 41 c6             	adc    BYTE PTR [ecx-0x3a],al
  40c373:	0e                   	push   cs
  40c374:	0c 41                	or     al,0x41
  40c376:	c7                   	(bad)  
  40c377:	0e                   	push   cs
  40c378:	08 41 c5             	or     BYTE PTR [ecx-0x3b],al
  40c37b:	0e                   	push   cs
  40c37c:	04 43                	add    al,0x43
  40c37e:	0b 02                	or     eax,DWORD PTR [edx]
  40c380:	5b                   	pop    ebx
  40c381:	0a 0e                	or     cl,BYTE PTR [esi]
  40c383:	14 41                	adc    al,0x41
  40c385:	c3                   	ret    
  40c386:	0e                   	push   cs
  40c387:	10 41 c6             	adc    BYTE PTR [ecx-0x3a],al
  40c38a:	0e                   	push   cs
  40c38b:	0c 41                	or     al,0x41
  40c38d:	c7                   	(bad)  
  40c38e:	0e                   	push   cs
  40c38f:	08 41 c5             	or     BYTE PTR [ecx-0x3b],al
  40c392:	0e                   	push   cs
  40c393:	04 41                	add    al,0x41
  40c395:	0b 53 0e             	or     edx,DWORD PTR [ebx+0xe]
  40c398:	14 41                	adc    al,0x41
  40c39a:	c3                   	ret    
  40c39b:	0e                   	push   cs
  40c39c:	10 41 c6             	adc    BYTE PTR [ecx-0x3a],al
  40c39f:	0e                   	push   cs
  40c3a0:	0c 41                	or     al,0x41
  40c3a2:	c7                   	(bad)  
  40c3a3:	0e                   	push   cs
  40c3a4:	08 41 c5             	or     BYTE PTR [ecx-0x3b],al
  40c3a7:	0e                   	push   cs
  40c3a8:	04 00                	add    al,0x0
  40c3aa:	00 00                	add    BYTE PTR [eax],al
  40c3ac:	54                   	push   esp
  40c3ad:	00 00                	add    BYTE PTR [eax],al
  40c3af:	00 d8                	add    al,bl
  40c3b1:	02 00                	add    al,BYTE PTR [eax]
  40c3b3:	00 3c ba             	add    BYTE PTR [edx+edi*4],bh
  40c3b6:	ff                   	(bad)  
  40c3b7:	ff                   	(bad)  
  40c3b8:	ec                   	in     al,dx
  40c3b9:	00 00                	add    BYTE PTR [eax],al
  40c3bb:	00 00                	add    BYTE PTR [eax],al
  40c3bd:	41                   	inc    ecx
  40c3be:	0e                   	push   cs
  40c3bf:	08 85 02 41 0e 0c    	or     BYTE PTR [ebp+0xc0e4102],al
  40c3c5:	87 03                	xchg   DWORD PTR [ebx],eax
  40c3c7:	41                   	inc    ecx
  40c3c8:	0e                   	push   cs
  40c3c9:	10 86 04 41 0e 14    	adc    BYTE PTR [esi+0x140e4104],al
  40c3cf:	83 05 43 0e 30 02 7c 	add    DWORD PTR ds:0x2300e43,0x7c
  40c3d6:	0a 0e                	or     cl,BYTE PTR [esi]
  40c3d8:	14 41                	adc    al,0x41
  40c3da:	c3                   	ret    
  40c3db:	0e                   	push   cs
  40c3dc:	10 41 c6             	adc    BYTE PTR [ecx-0x3a],al
  40c3df:	0e                   	push   cs
  40c3e0:	0c 41                	or     al,0x41
  40c3e2:	c7                   	(bad)  
  40c3e3:	0e                   	push   cs
  40c3e4:	08 41 c5             	or     BYTE PTR [ecx-0x3b],al
  40c3e7:	0e                   	push   cs
  40c3e8:	04 41                	add    al,0x41
  40c3ea:	0b 02                	or     eax,DWORD PTR [edx]
  40c3ec:	56                   	push   esi
  40c3ed:	0a 0e                	or     cl,BYTE PTR [esi]
  40c3ef:	14 41                	adc    al,0x41
  40c3f1:	c3                   	ret    
  40c3f2:	0e                   	push   cs
  40c3f3:	10 41 c6             	adc    BYTE PTR [ecx-0x3a],al
  40c3f6:	0e                   	push   cs
  40c3f7:	0c 41                	or     al,0x41
  40c3f9:	c7                   	(bad)  
  40c3fa:	0e                   	push   cs
  40c3fb:	08 41 c5             	or     BYTE PTR [ecx-0x3b],al
  40c3fe:	0e                   	push   cs
  40c3ff:	04 41                	add    al,0x41
  40c401:	0b 00                	or     eax,DWORD PTR [eax]
  40c403:	00 10                	add    BYTE PTR [eax],dl
  40c405:	00 00                	add    BYTE PTR [eax],al
  40c407:	00 30                	add    BYTE PTR [eax],dh
  40c409:	03 00                	add    eax,DWORD PTR [eax]
  40c40b:	00 d4                	add    ah,dl
  40c40d:	ba ff ff 26 00       	mov    edx,0x26ffff
  40c412:	00 00                	add    BYTE PTR [eax],al
  40c414:	00 00                	add    BYTE PTR [eax],al
	...

0040c418 <.eh_frame>:
  40c418:	14 00                	adc    al,0x0
  40c41a:	00 00                	add    BYTE PTR [eax],al
  40c41c:	00 00                	add    BYTE PTR [eax],al
  40c41e:	00 00                	add    BYTE PTR [eax],al
  40c420:	01 7a 52             	add    DWORD PTR [edx+0x52],edi
  40c423:	00 01                	add    BYTE PTR [ecx],al
  40c425:	7c 08                	jl     40c42f <.eh_frame+0x17>
  40c427:	01 1b                	add    DWORD PTR [ebx],ebx
  40c429:	0c 04                	or     al,0x4
  40c42b:	04 88                	add    al,0x88
  40c42d:	01 00                	add    DWORD PTR [eax],eax
  40c42f:	00 7c 00 00          	add    BYTE PTR [eax+eax*1+0x0],bh
  40c433:	00 1c 00             	add    BYTE PTR [eax+eax*1],bl
  40c436:	00 00                	add    BYTE PTR [eax],al
  40c438:	78 bc                	js     40c3f6 <.eh_frame+0x31e>
  40c43a:	ff                   	(bad)  
  40c43b:	ff 0d 01 00 00 00    	dec    DWORD PTR ds:0x1
  40c441:	41                   	inc    ecx
  40c442:	0e                   	push   cs
  40c443:	08 85 02 41 0e 0c    	or     BYTE PTR [ebp+0xc0e4102],al
  40c449:	87 03                	xchg   DWORD PTR [ebx],eax
  40c44b:	41                   	inc    ecx
  40c44c:	0e                   	push   cs
  40c44d:	10 86 04 41 0e 14    	adc    BYTE PTR [esi+0x140e4104],al
  40c453:	83 05 43 0e 28 02 41 	add    DWORD PTR ds:0x2280e43,0x41
  40c45a:	0a 0e                	or     cl,BYTE PTR [esi]
  40c45c:	14 41                	adc    al,0x41
  40c45e:	c3                   	ret    
  40c45f:	0e                   	push   cs
  40c460:	10 41 c6             	adc    BYTE PTR [ecx-0x3a],al
  40c463:	0e                   	push   cs
  40c464:	0c 41                	or     al,0x41
  40c466:	c7                   	(bad)  
  40c467:	0e                   	push   cs
  40c468:	08 41 c5             	or     BYTE PTR [ecx-0x3b],al
  40c46b:	0e                   	push   cs
  40c46c:	04 44                	add    al,0x44
  40c46e:	0b 6d 0a             	or     ebp,DWORD PTR [ebp+0xa]
  40c471:	0e                   	push   cs
  40c472:	14 41                	adc    al,0x41
  40c474:	c3                   	ret    
  40c475:	0e                   	push   cs
  40c476:	10 41 c6             	adc    BYTE PTR [ecx-0x3a],al
  40c479:	0e                   	push   cs
  40c47a:	0c 41                	or     al,0x41
  40c47c:	c7                   	(bad)  
  40c47d:	0e                   	push   cs
  40c47e:	08 41 c5             	or     BYTE PTR [ecx-0x3b],al
  40c481:	0e                   	push   cs
  40c482:	04 41                	add    al,0x41
  40c484:	0b 4b 0a             	or     ecx,DWORD PTR [ebx+0xa]
  40c487:	0e                   	push   cs
  40c488:	14 41                	adc    al,0x41
  40c48a:	c3                   	ret    
  40c48b:	0e                   	push   cs
  40c48c:	10 41 c6             	adc    BYTE PTR [ecx-0x3a],al
  40c48f:	0e                   	push   cs
  40c490:	0c 41                	or     al,0x41
  40c492:	c7                   	(bad)  
  40c493:	0e                   	push   cs
  40c494:	08 41 c5             	or     BYTE PTR [ecx-0x3b],al
  40c497:	0e                   	push   cs
  40c498:	04 41                	add    al,0x41
  40c49a:	0b 02                	or     eax,DWORD PTR [edx]
  40c49c:	76 0e                	jbe    40c4ac <.eh_frame+0x94>
  40c49e:	14 41                	adc    al,0x41
  40c4a0:	c3                   	ret    
  40c4a1:	0e                   	push   cs
  40c4a2:	10 41 c6             	adc    BYTE PTR [ecx-0x3a],al
  40c4a5:	0e                   	push   cs
  40c4a6:	0c 41                	or     al,0x41
  40c4a8:	c7                   	(bad)  
  40c4a9:	0e                   	push   cs
  40c4aa:	08 41 c5             	or     BYTE PTR [ecx-0x3b],al
  40c4ad:	0e                   	push   cs
  40c4ae:	04 00                	add    al,0x0

0040c4b0 <.eh_frame>:
  40c4b0:	14 00                	adc    al,0x0
  40c4b2:	00 00                	add    BYTE PTR [eax],al
  40c4b4:	00 00                	add    BYTE PTR [eax],al
  40c4b6:	00 00                	add    BYTE PTR [eax],al
  40c4b8:	01 7a 52             	add    DWORD PTR [edx+0x52],edi
  40c4bb:	00 01                	add    BYTE PTR [ecx],al
  40c4bd:	7c 08                	jl     40c4c7 <.eh_frame+0x17>
  40c4bf:	01 1b                	add    DWORD PTR [ebx],ebx
  40c4c1:	0c 04                	or     al,0x4
  40c4c3:	04 88                	add    al,0x88
  40c4c5:	01 00                	add    DWORD PTR [eax],eax
  40c4c7:	00 80 00 00 00 1c    	add    BYTE PTR [eax+0x1c000000],al
  40c4cd:	00 00                	add    BYTE PTR [eax],al
  40c4cf:	00 f0                	add    al,dh
  40c4d1:	bc ff ff 50 01       	mov    esp,0x150ffff
  40c4d6:	00 00                	add    BYTE PTR [eax],al
  40c4d8:	00 41 0e             	add    BYTE PTR [ecx+0xe],al
  40c4db:	08 85 02 41 0e 0c    	or     BYTE PTR [ebp+0xc0e4102],al
  40c4e1:	87 03                	xchg   DWORD PTR [ebx],eax
  40c4e3:	41                   	inc    ecx
  40c4e4:	0e                   	push   cs
  40c4e5:	10 86 04 41 0e 14    	adc    BYTE PTR [esi+0x140e4104],al
  40c4eb:	83 05 43 0e 30 78 0a 	add    DWORD PTR ds:0x78300e43,0xa
  40c4f2:	0e                   	push   cs
  40c4f3:	14 41                	adc    al,0x41
  40c4f5:	c3                   	ret    
  40c4f6:	0e                   	push   cs
  40c4f7:	10 41 c6             	adc    BYTE PTR [ecx-0x3a],al
  40c4fa:	0e                   	push   cs
  40c4fb:	0c 41                	or     al,0x41
  40c4fd:	c7                   	(bad)  
  40c4fe:	0e                   	push   cs
  40c4ff:	08 41 c5             	or     BYTE PTR [ecx-0x3b],al
  40c502:	0e                   	push   cs
  40c503:	04 41                	add    al,0x41
  40c505:	0b 74 0a 0e          	or     esi,DWORD PTR [edx+ecx*1+0xe]
  40c509:	14 41                	adc    al,0x41
  40c50b:	c3                   	ret    
  40c50c:	0e                   	push   cs
  40c50d:	10 41 c6             	adc    BYTE PTR [ecx-0x3a],al
  40c510:	0e                   	push   cs
  40c511:	0c 41                	or     al,0x41
  40c513:	c7                   	(bad)  
  40c514:	0e                   	push   cs
  40c515:	08 41 c5             	or     BYTE PTR [ecx-0x3b],al
  40c518:	0e                   	push   cs
  40c519:	04 44                	add    al,0x44
  40c51b:	0b 67 0a             	or     esp,DWORD PTR [edi+0xa]
  40c51e:	0e                   	push   cs
  40c51f:	14 41                	adc    al,0x41
  40c521:	c3                   	ret    
  40c522:	0e                   	push   cs
  40c523:	10 41 c6             	adc    BYTE PTR [ecx-0x3a],al
  40c526:	0e                   	push   cs
  40c527:	0c 41                	or     al,0x41
  40c529:	c7                   	(bad)  
  40c52a:	0e                   	push   cs
  40c52b:	08 41 c5             	or     BYTE PTR [ecx-0x3b],al
  40c52e:	0e                   	push   cs
  40c52f:	04 45                	add    al,0x45
  40c531:	0b 02                	or     eax,DWORD PTR [edx]
  40c533:	78 0a                	js     40c53f <.eh_frame+0x8f>
  40c535:	0e                   	push   cs
  40c536:	14 41                	adc    al,0x41
  40c538:	c3                   	ret    
  40c539:	0e                   	push   cs
  40c53a:	10 41 c6             	adc    BYTE PTR [ecx-0x3a],al
  40c53d:	0e                   	push   cs
  40c53e:	0c 41                	or     al,0x41
  40c540:	c7                   	(bad)  
  40c541:	0e                   	push   cs
  40c542:	08 41 c5             	or     BYTE PTR [ecx-0x3b],al
  40c545:	0e                   	push   cs
  40c546:	04 44                	add    al,0x44
  40c548:	0b 00                	or     eax,DWORD PTR [eax]
	...

0040c54c <___FRAME_END__>:
  40c54c:	00 00                	add    BYTE PTR [eax],al
  40c54e:	00 00                	add    BYTE PTR [eax],al
  40c550:	14 00                	adc    al,0x0
  40c552:	00 00                	add    BYTE PTR [eax],al
  40c554:	00 00                	add    BYTE PTR [eax],al
  40c556:	00 00                	add    BYTE PTR [eax],al
  40c558:	01 7a 52             	add    DWORD PTR [edx+0x52],edi
  40c55b:	00 01                	add    BYTE PTR [ecx],al
  40c55d:	7c 08                	jl     40c567 <___FRAME_END__+0x1b>
  40c55f:	01 1b                	add    DWORD PTR [ebx],ebx
  40c561:	0c 04                	or     al,0x4
  40c563:	04 88                	add    al,0x88
  40c565:	01 00                	add    DWORD PTR [eax],eax
  40c567:	00 1c 00             	add    BYTE PTR [eax+eax*1],bl
  40c56a:	00 00                	add    BYTE PTR [eax],al
  40c56c:	1c 00                	sbb    al,0x0
  40c56e:	00 00                	add    BYTE PTR [eax],al
  40c570:	b0 bd                	mov    al,0xbd
  40c572:	ff                   	(bad)  
  40c573:	ff 19                	call   FWORD PTR [ecx]
  40c575:	00 00                	add    BYTE PTR [eax],al
  40c577:	00 00                	add    BYTE PTR [eax],al
  40c579:	41                   	inc    ecx
  40c57a:	0e                   	push   cs
  40c57b:	08 85 02 42 0d 05    	or     BYTE PTR [ebp+0x50d4202],al
  40c581:	55                   	push   ebp
  40c582:	c5 0c 04             	lds    ecx,FWORD PTR [esp+eax*1]
  40c585:	04 00                	add    al,0x0
	...

Disassembly of section .bss:

0040d000 <__argv>:
  40d000:	00 00                	add    BYTE PTR [eax],al
	...

0040d004 <__argc>:
  40d004:	00 00                	add    BYTE PTR [eax],al
	...

0040d008 <_obj>:
	...

0040d020 <__CRT_fmode>:
  40d020:	00 00                	add    BYTE PTR [eax],al
	...

0040d024 <___cpu_features>:
  40d024:	00 00                	add    BYTE PTR [eax],al
	...

0040d028 <_initialized>:
  40d028:	00 00                	add    BYTE PTR [eax],al
	...

0040d02c <_mingw_initltssuo_force>:
  40d02c:	00 00                	add    BYTE PTR [eax],al
	...

0040d030 <_mingw_initltsdyn_force>:
  40d030:	00 00                	add    BYTE PTR [eax],al
	...

0040d034 <_mingw_initltsdrot_force>:
  40d034:	00 00                	add    BYTE PTR [eax],al
	...

0040d038 <__tls_index>:
  40d038:	00 00                	add    BYTE PTR [eax],al
	...

0040d03c <_key_dtor_list>:
  40d03c:	00 00                	add    BYTE PTR [eax],al
	...

0040d040 <___mingwthr_cs_init>:
  40d040:	00 00                	add    BYTE PTR [eax],al
	...

0040d044 <___mingwthr_cs>:
	...

0040d05c <_was_init.31107>:
  40d05c:	00 00                	add    BYTE PTR [eax],al
	...

0040d060 <.bss>:
  40d060:	00 00                	add    BYTE PTR [eax],al
	...

0040d064 <__CRT_MT>:
  40d064:	00 00                	add    BYTE PTR [eax],al
	...

0040d068 <_retfail.2586>:
  40d068:	00 00                	add    BYTE PTR [eax],al
	...

0040d06c <___mingw_output_format_flag>:
  40d06c:	00 00                	add    BYTE PTR [eax],al
	...

0040d070 <_s_mbstate.15273>:
  40d070:	00 00                	add    BYTE PTR [eax],al
	...

0040d074 <_internal_mbstate.15257>:
  40d074:	00 00                	add    BYTE PTR [eax],al
	...

0040d078 <_internal_mbstate.15246>:
  40d078:	00 00                	add    BYTE PTR [eax],al
	...

0040d07c <.bss>:
  40d07c:	00 00                	add    BYTE PTR [eax],al
	...

0040d080 <_p5s>:
	...

0040d0a0 <_private_mem>:
	...

0040d9a0 <_freelist>:
	...

0040d9c8 <_dtoa_CS_init>:
	...

0040d9e0 <_dtoa_CritSec>:
	...

0040da20 <.bss>:
	...

Disassembly of section .idata:

0040e000 <__head_libkernel32_a>:
  40e000:	50                   	push   eax
  40e001:	e0 00                	loopne 40e003 <__head_libkernel32_a+0x3>
	...
  40e00b:	00 b8 e5 00 00 44    	add    BYTE PTR [eax+0x440000e5],bh
  40e011:	e1 00                	loope  40e013 <__head_libkernel32_a+0x13>
	...

0040e014 <__head_libmoldname_a>:
  40e014:	a8 e0                	test   al,0xe0
	...
  40e01e:	00 00                	add    BYTE PTR [eax],al
  40e020:	d0 e5                	shl    ch,1
  40e022:	00 00                	add    BYTE PTR [eax],al
  40e024:	9c                   	pushf  
  40e025:	e1 00                	loope  40e027 <__head_libmoldname_a+0x13>
	...

0040e028 <__head_libmsvcrt_a>:
  40e028:	b4 e0                	mov    ah,0xe0
	...
  40e032:	00 00                	add    BYTE PTR [eax],al
  40e034:	68 e6 00 00 a8       	push   0xa80000e6
  40e039:	e1 00                	loope  40e03b <__head_libmsvcrt_a+0x13>
	...

0040e050 <hname>:
  40e050:	38 e2                	cmp    dl,ah
	...

0040e054 <.idata$4>:
  40e054:	50                   	push   eax
  40e055:	e2 00                	loop   40e057 <.idata$4+0x3>
	...

0040e058 <.idata$4>:
  40e058:	68 e2 00 00 76       	push   0x760000e2

0040e05c <.idata$4>:
  40e05c:	76 e2                	jbe    40e040 <__head_libmsvcrt_a+0x18>
	...

0040e060 <.idata$4>:
  40e060:	82                   	(bad)  
  40e061:	e2 00                	loop   40e063 <.idata$4+0x3>
	...

0040e064 <.idata$4>:
  40e064:	94                   	xchg   esp,eax
  40e065:	e2 00                	loop   40e067 <.idata$4+0x3>
	...

0040e068 <.idata$4>:
  40e068:	a4                   	movs   BYTE PTR es:[edi],BYTE PTR ds:[esi]
  40e069:	e2 00                	loop   40e06b <.idata$4+0x3>
	...

0040e06c <.idata$4>:
  40e06c:	b6 e2                	mov    dh,0xe2
	...

0040e070 <.idata$4>:
  40e070:	c6                   	(bad)  
  40e071:	e2 00                	loop   40e073 <.idata$4+0x3>
	...

0040e074 <.idata$4>:
  40e074:	da e2                	(bad)  
	...

0040e078 <.idata$4>:
  40e078:	ec                   	in     al,dx
  40e079:	e2 00                	loop   40e07b <.idata$4+0x3>
	...

0040e07c <.idata$4>:
  40e07c:	08 e3                	or     bl,ah
	...

0040e080 <.idata$4>:
  40e080:	1e                   	push   ds
  40e081:	e3 00                	jecxz  40e083 <.idata$4+0x3>
	...

0040e084 <.idata$4>:
  40e084:	32 e3                	xor    ah,bl
	...

0040e088 <.idata$4>:
  40e088:	4a                   	dec    edx
  40e089:	e3 00                	jecxz  40e08b <.idata$4+0x3>
	...

0040e08c <.idata$4>:
  40e08c:	60                   	pusha  
  40e08d:	e3 00                	jecxz  40e08f <.idata$4+0x3>
	...

0040e090 <.idata$4>:
  40e090:	7e e3                	jle    40e075 <.idata$4+0x1>
	...

0040e094 <.idata$4>:
  40e094:	86 e3                	xchg   bl,ah
	...

0040e098 <.idata$4>:
  40e098:	94                   	xchg   esp,eax
  40e099:	e3 00                	jecxz  40e09b <.idata$4+0x3>
	...

0040e09c <.idata$4>:
  40e09c:	a6                   	cmps   BYTE PTR ds:[esi],BYTE PTR es:[edi]
  40e09d:	e3 00                	jecxz  40e09f <.idata$4+0x3>
	...

0040e0a0 <.idata$4>:
  40e0a0:	b6 e3                	mov    dh,0xe3
	...

0040e0a4 <.idata$4>:
  40e0a4:	00 00                	add    BYTE PTR [eax],al
	...

0040e0a8 <hname>:
  40e0a8:	cc                   	int3   
  40e0a9:	e3 00                	jecxz  40e0ab <hname+0x3>
	...

0040e0ac <.idata$4>:
  40e0ac:	d6                   	(bad)  
  40e0ad:	e3 00                	jecxz  40e0af <.idata$4+0x3>
	...

0040e0b0 <.idata$4>:
  40e0b0:	00 00                	add    BYTE PTR [eax],al
	...

0040e0b4 <hname>:
  40e0b4:	e2 e3                	loop   40e099 <.idata$4+0x1>
	...

0040e0b8 <.idata$4>:
  40e0b8:	f2 e3 00             	repnz jecxz 40e0bb <.idata$4+0x3>
	...

0040e0bc <.idata$4>:
  40e0bc:	02 e4                	add    ah,ah
	...

0040e0c0 <.idata$4>:
  40e0c0:	12 e4                	adc    ah,ah
	...

0040e0c4 <.idata$4>:
  40e0c4:	20 e4                	and    ah,ah
	...

0040e0c8 <.idata$4>:
  40e0c8:	32 e4                	xor    ah,ah
	...

0040e0cc <.idata$4>:
  40e0cc:	3c e4                	cmp    al,0xe4
	...

0040e0d0 <.idata$4>:
  40e0d0:	46                   	inc    esi
  40e0d1:	e4 00                	in     al,0x0
	...

0040e0d4 <.idata$4>:
  40e0d4:	52                   	push   edx
  40e0d5:	e4 00                	in     al,0x0
	...

0040e0d8 <.idata$4>:
  40e0d8:	5a                   	pop    edx
  40e0d9:	e4 00                	in     al,0x0
	...

0040e0dc <.idata$4>:
  40e0dc:	64 e4 00             	fs in  al,0x0
	...

0040e0e0 <.idata$4>:
  40e0e0:	70 e4                	jo     40e0c6 <.idata$4+0x2>
	...

0040e0e4 <.idata$4>:
  40e0e4:	78 e4                	js     40e0ca <.idata$4+0x2>
	...

0040e0e8 <.idata$4>:
  40e0e8:	82                   	(bad)  
  40e0e9:	e4 00                	in     al,0x0
	...

0040e0ec <.idata$4>:
  40e0ec:	8a e4                	mov    ah,ah
	...

0040e0f0 <.idata$4>:
  40e0f0:	94                   	xchg   esp,eax
  40e0f1:	e4 00                	in     al,0x0
	...

0040e0f4 <.idata$4>:
  40e0f4:	9c                   	pushf  
  40e0f5:	e4 00                	in     al,0x0
	...

0040e0f8 <.idata$4>:
  40e0f8:	a4                   	movs   BYTE PTR es:[edi],BYTE PTR ds:[esi]
  40e0f9:	e4 00                	in     al,0x0
	...

0040e0fc <.idata$4>:
  40e0fc:	ae                   	scas   al,BYTE PTR es:[edi]
  40e0fd:	e4 00                	in     al,0x0
	...

0040e100 <.idata$4>:
  40e100:	b8 e4 00 00 c2       	mov    eax,0xc20000e4

0040e104 <.idata$4>:
  40e104:	c2 e4 00             	ret    0xe4
	...

0040e108 <.idata$4>:
  40e108:	d0 e4                	shl    ah,1
	...

0040e10c <.idata$4>:
  40e10c:	da e4                	(bad)  
	...

0040e110 <.idata$4>:
  40e110:	e6 e4                	out    0xe4,al
	...

0040e114 <.idata$4>:
  40e114:	f0 e4 00             	lock in al,0x0
	...

0040e118 <.idata$4>:
  40e118:	f8                   	clc    
  40e119:	e4 00                	in     al,0x0
	...

0040e11c <.idata$4>:
  40e11c:	02 e5                	add    ah,ch
	...

0040e120 <.idata$4>:
  40e120:	0e                   	push   cs
  40e121:	e5 00                	in     eax,0x0
	...

0040e124 <.idata$4>:
  40e124:	18 e5                	sbb    ch,ah
	...

0040e128 <.idata$4>:
  40e128:	22 e5                	and    ah,ch
	...

0040e12c <.idata$4>:
  40e12c:	2c e5                	sub    al,0xe5
	...

0040e130 <.idata$4>:
  40e130:	36 e5 00             	ss in  eax,0x0
	...

0040e134 <.idata$4>:
  40e134:	40                   	inc    eax
  40e135:	e5 00                	in     eax,0x0
	...

0040e138 <.idata$4>:
  40e138:	4c                   	dec    esp
  40e139:	e5 00                	in     eax,0x0
	...

0040e13c <.idata$4>:
  40e13c:	56                   	push   esi
  40e13d:	e5 00                	in     eax,0x0
	...

0040e140 <.idata$4>:
  40e140:	00 00                	add    BYTE PTR [eax],al
	...

0040e144 <__IAT_start__>:
  40e144:	38 e2                	cmp    dl,ah
	...

0040e148 <__imp__EnterCriticalSection@4>:
  40e148:	50                   	push   eax
  40e149:	e2 00                	loop   40e14b <__imp__EnterCriticalSection@4+0x3>
	...

0040e14c <__imp__ExitProcess@4>:
  40e14c:	68 e2 00 00 76       	push   0x760000e2

0040e150 <__imp__FindClose@4>:
  40e150:	76 e2                	jbe    40e134 <.idata$4>
	...

0040e154 <__imp__FindFirstFileA@8>:
  40e154:	82                   	(bad)  
  40e155:	e2 00                	loop   40e157 <__imp__FindFirstFileA@8+0x3>
	...

0040e158 <__imp__FindNextFileA@8>:
  40e158:	94                   	xchg   esp,eax
  40e159:	e2 00                	loop   40e15b <__imp__FindNextFileA@8+0x3>
	...

0040e15c <__imp__GetCommandLineA@0>:
  40e15c:	a4                   	movs   BYTE PTR es:[edi],BYTE PTR ds:[esi]
  40e15d:	e2 00                	loop   40e15f <__imp__GetCommandLineA@0+0x3>
	...

0040e160 <__imp__GetLastError@0>:
  40e160:	b6 e2                	mov    dh,0xe2
	...

0040e164 <__imp__GetModuleHandleA@4>:
  40e164:	c6                   	(bad)  
  40e165:	e2 00                	loop   40e167 <__imp__GetModuleHandleA@4+0x3>
	...

0040e168 <__imp__GetProcAddress@8>:
  40e168:	da e2                	(bad)  
	...

0040e16c <__imp__InitializeCriticalSection@4>:
  40e16c:	ec                   	in     al,dx
  40e16d:	e2 00                	loop   40e16f <__imp__InitializeCriticalSection@4+0x3>
	...

0040e170 <__imp__InterlockedExchange@8>:
  40e170:	08 e3                	or     bl,ah
	...

0040e174 <__imp__IsDBCSLeadByteEx@8>:
  40e174:	1e                   	push   ds
  40e175:	e3 00                	jecxz  40e177 <__imp__IsDBCSLeadByteEx@8+0x3>
	...

0040e178 <__imp__LeaveCriticalSection@4>:
  40e178:	32 e3                	xor    ah,bl
	...

0040e17c <__imp__MultiByteToWideChar@24>:
  40e17c:	4a                   	dec    edx
  40e17d:	e3 00                	jecxz  40e17f <__imp__MultiByteToWideChar@24+0x3>
	...

0040e180 <__imp__SetUnhandledExceptionFilter@4>:
  40e180:	60                   	pusha  
  40e181:	e3 00                	jecxz  40e183 <__imp__SetUnhandledExceptionFilter@4+0x3>
	...

0040e184 <__imp__Sleep@4>:
  40e184:	7e e3                	jle    40e169 <__imp__GetProcAddress@8+0x1>
	...

0040e188 <__imp__TlsGetValue@4>:
  40e188:	86 e3                	xchg   bl,ah
	...

0040e18c <__imp__VirtualProtect@16>:
  40e18c:	94                   	xchg   esp,eax
  40e18d:	e3 00                	jecxz  40e18f <__imp__VirtualProtect@16+0x3>
	...

0040e190 <__imp__VirtualQuery@12>:
  40e190:	a6                   	cmps   BYTE PTR ds:[esi],BYTE PTR es:[edi]
  40e191:	e3 00                	jecxz  40e193 <__imp__VirtualQuery@12+0x3>
	...

0040e194 <__imp__WideCharToMultiByte@32>:
  40e194:	b6 e3                	mov    dh,0xe3
	...

0040e198 <.idata$5>:
  40e198:	00 00                	add    BYTE PTR [eax],al
	...

0040e19c <__imp__strdup>:
  40e19c:	cc                   	int3   
  40e19d:	e3 00                	jecxz  40e19f <__imp__strdup+0x3>
	...

0040e1a0 <__imp__stricoll>:
  40e1a0:	d6                   	(bad)  
  40e1a1:	e3 00                	jecxz  40e1a3 <__imp__stricoll+0x3>
	...

0040e1a4 <.idata$5>:
  40e1a4:	00 00                	add    BYTE PTR [eax],al
	...

0040e1a8 <__imp____getmainargs>:
  40e1a8:	e2 e3                	loop   40e18d <__imp__VirtualProtect@16+0x1>
	...

0040e1ac <__imp____mb_cur_max>:
  40e1ac:	f2 e3 00             	repnz jecxz 40e1af <__imp____mb_cur_max+0x3>
	...

0040e1b0 <__imp____p__environ>:
  40e1b0:	02 e4                	add    ah,ah
	...

0040e1b4 <__imp____p__fmode>:
  40e1b4:	12 e4                	adc    ah,ah
	...

0040e1b8 <__imp____set_app_type>:
  40e1b8:	20 e4                	and    ah,ah
	...

0040e1bc <__imp___cexit>:
  40e1bc:	32 e4                	xor    ah,ah
	...

0040e1c0 <__imp___errno>:
  40e1c0:	3c e4                	cmp    al,0xe4
	...

0040e1c4 <__imp___fullpath>:
  40e1c4:	46                   	inc    esi
  40e1c5:	e4 00                	in     al,0x0
	...

0040e1c8 <__imp___iob>:
  40e1c8:	52                   	push   edx
  40e1c9:	e4 00                	in     al,0x0
	...

0040e1cc <__imp___onexit>:
  40e1cc:	5a                   	pop    edx
  40e1cd:	e4 00                	in     al,0x0
	...

0040e1d0 <__imp___setmode>:
  40e1d0:	64 e4 00             	fs in  al,0x0
	...

0040e1d4 <__imp__abort>:
  40e1d4:	70 e4                	jo     40e1ba <__imp____set_app_type+0x2>
	...

0040e1d8 <__imp__atexit>:
  40e1d8:	78 e4                	js     40e1be <__imp___cexit+0x2>
	...

0040e1dc <__imp__atoi>:
  40e1dc:	82                   	(bad)  
  40e1dd:	e4 00                	in     al,0x0
	...

0040e1e0 <__imp__calloc>:
  40e1e0:	8a e4                	mov    ah,ah
	...

0040e1e4 <__imp__fputc>:
  40e1e4:	94                   	xchg   esp,eax
  40e1e5:	e4 00                	in     al,0x0
	...

0040e1e8 <__imp__free>:
  40e1e8:	9c                   	pushf  
  40e1e9:	e4 00                	in     al,0x0
	...

0040e1ec <__imp__fwrite>:
  40e1ec:	a4                   	movs   BYTE PTR es:[edi],BYTE PTR ds:[esi]
  40e1ed:	e4 00                	in     al,0x0
	...

0040e1f0 <__imp__getenv>:
  40e1f0:	ae                   	scas   al,BYTE PTR es:[edi]
  40e1f1:	e4 00                	in     al,0x0
	...

0040e1f4 <__imp__isspace>:
  40e1f4:	b8 e4 00 00 c2       	mov    eax,0xc20000e4

0040e1f8 <__imp__localeconv>:
  40e1f8:	c2 e4 00             	ret    0xe4
	...

0040e1fc <__imp__malloc>:
  40e1fc:	d0 e4                	shl    ah,1
	...

0040e200 <__imp__mbstowcs>:
  40e200:	da e4                	(bad)  
	...

0040e204 <__imp__memcpy>:
  40e204:	e6 e4                	out    0xe4,al
	...

0040e208 <__imp__puts>:
  40e208:	f0 e4 00             	lock in al,0x0
	...

0040e20c <__imp__realloc>:
  40e20c:	f8                   	clc    
  40e20d:	e4 00                	in     al,0x0
	...

0040e210 <__imp__setlocale>:
  40e210:	02 e5                	add    ah,ch
	...

0040e214 <__imp__signal>:
  40e214:	0e                   	push   cs
  40e215:	e5 00                	in     eax,0x0
	...

0040e218 <__imp__strchr>:
  40e218:	18 e5                	sbb    ch,ah
	...

0040e21c <__imp__strcoll>:
  40e21c:	22 e5                	and    ah,ch
	...

0040e220 <__imp__strlen>:
  40e220:	2c e5                	sub    al,0xe5
	...

0040e224 <__imp__tolower>:
  40e224:	36 e5 00             	ss in  eax,0x0
	...

0040e228 <__imp__vfprintf>:
  40e228:	40                   	inc    eax
  40e229:	e5 00                	in     eax,0x0
	...

0040e22c <__imp__wcslen>:
  40e22c:	4c                   	dec    esp
  40e22d:	e5 00                	in     eax,0x0
	...

0040e230 <__imp__wcstombs>:
  40e230:	56                   	push   esi
  40e231:	e5 00                	in     eax,0x0
	...

0040e234 <.idata$5>:
  40e234:	00 00                	add    BYTE PTR [eax],al
	...

0040e238 <__IAT_end__>:
  40e238:	cf                   	iret   
  40e239:	00 44 65 6c          	add    BYTE PTR [ebp+eiz*2+0x6c],al
  40e23d:	65 74 65             	gs je  40e2a5 <.idata$6+0x1>
  40e240:	43                   	inc    ebx
  40e241:	72 69                	jb     40e2ac <.idata$6+0x8>
  40e243:	74 69                	je     40e2ae <.idata$6+0xa>
  40e245:	63 61 6c             	arpl   WORD PTR [ecx+0x6c],sp
  40e248:	53                   	push   ebx
  40e249:	65 63 74 69 6f       	arpl   WORD PTR gs:[ecx+ebp*2+0x6f],si
  40e24e:	6e                   	outs   dx,BYTE PTR ds:[esi]
	...

0040e250 <.idata$6>:
  40e250:	ec                   	in     al,dx
  40e251:	00 45 6e             	add    BYTE PTR [ebp+0x6e],al
  40e254:	74 65                	je     40e2bb <.idata$6+0x5>
  40e256:	72 43                	jb     40e29b <.idata$6+0x7>
  40e258:	72 69                	jb     40e2c3 <.idata$6+0xd>
  40e25a:	74 69                	je     40e2c5 <.idata$6+0xf>
  40e25c:	63 61 6c             	arpl   WORD PTR [ecx+0x6c],sp
  40e25f:	53                   	push   ebx
  40e260:	65 63 74 69 6f       	arpl   WORD PTR gs:[ecx+ebp*2+0x6f],si
  40e265:	6e                   	outs   dx,BYTE PTR ds:[esi]
	...

0040e268 <.idata$6>:
  40e268:	17                   	pop    ss
  40e269:	01 45 78             	add    DWORD PTR [ebp+0x78],eax
  40e26c:	69 74 50 72 6f 63 65 	imul   esi,DWORD PTR [eax+edx*2+0x72],0x7365636f
  40e273:	73 
  40e274:	73 00                	jae    40e276 <.idata$6>

0040e276 <.idata$6>:
  40e276:	2c 01                	sub    al,0x1
  40e278:	46                   	inc    esi
  40e279:	69 6e 64 43 6c 6f 73 	imul   ebp,DWORD PTR [esi+0x64],0x736f6c43
  40e280:	65 00 30             	add    BYTE PTR gs:[eax],dh

0040e282 <.idata$6>:
  40e282:	30 01                	xor    BYTE PTR [ecx],al
  40e284:	46                   	inc    esi
  40e285:	69 6e 64 46 69 72 73 	imul   ebp,DWORD PTR [esi+0x64],0x73726946
  40e28c:	74 46                	je     40e2d4 <.idata$6+0xe>
  40e28e:	69 6c 65 41 00 00 41 	imul   ebp,DWORD PTR [ebp+eiz*2+0x41],0x1410000
  40e295:	01 

0040e294 <.idata$6>:
  40e294:	41                   	inc    ecx
  40e295:	01 46 69             	add    DWORD PTR [esi+0x69],eax
  40e298:	6e                   	outs   dx,BYTE PTR ds:[esi]
  40e299:	64 4e                	fs dec esi
  40e29b:	65 78 74             	gs js  40e312 <.idata$6+0xa>
  40e29e:	46                   	inc    esi
  40e29f:	69 6c 65 41 00 84 01 	imul   ebp,DWORD PTR [ebp+eiz*2+0x41],0x47018400
  40e2a6:	47 

0040e2a4 <.idata$6>:
  40e2a4:	84 01                	test   BYTE PTR [ecx],al
  40e2a6:	47                   	inc    edi
  40e2a7:	65 74 43             	gs je  40e2ed <.idata$6+0x1>
  40e2aa:	6f                   	outs   dx,DWORD PTR ds:[esi]
  40e2ab:	6d                   	ins    DWORD PTR es:[edi],dx
  40e2ac:	6d                   	ins    DWORD PTR es:[edi],dx
  40e2ad:	61                   	popa   
  40e2ae:	6e                   	outs   dx,BYTE PTR ds:[esi]
  40e2af:	64 4c                	fs dec esp
  40e2b1:	69 6e 65 41 00 fe 01 	imul   ebp,DWORD PTR [esi+0x65],0x1fe0041

0040e2b6 <.idata$6>:
  40e2b6:	fe 01                	inc    BYTE PTR [ecx]
  40e2b8:	47                   	inc    edi
  40e2b9:	65 74 4c             	gs je  40e308 <.idata$6>
  40e2bc:	61                   	popa   
  40e2bd:	73 74                	jae    40e333 <.idata$6+0x1>
  40e2bf:	45                   	inc    ebp
  40e2c0:	72 72                	jb     40e334 <.idata$6+0x2>
  40e2c2:	6f                   	outs   dx,DWORD PTR ds:[esi]
  40e2c3:	72 00                	jb     40e2c5 <.idata$6+0xf>
	...

0040e2c6 <.idata$6>:
  40e2c6:	11 02                	adc    DWORD PTR [edx],eax
  40e2c8:	47                   	inc    edi
  40e2c9:	65 74 4d             	gs je  40e319 <.idata$6+0x11>
  40e2cc:	6f                   	outs   dx,DWORD PTR ds:[esi]
  40e2cd:	64 75 6c             	fs jne 40e33c <.idata$6+0xa>
  40e2d0:	65 48                	gs dec eax
  40e2d2:	61                   	popa   
  40e2d3:	6e                   	outs   dx,BYTE PTR ds:[esi]
  40e2d4:	64 6c                	fs ins BYTE PTR es:[edi],dx
  40e2d6:	65 41                	gs inc ecx
	...

0040e2da <.idata$6>:
  40e2da:	41                   	inc    ecx
  40e2db:	02 47 65             	add    al,BYTE PTR [edi+0x65]
  40e2de:	74 50                	je     40e330 <.idata$6+0x12>
  40e2e0:	72 6f                	jb     40e351 <.idata$6+0x7>
  40e2e2:	63 41 64             	arpl   WORD PTR [ecx+0x64],ax
  40e2e5:	64 72 65             	fs jb  40e34d <.idata$6+0x3>
  40e2e8:	73 73                	jae    40e35d <.idata$6+0x13>
	...

0040e2ec <.idata$6>:
  40e2ec:	de 02                	fiadd  WORD PTR [edx]
  40e2ee:	49                   	dec    ecx
  40e2ef:	6e                   	outs   dx,BYTE PTR ds:[esi]
  40e2f0:	69 74 69 61 6c 69 7a 	imul   esi,DWORD PTR [ecx+ebp*2+0x61],0x657a696c
  40e2f7:	65 
  40e2f8:	43                   	inc    ebx
  40e2f9:	72 69                	jb     40e364 <.idata$6+0x4>
  40e2fb:	74 69                	je     40e366 <.idata$6+0x6>
  40e2fd:	63 61 6c             	arpl   WORD PTR [ecx+0x6c],sp
  40e300:	53                   	push   ebx
  40e301:	65 63 74 69 6f       	arpl   WORD PTR gs:[ecx+ebp*2+0x6f],si
  40e306:	6e                   	outs   dx,BYTE PTR ds:[esi]
	...

0040e308 <.idata$6>:
  40e308:	e8 02 49 6e 74       	call   74af2c0f <.debug_line+0x746dec0f>
  40e30d:	65 72 6c             	gs jb  40e37c <.idata$6+0x1c>
  40e310:	6f                   	outs   dx,DWORD PTR ds:[esi]
  40e311:	63 6b 65             	arpl   WORD PTR [ebx+0x65],bp
  40e314:	64 45                	fs inc ebp
  40e316:	78 63                	js     40e37b <.idata$6+0x1b>
  40e318:	68 61 6e 67 65       	push   0x65676e61
	...

0040e31e <.idata$6>:
  40e31e:	fb                   	sti    
  40e31f:	02 49 73             	add    cl,BYTE PTR [ecx+0x73]
  40e322:	44                   	inc    esp
  40e323:	42                   	inc    edx
  40e324:	43                   	inc    ebx
  40e325:	53                   	push   ebx
  40e326:	4c                   	dec    esp
  40e327:	65 61                	gs popa 
  40e329:	64 42                	fs inc edx
  40e32b:	79 74                	jns    40e3a1 <.idata$6+0xd>
  40e32d:	65 45                	gs inc ebp
  40e32f:	78 00                	js     40e331 <.idata$6+0x13>
	...

0040e332 <.idata$6>:
  40e332:	2e 03 4c 65 61       	add    ecx,DWORD PTR cs:[ebp+eiz*2+0x61]
  40e337:	76 65                	jbe    40e39e <.idata$6+0xa>
  40e339:	43                   	inc    ebx
  40e33a:	72 69                	jb     40e3a5 <.idata$6+0x11>
  40e33c:	74 69                	je     40e3a7 <.idata$6+0x1>
  40e33e:	63 61 6c             	arpl   WORD PTR [ecx+0x6c],sp
  40e341:	53                   	push   ebx
  40e342:	65 63 74 69 6f       	arpl   WORD PTR gs:[ecx+ebp*2+0x6f],si
  40e347:	6e                   	outs   dx,BYTE PTR ds:[esi]
	...

0040e34a <.idata$6>:
  40e34a:	5c                   	pop    esp
  40e34b:	03 4d 75             	add    ecx,DWORD PTR [ebp+0x75]
  40e34e:	6c                   	ins    BYTE PTR es:[edi],dx
  40e34f:	74 69                	je     40e3ba <.idata$6+0x4>
  40e351:	42                   	inc    edx
  40e352:	79 74                	jns    40e3c8 <.idata$6+0x12>
  40e354:	65 54                	gs push esp
  40e356:	6f                   	outs   dx,DWORD PTR ds:[esi]
  40e357:	57                   	push   edi
  40e358:	69 64 65 43 68 61 72 	imul   esp,DWORD PTR [ebp+eiz*2+0x43],0x726168
  40e35f:	00 

0040e360 <.idata$6>:
  40e360:	74 04                	je     40e366 <.idata$6+0x6>
  40e362:	53                   	push   ebx
  40e363:	65 74 55             	gs je  40e3bb <.idata$6+0x5>
  40e366:	6e                   	outs   dx,BYTE PTR ds:[esi]
  40e367:	68 61 6e 64 6c       	push   0x6c646e61
  40e36c:	65 64 45             	gs fs inc ebp
  40e36f:	78 63                	js     40e3d4 <.idata$6+0x8>
  40e371:	65 70 74             	gs jo  40e3e8 <.idata$6+0x6>
  40e374:	69 6f 6e 46 69 6c 74 	imul   ebp,DWORD PTR [edi+0x6e],0x746c6946
  40e37b:	65 72 00             	gs jb  40e37e <.idata$6>

0040e37e <.idata$6>:
  40e37e:	80 04 53 6c          	add    BYTE PTR [ebx+edx*2],0x6c
  40e382:	65 65 70 00          	gs gs jo 40e386 <.idata$6>

0040e386 <.idata$6>:
  40e386:	95                   	xchg   ebp,eax
  40e387:	04 54                	add    al,0x54
  40e389:	6c                   	ins    BYTE PTR es:[edi],dx
  40e38a:	73 47                	jae    40e3d3 <.idata$6+0x7>
  40e38c:	65 74 56             	gs je  40e3e5 <.idata$6+0x3>
  40e38f:	61                   	popa   
  40e390:	6c                   	ins    BYTE PTR es:[edi],dx
  40e391:	75 65                	jne    40e3f8 <.idata$6+0x6>
	...

0040e394 <.idata$6>:
  40e394:	bd 04 56 69 72       	mov    ebp,0x72695604
  40e399:	74 75                	je     40e410 <.idata$6+0xe>
  40e39b:	61                   	popa   
  40e39c:	6c                   	ins    BYTE PTR es:[edi],dx
  40e39d:	50                   	push   eax
  40e39e:	72 6f                	jb     40e40f <.idata$6+0xd>
  40e3a0:	74 65                	je     40e407 <.idata$6+0x5>
  40e3a2:	63 74 00 00          	arpl   WORD PTR [eax+eax*1+0x0],si

0040e3a6 <.idata$6>:
  40e3a6:	bf 04 56 69 72       	mov    edi,0x72695604
  40e3ab:	74 75                	je     40e422 <.idata$6+0x2>
  40e3ad:	61                   	popa   
  40e3ae:	6c                   	ins    BYTE PTR es:[edi],dx
  40e3af:	51                   	push   ecx
  40e3b0:	75 65                	jne    40e417 <.idata$6+0x5>
  40e3b2:	72 79                	jb     40e42d <.idata$6+0xd>
	...

0040e3b6 <.idata$6>:
  40e3b6:	df 04 57             	fild   WORD PTR [edi+edx*2]
  40e3b9:	69 64 65 43 68 61 72 	imul   esp,DWORD PTR [ebp+eiz*2+0x43],0x54726168
  40e3c0:	54 
  40e3c1:	6f                   	outs   dx,DWORD PTR ds:[esi]
  40e3c2:	4d                   	dec    ebp
  40e3c3:	75 6c                	jne    40e431 <.idata$6+0x11>
  40e3c5:	74 69                	je     40e430 <.idata$6+0x10>
  40e3c7:	42                   	inc    edx
  40e3c8:	79 74                	jns    40e43e <.idata$6+0x2>
  40e3ca:	65 00 50 00          	add    BYTE PTR gs:[eax+0x0],dl

0040e3cc <.idata$6>:
  40e3cc:	50                   	push   eax
  40e3cd:	00 5f 73             	add    BYTE PTR [edi+0x73],bl
  40e3d0:	74 72                	je     40e444 <.idata$6+0x8>
  40e3d2:	64 75 70             	fs jne 40e445 <.idata$6+0x9>
	...

0040e3d6 <.idata$6>:
  40e3d6:	52                   	push   edx
  40e3d7:	00 5f 73             	add    BYTE PTR [edi+0x73],bl
  40e3da:	74 72                	je     40e44e <.idata$6+0x8>
  40e3dc:	69 63 6f 6c 6c 00 37 	imul   esp,DWORD PTR [ebx+0x6f],0x37006c6c

0040e3e2 <.idata$6>:
  40e3e2:	37                   	aaa    
  40e3e3:	00 5f 5f             	add    BYTE PTR [edi+0x5f],bl
  40e3e6:	67 65 74 6d          	addr16 gs je 40e457 <.idata$6+0x5>
  40e3ea:	61                   	popa   
  40e3eb:	69 6e 61 72 67 73 00 	imul   ebp,DWORD PTR [esi+0x61],0x736772

0040e3f2 <.idata$6>:
  40e3f2:	41                   	inc    ecx
  40e3f3:	00 5f 5f             	add    BYTE PTR [edi+0x5f],bl
  40e3f6:	6d                   	ins    DWORD PTR es:[edi],dx
  40e3f7:	62 5f 63             	bound  ebx,QWORD PTR [edi+0x63]
  40e3fa:	75 72                	jne    40e46e <.idata$6+0xa>
  40e3fc:	5f                   	pop    edi
  40e3fd:	6d                   	ins    DWORD PTR es:[edi],dx
  40e3fe:	61                   	popa   
  40e3ff:	78 00                	js     40e401 <.idata$6+0xf>
	...

0040e402 <.idata$6>:
  40e402:	4d                   	dec    ebp
  40e403:	00 5f 5f             	add    BYTE PTR [edi+0x5f],bl
  40e406:	70 5f                	jo     40e467 <.idata$6+0x3>
  40e408:	5f                   	pop    edi
  40e409:	65 6e                	outs   dx,BYTE PTR gs:[esi]
  40e40b:	76 69                	jbe    40e476 <.idata$6+0x6>
  40e40d:	72 6f                	jb     40e47e <.idata$6+0x6>
  40e40f:	6e                   	outs   dx,BYTE PTR ds:[esi]
	...

0040e412 <.idata$6>:
  40e412:	4f                   	dec    edi
  40e413:	00 5f 5f             	add    BYTE PTR [edi+0x5f],bl
  40e416:	70 5f                	jo     40e477 <.idata$6+0x7>
  40e418:	5f                   	pop    edi
  40e419:	66 6d                	ins    WORD PTR es:[edi],dx
  40e41b:	6f                   	outs   dx,DWORD PTR ds:[esi]
  40e41c:	64 65 00 00          	fs add BYTE PTR gs:[eax],al

0040e420 <.idata$6>:
  40e420:	63 00                	arpl   WORD PTR [eax],ax
  40e422:	5f                   	pop    edi
  40e423:	5f                   	pop    edi
  40e424:	73 65                	jae    40e48b <.idata$6+0x1>
  40e426:	74 5f                	je     40e487 <.idata$6+0x5>
  40e428:	61                   	popa   
  40e429:	70 70                	jo     40e49b <.idata$6+0x7>
  40e42b:	5f                   	pop    edi
  40e42c:	74 79                	je     40e4a7 <.idata$6+0x3>
  40e42e:	70 65                	jo     40e495 <.idata$6+0x1>
	...

0040e432 <.idata$6>:
  40e432:	93                   	xchg   ebx,eax
  40e433:	00 5f 63             	add    BYTE PTR [edi+0x63],bl
  40e436:	65 78 69             	gs js  40e4a2 <.idata$6+0x6>
  40e439:	74 00                	je     40e43b <.idata$6+0x9>
	...

0040e43c <.idata$6>:
  40e43c:	b6 00                	mov    dh,0x0
  40e43e:	5f                   	pop    edi
  40e43f:	65 72 72             	gs jb  40e4b4 <.idata$6+0x6>
  40e442:	6e                   	outs   dx,BYTE PTR ds:[esi]
  40e443:	6f                   	outs   dx,DWORD PTR ds:[esi]
	...

0040e446 <.idata$6>:
  40e446:	e4 00                	in     al,0x0
  40e448:	5f                   	pop    edi
  40e449:	66 75 6c             	data16 jne 40e4b8 <.idata$6>
  40e44c:	6c                   	ins    BYTE PTR es:[edi],dx
  40e44d:	70 61                	jo     40e4b0 <.idata$6+0x2>
  40e44f:	74 68                	je     40e4b9 <.idata$6+0x1>
	...

0040e452 <.idata$6>:
  40e452:	0a 01                	or     al,BYTE PTR [ecx]
  40e454:	5f                   	pop    edi
  40e455:	69 6f 62 00 00 7f 01 	imul   ebp,DWORD PTR [edi+0x62],0x17f0000

0040e45a <.idata$6>:
  40e45a:	7f 01                	jg     40e45d <.idata$6+0x3>
  40e45c:	5f                   	pop    edi
  40e45d:	6f                   	outs   dx,DWORD PTR ds:[esi]
  40e45e:	6e                   	outs   dx,BYTE PTR ds:[esi]
  40e45f:	65 78 69             	gs js  40e4cb <.idata$6+0x9>
  40e462:	74 00                	je     40e464 <.idata$6>

0040e464 <.idata$6>:
  40e464:	aa                   	stos   BYTE PTR es:[edi],al
  40e465:	01 5f 73             	add    DWORD PTR [edi+0x73],ebx
  40e468:	65 74 6d             	gs je  40e4d8 <.idata$6+0x8>
  40e46b:	6f                   	outs   dx,DWORD PTR ds:[esi]
  40e46c:	64 65 00 00          	fs add BYTE PTR gs:[eax],al

0040e470 <.idata$6>:
  40e470:	47                   	inc    edi
  40e471:	02 61 62             	add    ah,BYTE PTR [ecx+0x62]
  40e474:	6f                   	outs   dx,DWORD PTR ds:[esi]
  40e475:	72 74                	jb     40e4eb <.idata$6+0x5>
	...

0040e478 <.idata$6>:
  40e478:	4e                   	dec    esi
  40e479:	02 61 74             	add    ah,BYTE PTR [ecx+0x74]
  40e47c:	65 78 69             	gs js  40e4e8 <.idata$6+0x2>
  40e47f:	74 00                	je     40e481 <.idata$6+0x9>
	...

0040e482 <.idata$6>:
  40e482:	50                   	push   eax
  40e483:	02 61 74             	add    ah,BYTE PTR [ecx+0x74]
  40e486:	6f                   	outs   dx,DWORD PTR ds:[esi]
  40e487:	69 00 00 53 02 63    	imul   eax,DWORD PTR [eax],0x63025300

0040e48a <.idata$6>:
  40e48a:	53                   	push   ebx
  40e48b:	02 63 61             	add    ah,BYTE PTR [ebx+0x61]
  40e48e:	6c                   	ins    BYTE PTR es:[edi],dx
  40e48f:	6c                   	ins    BYTE PTR es:[edi],dx
  40e490:	6f                   	outs   dx,DWORD PTR ds:[esi]
  40e491:	63 00                	arpl   WORD PTR [eax],ax
	...

0040e494 <.idata$6>:
  40e494:	6c                   	ins    BYTE PTR es:[edi],dx
  40e495:	02 66 70             	add    ah,BYTE PTR [esi+0x70]
  40e498:	75 74                	jne    40e50e <.idata$6>
  40e49a:	63 00                	arpl   WORD PTR [eax],ax

0040e49c <.idata$6>:
  40e49c:	71 02                	jno    40e4a0 <.idata$6+0x4>
  40e49e:	66 72 65             	data16 jb 40e506 <.idata$6+0x4>
  40e4a1:	65 00 00             	add    BYTE PTR gs:[eax],al

0040e4a4 <.idata$6>:
  40e4a4:	79 02                	jns    40e4a8 <.idata$6+0x4>
  40e4a6:	66 77 72             	data16 ja 40e51b <.idata$6+0x3>
  40e4a9:	69 74 65 00 00 7d 02 	imul   esi,DWORD PTR [ebp+eiz*2+0x0],0x67027d00
  40e4b0:	67 

0040e4ae <.idata$6>:
  40e4ae:	7d 02                	jge    40e4b2 <.idata$6+0x4>
  40e4b0:	67 65 74 65          	addr16 gs je 40e519 <.idata$6+0x1>
  40e4b4:	6e                   	outs   dx,BYTE PTR ds:[esi]
  40e4b5:	76 00                	jbe    40e4b7 <.idata$6+0x9>
	...

0040e4b8 <.idata$6>:
  40e4b8:	8c 02                	mov    WORD PTR [edx],es
  40e4ba:	69 73 73 70 61 63 65 	imul   esi,DWORD PTR [ebx+0x73],0x65636170
	...

0040e4c2 <.idata$6>:
  40e4c2:	9f                   	lahf   
  40e4c3:	02 6c 6f 63          	add    ch,BYTE PTR [edi+ebp*2+0x63]
  40e4c7:	61                   	popa   
  40e4c8:	6c                   	ins    BYTE PTR es:[edi],dx
  40e4c9:	65 63 6f 6e          	arpl   WORD PTR gs:[edi+0x6e],bp
  40e4cd:	76 00                	jbe    40e4cf <.idata$6+0xd>
	...

0040e4d0 <.idata$6>:
  40e4d0:	a4                   	movs   BYTE PTR es:[edi],BYTE PTR ds:[esi]
  40e4d1:	02 6d 61             	add    ch,BYTE PTR [ebp+0x61]
  40e4d4:	6c                   	ins    BYTE PTR es:[edi],dx
  40e4d5:	6c                   	ins    BYTE PTR es:[edi],dx
  40e4d6:	6f                   	outs   dx,DWORD PTR ds:[esi]
  40e4d7:	63 00                	arpl   WORD PTR [eax],ax
	...

0040e4da <.idata$6>:
  40e4da:	a6                   	cmps   BYTE PTR ds:[esi],BYTE PTR es:[edi]
  40e4db:	02 6d 62             	add    ch,BYTE PTR [ebp+0x62]
  40e4de:	73 74                	jae    40e554 <.idata$6+0x8>
  40e4e0:	6f                   	outs   dx,DWORD PTR ds:[esi]
  40e4e1:	77 63                	ja     40e546 <.idata$6+0x6>
  40e4e3:	73 00                	jae    40e4e5 <.idata$6+0xb>
	...

0040e4e6 <.idata$6>:
  40e4e6:	aa                   	stos   BYTE PTR es:[edi],al
  40e4e7:	02 6d 65             	add    ch,BYTE PTR [ebp+0x65]
  40e4ea:	6d                   	ins    DWORD PTR es:[edi],dx
  40e4eb:	63 70 79             	arpl   WORD PTR [eax+0x79],si
	...

0040e4f0 <.idata$6>:
  40e4f0:	b4 02                	mov    ah,0x2
  40e4f2:	70 75                	jo     40e569 <.idata$7+0x1>
  40e4f4:	74 73                	je     40e569 <.idata$7+0x1>
	...

0040e4f8 <.idata$6>:
  40e4f8:	ba 02 72 65 61       	mov    edx,0x61657202
  40e4fd:	6c                   	ins    BYTE PTR es:[edi],dx
  40e4fe:	6c                   	ins    BYTE PTR es:[edi],dx
  40e4ff:	6f                   	outs   dx,DWORD PTR ds:[esi]
  40e500:	63 00                	arpl   WORD PTR [eax],ax

0040e502 <.idata$6>:
  40e502:	c0 02 73             	rol    BYTE PTR [edx],0x73
  40e505:	65 74 6c             	gs je  40e574 <.idata$7>
  40e508:	6f                   	outs   dx,DWORD PTR ds:[esi]
  40e509:	63 61 6c             	arpl   WORD PTR [ecx+0x6c],sp
  40e50c:	65 00 c2             	gs add dl,al

0040e50e <.idata$6>:
  40e50e:	c2 02 73             	ret    0x7302
  40e511:	69 67 6e 61 6c 00 00 	imul   esp,DWORD PTR [edi+0x6e],0x6c61

0040e518 <.idata$6>:
  40e518:	ca 02 73             	retf   0x7302
  40e51b:	74 72                	je     40e58f <.idata$7+0x3>
  40e51d:	63 68 72             	arpl   WORD PTR [eax+0x72],bp
	...

0040e522 <.idata$6>:
  40e522:	cc                   	int3   
  40e523:	02 73 74             	add    dh,BYTE PTR [ebx+0x74]
  40e526:	72 63                	jb     40e58b <.idata$7+0x3>
  40e528:	6f                   	outs   dx,DWORD PTR ds:[esi]
  40e529:	6c                   	ins    BYTE PTR es:[edi],dx
  40e52a:	6c                   	ins    BYTE PTR es:[edi],dx
	...

0040e52c <.idata$6>:
  40e52c:	d1 02                	rol    DWORD PTR [edx],1
  40e52e:	73 74                	jae    40e5a4 <.idata$7>
  40e530:	72 6c                	jb     40e59e <.idata$7+0x2>
  40e532:	65 6e                	outs   dx,BYTE PTR gs:[esi]
	...

0040e536 <.idata$6>:
  40e536:	e6 02                	out    0x2,al
  40e538:	74 6f                	je     40e5a9 <.idata$7+0x1>
  40e53a:	6c                   	ins    BYTE PTR es:[edi],dx
  40e53b:	6f                   	outs   dx,DWORD PTR ds:[esi]
  40e53c:	77 65                	ja     40e5a3 <.idata$7+0x3>
  40e53e:	72 00                	jb     40e540 <.idata$6>

0040e540 <.idata$6>:
  40e540:	ec                   	in     al,dx
  40e541:	02 76 66             	add    dh,BYTE PTR [esi+0x66]
  40e544:	70 72                	jo     40e5b8 <__libkernel32_a_iname>
  40e546:	69 6e 74 66 00 00 f9 	imul   ebp,DWORD PTR [esi+0x74],0xf9000066

0040e54c <.idata$6>:
  40e54c:	f9                   	stc    
  40e54d:	02 77 63             	add    dh,BYTE PTR [edi+0x63]
  40e550:	73 6c                	jae    40e5be <__libkernel32_a_iname+0x6>
  40e552:	65 6e                	outs   dx,BYTE PTR gs:[esi]
	...

0040e556 <.idata$6>:
  40e556:	04 03                	add    al,0x3
  40e558:	77 63                	ja     40e5bd <__libkernel32_a_iname+0x5>
  40e55a:	73 74                	jae    40e5d0 <__libmoldname_a_iname>
  40e55c:	6f                   	outs   dx,DWORD PTR ds:[esi]
  40e55d:	6d                   	ins    DWORD PTR es:[edi],dx
  40e55e:	62 73 00             	bound  esi,QWORD PTR [ebx+0x0]
  40e561:	00 00                	add    BYTE PTR [eax],al
	...

0040e564 <.idata$7>:
  40e564:	00 e0                	add    al,ah
	...

0040e568 <.idata$7>:
  40e568:	00 e0                	add    al,ah
	...

0040e56c <.idata$7>:
  40e56c:	00 e0                	add    al,ah
	...

0040e570 <.idata$7>:
  40e570:	00 e0                	add    al,ah
	...

0040e574 <.idata$7>:
  40e574:	00 e0                	add    al,ah
	...

0040e578 <.idata$7>:
  40e578:	00 e0                	add    al,ah
	...

0040e57c <.idata$7>:
  40e57c:	00 e0                	add    al,ah
	...

0040e580 <.idata$7>:
  40e580:	00 e0                	add    al,ah
	...

0040e584 <.idata$7>:
  40e584:	00 e0                	add    al,ah
	...

0040e588 <.idata$7>:
  40e588:	00 e0                	add    al,ah
	...

0040e58c <.idata$7>:
  40e58c:	00 e0                	add    al,ah
	...

0040e590 <.idata$7>:
  40e590:	00 e0                	add    al,ah
	...

0040e594 <.idata$7>:
  40e594:	00 e0                	add    al,ah
	...

0040e598 <.idata$7>:
  40e598:	00 e0                	add    al,ah
	...

0040e59c <.idata$7>:
  40e59c:	00 e0                	add    al,ah
	...

0040e5a0 <.idata$7>:
  40e5a0:	00 e0                	add    al,ah
	...

0040e5a4 <.idata$7>:
  40e5a4:	00 e0                	add    al,ah
	...

0040e5a8 <.idata$7>:
  40e5a8:	00 e0                	add    al,ah
	...

0040e5ac <.idata$7>:
  40e5ac:	00 e0                	add    al,ah
	...

0040e5b0 <.idata$7>:
  40e5b0:	00 e0                	add    al,ah
	...

0040e5b4 <.idata$7>:
  40e5b4:	00 e0                	add    al,ah
	...

0040e5b8 <__libkernel32_a_iname>:
  40e5b8:	4b                   	dec    ebx
  40e5b9:	45                   	inc    ebp
  40e5ba:	52                   	push   edx
  40e5bb:	4e                   	dec    esi
  40e5bc:	45                   	inc    ebp
  40e5bd:	4c                   	dec    esp
  40e5be:	33 32                	xor    esi,DWORD PTR [edx]
  40e5c0:	2e 64 6c             	cs fs ins BYTE PTR es:[edi],dx
  40e5c3:	6c                   	ins    BYTE PTR es:[edi],dx
  40e5c4:	00 00                	add    BYTE PTR [eax],al
	...

0040e5c8 <.idata$7>:
  40e5c8:	14 e0                	adc    al,0xe0
	...

0040e5cc <.idata$7>:
  40e5cc:	14 e0                	adc    al,0xe0
	...

0040e5d0 <__libmoldname_a_iname>:
  40e5d0:	6d                   	ins    DWORD PTR es:[edi],dx
  40e5d1:	73 76                	jae    40e649 <.idata$7+0x1>
  40e5d3:	63 72 74             	arpl   WORD PTR [edx+0x74],si
  40e5d6:	2e 64 6c             	cs fs ins BYTE PTR es:[edi],dx
  40e5d9:	6c                   	ins    BYTE PTR es:[edi],dx
	...

0040e5dc <.idata$7>:
  40e5dc:	28 e0                	sub    al,ah
	...

0040e5e0 <.idata$7>:
  40e5e0:	28 e0                	sub    al,ah
	...

0040e5e4 <.idata$7>:
  40e5e4:	28 e0                	sub    al,ah
	...

0040e5e8 <.idata$7>:
  40e5e8:	28 e0                	sub    al,ah
	...

0040e5ec <.idata$7>:
  40e5ec:	28 e0                	sub    al,ah
	...

0040e5f0 <.idata$7>:
  40e5f0:	28 e0                	sub    al,ah
	...

0040e5f4 <.idata$7>:
  40e5f4:	28 e0                	sub    al,ah
	...

0040e5f8 <.idata$7>:
  40e5f8:	28 e0                	sub    al,ah
	...

0040e5fc <.idata$7>:
  40e5fc:	28 e0                	sub    al,ah
	...

0040e600 <.idata$7>:
  40e600:	28 e0                	sub    al,ah
	...

0040e604 <.idata$7>:
  40e604:	28 e0                	sub    al,ah
	...

0040e608 <.idata$7>:
  40e608:	28 e0                	sub    al,ah
	...

0040e60c <.idata$7>:
  40e60c:	28 e0                	sub    al,ah
	...

0040e610 <.idata$7>:
  40e610:	28 e0                	sub    al,ah
	...

0040e614 <.idata$7>:
  40e614:	28 e0                	sub    al,ah
	...

0040e618 <.idata$7>:
  40e618:	28 e0                	sub    al,ah
	...

0040e61c <.idata$7>:
  40e61c:	28 e0                	sub    al,ah
	...

0040e620 <.idata$7>:
  40e620:	28 e0                	sub    al,ah
	...

0040e624 <.idata$7>:
  40e624:	28 e0                	sub    al,ah
	...

0040e628 <.idata$7>:
  40e628:	28 e0                	sub    al,ah
	...

0040e62c <.idata$7>:
  40e62c:	28 e0                	sub    al,ah
	...

0040e630 <.idata$7>:
  40e630:	28 e0                	sub    al,ah
	...

0040e634 <.idata$7>:
  40e634:	28 e0                	sub    al,ah
	...

0040e638 <.idata$7>:
  40e638:	28 e0                	sub    al,ah
	...

0040e63c <.idata$7>:
  40e63c:	28 e0                	sub    al,ah
	...

0040e640 <.idata$7>:
  40e640:	28 e0                	sub    al,ah
	...

0040e644 <.idata$7>:
  40e644:	28 e0                	sub    al,ah
	...

0040e648 <.idata$7>:
  40e648:	28 e0                	sub    al,ah
	...

0040e64c <.idata$7>:
  40e64c:	28 e0                	sub    al,ah
	...

0040e650 <.idata$7>:
  40e650:	28 e0                	sub    al,ah
	...

0040e654 <.idata$7>:
  40e654:	28 e0                	sub    al,ah
	...

0040e658 <.idata$7>:
  40e658:	28 e0                	sub    al,ah
	...

0040e65c <.idata$7>:
  40e65c:	28 e0                	sub    al,ah
	...

0040e660 <.idata$7>:
  40e660:	28 e0                	sub    al,ah
	...

0040e664 <.idata$7>:
  40e664:	28 e0                	sub    al,ah
	...

0040e668 <__libmsvcrt_a_iname>:
  40e668:	6d                   	ins    DWORD PTR es:[edi],dx
  40e669:	73 76                	jae    40e6e1 <__libmsvcrt_a_iname+0x79>
  40e66b:	63 72 74             	arpl   WORD PTR [edx+0x74],si
  40e66e:	2e 64 6c             	cs fs ins BYTE PTR es:[edi],dx
  40e671:	6c                   	ins    BYTE PTR es:[edi],dx
	...

Disassembly of section .CRT:

0040f000 <___crt_xc_end__>:
  40f000:	00 00                	add    BYTE PTR [eax],al
	...

0040f004 <___xl_c>:
  40f004:	10 19                	adc    BYTE PTR [ecx],bl
  40f006:	40                   	inc    eax
	...

0040f008 <___xl_d>:
  40f008:	c0 18 40             	rcr    BYTE PTR [eax],0x40
	...

0040f00c <___xl_z>:
  40f00c:	00 00                	add    BYTE PTR [eax],al
	...

0040f010 <___crt_xp_end__>:
  40f010:	00 00                	add    BYTE PTR [eax],al
	...

0040f014 <___xd_z>:
  40f014:	00 00                	add    BYTE PTR [eax],al
	...

Disassembly of section .tls:

00410000 <___tls_start__>:
  410000:	00 00                	add    BYTE PTR [eax],al
	...

00410004 <__tls_used>:
  410004:	01 00                	add    DWORD PTR [eax],eax
  410006:	41                   	inc    ecx
  410007:	00 1c 00             	add    BYTE PTR [eax+eax*1],bl
  41000a:	41                   	inc    ecx
  41000b:	00 38                	add    BYTE PTR [eax],bh
  41000d:	d0 40 00             	rol    BYTE PTR [eax+0x0],1
  410010:	04 f0                	add    al,0xf0
  410012:	40                   	inc    eax
	...

0041001c <__tls_end>:
  41001c:	00 00                	add    BYTE PTR [eax],al
	...

Disassembly of section .debug_aranges:

00411000 <.debug_aranges>:
  411000:	1c 00                	sbb    al,0x0
  411002:	00 00                	add    BYTE PTR [eax],al
  411004:	02 00                	add    al,BYTE PTR [eax]
  411006:	00 00                	add    BYTE PTR [eax],al
  411008:	00 00                	add    BYTE PTR [eax],al
  41100a:	04 00                	add    al,0x0
  41100c:	00 00                	add    BYTE PTR [eax],al
  41100e:	00 00                	add    BYTE PTR [eax],al
  411010:	e0 13                	loopne 411025 <.debug_aranges+0x25>
  411012:	40                   	inc    eax
  411013:	00 37                	add    BYTE PTR [edi],dh
	...

Disassembly of section .debug_info:

00412000 <.debug_info>:
  412000:	c1 01 00             	rol    DWORD PTR [ecx],0x0
  412003:	00 04 00             	add    BYTE PTR [eax+eax*1],al
  412006:	00 00                	add    BYTE PTR [eax],al
  412008:	00 00                	add    BYTE PTR [eax],al
  41200a:	04 01                	add    al,0x1
  41200c:	47                   	inc    edi
  41200d:	4e                   	dec    esi
  41200e:	55                   	push   ebp
  41200f:	20 43 20             	and    BYTE PTR [ebx+0x20],al
  412012:	34 2e                	xor    al,0x2e
  412014:	38 2e                	cmp    BYTE PTR [esi],ch
  412016:	31 20                	xor    DWORD PTR [eax],esp
  412018:	2d 6d 74 75 6e       	sub    eax,0x6e75746d
  41201d:	65 3d 67 65 6e 65    	gs cmp eax,0x656e6567
  412023:	72 69                	jb     41208e <.debug_info+0x8e>
  412025:	63 20                	arpl   WORD PTR [eax],sp
  412027:	2d 6d 61 72 63       	sub    eax,0x6372616d
  41202c:	68 3d 70 65 6e       	push   0x6e65703d
  412031:	74 69                	je     41209c <.debug_info+0x9c>
  412033:	75 6d                	jne    4120a2 <.debug_info+0xa2>
  412035:	70 72                	jo     4120a9 <.debug_info+0xa9>
  412037:	6f                   	outs   dx,DWORD PTR ds:[esi]
  412038:	20 2d 67 00 01 6d    	and    BYTE PTR ds:0x6d010067,ch
  41203e:	61                   	popa   
  41203f:	69 6e 2e 63 00 45 3a 	imul   ebp,DWORD PTR [esi+0x2e],0x3a450063
  412046:	5c                   	pop    esp
  412047:	53                   	push   ebx
  412048:	6f                   	outs   dx,DWORD PTR ds:[esi]
  412049:	75 72                	jne    4120bd <.debug_info+0xbd>
  41204b:	63 65 5c             	arpl   WORD PTR [ebp+0x5c],sp
  41204e:	47                   	inc    edi
  41204f:	69 74 48 75 62 5c 73 	imul   esi,DWORD PTR [eax+ecx*2+0x75],0x74735c62
  412056:	74 
  412057:	75 64                	jne    4120bd <.debug_info+0xbd>
  412059:	79 69                	jns    4120c4 <.debug_info+0xc4>
  41205b:	6e                   	outs   dx,BYTE PTR ds:[esi]
  41205c:	67 5c                	addr16 pop esp
  41205e:	32 30                	xor    dh,BYTE PTR [eax]
  412060:	31 37                	xor    DWORD PTR [edi],esi
  412062:	5f                   	pop    edi
  412063:	30 34 5c             	xor    BYTE PTR [esp+ebx*2],dh
  412066:	63 5f 70             	arpl   WORD PTR [edi+0x70],bx
  412069:	72 6f                	jb     4120da <.debug_info+0xda>
  41206b:	67 00 e0             	addr16 add al,ah
  41206e:	13 40 00             	adc    eax,DWORD PTR [eax+0x0]
  412071:	37                   	aaa    
  412072:	00 00                	add    BYTE PTR [eax],al
  412074:	00 00                	add    BYTE PTR [eax],al
  412076:	00 00                	add    BYTE PTR [eax],al
  412078:	00 02                	add    BYTE PTR [edx],al
  41207a:	04 07                	add    al,0x7
  41207c:	75 6e                	jne    4120ec <.debug_info+0xec>
  41207e:	73 69                	jae    4120e9 <.debug_info+0xe9>
  412080:	67 6e                	outs   dx,BYTE PTR ds:[si]
  412082:	65 64 20 69 6e       	gs and BYTE PTR fs:[ecx+0x6e],ch
  412087:	74 00                	je     412089 <.debug_info+0x89>
  412089:	02 02                	add    al,BYTE PTR [edx]
  41208b:	07                   	pop    es
  41208c:	73 68                	jae    4120f6 <.debug_info+0xf6>
  41208e:	6f                   	outs   dx,DWORD PTR ds:[esi]
  41208f:	72 74                	jb     412105 <.debug_info+0x105>
  412091:	20 75 6e             	and    BYTE PTR [ebp+0x6e],dh
  412094:	73 69                	jae    4120ff <.debug_info+0xff>
  412096:	67 6e                	outs   dx,BYTE PTR ds:[si]
  412098:	65 64 20 69 6e       	gs and BYTE PTR fs:[ecx+0x6e],ch
  41209d:	74 00                	je     41209f <.debug_info+0x9f>
  41209f:	02 01                	add    al,BYTE PTR [ecx]
  4120a1:	06                   	push   es
  4120a2:	63 68 61             	arpl   WORD PTR [eax+0x61],bp
  4120a5:	72 00                	jb     4120a7 <.debug_info+0xa7>
  4120a7:	03 5f 69             	add    ebx,DWORD PTR [edi+0x69]
  4120aa:	6f                   	outs   dx,DWORD PTR ds:[esi]
  4120ab:	62 75 66             	bound  esi,QWORD PTR [ebp+0x66]
  4120ae:	00 20                	add    BYTE PTR [eax],ah
  4120b0:	02 82 2e 01 00 00    	add    al,BYTE PTR [edx+0x12e]
  4120b6:	04 5f                	add    al,0x5f
  4120b8:	70 74                	jo     41212e <.debug_info+0x12e>
  4120ba:	72 00                	jb     4120bc <.debug_info+0xbc>
  4120bc:	02 84 2e 01 00 00 00 	add    al,BYTE PTR [esi+ebp*1+0x1]
  4120c3:	04 5f                	add    al,0x5f
  4120c5:	63 6e 74             	arpl   WORD PTR [esi+0x74],bp
  4120c8:	00 02                	add    BYTE PTR [edx],al
  4120ca:	85 34 01             	test   DWORD PTR [ecx+eax*1],esi
  4120cd:	00 00                	add    BYTE PTR [eax],al
  4120cf:	04 04                	add    al,0x4
  4120d1:	5f                   	pop    edi
  4120d2:	62 61 73             	bound  esp,QWORD PTR [ecx+0x73]
  4120d5:	65 00 02             	add    BYTE PTR gs:[edx],al
  4120d8:	86 2e                	xchg   BYTE PTR [esi],ch
  4120da:	01 00                	add    DWORD PTR [eax],eax
  4120dc:	00 08                	add    BYTE PTR [eax],cl
  4120de:	04 5f                	add    al,0x5f
  4120e0:	66 6c                	data16 ins BYTE PTR es:[edi],dx
  4120e2:	61                   	popa   
  4120e3:	67 00 02             	add    BYTE PTR [bp+si],al
  4120e6:	87 34 01             	xchg   DWORD PTR [ecx+eax*1],esi
  4120e9:	00 00                	add    BYTE PTR [eax],al
  4120eb:	0c 04                	or     al,0x4
  4120ed:	5f                   	pop    edi
  4120ee:	66 69 6c 65 00 02 88 	imul   bp,WORD PTR [ebp+eiz*2+0x0],0x8802
  4120f5:	34 01                	xor    al,0x1
  4120f7:	00 00                	add    BYTE PTR [eax],al
  4120f9:	10 04 5f             	adc    BYTE PTR [edi+ebx*2],al
  4120fc:	63 68 61             	arpl   WORD PTR [eax+0x61],bp
  4120ff:	72 62                	jb     412163 <.debug_info+0x163>
  412101:	75 66                	jne    412169 <.debug_info+0x169>
  412103:	00 02                	add    BYTE PTR [edx],al
  412105:	89 34 01             	mov    DWORD PTR [ecx+eax*1],esi
  412108:	00 00                	add    BYTE PTR [eax],al
  41210a:	14 04                	adc    al,0x4
  41210c:	5f                   	pop    edi
  41210d:	62 75 66             	bound  esi,QWORD PTR [ebp+0x66]
  412110:	73 69                	jae    41217b <.debug_info+0x17b>
  412112:	7a 00                	jp     412114 <.debug_info+0x114>
  412114:	02 8a 34 01 00 00    	add    cl,BYTE PTR [edx+0x134]
  41211a:	18 04 5f             	sbb    BYTE PTR [edi+ebx*2],al
  41211d:	74 6d                	je     41218c <.debug_info+0x18c>
  41211f:	70 66                	jo     412187 <.debug_info+0x187>
  412121:	6e                   	outs   dx,BYTE PTR ds:[esi]
  412122:	61                   	popa   
  412123:	6d                   	ins    DWORD PTR es:[edi],dx
  412124:	65 00 02             	add    BYTE PTR gs:[edx],al
  412127:	8b 2e                	mov    ebp,DWORD PTR [esi]
  412129:	01 00                	add    DWORD PTR [eax],eax
  41212b:	00 1c 00             	add    BYTE PTR [eax+eax*1],bl
  41212e:	05 04 9f 00 00       	add    eax,0x9f04
  412133:	00 02                	add    BYTE PTR [edx],al
  412135:	04 05                	add    al,0x5
  412137:	69 6e 74 00 06 46 49 	imul   ebp,DWORD PTR [esi+0x74],0x49460600
  41213e:	4c                   	dec    esp
  41213f:	45                   	inc    ebp
  412140:	00 02                	add    BYTE PTR [edx],al
  412142:	8c a7 00 00 00 02    	mov    WORD PTR [edi+0x2000000],fs
  412148:	08 05 6c 6f 6e 67    	or     BYTE PTR ds:0x676e6f6c,al
  41214e:	20 6c 6f 6e          	and    BYTE PTR [edi+ebp*2+0x6e],ch
  412152:	67 20 69 6e          	and    BYTE PTR [bx+di+0x6e],ch
  412156:	74 00                	je     412158 <.debug_info+0x158>
  412158:	02 04 05 6c 6f 6e 67 	add    al,BYTE PTR [eax*1+0x676e6f6c]
  41215f:	20 69 6e             	and    BYTE PTR [ecx+0x6e],ch
  412162:	74 00                	je     412164 <.debug_info+0x164>
  412164:	02 02                	add    al,BYTE PTR [edx]
  412166:	05 73 68 6f 72       	add    eax,0x726f6873
  41216b:	74 20                	je     41218d <.debug_info+0x18d>
  41216d:	69 6e 74 00 02 04 07 	imul   ebp,DWORD PTR [esi+0x74],0x7040200
  412174:	6c                   	ins    BYTE PTR es:[edi],dx
  412175:	6f                   	outs   dx,DWORD PTR ds:[esi]
  412176:	6e                   	outs   dx,BYTE PTR ds:[esi]
  412177:	67 20 75 6e          	and    BYTE PTR [di+0x6e],dh
  41217b:	73 69                	jae    4121e6 <.debug_info+0x1e6>
  41217d:	67 6e                	outs   dx,BYTE PTR ds:[si]
  41217f:	65 64 20 69 6e       	gs and BYTE PTR fs:[ecx+0x6e],ch
  412184:	74 00                	je     412186 <.debug_info+0x186>
  412186:	07                   	pop    es
  412187:	6d                   	ins    DWORD PTR es:[edi],dx
  412188:	61                   	popa   
  412189:	69 6e 00 01 03 34 01 	imul   ebp,DWORD PTR [esi+0x0],0x1340301
  412190:	00 00                	add    BYTE PTR [eax],al
  412192:	e0 13                	loopne 4121a7 <.debug_info+0x1a7>
  412194:	40                   	inc    eax
  412195:	00 37                	add    BYTE PTR [edi],dh
  412197:	00 00                	add    BYTE PTR [eax],al
  412199:	00 01                	add    BYTE PTR [ecx],al
  41219b:	9c                   	pushf  
  41219c:	ad                   	lods   eax,DWORD PTR ds:[esi]
  41219d:	01 00                	add    DWORD PTR [eax],eax
  41219f:	00 08                	add    BYTE PTR [eax],cl
  4121a1:	69 00 01 04 34 01    	imul   eax,DWORD PTR [eax],0x1340401
  4121a7:	00 00                	add    BYTE PTR [eax],al
  4121a9:	02 74 1c 00          	add    dh,BYTE PTR [esp+ebx*1+0x0]
  4121ad:	09 3b                	or     DWORD PTR [ebx],edi
  4121af:	01 00                	add    DWORD PTR [eax],eax
  4121b1:	00 b8 01 00 00 0a    	add    BYTE PTR [eax+0xa000001],bh
  4121b7:	00 0b                	add    BYTE PTR [ebx],cl
  4121b9:	5f                   	pop    edi
  4121ba:	69 6f 62 00 02 9b ad 	imul   ebp,DWORD PTR [edi+0x62],0xad9b0200
  4121c1:	01 00                	add    DWORD PTR [eax],eax
	...

Disassembly of section .debug_abbrev:

00413000 <.debug_abbrev>:
  413000:	01 11                	add    DWORD PTR [ecx],edx
  413002:	01 25 08 13 0b 03    	add    DWORD PTR ds:0x30b1308,esp
  413008:	08 1b                	or     BYTE PTR [ebx],bl
  41300a:	08 11                	or     BYTE PTR [ecx],dl
  41300c:	01 12                	add    DWORD PTR [edx],edx
  41300e:	06                   	push   es
  41300f:	10 17                	adc    BYTE PTR [edi],dl
  413011:	00 00                	add    BYTE PTR [eax],al
  413013:	02 24 00             	add    ah,BYTE PTR [eax+eax*1]
  413016:	0b 0b                	or     ecx,DWORD PTR [ebx]
  413018:	3e 0b 03             	or     eax,DWORD PTR ds:[ebx]
  41301b:	08 00                	or     BYTE PTR [eax],al
  41301d:	00 03                	add    BYTE PTR [ebx],al
  41301f:	13 01                	adc    eax,DWORD PTR [ecx]
  413021:	03 08                	add    ecx,DWORD PTR [eax]
  413023:	0b 0b                	or     ecx,DWORD PTR [ebx]
  413025:	3a 0b                	cmp    cl,BYTE PTR [ebx]
  413027:	3b 0b                	cmp    ecx,DWORD PTR [ebx]
  413029:	01 13                	add    DWORD PTR [ebx],edx
  41302b:	00 00                	add    BYTE PTR [eax],al
  41302d:	04 0d                	add    al,0xd
  41302f:	00 03                	add    BYTE PTR [ebx],al
  413031:	08 3a                	or     BYTE PTR [edx],bh
  413033:	0b 3b                	or     edi,DWORD PTR [ebx]
  413035:	0b 49 13             	or     ecx,DWORD PTR [ecx+0x13]
  413038:	38 0b                	cmp    BYTE PTR [ebx],cl
  41303a:	00 00                	add    BYTE PTR [eax],al
  41303c:	05 0f 00 0b 0b       	add    eax,0xb0b000f
  413041:	49                   	dec    ecx
  413042:	13 00                	adc    eax,DWORD PTR [eax]
  413044:	00 06                	add    BYTE PTR [esi],al
  413046:	16                   	push   ss
  413047:	00 03                	add    BYTE PTR [ebx],al
  413049:	08 3a                	or     BYTE PTR [edx],bh
  41304b:	0b 3b                	or     edi,DWORD PTR [ebx]
  41304d:	0b 49 13             	or     ecx,DWORD PTR [ecx+0x13]
  413050:	00 00                	add    BYTE PTR [eax],al
  413052:	07                   	pop    es
  413053:	2e 01 3f             	add    DWORD PTR cs:[edi],edi
  413056:	19 03                	sbb    DWORD PTR [ebx],eax
  413058:	08 3a                	or     BYTE PTR [edx],bh
  41305a:	0b 3b                	or     edi,DWORD PTR [ebx]
  41305c:	0b 27                	or     esp,DWORD PTR [edi]
  41305e:	19 49 13             	sbb    DWORD PTR [ecx+0x13],ecx
  413061:	11 01                	adc    DWORD PTR [ecx],eax
  413063:	12 06                	adc    al,BYTE PTR [esi]
  413065:	40                   	inc    eax
  413066:	18 96 42 19 01 13    	sbb    BYTE PTR [esi+0x13011942],dl
  41306c:	00 00                	add    BYTE PTR [eax],al
  41306e:	08 34 00             	or     BYTE PTR [eax+eax*1],dh
  413071:	03 08                	add    ecx,DWORD PTR [eax]
  413073:	3a 0b                	cmp    cl,BYTE PTR [ebx]
  413075:	3b 0b                	cmp    ecx,DWORD PTR [ebx]
  413077:	49                   	dec    ecx
  413078:	13 02                	adc    eax,DWORD PTR [edx]
  41307a:	18 00                	sbb    BYTE PTR [eax],al
  41307c:	00 09                	add    BYTE PTR [ecx],cl
  41307e:	01 01                	add    DWORD PTR [ecx],eax
  413080:	49                   	dec    ecx
  413081:	13 01                	adc    eax,DWORD PTR [ecx]
  413083:	13 00                	adc    eax,DWORD PTR [eax]
  413085:	00 0a                	add    BYTE PTR [edx],cl
  413087:	21 00                	and    DWORD PTR [eax],eax
  413089:	00 00                	add    BYTE PTR [eax],al
  41308b:	0b 34 00             	or     esi,DWORD PTR [eax+eax*1]
  41308e:	03 08                	add    ecx,DWORD PTR [eax]
  413090:	3a 0b                	cmp    cl,BYTE PTR [ebx]
  413092:	3b 0b                	cmp    ecx,DWORD PTR [ebx]
  413094:	49                   	dec    ecx
  413095:	13 3f                	adc    edi,DWORD PTR [edi]
  413097:	19 3c 19             	sbb    DWORD PTR [ecx+ebx*1],edi
  41309a:	00 00                	add    BYTE PTR [eax],al
	...

Disassembly of section .debug_line:

00414000 <.debug_line>:
  414000:	61                   	popa   
  414001:	00 00                	add    BYTE PTR [eax],al
  414003:	00 02                	add    BYTE PTR [edx],al
  414005:	00 39                	add    BYTE PTR [ecx],bh
  414007:	00 00                	add    BYTE PTR [eax],al
  414009:	00 01                	add    BYTE PTR [ecx],al
  41400b:	01 fb                	add    ebx,edi
  41400d:	0e                   	push   cs
  41400e:	0d 00 01 01 01       	or     eax,0x1010100
  414013:	01 00                	add    DWORD PTR [eax],eax
  414015:	00 00                	add    BYTE PTR [eax],al
  414017:	01 00                	add    DWORD PTR [eax],eax
  414019:	00 01                	add    BYTE PTR [ecx],al
  41401b:	63 3a                	arpl   WORD PTR [edx],di
  41401d:	2f                   	das    
  41401e:	6d                   	ins    DWORD PTR es:[edi],dx
  41401f:	69 6e 67 77 2f 69 6e 	imul   ebp,DWORD PTR [esi+0x67],0x6e692f77
  414026:	63 6c 75 64          	arpl   WORD PTR [ebp+esi*2+0x64],bp
  41402a:	65 00 00             	add    BYTE PTR gs:[eax],al
  41402d:	6d                   	ins    DWORD PTR es:[edi],dx
  41402e:	61                   	popa   
  41402f:	69 6e 2e 63 00 00 00 	imul   ebp,DWORD PTR [esi+0x2e],0x63
  414036:	00 73 74             	add    BYTE PTR [ebx+0x74],dh
  414039:	64 69 6f 2e 68 00 01 	imul   ebp,DWORD PTR fs:[edi+0x2e],0x10068
  414040:	00 
  414041:	00 00                	add    BYTE PTR [eax],al
  414043:	00 05 02 e0 13 40    	add    BYTE PTR ds:0x4013e002,al
  414049:	00 14 90             	add    BYTE PTR [eax+edx*4],dl
  41404c:	5b                   	pop    ebx
  41404d:	00 02                	add    BYTE PTR [edx],al
  41404f:	04 02                	add    al,0x2
  414051:	9f                   	lahf   
  414052:	00 02                	add    BYTE PTR [edx],al
  414054:	04 02                	add    al,0x2
  414056:	b9 00 02 04 01       	mov    ecx,0x1040200
  41405b:	06                   	push   es
  41405c:	58                   	pop    eax
  41405d:	06                   	push   es
  41405e:	76 59                	jbe    4140b9 <.debug_line+0xb9>
  414060:	02 02                	add    al,BYTE PTR [edx]
  414062:	00 01                	add    BYTE PTR [ecx],al
  414064:	01                   	.byte 0x1
